kd:_glClearStencil
Gul:_Array_Resize_TisByte_t1134296376_m80436779_gshared
lrk:_UInt16_System_IConvertible_ToChar_m2096055221_AdjustorThunk
ZOi:_MaskableGraphic_OnCanvasHierarchyChanged_m1780820310
k4h:_Array_TrueForAll_TisRuntimeObject_m1084992726_gshared
mSd:__ZN5physx2Gu19gjkLocalPenetrationINS0_8CapsuleVENS0_17ShrunkConvexHullVEEEjRKT_RKT0_RKNS_6shdfnd3aos6FloatVERNSB_5Vec3VESG_SG_RSC_PhSI_Rhb
Die:__ZN5physx2Sc27ConstraintProjectionManager29removeFromPendingGroupUpdatesERNS0_13ConstraintSimE
t9l:_List_1_Contains_m2043664690_gshared
DIn:__ZN6il2cpp2vm5Array13GetByteLengthEP11Il2CppArray
Bsl:_Array_InternalArray__set_Item_TisDateTime_t3738529785_m1331437427_gshared
fKm:_KeyBuilder_get_Rng_m3373220441
wXo:__ZL102Image_t2670269651_CustomAttributesCacheGenerator_Image_t2670269651____eventAlphaThreshold_PropertyInfoP21CustomAttributesCache
x$h:_CompilerGeneratedAttribute__ctor_m3151881902
DPf:__ZN15DownloadHandler7OnAbortEv
g6e:__ZN5physx15PxsCCDSweepTaskD0Ev
vAa:__Z30GetIntermediateRendererManagerv
cLg:_MonoMethodMessage_GetArg_m2932717642
OTm:__ZL25UnresolvedVirtualCall_170P12Il2CppObject15Ray_t3785851493S0_fiPK10MethodInfo
B0l:_U3CCreateWhereIteratorU3Ec__Iterator1D_1_System_Collections_Generic_IEnumeratorU3CTSourceU3E_get_Current_m1909387290_gshared
$Ua:__Z21SourceMipLevelForBlitiiii
zGa:__ZN31CanvasBatchIntermediateRenderer15AddAsRenderNodeER15RenderNodeQueueRK20DeprecatedSourceData
ocj:_Dictionary_2_Do_ICollectionCopyTo_TisInt32_t2950945753_m2590022749_gshared
nok:_TimeSpan_get_Hours_m550761902
KSo:__ZL95CanvasRenderer_t2598313366_CustomAttributesCacheGenerator_CanvasRenderer_SetMaterial_m824577244P21CustomAttributesCache
QOo:__ZL72GUISkin_t1244372282_CustomAttributesCacheGenerator_m_verticalSliderThumbP21CustomAttributesCache
$mc:__ZN9ShaderLab9SubShader15FindNamedPassesERKN4core12basic_stringIcNS1_20StringStorageDefaultIcEEEER13dynamic_arrayIPNS_4PassELj0EE
yYk:_Capture_get_Index_m745081289
aGo:__ZL63PlayableOutputHandle_t4208053793_CustomAttributesCacheGeneratorP21CustomAttributesCache
y0:__ZN11UnityEngine15CloudWebService26CloudServiceEventWithParam12ToJsonStringER9JSONWrite
gvg:_CanvasScaler_get_defaultSpriteDPI_m871626936
lLf:__ZN11UnityEngine7Connect14AppUpdateEventD0Ev
kwc:__Z59Register_UnityEngine_PlayerConnectionInternal_DisconnectAllv
Fbo:__ZL66RuntimeArray_CustomAttributesCacheGenerator_Array_Sort_m3287581440P21CustomAttributesCache
UNm:_AnalyticsEventTracker_SendEvent_m1365958832
FMe:__ZNK5physx2Sc5Scene24getContactModifyCallbackEv
i4:__ZdlPv
Nt:__ZN11UnityEngine9Animation28GenericAnimationBindingCacheD2Ev
MPe:__ZN5physx2Sq10AABBPruner10addObjectsEPjPKNS_9PxBounds3EPKNS0_13PrunerPayloadEj
fsm:_X509Store_LoadCrl_m1881903843
Jaj:_Array_Sort_TisUICharInfo_t75501106_TisUICharInfo_t75501106_m722747892_gshared
Wvn:_il2cpp_runtime_unhandled_exception_policy_set
L7i:_CaseInsensitiveComparer__ctor_m2101975011
gTg:__Z67RuntimeInvoker_Byte_t1134296376_Int32_t2950945753_Int32_t2950945753PFvvEPK10MethodInfoPvPS4_
HRg:__Z53RuntimeInvoker_UInt32_t2560061978_Decimal_t2948259380PFvvEPK10MethodInfoPvPS4_
jc:invoke_viiiifiiiiif
Ucc:__Z18RestoreRenderStateR20CameraRenderOldStateR17ShaderPassContext
iDb:__Z18Transfer_BlittableI18StreamedBinaryReadILb1EELb1E5RectTIfEEvRK29SerializationCommandArgumentsR31RuntimeSerializationCommandInfo
Xyb:__Z18Transfer_BlittableI24GenerateTypeTreeTransferLb0E11ColorRGBA32EvRK29SerializationCommandArgumentsR31RuntimeSerializationCommandInfo
Lvi:_Material_GetVector_m2472259403
aIb:__Z25scripting_class_from_name17ScriptingImagePtrPKcS1_
REm:_InflateManager_Initialize_m107944087
rrl:_Array_InternalArray__Insert_TisSingle_t1397266774_m3161726127_gshared
wvm:_TMP_XmlTagStack_1_Add_m479786267_AdjustorThunk
Esn:__ZN14dense_hash_mapI10KeyWrapperINSt3__24pairIPK12PropertyInfoP11Il2CppClassEEEj17ReflectionMapHashIS8_ENS9_14EqualsComparerINS1_8equal_toIS8_EEEENS1_9allocatorINS2_IKS9_jEEEEE15set_deleted_keyERSH_
UJb:__Z29scripting_class_enum_basetype17ScriptingClassPtr
a3d:__ZN5physx6shdfnd8PoolBaseINS_2Sc10NPhaseCore16ClothListElementENS0_19ReflectionAllocatorIS4_EEE17releaseEmptySlabsEv
Ref:__Z20GetPhysicsModuleSpecv
QWc:__ZN6IDList10BeginOnGUIEv
T3h:_Array_InternalArray__ICollection_Remove_TisColor_t2555686324_m1658001816_gshared
wza:__ZNK12BaseRenderer18GetRenderNodeCountEv
tvd:__ZN16PhysicsManager2D7RaycastERK3RayfiR12RaycastHit2D
_kn:_WWW__ctor_m2915079343
K6e:__ZN5physx2Sc14ConstraintCore10breakApartEv
GQg:__Z64RuntimeInvoker_RuntimeObject_Int32_t2950945753_Int16_t2552820387PFvvEPK10MethodInfoPvPS4_
uma:__ZL43__ManagedRegistrationHelperFunction_TexturePv
x3f:_TMP_SubMesh_UpdateMeshPadding_m2529023756
z8h:_Array_InternalArray__IndexOf_TisKeyValuePair_2_t625878672_m2693022864_gshared
VHh:_InternalEnumerator_1_get_Current_m1477715453_gshared
B8n:_TMP_ExampleScript_01_Update_m1912934944
u8k:_Enumerator__ctor_m2827156589_AdjustorThunk
Lgb:__ZNK20LocalFileSystemPosix6ParentERK13FileEntryDataRN4core12basic_stringIcNS3_20StringStorageDefaultIcEEEE
rEi:_RectTransform_GetWorldCorners_m3553547973
tdf:__ZN5physx7Cooking20loadTriangleMeshDescERKNS_18PxTriangleMeshDescERNS_19TriangleMeshBuilderE
_km:_Collection_1_System_Collections_IList_Remove_m1476284619_gshared
buk:_ContractionComparer__ctor_m3439667810
wml:_List_1_Find_m279961672_gshared
Lyj:_MonoType_IsPrimitiveImpl_m2401722705
FFj:_SHA1CryptoServiceProvider__ctor_m4195188793
xsn:__ZN15dense_hashtableINSt3__24pairIK10KeyWrapperINS1_IPK9EventInfoP11Il2CppClassEEEjEES9_17ReflectionMapHashIS8_EN14dense_hash_mapIS9_jSD_NS9_14EqualsComparerINS0_8equal_toIS8_EEEENS0_9allocatorISB_EEE9SelectKeyESI_SK_E15set_deleted_keyERKSB_
Ipa:__ZN9Scripting11UnityEngine9Profiling8Recorder12CleanupProxyEv
dso:__ZL64MissingFieldException_t1989070983_CustomAttributesCacheGeneratorP21CustomAttributesCache
_zg:_Graphic_get_defaultGraphicMaterial_m3107284931
OSe:__ZNK5physx2Gu29EPASupportMapPairRelativeImplINS0_9TriangleVENS0_4BoxVEE6getDirEv
iHb:__ZN18StreamedBinaryReadILb0EE21TransferSTLStyleArrayI13dynamic_arrayI11ColorRGBA32Lj0EEEEvRT_17TransferMetaFlags
Ryg:_Dropdown_Hide_m504034854
bBj:_NumberFormatter_NumberToString_m264078176
pqa:__ZN9Scripting11UnityEngine20ManagedStreamHelpers9InitProxyEv
IYm:_Vector2_get_up_m2647420593
JTb:__ZN7ApiGLES17CopyBufferSubDataEjjlll
Spl:_Array_InternalArray__ICollection_CopyTo_TisUInt64_t4134040092_m691431926_gshared
Fkm:__ZN23InterfaceActionInvoker2Ii22OrderBlock_t1585977831E6InvokeEjP11Il2CppClassP12Il2CppObjectiS0_
Tei:_IPAddress_ToString_m1181734207
Q4n:_KeyEnumerator_get_Current_m485720715
lAf:__Z48Register_UnityEngine_TextMesh_INTERNAL_get_colorv
ujk:_StringBuilder_Append_m1965104174
WYc:__ZN5Unity9rapidjson15GenericDocumentINS0_4UTF8IcEE13JSONAllocatorS4_E11ParseStreamILj1ES3_NS0_25GenericInsituStringStreamIS3_EEEERS5_RT1_
Uan:__ZNSt3__26vectorIPK10Il2CppTypeNS_9allocatorIS3_EEE7reserveEj
pCl:_EqualityComparer_1__cctor_m3766928733_gshared
IFl:_GenericComparer_1__ctor_m2809113506_gshared
S9j:_DateTime__ctor_m2956360140
CX:__ZN11AudioModule26SetDefaultMicrophoneDriverEPv
rve:__ZNK5physx15NpActorTemplateINS_15PxParticleFluidEE22getClientBehaviorFlagsEv
rhj:_Kernel_modInverse_m652700340
tRa:__ZNK14Texture2DArray26CanReuploadDataToGfxDeviceEv
Zxm:_InvokableCall_3_remove_Delegate_m1676240702_gshared
a1o:__ZL69TMP_Dropdown_t3024694699_CustomAttributesCacheGenerator_m_CaptionTextP21CustomAttributesCache
CSo:__ZL57CanvasRenderer_t2598313366_CustomAttributesCacheGeneratorP21CustomAttributesCache
Uxa:__ZN17GlobalGameManager23VirtualRedirectTransferER17RemapPPtrTransfer
Rvf:_sfnt_stream_close
QEb:__ZN18StreamedBinaryReadILb1EE8TransferI13dynamic_arrayIsLj0EEEEvRT_PKc17TransferMetaFlags
ucl:_List_1_System_Collections_Generic_ICollectionU3CTU3E_get_IsReadOnly_m1990628894_gshared
YXc:__ZN5IMGUI18RepaintModalWindowER8GUIState
ucm:_Collection_1_InsertItem_m578029531_gshared
o7f:_TMP_Text_SetFontBaseMaterial_m3898558333
tbi:_HybridDictionary_get_IsSynchronized_m2987560362
Puh:_InternalEnumerator_1_Dispose_m2258333122_AdjustorThunk
tDa:__ZNK15dense_hashtableINSt3__24pairIKN9ShaderLab7Program23ShaderKeywordSetAndHashEPKNS2_10SubProgramEEES4_NS3_24ShaderKeywordHashFunctorEN14dense_hash_mapIS4_S8_SA_NS0_8equal_toIS4_EE13stl_allocatorIS9_L18MemLabelIdentifier67ELi16EEE9SelectKeyESD_SG_E23find_position_with_hashERS5_j
Sch:__Z59RuntimeInvoker_Boolean_t97287965_ArraySegment_1_t2229370775PFvvEPK10MethodInfoPvPS4_
zRj:_CompareInfo_Finalize_m404687489
VZa:__Z23SetSpriteMeshIndexCountP14SharedMeshDataj
qlk:_UTF8Decoder_GetChars_m1236346907
xXf:_TMP_FontAsset_HasCharacters_m3087390417
GLo:__ZL99AudioSource_t3935305588_CustomAttributesCacheGenerator_AudioSource_t3935305588____clip_PropertyInfoP21CustomAttributesCache
PMn:__ZN6il2cpp8metadata13GenericMethod9GetMethodEPK19Il2CppGenericMethod
vs:__ZNSt3__26vectorIN4core12basic_stringIcNS1_20StringStorageDefaultIcEEEENS_9allocatorIS5_EEE7reserveEj
FDj:_Default_SelectProperty_m1220817815
ADg:_RemotingConfiguration_IsRemotelyActivatedClientType_m4117048589
oIi:_Transform_TransformPoint_m226827784
xCm:_ListPool_1_Get_m738675669_gshared
kGn:__ZNSt3__26__treeINS_12__value_typeIjN6il2cpp2os17SocketHandleEntryEEENS_19__map_value_compareIjS5_NS_4lessIjEELb1EEENS_9allocatorIS5_EEE25__emplace_unique_key_argsIjJNS_4pairIKjS4_EEEEENSE_INS_15__tree_iteratorIS5_PNS_11__tree_nodeIS5_PvEEiEEbEERKT_DpOT0_
IPb:__ZN13GfxDeviceGLES11SetViewportERK5RectTIiE
ppd:__Z19UpdateSingleRow2TplIL27ParticleSystemCurveEvalMode3ELS0_2EEvfRK11MinMaxCurveS3_RK23ParticleSystemParticlesPfbiii
Rap:__ZL135U3CAnimateVertexColorsU3Ec__Iterator0_t956521787_CustomAttributesCacheGenerator_U3CAnimateVertexColorsU3Ec__Iterator0__ctor_m3442072150P21CustomAttributesCache
xlg:_TextMeshPro_set_sortingOrder_m8809902
dTc:__Z24Time_Get_Custom_PropTimev
oae:__ZN5physx3Scb5Scene14addRigidStaticERNS0_11RigidStaticEb
Ee:_emscripten_glDepthRange
Fmm:_SslStreamBase_BeginNegotiateHandshake_m4180435790
Ukf:__ZN9Scripting11UnityEngine10UILineInfo12CleanupProxyEv
zXd:__ZN5physx2Gu24contactConvexHeightfieldERKNS0_13GeometryUnionES3_RKNS_11PxTransformES6_RKfRNS0_5CacheERNS0_13ContactBufferE
H7d:__ZN5physx6shdfnd5ArrayIPvNS0_19ReflectionAllocatorINS_2Cm5BlockIS2_Lj8EEEEEE15growAndPushBackERKS2_
lfc:__ZNSt3__26vectorINS_4pairIN4core12basic_stringIcNS2_20StringStorageDefaultIcEEEES6_EE13stl_allocatorIS7_L18MemLabelIdentifier38ELi16EEE12__move_rangeEPS7_SC_SC_
Ajc:__Z14resize_trimmedINSt3__26vectorIN9ShaderLab20SerializedSubProgram12UAVParameterENS0_9allocatorIS4_EEEEEvRT_j
aZc:__ZN5Unity9rapidjson13GenericReaderINS0_4UTF8IcEES3_13JSONAllocatorE11ParseObjectILj1ENS0_25GenericInsituStringStreamIS3_EENS0_15GenericDocumentIS3_S4_S4_EEEEvRT0_RT1_
oLc:__Z10DestripifyPKjjRNSt3__26vectorIj13stl_allocatorIjL18MemLabelIdentifier1ELi16EEEE
utg:_StandaloneInputModule_GetRawMoveVector_m2737091079
nvm:_TMP_XmlTagStack_1_Pop_m3298593939_AdjustorThunk
fZo:__ZL62Selectable_t3250028441_CustomAttributesCacheGenerator_m_ColorsP21CustomAttributesCache
VRb:__ZThn10632_N13GfxDeviceGLES22SetScissorRectPlatformERK5RectTIiE
mnm:_SslStreamBase_EndWrite_m4073224031
oca:__ZNSt3__218__insertion_sort_3IRNS_6__lessI14ObjectLoadDataS2_EEPS2_EEvT0_S6_T_
RNo:__ZL92Event_t2956885303_CustomAttributesCacheGenerator_Event_Internal_GetMousePosition_m1101229675P21CustomAttributesCache
fnl:_List_1_System_Collections_ICollection_get_SyncRoot_m1244917400_gshared
Qma:__ZL50__ManagedRegistrationHelperFunction_PostLateUpdatePv
CUa:__ZN4crndL20crnd_default_reallocEPvjPjbS0_
Flh:__Z54RuntimeInvoker_CustomAttributeNamedArgument_t287865710PFvvEPK10MethodInfoPvPS4_
WGo:__ZL122SupportedRenderingFeatures_t353898663_CustomAttributesCacheGenerator_U3CrendererSupportsReflectionProbesU3Ek__BackingFieldP21CustomAttributesCache
QXe:__ZN5physx24PxsComputeAABBLocalSpaceERKNS_18PxcAABBDataDynamicERNS_9PxBounds3E
G0h:_Array_get_swapper_TisProgressHandler_t926933139_m2329401730_gshared
b$a:__ZN18SpriteAtlasManager19AddRequestingSpriteE4PPtrI6SpriteE
Ysm:_Predicate_1_EndInvoke_m3987519925_gshared
oJc:__Z20IsValidRealtimeLightRK15SharedLightData9LightTypej
gPo:__ZL102GUIStyle_t3956901511_CustomAttributesCacheGenerator_GUIStyle_INTERNAL_CALL_GetRectOffsetPtr_m152975056P21CustomAttributesCache
nS:__ZNK4PPtrI9AudioClipEptEv
vwj:_UnmanagedMemoryStream_Write_m930787521
Zbc:__ZN23ScriptableRenderContextC2Ev
DBg:_GridLayoutGroup_get_spacing_m2409263614
OAa:__ZN4PPtrI13RenderTextureE8TransferI18StreamedBinaryReadILb0EEEEvRT_
Lhl:_List_1_CheckIndex_m581273900_gshared
Gxf:_UNITY_FT_Stream_GetChar
RIm:_GUIStyle_get_fixedWidth_m2576616348
NCm:_ObjectPool_1_get_countAll_m819305395_gshared
JDb:__Z18Transfer_BlittableI18StreamedBinaryReadILb1EELb1EdEvRK29SerializationCommandArgumentsR31RuntimeSerializationCommandInfo
V4l:_List_1_ToArray_m190175978_gshared
lBj:_NumberFormatter_NumberToString_m655666043
tai:_Enumerable_ThenByDescending_TisRuntimeObject_TisInt32_t2950945753_m267759832_gshared
ecp:_TMPro_InstructionOverlay__ctor_m2020557448
oQe:__ZN5physx6shdfnd8internal8HashBaseINS0_4PairIKNS_2Sq13PrunerPayloadEjEES5_NS0_4HashIS5_EENS1_11HashMapBaseIS5_jS9_NS0_9AllocatorEE6GetKeyESB_Lb1EE5eraseERS6_
$Jb:__Z26BuildSerializationCacheFor17ScriptingClassPtrRb
kMj:_String_Split_m3646115398
gum:_FastAction_2_Call_m3751671956_gshared
h1o:__ZL107TMP_Dropdown_t3024694699_CustomAttributesCacheGenerator_TMP_Dropdown_DelayedDestroyDropdownList_m3819381472P21CustomAttributesCache
Apg:_EventSystem_get_firstSelectedGameObject_m1576206896
cjg:_FloatTween_TweenValue_m554509216
EVb:__ZN7ApiGLES15BlitFramebufferEN2gl6HandleILNS0_10ObjectTypeE9EEENS0_15FramebufferReadES3_S3_iiiiiiiiNS0_15FramebufferTypeE
g8e:__ZN5physx13GuMeshFactory16createConvexMeshERNS_13PxInputStreamE
khf:__ZN5physx6shdfnd8internal8HashBaseINS0_4PairIKPKcjEES5_NS0_4HashIS5_EENS1_11HashMapBaseIS5_jS9_NS_7profile26WrapperReflectionAllocatorIjEEE6GetKeyESD_Lb1EE6createERS6_Rb
m0g:__Z112RuntimeInvoker_RuntimeObject_RuntimeObject_RuntimeObject_RuntimeObject_RuntimeObject_RuntimeObject_RuntimeObjectPFvvEPK10MethodInfoPvPS4_
iHh:_InternalEnumerator_1_System_Collections_IEnumerator_get_Current_m3553395619_AdjustorThunk
ieo:__ZL70AssemblyVersionCompatibility_t766556580_CustomAttributesCacheGeneratorP21CustomAttributesCache
uFo:__ZL60ReadOnlyAttribute_t3518714744_CustomAttributesCacheGeneratorP21CustomAttributesCache
KJi:_InputField_get_lineType_m2468966434
rEl:_EqualityComparer_1__cctor_m818408565_gshared
NGg:_ServerContextTerminatorSink__ctor_m2519287841
a$m:_RequestHelper_set_Uri_m1421599463
awg:_ColorBlock_set_highlightedColor_m2089444414_AdjustorThunk
Weh:__Z59RuntimeInvoker_Boolean_t97287965_X509ChainStatus_t133602714PFvvEPK10MethodInfoPvPS4_
e6k:_Enumerator_MoveNext_m880141662_AdjustorThunk
S3g:__Z52RuntimeInvoker_Boolean_t97287965_Vector3_t3722313464PFvvEPK10MethodInfoPvPS4_
I4f:_TMP_Text_get_alpha_m1443805135
ppj:_Context_EndSwitchingSecurityParameters_m4148956166
Rsf:_otv_PairPos_validate
$oo:__ZL63ThreadStateException_t3003788475_CustomAttributesCacheGeneratorP21CustomAttributesCache
Tdi:_EndPoint_Create_m1199447448
aA:__ZN7mecanim9animation14CopyHumanPosesEPKNS0_18AnimationNodeStateEPS1_RKNS_6bitsetILj83EEE
zvg:__ZN23InterfaceActionInvoker1IiE6InvokeEjP11Il2CppClassP12Il2CppObjecti
Ekn:__ZN6il2cpp6icalls8mscorlib6SystemL8IsStaticEPK12PropertyInfo
eLb:__Z9InitInputv
Qrn:__ZN30dense_hashtable_const_iteratorINSt3__24pairIK10KeyWrapperIPK22Il2CppGenericParameterEPK24MonoGenericParameterInfoEES6_N6il2cpp5utils11PointerHashIS4_EEN14dense_hash_mapIS6_SA_SF_NS6_14EqualsComparerINS0_8equal_toIS5_EEEENS0_9allocatorISB_EEE9SelectKeyESK_SM_E30advance_past_empty_and_deletedEv
S_f:_TMP_InputField_FindtPrevWordBegin_m2238803771
aza:__ZN17TransformInternal36OnScaleChangedCalculateTransformTypeE15TransformAccess
e8e:__ZNK5physx13GuMeshFactory15getConvexMeshesEPPNS_12PxConvexMeshEjj
aon:__ZN6il2cpp2gc19AppendOnlyGCHashMapINSt3__24pairIPK10MethodInfoP11Il2CppClassEEP22Il2CppReflectionMethod17ReflectionMapHashIS9_ENS2_8equal_toIS9_EEE3AddERKS9_SB_
Kkb:__ZN16MemoryFileSystem6DeleteER13FileEntryDatab
BWg:__Z81RuntimeInvoker_Void_t1185182177_RuntimeObject_Int64_t3736567304_Int32_t2950945753PFvvEPK10MethodInfoPvPS4_
Xil:_List_1_set_Item_m1979164443_gshared
Uai:_Array_InternalArray__ICollection_Add_TisLink_t3209266973_m77922316_gshared
KRa:__ZL21BlitScaleStbImageImplRK14ImageReferenceRS_NS_10ColorSpaceE
x4o:__ZL70TMP_Text_t2599618874_CustomAttributesCacheGenerator_m_characterSpacingP21CustomAttributesCache
Lme:__ZN5physx10NpMaterial17setStaticFrictionEf
fed:__Z9UpdateTplIL27ParticleSystemCurveEvalMode0EEvRK11MinMaxCurveS3_S3_R23ParticleSystemParticlesjjRKN4math8float3x3ERKNS6_7_float4E
HHe:__ZNK5physx7NpScene18getStaticStructureEv
su:__ZL48__ManagedRegistrationHelperFunction_SkeletonBonePv
ung:_TextMeshProUGUI_OnEnable_m1040268881
dHe:__ZNK5physx7NpScene19getFilterShaderDataEv
RJi:_InputField_get_keyboardType_m1248105267
Nub:__Z29Transfer_Blittable_ArrayFieldI14SafeBinaryReadyEvRT_R9ArrayInfoRK23StaticTransferFieldInfo
uS:__ZN20SoundChannelInstance15setChannelGroupEPN4FMOD12ChannelGroupE
mwm:_U3CStartU3Ec__Iterator0_System_Collections_IEnumerator_get_Current_m1717600784_gshared
tZk:_Match__ctor_m2425511580
zzk:_KeyPairPersistence_Remove_m1876145547
nfo:__ZL63FileNotFoundException_t225391025_CustomAttributesCacheGeneratorP21CustomAttributesCache
Mhe:__ZN5physx2Sc19ShapeInstancePairLL26onPoseChangedWhileSleepingEv
o6h:_Array_InternalArray__IEnumerable_GetEnumerator_TisTMP_LineInfo_t1079631636_m1406321289_gshared
DHo:__ZL84Behaviour_t1437897464_CustomAttributesCacheGenerator_Behaviour_set_enabled_m20417929P21CustomAttributesCache
Fad:__ZN12LightsModule13AwakeFromLoadEP14ParticleSystemRK27ParticleSystemReadOnlyState
Y$f:_TMP_LinkInfo_GetLinkText_m1788600626_AdjustorThunk
XRe:__ZN5physx22PxcSweepCapsuleCapsuleERKNS_11PxsCCDShapeES2_PKNS_12PxsRigidBodyES5_RKNS_11PxTransformES8_S8_S8_fRNS_6PxVec3ESA_RNS_10PxcNpCacheERNS_18PxcNpThreadContextEf
Xc:invoke_vifffii
wGb:__Z35Transfer_Blittable_FixedBufferFieldI18StreamedBinaryReadILb0EEaEvRK29SerializationCommandArgumentsR31RuntimeSerializationCommandInfo
Qbh:__Z89RuntimeInvoker_Void_t1185182177_Single_t1397266774_Single_t1397266774_Color32_t2600501292PFvvEPK10MethodInfoPvPS4_
R$d:__ZNK5physx3Cct17CapsuleController21getHalfHeightInternalEv
cjb:__ZNK25MultiBlocksMemoryFileData5CloneEv
j1i:_AsyncCallback_BeginInvoke_m2710486612
JSn:_GC_add_ext_descriptor
rmn:__ZNK15dense_hashtableINSt3__24pairIK10KeyWrapperINS1_IPK14Il2CppAssemblyP11Il2CppClassEEEjEES9_17ReflectionMapHashIS8_EN14dense_hash_mapIS9_jSD_NS9_14EqualsComparerINS0_8equal_toIS8_EEEENS0_9allocatorISB_EEE9SelectKeyESI_SK_E23find_position_with_hashERSA_j
jPd:__ZN5physx21PxQueryFilterCallbackD2Ev
aej:_LayoutGroup_SetProperty_TisSingle_t1397266774_m793506911_gshared
TTn:__ZN6il2cpp2os14WindowsRuntime22GetRestrictedErrorInfoEv
Leg:_CryptoConfig_CreateFromName_m1538277313
Owp:_glInvalidateFramebuffer__wrapper
mib:__ZN17ArchiveFileSystem11CreateAsDirER13FileEntryData
l5d:__ZL30GeomOverlapCallback_CapsuleBoxRKN5physx10PxGeometryERKNS_11PxTransformES2_S5_PNS_2Gu12TriggerCacheE
bAo:__ZL79Mesh_t3648964284_CustomAttributesCacheGenerator_Mesh_GetIndicesImpl_m3233954035P21CustomAttributesCache
Qnp:dynCall_iiiiiiiiiiii
Yq:__ZN9Scripting11UnityEngine2AI18NavMeshBuildSource9InitProxyEv
L8f:_TMP_Text_DrawUnderlineMesh_m1146477450
kKf:__ZN18UnityConnectClient16IsServiceEnabledEv
Wao:__ZL74RuntimeArray_CustomAttributesCacheGenerator_Array_GetLongLength_m561139708P21CustomAttributesCache
vsa:__ZN9Scripting11UnityEngine10ColorGamut9InitProxyEv
ilb:__ZN22VertexDeclarationCacheD0Ev
YTi:_Selectable_set_interactable_m3105888815
OGa:__ZL26KeywordSetToStringDontSortRKNSt3__26vectorIN4core12basic_stringIcNS1_20StringStorageDefaultIcEEEENS_9allocatorIS5_EEEERS5_
jja:__ZN6prcoreL17RemapGenericFloatI16TexFormatRGFloat17TexFormatRGBAHalfEEvPKNS_9InnerInfoE
CUo:__ZL97PointerEventData_t3807901092_CustomAttributesCacheGenerator_U3CuseDragThresholdU3Ek__BackingFieldP21CustomAttributesCache
vU:__ZN12AudioManager22CreateFMODSoundFromWWWEP10IWWWStream15FMOD_SOUND_TYPE17FMOD_SOUND_FORMATjjbbP10SampleClip
IGc:__ZNK32RendererMaterialAnimationBinding15GenerateBindingERKN4core12basic_stringIcNS0_20StringStorageDefaultIcEEEEbRN11UnityEngine9Animation14GenericBindingE
sZh:_TargetException__ctor_m4172127019
Ihd:__Z25UpdateOrbitalAndRadialTplIL27ParticleSystemCurveEvalMode0ELS0_2ELS0_0EEvRK11MinMaxCurveS3_S3_S3_S3_S3_S3_R23ParticleSystemParticlesjjRKN4math8float3x3ERKNS6_7affineXERKNS6_7_float4E
Q3l:_List_1_CheckCollection_m274117203_gshared
bfh:__Z59RuntimeInvoker_Boolean_t97287965_TMP_FontWeights_t916301067PFvvEPK10MethodInfoPvPS4_
s6k:_LinkedList_1_Clear_m2711926805_gshared
Baa:__ZN8Remapper23GetOrGenerateInstanceIDERK26SerializedObjectIdentifier
qdk:_Decimal_System_IConvertible_ToByte_m1059182322
Nwg:_ColorTween_get_startColor_m3792586410_AdjustorThunk
vfb:__ZN17FileSystemHandler10AtomicMoveER13FileEntryDataS1_
eRo:__ZL106Physics_t2310948930_CustomAttributesCacheGenerator_Physics_Raycast_m3101461809____queryTriggerInteraction5P21CustomAttributesCache
_Sg:__Z85RuntimeInvoker_Void_t1185182177_Int32_t2950945753_Int32_t2950945753_Int32_t2950945753PFvvEPK10MethodInfoPvPS4_
YNg:_BinaryFormatter_get_SurrogateSelector_m2111882017
VQk:_ValueCollection_System_Collections_Generic_IEnumerableU3CTValueU3E_GetEnumerator_m1386883788_gshared
eXi:_X509CertificateCollection__ctor_m3365535796
vpb:__ZN11TextureData17GetImageReferenceEii
vBj:_CustomInfo__ctor_m426096741
Spg:_EventSystem_ToString_m3779610692
Vqj:_RecordProtocol_BeginReceiveRecord_m295321170
l_a:__ZN6Sprite8TransferI24GenerateTypeTreeTransferEEvRT_
TGm:_TMPro_EventManager_ON_TEXTMESHPRO_UGUI_PROPERTY_CHANGED_m531824844
pMg:_SoapTypeAttribute_get_IsInteropXmlType_m629667929
vyc:__Z48Register_UnityEngine_Transform_SetAsFirstSiblingv
Mzh:_InternalEnumerator_1_System_Collections_IEnumerator_get_Current_m694606607_gshared
egj:_Resources_Load_TisRuntimeObject_m3577225874_gshared
q_a:__ZN7SubMesh8TransferI24GenerateTypeTreeTransferEEvRT_
TSm:__ZL25UnresolvedVirtualCall_121P12Il2CppObjectiPK10MethodInfo
bfe:__ZNK5physx19NpArticulationJoint28getTwistLimitContactDistanceEv
Uzm:_UnityEvent_1_FindMethod_Impl_m2511430237_gshared
n3k:_Literal_IsComplex_m4067122560
Y7m:_NativeTypeAttribute__ctor_m133676646
Swc:__Z48Register_UnityEngine_Application_get_absoluteURLv
BWd:__ZN5physx3Cct10Controller6setPosERKNS_14PxExtendedVec3E
HYb:__ZN19GfxThreadableDevice20SetShadersThreadableEPP10GpuProgramPPK20GpuProgramParametersPKPKh
YJl:_Collection_1_System_Collections_IList_Contains_m296643274_gshared
eYd:__ZN5physx2GuL14testFaceNormalERKNS0_13PolygonalDataES3_PNS0_12SupportLocalES5_RKNS_6shdfnd3aos15PsMatTransformVESA_RKNS7_6FloatVERSB_RjRNS7_5Vec3VENS0_13FeatureStatusERSI_
m_j:_DirectoryInfo__ctor_m126519516
EVh:_MethodBase_GetMethodFromIntPtr_m3014201362
mDh:_InternalEnumerator_1_System_Collections_IEnumerator_get_Current_m2011757623_gshared
QUl:__ZN21InterfaceFuncInvoker1I19Color32_t2600501292iE6InvokeEjP11Il2CppClassP12Il2CppObjecti
kFh:_InternalEnumerator_1_get_Current_m2315302778_AdjustorThunk
r2k:_Reference_get_CapturingGroup_m3861468528
GSg:__Z40RuntimeInvoker_TypeAttributes_t113483779PFvvEPK10MethodInfoPvPS4_
a$j:_FileInfo_InternalRefresh_m2894054257
Sxc:__ZN9Transform23SetSiblingIndexInternalEib
C4l:_List_1_Clear_m1143167521_gshared
SPl:_ReadOnlyCollection_1_System_Collections_Generic_IListU3CTU3E_get_Item_m1043040529_gshared
h0c:__ZN9JSONWrite8TransferI13dynamic_arrayIaLj0EEEEvRT_PKc17TransferMetaFlags
r5d:__ZL32GeomOverlapCallback_ConvexConvexRKN5physx10PxGeometryERKNS_11PxTransformES2_S5_PNS_2Gu12TriggerCacheE
YLl:_Collection_1_SetItem_m794903769_gshared
Yji:_SocketAsyncResult_t2080034863_marshal_pinvoke_cleanup
Kwl:_Dictionary_2_Resize_m1924695631_gshared
b3j:_Enumerator_MoveNext_m635366482
IYi:_X509Extension_Equals_m1222951829
qy:__ZN7mecanim5human12HumanPoseSubERNS0_9HumanPoseERKS1_S4_
Dxm:_InvokableCall_2_add_Delegate_m1005690394_gshared
Eoh:__Z37RuntimeInvoker_Enumerator_t1789501480PFvvEPK10MethodInfoPvPS4_
o9h:_Array_InternalArray__IndexOf_TisTextAlignmentOptions_t4036791236_m4075827900_gshared
hBm:_UnityEvent_3_RemoveListener_m3362577121_gshared
U4i:_Char_GetTypeCode_m2433327340_AdjustorThunk
mtb:__Z18Transfer_BlittableI14SafeBinaryReadLb0E10Matrix4x4fEvRK29SerializationCommandArgumentsR31RuntimeSerializationCommandInfo
qJb:__Z24GetFixedBehaviourManagerv
oao:__ZL69IntPtr_t_CustomAttributesCacheGenerator_IntPtr_op_Equality_m408849716P21CustomAttributesCache
zjn:__ZN6il2cpp2vm10ThreadPool4WaitEP17Il2CppAsyncResultPPv
bYi:_PKCS12_Encrypt_m2617413749
Rrm:_X509Crl_VerifySignature_m1377612461
XZi:_Activator_CreateInstance_m94526014
Wip:_vfprintf
yYc:__ZN10GUIManager12AddGUIScriptER8ListNodeI13MonoBehaviourE
oXm:__ZL25UnresolvedVirtualCall_360P12Il2CppObject19Vector3_t3722313464PK10MethodInfo
doa:__ZL53__ManagedRegistrationHelperFunction_StackTraceUtilityPv
r3j:_Stack_Clear_m2010200235
yQa:__ZL13SortTexByNameRKNSt3__24pairIN9ShaderLab16FastPropertyNameEN18UnityPropertySheet11UnityTexEnvEEES7_
Bpf:_cf2_getVStore
Hrg:_PointerEventData_set_pointerPressRaycast_m1363193059
X1b:__ZN20DynamicPropertySheetD0Ev
Sll:_List_1_get_Item_m718437397_gshared
D0h:_SafeHandle_Dispose_m4229010569
pfc:__ZN14SafeBinaryRead17RegisterConverterEPKcS1_PFbPvRS_E
Sxo:__ZL77RuntimePlatform_t4159857903_CustomAttributesCacheGenerator_OSXDashboardPlayerP21CustomAttributesCache
U2:__ZN35RegisterRuntimeInitializeAndCleanup8RegisterEPFvPvES2_iS0_
IAe:__ZNK5physx19NpRigidBodyTemplateINS_14PxRigidDynamicEE17getRigidBodyFlagsEv
tQh:_FieldBuilder_SetValue_m828035213
lDo:__ZL81RectOffset_t1369453676_CustomAttributesCacheGenerator_RectOffset_Init_m2028508611P21CustomAttributesCache
n4n:_U3CU3Ec__Iterator0_System_Collections_IEnumerator_get_Current_m3904563485
AWl:_ReadOnlyCollection_1_System_Collections_IList_get_IsFixedSize_m733459177_gshared
kFd:__ZN4PPtrI17PhysicsMaterial2DE8TransferI18StreamedBinaryReadILb0EEEEvRT_
X$l:__ZN28GenericInterfaceFuncInvoker0IfE6InvokeEPK10MethodInfoP12Il2CppObject
Nao:__ZL72Enum_t4135868527_CustomAttributesCacheGenerator_Enum_ToObject_m121962870P21CustomAttributesCache
Ngj:__ZN23InterfaceActionInvoker2IP24ObjectU5BU5D_t2843939325iE6InvokeEjP11Il2CppClassP12Il2CppObjectS1_i
$Re:__ZN5physx25PxcSweepConvexHeightfieldERKNS_11PxsCCDShapeES2_PKNS_12PxsRigidBodyES5_RKNS_11PxTransformES8_S8_S8_fRNS_6PxVec3ESA_RNS_10PxcNpCacheERNS_18PxcNpThreadContextEf
tTc:__Z21Object_CUSTOM_DestroyP12Il2CppObjectf
Jyo:__ZL99SetupCoroutine_t2062820429_CustomAttributesCacheGenerator_SetupCoroutine_InvokeMoveNext_m3199342729P21CustomAttributesCache
G_b:__ZN8Material26ResetAllCachedMaterialDataEP6Shader
KXg:__Z63RuntimeInvoker_Void_t1185182177_RuntimeObject_Int16_t2552820387PFvvEPK10MethodInfoPvPS4_
Sxf:_UNITY_TT_Get_MM_Var
Fbg:_ObjectManager_AddFixup_m2154325362
yKh:_Comparer_1__cctor_m3761458313_gshared
uck:_DateTimeOffset_CompareTo_m1350732322_AdjustorThunk
ba:invoke_diddi
cDf:__ZNK2UI6Canvas13GetRenderModeEv
Xri:_PersistentCall__ctor_m1217622171
o7h:_Array_compare_TisCustomAttributeTypedArgument_t2723150157_m1384644047_gshared
Ekp:_unlink
UWi:_StrongName_get_TokenAlgorithm_m1794722022
xsb:__Z18Transfer_BlittableI14SafeBinaryReadLb0EiEvRK29SerializationCommandArgumentsR31RuntimeSerializationCommandInfo
chn:__ZN6il2cpp2vm13MetadataCache30GetPropertyDefinitionFromIndexEi
nKm:_SymmetricTransform_Transform_m1683494363
Mze:__ZN5physx14NpRigidDynamic7releaseEv
nNf:__ZN22BaseUnityConnectClient17InitializeSessionERKN4core12basic_stringIcNS0_20StringStorageDefaultIcEEEES6_N19CloudServiceHandler13InitModeFlagsE
vdo:__ZL56KeyCollection_t4251528776_CustomAttributesCacheGeneratorP21CustomAttributesCache
T5g:__Z74RuntimeInvoker_RuntimeObject_Int32_t2950945753_RuntimeObject_RuntimeObjectPFvvEPK10MethodInfoPvPS4_
oOe:__ZN5physx6shdfnd8PoolBaseINS_21PxsBodyTransformVault13PxsBody2WorldENS0_19ReflectionAllocatorIS3_EEE15disposeElementsEv
Q9l:_List_1_get_Item_m200663048_gshared
PLg:_ReturnMessage_get_Exception_m3375728265
M0f:_TMP_MeshInfo__ctor_m3699236577_AdjustorThunk
Rzh:_InternalEnumerator_1_MoveNext_m3664960764_AdjustorThunk
dPc:__ZN13MonoBehaviour34StopCoroutineFromEnumeratorManagedE18ScriptingObjectPtr
NFh:_InternalEnumerator_1_MoveNext_m359138619_AdjustorThunk
$_f:_TMP_InputField_Append_m3961630412
Tml:_List_1__ctor_m1345008423_gshared
Tvf:_gray_raster_reset
Bu:__ZN9Scripting11UnityEngine9HumanBone12CleanupProxyEv
HUd:__ZN5physx2Gu30computeCapsule_TriangleMeshMTDERKNS_22PxTriangleMeshGeometryERKNS_11PxTransformERNS0_8CapsuleVEffbRNS_10PxSweepHitE
Frd:__ZN11UnityEngine9Analytics18SceneLoadTimeEvent12SetSceneLoadERKN4core12basic_stringIcNS2_20StringStorageDefaultIcEEEEiyyyy
R8a:__ZN30RuntimeInitializeOnLoadManager8TransferI18StreamedBinaryReadILb0EEEEvRT_
m5j:_DateTimeOffset__ctor_m2084804982
w1m:_CanvasRenderer_GetMaterial_m3822557591
fZn:_EnemyScript_OnCollisionEnter2D_m1977666951
muf:_UNITY_tt_face_load_pclt
jsb:__ZN9profiling17ScriptingProfiler31UpdateRegisteredScriptingEventsEv
ntc:__ZL34GetComponentsImplementationRecurseILb1ELi0ELi2EEbR10GameObjectbRK17CompareParametersRK39GetComponentsImplementation_ReturnValue
Qcj:_Dictionary_2_Do_ICollectionCopyTo_TisRuntimeObject_m2206321454_gshared
eMm:_UnityWebRequest_set_downloadHandler_m970510352
kEd:__ZN10ClipperLib7Clipper24InsertLocalMinimaIntoAELEx
ACa:__ZN4PPtrI5FlareE8TransferI14SafeBinaryReadEEvRT_
jvi:_Material_GetTexture_m3545614349
BFe:__ZThn8_N5physx2Sc19ShapeInstancePairLL10onActivateEj
t$a:__ZN13ScreenManager22SetResolutionImmediateEii14FullscreenModei
KTh:_PropertyBuilder_get_CanWrite_m2657562188
K9c:__ZN16CustomDataModule8TransferI19StreamedBinaryWriteILb0EEEEvRT_
Rxk:_ASN1_get_Length_m1923878580
lDl:_EqualityComparer_1__cctor_m4244842342_gshared
q1b:__ZNK6Camera18WorldToScreenPointERK8Vector3fPb
gYe:__ZN5physx2Cm12DelegateTaskINS_10PxsContextEXadL_ZNS2_28mergeCMDiscreteUpdateResultsEPNS_10PxBaseTaskEEEE11runInternalEv
yFi:_SendMouseEvents_DoSendMouseEvents_m2140870850
_Hf:__ZN14UnityAnalyticsD0Ev
Qcf:__ZN5physx19TriangleMeshBuilder10importMeshERKNS_18PxTriangleMeshDescERKNS_15PxCookingParamsEb
dPb:__Z18IsCompressedFormat14GraphicsFormat
dMi:_U3CMouseDragOutsideRectU3Ec__Iterator1_System_Collections_IEnumerator_get_Current_m2275835089
ZOc:__ZNK13MonoBehaviour6GetDSPEv
ccg:_SerializationEntry_get_Name_m1530029541_AdjustorThunk
yXh:_MonoMethod_GetBaseDefinition_m2844667474
Gok:__Z33il2cpp_codegen_check_add_overflowxx
F8:__ZNSt3__227__insertion_sort_incompleteIRPFbRKN18AwakeFromLoadQueue4ItemES4_EPS2_EEbT0_S9_T_
r6g:__Z71RuntimeInvoker_Boolean_t97287965_AnimatorControllerPlayable_t1015767841PFvvEPK10MethodInfoPvPS4_
_xo:__ZL73RuntimePlatform_t4159857903_CustomAttributesCacheGenerator_MetroPlayerARMP21CustomAttributesCache
hZj:_InvalidOperationException__ctor_m1685032583
cfn:__ZN14dense_hash_mapI10KeyWrapperIN6il2cpp5utils13dynamic_arrayIPK10Il2CppTypeLj4EEEEPFvvENS1_8metadata19Il2CppSignatureHashENS8_14EqualsComparerINSB_22Il2CppSignatureCompareEEENSt3__29allocatorINSG_4pairIKS8_SA_EEEEE15set_deleted_keyERSJ_
npk:_TimeSpan_op_Subtraction_m3592306516
UGm:_TMPro_EventManager_ON_COMPUTE_DT_EVENT_m4224094755
tAn:__ZN6il2cpp2vm9Exception25RaiseOutOfMemoryExceptionERKNS_5utils10StringViewIDsEEP19Il2CppSequencePoint
dph:__Z94RuntimeInvoker_RuntimeObject_Single_t1397266774_Single_t1397266774_RuntimeObject_RuntimeObjectPFvvEPK10MethodInfoPvPS4_
oFl:_EqualityComparer_1_System_Collections_IEqualityComparer_GetHashCode_m1517903420_gshared
Nse:__ZN5physx6shdfnd5ArrayINS_18PxClothFabricPhaseENS0_19ReflectionAllocatorIS2_EEE8recreateEj
UYa:__ZN26EnlightenSystemInformation8TransferI14SafeBinaryReadEEvRT_
yzo:__ZL118TouchScreenKeyboard_t731888065_CustomAttributesCacheGenerator_TouchScreenKeyboard_Open_m3609399077____textPlaceholder6P21CustomAttributesCache
Z9c:__ZN13InitialModule5ResetEv
ZTl:_ReadOnlyCollection_1_System_Collections_IList_Add_m3968477706_gshared
F9a:__ZN24GenerateTypeTreeTransfer8TransferINSt3__26vectorIN15ResourceManager10DependencyE13stl_allocatorIS4_L18MemLabelIdentifier52ELi16EEEEEEvRT_PKc17TransferMetaFlags
zso:__ZL59StringComparison_t3657712135_CustomAttributesCacheGeneratorP21CustomAttributesCache
D1m:_CanvasRenderer_SplitUIVertexStreams_m2753637362
H8g:__Z119RuntimeInvoker_Void_t1185182177_RuntimeObject_Single_t1397266774_Single_t1397266774_SByte_t1669577662_Int32_t2950945753PFvvEPK10MethodInfoPvPS4_
VBa:__ZN27PerObjectLightCullingOutputD2Ev
oIe:__ZN5physx2Sq17SceneQueryManager11shiftOriginERKNS_6PxVec3E
i5a:__ZN12MeshRendererD0Ev
GV:__ZN12AudioManager35GetCurrentSpatializerDefinitionNameEv
xSd:__ZN5physx2Gu16sweepBoxTriangleERKNS_10PxTriangleERKNS_9PxBounds3ERKNS_6PxVec3ES9_RS7_SA_Rf
hHi:_TouchScreenKeyboard_get_active_m4267591905
soa:__ZN9Scripting11UnityEngine14WaitForSeconds9InitProxyEv
uth:_InternalEnumerator_1__ctor_m2515715560_AdjustorThunk
mrn:__ZNK15dense_hashtableINSt3__24pairIK10KeyWrapperIPK14Il2CppAssemblyEPK22Il2CppMonoAssemblyNameEES6_N6il2cpp5utils11PointerHashIS4_EEN14dense_hash_mapIS6_SA_SF_NS6_14EqualsComparerINS0_8equal_toIS5_EEEENS0_9allocatorISB_EEE9SelectKeyESK_SM_E8min_sizeEjj
pi:_utime
Adf:__ZN5physx10writeChunkEaaaaRNS_14PxOutputStreamE
v2k:_BalancingGroup_Compile_m2575117193
Fjn:__ZN6il2cpp6icalls8mscorlib6System8MonoType18IsGenericParameterEPK10Il2CppType
Otn:__ZNSt3__26vectorIN6il2cpp2vm17TypeNameParseInfoENS_9allocatorIS3_EEE8allocateEj
Gu:__ZN9Scripting11UnityEngine22AnimatorTransitionInfo9InitProxyEv
CGg:_Context_NotifyDynamicSinks_m1841702879
i$k:_Mark_get_Index_m3048692661_AdjustorThunk
mom:_TlsServerSettings_get_CertificateRequest_m842655670
gdn:__ZN15dense_hashtableI10KeyWrapperIPK17Il2CppGenericInstES4_N6il2cpp8metadata21Il2CppGenericInstHashEN14dense_hash_setIS4_S7_NS4_14EqualsComparerINS6_24Il2CppGenericInstCompareEEENSt3__29allocatorIS4_EEE8IdentityESB_SE_ED2Ev
Rn:FUNCTION_TABLE_viiiiif
Dql:_Array_InternalArray__Insert_TisRejectHandler_t1435172309_m1864675154_gshared
GJh:_DefaultComparer_Compare_m3931992727_gshared
Ao:FUNCTION_TABLE_viiiiii
MHh:_InternalEnumerator_1_System_Collections_IEnumerator_get_Current_m1847780851_AdjustorThunk
x3n:_JSONNode_Add_m988733008
dJm:_GUILayoutUtility_get_spaceStyle_m3392862907
hKj:_SecurityException_ToString_m3228070608
n5j:_DateTimeOffset__ctor_m74032857
Dje:__ZN5physx2Sc9RigidCore13onShapeChangeERNS0_9ShapeCoreENS_7PxFlagsINS0_21ShapeChangeNotifyFlag4EnumEjEENS4_INS_11PxShapeFlag4EnumEhEE
gTn:__ZN6il2cpp6icalls8mscorlib6System10Reflection4Emit13ModuleBuilder17set_wrappers_typeEP29Il2CppReflectionModuleBuilderP20Il2CppReflectionType
IH:__ZN7mecanim9animation22DestroyAvatarWorkspaceEPNS0_15AvatarWorkspaceERNS_6memory9AllocatorE
hqk:_Type_type_is_assignable_from_m76737532
xVc:__ZN9Scripting11UnityEngine14GUILayoutGroup12CleanupProxyEv
YOi:_MaskableGraphic_ParentMaskStateChanged_m1092090553
kxe:__ZN5physx6shdfnd5ArrayIPvNS0_15InlineAllocatorILj256ENS0_19ReflectionAllocatorINS_2Sc19ParticlePacketShapeEEEEEE15growAndPushBackERKS2_
FUe:__ZN5physx17solveContactBlockEPKNS_23PxcSolverConstraintDescEjRNS_16PxcSolverContextE
Jdf:__ZN5physx6shdfnd10FoundationD2Ev
UQa:__ZN14PlayableOutput17SetSourcePlayableEP8Playable
J8a:__ZNSt3__26vectorIN4core12basic_stringIcNS1_20StringStorageDefaultIcEEEE13stl_allocatorIS5_L18MemLabelIdentifier13ELi16EEE8__appendEj
e6d:__ZN5physx9NpFactory21releaseConnectorArrayEPNS_16NpConnectorArrayE
LCj:_Assembly_GetExecutingAssembly_m4021024968
jH:__ZN7mecanim9animation29MotionOutputGetDeltaTransformEPKNS0_12MotionOutputE
gWm:__ZL25UnresolvedVirtualCall_298P12Il2CppObject6Guid_tS1_PK10MethodInfo
Sxa:__ZN17GlobalGameManager23VirtualRedirectTransferER19StreamedBinaryWriteILb0EE
Erd:__ZN27PerformanceReportingManager21OnSceneTimingCallbackERK15SceneLoadTimingRKN4core12basic_stringIcNS3_20StringStorageDefaultIcEEEE
Pom:_ValidationResult_get_ErrorCode_m1533688152
txc:__Z43Transform_CUSTOM_INTERNAL_get_localRotationP12Il2CppObjectP11Quaternionf
MOe:__ZN5physx2Sc10NPhaseCoreD2Ev
p7d:__ZN5physx2Sc7BodySim18onConstraintDetachEv
TTo:__ZL77ExecuteEvents_t3484638744_CustomAttributesCacheGenerator_U3CU3Ef__mgU24cache3P21CustomAttributesCache
dng:_TextMeshProUGUI_set_maskOffset_m1831053298
Whi:_X509Certificate2_GetValueAsString_m1348462142
mPo:__ZL87GUIStyle_t3956901511_CustomAttributesCacheGenerator_GUIStyle_SetDefaultFont_m1581452579P21CustomAttributesCache
$ln:__ZN6il2cpp2os4File9SetLengthEPNS0_10FileHandleExPi
sEc:__ZZL23RegisterLightPropertiesR22GenericPropertyBindingEN20Wrapper_LightColorr013SetFloatValueEPvf
$8f:_ObjectReader_ReadObjectGraph_m340866276
BNk:_Transform_1_EndInvoke_m2716226219_gshared
Nwj:_Math_Max_m4189907297
Ui:_emscripten_glGetTexParameteriv
qma:__ZL49__ManagedRegistrationHelperFunction_ComputeBufferPv
jHe:__ZN5physx7NpScene8simulateEfPNS_10PxBaseTaskEPvjb
fup:_glGenTextures__wrapper
QNd:__ZN5physx2Gu13GeometryUnion3setERKNS_10PxGeometryE
ckk:_UnicodeEncoding_GetHashCode_m354003420
Xjc:__ZN9ShaderLab20SerializedSubProgram14ConstantBufferaSERKS1_
FGd:__ZN9Polygon2D8TransferI18StreamedBinaryReadILb0EEEEvRT_
Hhd:__Z25UpdateOrbitalAndRadialTplIL27ParticleSystemCurveEvalMode0ELS0_1ELS0_4EEvRK11MinMaxCurveS3_S3_S3_S3_S3_S3_R23ParticleSystemParticlesjjRKN4math8float3x3ERKNS6_7affineXERKNS6_7_float4E
_Mo:__ZL74SharedBetweenAnimatorsAttribute_t2857104338_CustomAttributesCacheGeneratorP21CustomAttributesCache
IPj:_Enum_Equals_m3617313991
L4g:__Z98RuntimeInvoker_Boolean_t97287965_PlayableOutputHandle_t4208053793_PlayableOutputHandle_t4208053793PFvvEPK10MethodInfoPvPS4_
Bdh:__Z74RuntimeInvoker_Boolean_t97287965_LineTypeU26_t2430394419_Int32_t2950945753PFvvEPK10MethodInfoPvPS4_
QNa:__ZN8PlayableD0Ev
mh:emscriptenWebGLGetBufferBinding
VN:__ZN12AudioManager8TransferI19StreamedBinaryWriteILb0EEEEvRT_
i1m:_CanvasGroup_IsRaycastLocationValid_m2128397950
zUi:_Slider_UpdateCachedReferences_m3259451627
Umm:_SslStreamBase_get_KeyExchangeStrength_m217695965
hZg:__Z50RuntimeInvoker_Double_t594665363_Double_t594665363PFvvEPK10MethodInfoPvPS4_
IXg:__Z60RuntimeInvoker_Void_t1185182177_StreamingContext_t3711869237PFvvEPK10MethodInfoPvPS4_
D$o:__ZL62Shadow_t773074319_CustomAttributesCacheGenerator_m_EffectColorP21CustomAttributesCache
pwl:_Dictionary_2_System_Collections_ICollection_get_SyncRoot_m2718487944_gshared
sko:__ZL82MethodDictionary_t207894204_CustomAttributesCacheGenerator_U3CU3Ef__switchU24map21P21CustomAttributesCache
jyn:__ZN15dense_hashtableINSt3__24pairIK10KeyWrapperINS1_IP11Il2CppClassjEEES4_EES6_N6il2cpp8metadata14ArrayClassHashEN14dense_hash_mapIS6_S4_SB_NS6_14EqualsComparerINSA_17ArrayClassCompareEEENS0_9allocatorIS8_EEE9SelectKeyESF_SH_E6insertERKS8_
U4j:_DateTimeOffset__ctor_m1464148220
mzg:_U3CShowU3Ec__AnonStorey1_U3CU3Em__0_m2340880019
qNf:__ZN22BaseUnityConnectClient38PrepareConfigRequestOnMainThreadStaticEPS_
MTi:_Selectable_OnSetProperty_m1693943217
Hhl:_List_1_GetIndex_m2300811709_gshared
HGc:__ZNK32RendererMaterialAnimationBinding12GetPPtrValueERKN11UnityEngine9Animation10BoundCurveE
HFb:__Z18Transfer_BlittableI18StreamedBinaryReadILb0EELb0E8Vector2fEvRK29SerializationCommandArgumentsR31RuntimeSerializationCommandInfo
rge:__ZN5physx18NpArticulationLink10clearForceENS_11PxForceMode4EnumE
kSk:_ValueCollection_System_Collections_ICollection_CopyTo_m2227772295_gshared
Vxl:_Dictionary_2__ctor_m4248073191_gshared
AUd:__ZN5physx2Gu30distanceSegmentTriangleSquaredERKNS_6PxVec3ES3_S3_S3_S3_PfS4_S4_
gDd:__ZN16CircleCollider2D10SmartResetEv
yGf:__ZN2UI11CanvasGroup12CleanupClassEv
Jom:_TlsStream_Flush_m3793197834
Eil:_List_1_GetIndex_m2832472557_gshared
xfb:__ZN22LocalFileSystemHandler9MakeLocalER13FileEntryDatab
rOn:__ZN6il2cpp2vm8Profiler10AllocationEP12Il2CppObjectP11Il2CppClass
V3k:_Uri_IsHexEncoding_m3290929897
yOg:_MemberTypeMetadata__ctor_m2376841411
Aia:__Z13FormatOrderedPKcz
eth:_InternalEnumerator_1_System_Collections_IEnumerator_get_Current_m3925261124_AdjustorThunk
Jvo:__ZL91Enumerable_t538148348_CustomAttributesCacheGenerator_Enumerable_ThenByDescending_m141410882P21CustomAttributesCache
gln:__ZN6il2cpp2vm8basepathEPKc
OFh:_InternalEnumerator_1_get_Current_m1506120701_AdjustorThunk
Pqe:__ZNK5physx15NpActorTemplateINS_7PxClothEE12getAggregateEv
kUi:_Selectable_IsPressed_m907486548
plf:__ZN14SafeBinaryRead21TransferSTLStyleArrayI10vector_mapINSt3__24pairIttEEfN20TextRenderingPrivate8FontImpl14KerningCompareENS2_9allocatorINS3_IS4_fEEEEEEEvRT_17TransferMetaFlags
coj:_TlsServerFinished__ctor_m1445633918
nBj:_NumberFormatter_FastIntegerToString_m390846811
KNn:__ZN6il2cpp2vm6String21InitializeEmptyStringEP11Il2CppClass
g4a:__ZN14CompressedMesh10GetQualityE15MeshCompression
O8b:__ZN25DeferredRenderLoopScratchD0Ev
SA:__ZN27AnimationLayerMixerPlayable14SetInputWeightEif
D3g:__Z83RuntimeInvoker_Void_t1185182177_RuntimeObject_Single_t1397266774_Single_t1397266774PFvvEPK10MethodInfoPvPS4_
krg:_PhysicsRaycaster_Raycast_m776323695
Rkg:_TextContainer_GetAnchorPosition_m4045774284
my:__ZN7mecanim9animation17EvaluateHumanPoseERKNS0_18ClipMuscleConstantERKNS0_15ClipMuscleInputEPKfRKNS0_12MotionOutputERNS_5human9HumanPoseE
Grl:_Array_InternalArray__Insert_TisTMP_LinkInfo_t1092083476_m719690151_gshared
FAo:__ZL59SynchronizeState_t3424594242_CustomAttributesCacheGeneratorP21CustomAttributesCache
eRe:__ZNK5physx2Cm12DelegateTaskINS_13PxsCCDContextEXadL_ZNS2_14postCCDAdvanceEPNS_10PxBaseTaskEEEE7getNameEv
Vun:_il2cpp_class_get_parent
TVm:__ZL25UnresolvedVirtualCall_283P12Il2CppObjectiS0_PK10MethodInfo
nRf:__ZN21DownloadHandlerBufferD0Ev
a0o:__ZL131U3CSendWebRequestU3Ed__0_t1093541222_CustomAttributesCacheGenerator_U3CSendWebRequestU3Ed__0_System_IDisposable_Dispose_m3774734000P21CustomAttributesCache
BUo:__ZL92PointerEventData_t3807901092_CustomAttributesCacheGenerator_U3CscrollDeltaU3Ek__BackingFieldP21CustomAttributesCache
gjc:__ZN15dense_hashtableINSt3__24pairIKiN4core17string_with_labelILi1EEEEEi18SInt32HashFunctionN14dense_hash_mapIiS5_S7_NS0_8equal_toIiEE13stl_allocatorIS6_L18MemLabelIdentifier1ELi16EEE9SelectKeyESA_SD_E9copy_fromERKSG_j
$Dj:_CustomAttributeNamedArgument_GetHashCode_m2317130892
a9a:__ZN15ResourceManagerD0Ev
jDl:_EqualityComparer_1_get_Default_m990790318_gshared
mQi:_GetRayIntersectionAllCallback__ctor_m391992746
GDa:__ZN22CreateGpuProgramOutputD2Ev
Cih:__Z76RuntimeInvoker_Void_t1185182177_Int32_t2950945753_KeyValuePair_2_t4237331251PFvvEPK10MethodInfoPvPS4_
R0d:__ZNK5physx3Cct15ObstacleContext14getNbObstaclesEv
J6m:_ControllerColliderHit_t240592346_marshal_pinvoke_cleanup
TAb:__Z18Transfer_BlittableI19StreamedBinaryWriteILb0EELb1EsEvRK29SerializationCommandArgumentsR31RuntimeSerializationCommandInfo
Pcj:_Dictionary_2_Do_ICollectionCopyTo_TisInt64_t3736567304_m855156891_gshared
Ipd:__Z17UpdateSprites2TplIL27ParticleSystemCurveEvalMode2ELS0_3EEvfRK11MinMaxCurveS3_RK23ParticleSystemParticlesPf
nmo:__ZL52HMACSHA512_t923916539_CustomAttributesCacheGeneratorP21CustomAttributesCache
Baf:__ZN5physx6shdfnd8PoolBaseINS_11NpAggregateENS0_19ReflectionAllocatorIS2_EEE12allocateSlabEv
vze:__ZN5physx16NpParticleSystem23setParticleReadDataFlagENS_22PxParticleReadDataFlag4EnumEb
Wgd:__Z25UpdateOrbitalAndRadialTplIL27ParticleSystemCurveEvalMode3ELS0_4ELS0_0EEvRK11MinMaxCurveS3_S3_S3_S3_S3_S3_R23ParticleSystemParticlesjjRKN4math8float3x3ERKNS6_7affineXERKNS6_7_float4E
Gxm:_InvokableCall_2_Invoke_m1013424127_gshared
pEi:__ZN23InterfaceActionInvoker1IP25RectTransform_t3704657025E6InvokeEjP11Il2CppClassP12Il2CppObjectS1_
HFj:_SHA1CryptoServiceProvider_Finalize_m1793183797
s4j:_Convert_ToByte_m4146281512
jHl:_HashSet_1_System_Collections_Generic_ICollectionU3CTU3E_CopyTo_m408073502_gshared
eye:__ZN5physx7NpScene26removeFromParticleBaseListERNS_14PxParticleBaseE
BEm:_InflateBlocks_Process_m2809097491
vte:__ZN5physx2Sc9ClothCore23setSelfCollisionIndicesEPKjj
Mfb:__ZN12HandlerChain4OpenER13FileEntryData14FilePermission16FileAutoBehavior
Hol:_Array_InternalArray__ICollection_Add_TisPlayerLoopSystem_t105772105_m1930641144_gshared
vjh:__Z72RuntimeInvoker_Void_t1185182177_Int32_t2950945753_RaycastHit_t1056001966PFvvEPK10MethodInfoPvPS4_
Pqo:__ZL79Convert_t2465617642_CustomAttributesCacheGenerator_Convert_ToUInt16_m1147931813P21CustomAttributesCache
eon:__ZN15dense_hashtableINSt3__24pairIK10KeyWrapperINS1_IPK10MethodInfoP11Il2CppClassEEEjEES9_17ReflectionMapHashIS8_EN14dense_hash_mapIS9_jSD_NS9_14EqualsComparerINS0_8equal_toIS8_EEEENS0_9allocatorISB_EEE9SelectKeyESI_SK_E6insertERKSB_
IM:__ZL55__ManagedRegistrationHelperFunction_AudioPlayableOutputPv
Qrd:__ZN27PerformanceReportingManager29OnSceneLoadedAfterAwakeStaticEPS_iR18AwakeFromLoadQueueN19RuntimeSceneManager11LoadingModeE
S$i:_Array_SetValue_m394135409
b_l:__ZN28GenericInterfaceFuncInvoker2IiffE6InvokeEPK10MethodInfoP12Il2CppObjectff
Jba:__ZN14FileCacherReadD2Ev
Wbb:__ZN13RendererScene23UpdatePreviousFrameDataEii
VZj:_BinaryWriter_Write_m973309864
hyi:_MonoBehaviour_StopCoroutine_m615723318
Vsc:__Z50Register_UnityEngine_CullingGroup_FinalizerFailurev
smn:__ZNK15dense_hashtableINSt3__24pairIK10KeyWrapperINS1_IPK14Il2CppAssemblyP11Il2CppClassEEEjEES9_17ReflectionMapHashIS8_EN14dense_hash_mapIS9_jSD_NS9_14EqualsComparerINS0_8equal_toIS8_EEEENS0_9allocatorISB_EEE9SelectKeyESI_SK_E10test_emptyEj
ugj:_Mesh_GetAllocArrayFromChannel_TisVector2_t2156229523_m1057679375_gshared
U6c:__Z32TransferEnumWithNameForceIntSizeI14SafeBinaryReadN8UVModule4ModeEEvRT_RT0_PKc17TransferMetaFlags
xCa:__ZNK4PPtrI5FlareEcvPS0_Ev
Pdi:_IPHostEntry_get_AddressList_m1351062776
JB:__ZN26AnimatorControllerPlayable6MemoryD2Ev
noh:__Z56RuntimeInvoker_Int32_t2950945753_SpriteState_t1362986479PFvvEPK10MethodInfoPvPS4_
DCo:__ZL65ClearImmediateRenderers_t365505584_CustomAttributesCacheGeneratorP21CustomAttributesCache
Juh:_InternalEnumerator_1__ctor_m4227797183_gshared
fdl:_List_1_get_Item_m280817263_gshared
Znc:__ZN12ShaderErrors11ShaderErrorC2EOS0_
Glp:__ZNKSt3__221__basic_string_commonILb1EE20__throw_out_of_rangeEv
ERe:__ZN5physx10PxsCCDPair12updateShapesEv
rTg:__Z78RuntimeInvoker_Boolean_t97287965_RuntimeObject_RuntimeObject_Int32_t2950945753PFvvEPK10MethodInfoPvPS4_
Ein:_UpdatedEventHandler_Invoke_m1320302085
xNj:_String_Format_m630303134
kDn:__ZNK15dense_hashtableINSt3__24pairIK10KeyWrapperIP14Il2CppIUnknownEjEES5_N6il2cpp5utils11PointerHashIS3_EEN14dense_hash_mapIS5_jSB_NS5_14EqualsComparerINS0_8equal_toIS4_EEEENS0_9allocatorIS7_EEE9SelectKeyESG_SI_E12test_deletedERK24dense_hashtable_iteratorIS7_S5_SB_SK_SG_SI_E
aDm:_Adler_Adler32_m2918808405
QHo:__ZL53GameObject_t1113636619_CustomAttributesCacheGeneratorP21CustomAttributesCache
iU:__ZN9AudioClip23VirtualRedirectTransferER18StreamedBinaryReadILb0EE
EI:__ZN26AnimatorOverrideController23VirtualRedirectTransferER24GenerateTypeTreeTransfer
o9l:_List_1_AddEnumerable_m2724989594_gshared
Fdl:_List_1_AddRange_m1807884661_gshared
ram:_List_1_Contains_m2043463915_gshared
sIh:_ArraySegment_1_get_Array_m2601536033_AdjustorThunk
Vte:__ZN5physx2Sc9ClothCore22removeCollisionCapsuleEj
A7g:__Z82RuntimeInvoker_Vector2_t2156229523_Vector2_t2156229523_RuntimeObject_RuntimeObjectPFvvEPK10MethodInfoPvPS4_
qRc:__Z70Register_UnityEngine_Playables_PlayableHandle_GetPlayableType_Injectedv
NPk:_Enumerator_get_Current_m2708222222_AdjustorThunk
DNb:__ZNK4PPtrI23ShaderVariantCollectionEcvPS0_Ev
x8d:__ZN5physx16PxsIslandManager25setArticulationLinkHandleEjPvRKNS_20PxsIslandManagerHookIjLj4294967295EEE
tk:_glCopyTexSubImage2D
PGc:__ZNK24RendererAnimationBinding13GetFloatValueERKN11UnityEngine9Animation10BoundCurveE
ndd:__ZNK21RotationBySpeedModule6UpdateERK27ParticleSystemReadOnlyStateRK19ParticleSystemStateR23ParticleSystemParticlesRKN4math7_float4Ejj
aQl:_ReadOnlyCollection_1_System_Collections_IList_Insert_m1104620799_gshared
U$:__ZNK15DownloadHandler14HasPendingDataEv
dUk:_Dictionary_2__ctor_m2856239275_gshared
$Xm:_UnitySynchronizationContext_ExecuteTasks_m1310741010
nEj:_RIPEMD160Managed_CompressFinal_m497690796
LKb:__ZN18ScreenManagerWebGL13SetShowCursorEb
ewh:_InternalEnumerator_1_MoveNext_m1773160976_gshared
IYb:__ZN13DrawImmediateC2ER9GfxDevice
eGa:__ZN18VertexChannelsInfoC2ERA12_K11ChannelInfo
I7j:_Convert_ToInt64_m2849840611
PDf:__ZN2UI13CanvasManager14GetRenderOrderEPKNS_6CanvasE
mie:__ZN5physx6shdfnd5ArrayIPNS_3Scb5ShapeENS0_15InlineAllocatorILj16ENS0_19ReflectionAllocatorIS4_EEEEE15growAndPushBackERKS4_
itb:__Z18Transfer_BlittableI14SafeBinaryReadLb0E5RectTIfEEvRK29SerializationCommandArgumentsR31RuntimeSerializationCommandInfo
rBj:_NumberFormatter_NumberToString_m2562899600
wxe:__ZNK5physx2Sc18ParticleSystemCore15getParticleMassEv
XGj:_SymmetricAlgorithm_get_FeedbackSize_m3666584308
l6h:_Array_InternalArray__IEnumerable_GetEnumerator_TisTMP_CharacterInfo_t3185626797_m2871718332_gshared
Zsf:_otv_u_C_x_Ox
iLd:__ZL44__ManagedRegistrationHelperFunction_ColliderPv
lpb:__ZN18AsyncUploadManager19AsyncResourceUploadER9GfxDeviceii9TextureID
bbo:__ZL70RuntimeArray_CustomAttributesCacheGenerator_Array_GetValue_m1062368071P21CustomAttributesCache
Vup:_emscripten_glGenVertexArrays__wrapper
IWl:_ReadOnlyCollection_1_get_Count_m2445738777_gshared
bKk:_ShimEnumerator_get_Key_m4155849607_gshared
D7o:__ZL126U3CSpawnWormholesU3Ec__Iterator8_t3493837421_CustomAttributesCacheGenerator_U3CSpawnWormholesU3Ec__Iterator8__ctor_m3311551030P21CustomAttributesCache
kSa:__ZN6prcoreL21CreateRemapAnyBlitterE13TextureFormatS0_
Rkj:_RSAManaged_ExportParameters_m1754454264
_Mc:__ZN17AnimationCurveTplIfE16StripInvalidKeysEv
y2i:_Boolean_Equals_m535526264_AdjustorThunk
ynh:__Z71RuntimeInvoker_KeyValuePair_2_t71524366_Int32_t2950945753_RuntimeObjectPFvvEPK10MethodInfoPvPS4_
C0l:_U3CCreateWhereIteratorU3Ec__Iterator1D_1_System_Collections_IEnumerator_get_Current_m2550921559_gshared
$Of:__ZN13dynamic_arrayIiLj0EE6insertEPiPKiS3_
Q7l:_List_1_TrimExcess_m3801445587_gshared
ZDf:__ZNK2UI6Canvas17GetSortingLayerIDEv
A8j:_Convert_ToUInt16_m3116648921
oOc:__ZL12HashLen0to16PKcj
zyd:__ZN14Raycast2DQuery8RunQueryEb
nYa:__ZN8Renderer24SetupNewRendererForSceneEv
bqk:_Type_internal_from_name_m1721940673
rbj:_Array_swap_TisCustomAttributeTypedArgument_t2723150157_TisCustomAttributeTypedArgument_t2723150157_m365781156_gshared
SPj:_Environment_get_TickCount_m2088073110
XJg:_RemotingServices_GetMethodBaseFromName_m3194612939
T4f:_TMP_Text_set_tintAllSprites_m2515828743
L1c:__Z35Transfer_Blittable_FixedBufferFieldI8JSONReadtEvRK29SerializationCommandArgumentsR31RuntimeSerializationCommandInfo
tCa:__ZN4PPtrI7TextureE8TransferI14SafeBinaryReadEEvRT_
a1e:__ZN5physx2Sc8ClothSim16addCollisionMeshEPKNS0_8ShapeSimE
NJc:__ZN14PlayableOutput6HandleEv
zZa:__ZNK6Sprite22GetTypeVirtualInternalEv
Hra:__ZN9Scripting11UnityEngine12Experimental9Playables22MaterialEffectPlayable9InitProxyEv
eNf:__ZNSt3__26__treeINS_12__value_typeIN4core12basic_stringIcNS2_20StringStorageDefaultIcEEEEN11UnityEngine7Connect19RemoteSettingsValueEEENS_19__map_value_compareIS6_SA_NS_4lessIS6_EELb1EEE13stl_allocatorISA_L18MemLabelIdentifier6ELi16EEE16__construct_nodeIJNS_4pairIS6_S9_EEEEENS_10unique_ptrINS_11__tree_nodeISA_PvEENS_22__tree_node_destructorISF_ISP_LSG_6ELi16EEEEEEDpOT_
uo:FUNCTION_TABLE_iiiiiiiiiiiiii
j_g:__Z60RuntimeInvoker_RuntimeObject_Int16_t2552820387_RuntimeObjectPFvvEPK10MethodInfoPvPS4_
c6e:__ZN5physx6shdfnd5ArrayIPKNS_10PxsCCDBodyENS0_19ReflectionAllocatorIS4_EEE8recreateEj
Shm:_Collection_1_InsertItem_m353733697_gshared
QEh:_InternalEnumerator_1_MoveNext_m683739489_gshared
gie:__ZN5physx6shdfnd4sortINS_2Cm19PreallocatingRegionENS0_4LessIS3_EENS0_19ReflectionAllocatorIS3_EEEEvPT_jRKT0_RKT1_j
pPf:__ZN19UnityConnectService18OnPlayerQuitStaticEPS_
v2j:_SyncQueue_ToArray_m1004054973
Qtf:_UNITY_tt_get_cmap_info
Rsh:_InternalEnumerator_1__ctor_m3504696505_gshared
f0l:__ZN21InterfaceFuncInvoker0IjE6InvokeEjP11Il2CppClassP12Il2CppObject
lsj:_SslClientStream_RaiseServerCertificateValidation_m3477149273
Yzb:__Z29Transfer_Blittable_ArrayFieldI24GenerateTypeTreeTransfer5RectTIiEEvRT_R9ArrayInfoRK23StaticTransferFieldInfo
DIa:__ZN16ReflectionProbes8ScheduleEN18ReflectionProbeJob7JobTypeEP15ReflectionProbei
goj:_ClientSessionInfo_KeepAlive_m1020179566
d4n:_JSONNode_op_Implicit_m15872920
Jam:_List_1_ToArray_m4056539300_gshared
teo:__ZL51Calendar_t1661121569_CustomAttributesCacheGeneratorP21CustomAttributesCache
Hfi:__ZN28GenericInterfaceFuncInvoker5IP26X509Certificate_t713131622P12Il2CppObjectP8String_tP37X509CertificateCollection_t3399372417S1_P24StringU5BU5D_t1281789340E6InvokeEPK10MethodInfoS3_S3_S5_S7_S1_S9_
Rca:__ZN16MessageForwarder13HandleMessageEPviR11MessageData
lhb:__Z18IsDirectoryCreatedRKN4core12basic_stringIcNS_20StringStorageDefaultIcEEEE
jIj:_String_FormatHelper_m3913915042
EAe:__ZN5physx19NpRigidBodyTemplateINS_14PxRigidDynamicEE20setRigidDynamicFlagsENS_7PxFlagsINS_15PxRigidBodyFlag4EnumEhEE
VBf:__ZN2UI13CanvasManagerD2Ev
Eqd:__ZZN14ParticleSystem15InitializeClassEvEN52PreLateUpdateParticleSystemBeginUpdateAllRegistrator7ForwardEv
Qbn:__ZN15dense_hashtableINSt3__24pairIK10KeyWrapperIPKcEP11Il2CppClassEES5_N6il2cpp5utils11StringUtils12StringHasherIS4_EEN14dense_hash_mapIS5_S8_SE_NS5_14EqualsComparerINSB_13VmStringUtils21CaseSensitiveComparerEEENS0_9allocatorIS9_EEE9SelectKeyESJ_SL_E15set_deleted_keyERKS9_
J8g:__Z38RuntimeInvoker_ContentType_t1787303396PFvvEPK10MethodInfoPvPS4_
aPl:_ReadOnlyCollection_1_Contains_m1700717617_gshared
yPg:__Z141RuntimeInvoker_Boolean_t97287965_RuntimeObject_Int32_t2950945753_RuntimeObject_SByte_t1669577662_Int64U26_t200113976_ExceptionU26_t3600731591PFvvEPK10MethodInfoPvPS4_
mlo:__ZL53IFormatter_t3549834567_CustomAttributesCacheGeneratorP21CustomAttributesCache
Hnf:_UNITY_FT_GlyphLoader_Done
bia:__ZNSt3__23mapIiN11TypeManager18TypeCallbackStructENS_4lessIiEENS_9allocatorINS_4pairIKiS2_EEEEEixERS7_
jPo:__ZL89GUIStyle_t3956901511_CustomAttributesCacheGenerator_GUIStyle_get_stretchWidth_m3556443132P21CustomAttributesCache
BKc:__ZN9Polygon2D16CheckConsistencyEv
ezg:_U3CDelayedDestroyDropdownListU3Ec__Iterator0__ctor_m912479353
nze:__ZN5physx22NpParticleBaseTemplateINS_16PxParticleSystemENS_16NpParticleSystemEE20setMaxMotionDistanceEf
Hrb:__ZNK17InstancingBatcher15RenderInstancesERK19ShaderPropertySheetRKNS_22RenderInstancesConfigsERK11MeshBuffersRK16DrawBuffersRange16VertexInputMasks
Dfk:_StackTrace_get_FrameCount_m344690939
xba:__ZN13dynamic_arrayIcLj0EE6insertEPcPKcS3_
dTl:_ReadOnlyCollection_1_CopyTo_m2330334359_gshared
XBi:_Quaternion_GetHashCode_m2636680144_AdjustorThunk
Wum:_TMP_XmlTagStack_1_Push_m1847519558_gshared
O$j:_FileStream_BeginRead_m2419864669
iwj:_UnexceptionalStreamWriter_Write_m363195622
mVe:__ZN5physx18ComputeSortedListsEPNS_2Cm10BitMapBaseINS_6shdfnd9AllocatorEEEjjPKjPPNS_8SapBox1DES7_PjSB_jRKNS_2Gu4AxesESB_RjSB_SG_RbSH_
N0h:_Array_get_swapper_TisRuntimeObject_m1378919517_gshared
iqg:_EventTrigger_OnInitializePotentialDrag_m2172162368
Quf:_tt_cmap14_char_var_index
FGb:__Z35Transfer_Blittable_FixedBufferFieldI18StreamedBinaryReadILb0EEdEvRK29SerializationCommandArgumentsR31RuntimeSerializationCommandInfo
C2m:_Physics2D_Raycast_m1700114981
PKi:_Selectable_OnPointerDown_m1086067264
Vyf:_psh_globals_new
Gyg:_Dropdown_SetupTemplate_m628218778
wlk:_Thread_GetCompressedStack_m2923422412
Elj:__ZN28GenericInterfaceFuncInvoker2IbP26X509Certificate_t713131622P22Int32U5BU5D_t385246372E6InvokeEPK10MethodInfoP12Il2CppObjectS1_S3_
Hwi:_Matrix4x4_MultiplyPoint3x4_m4145063176
Eli:_X509BasicConstraintsExtension_ToString_m1809935297
rlb:__ZN9GfxDevice20SetMaxBufferedFramesEi
Kof:__ZNK20TextRenderingPrivate8TextMesh22GetTypeVirtualInternalEv
iCm:_TweenRunner_1_StartTween_m1055628540_gshared
qul:_Array_qsort_TisUIVertex_t4057497605_TisUIVertex_t4057497605_m678708019_gshared
Qdj:_Mesh_SetArrayForChannel_TisVector4_t3319028937_m3058558403_gshared
NRm:__ZL24UnresolvedVirtualCall_61P12Il2CppObjectsPK10MethodInfo
etd:__ZN10Collider2D19WakeAllBodyContactsEv
Idj:_GameObject_GetComponents_TisRuntimeObject_m1246177135_gshared
$Q:__ZN24AudioScriptBufferManagerD2Ev
vWk:_Dictionary_2_GetObjectData_m4173439531_gshared
k9m:__ZNSt3__218uninitialized_fillIPNS_4pairIK10KeyWrapperIPK22Il2CppGenericParameterEP11Il2CppClassEESA_EEvT_SC_RKT0_
axj:_MethodAccessException__ctor_m3542088436
Kgc:__Z23ConvertIntegerToTypePtrIsEbPvR14SafeBinaryRead
ev:__ZN9Scripting11UnityEngine10Animations26AnimatorControllerPlayable9InitProxyEv
m7o:__ZL193U3CSpawnEnemyType1WaveU3Ec__Iterator5_t1046529208_CustomAttributesCacheGenerator_U3CSpawnEnemyType1WaveU3Ec__Iterator5_System_Collections_Generic_IEnumeratorU3CobjectU3E_get_Current_m1994893278P21CustomAttributesCache
Tud:__ZN12b2MouseJoint11ShiftOriginERK6b2Vec2
vde:__ZNK5physx14NpArticulation17releaseDriveCacheERNS_24PxArticulationDriveCacheE
Wan:__ZN6il2cpp2vm5Class12HasAttributeEP11Il2CppClassS3_
U5i:_ArrayListWrapper_get_Capacity_m51087796
uMi:_LayoutElement_get_minHeight_m4160507569
zNf:__ZN11UnityEngine7Connect13ConfigHandler13ConfigChangedERKN4core12basic_stringIcNS2_20StringStorageDefaultIcEEEEb
nkg:_MaterialReferenceManager_TryGetSpriteAssetInternal_m3148505359
ACl:_EqualityComparer_1_System_Collections_IEqualityComparer_GetHashCode_m2230215241_gshared
Kzo:__ZL91Quaternion_t2301928331_CustomAttributesCacheGenerator_Quaternion_FromToRotation_m3769621427P21CustomAttributesCache
f_o:__ZL60ContentSizeFitter_t3850442145_CustomAttributesCacheGeneratorP21CustomAttributesCache
h9i:_Hashtable_Contains_m2145146412
Ywo:__ZL64UnmarshalledAttribute_t1517743549_CustomAttributesCacheGeneratorP21CustomAttributesCache
sXh:_MonoGenericCMethod__ctor_m1374831274
tla:__ZN6prcoreL29inner_stretch_rgb565_bilinearEPKNS_9InnerInfoE
oDk:_Enumerator__ctor_m1195706188_AdjustorThunk
wte:__ZNK5physx2Sc9ClothCore25getSelfCollisionStiffnessEv
Cbd:__Z13UpdateSizeTplIL27ParticleSystemCurveEvalMode3EEvRK11MinMaxCurveR23ParticleSystemParticlesbjj
RMh:_TypeBuilder__ctor_m3644689907
QHn:__ZN6il2cpp2vm12GenericClass12SetupMethodsEP11Il2CppClass
qFa:__Z26TransformVerticesInnerLoopILb0ELb0ELb1EEvPhRK10Matrix4x4fRK10Matrix3x3fjPKhiS8_ii25GfxTransformVerticesFlagsj
PVn:__ZN6il2cpp2os9FastMutex4LockEv
tFm:_ZlibBaseStream__ReadAndValidateGzipHeader_m3819338223
AWj:_Int32_FindCurrency_m3541026887
G_k:_Interval_CompareTo_m3282557545
bwp:_pthread_cond_wait__wrapper
V7b:__ZNK14RenderSettings19GetFlatAmbientColorEv
LEa:__ZN8DrawUtil24DrawMeshRawFromNodeQueueERK15RenderNodeQueuej16VertexInputMasksi
T7a:__ZN18StreamedBinaryReadILb0EE21TransferSTLStyleArrayI10vector_mapIPKN5Unity4TypeE7Hash128NSt3__24lessIS6_EENS8_9allocatorINS8_4pairIS6_S7_EEEEEEEvRT_17TransferMetaFlags
PC:__ZNK27StateMachineBehaviourPlayer15IsSenderEnabledEv
uVm:__ZL25UnresolvedVirtualCall_258P12Il2CppObjectaaiPK10MethodInfo
IZo:__ZL58Text_t1901882714_CustomAttributesCacheGenerator_m_FontDataP21CustomAttributesCache
PQh:_GenericTypeParameterBuilder_IsPrimitiveImpl_m1952010459
WRl:_ReadOnlyCollection_1_CopyTo_m3474153465_gshared
vGo:__ZL78PlayerConnection_t3081694049_CustomAttributesCacheGenerator_m_connectedPlayersP21CustomAttributesCache
Yhg:_RijndaelManagedTransform_TransformBlock_m1610137419
zBk:_Enumerator_System_Collections_IDictionaryEnumerator_get_Entry_m1355283127_gshared
nyc:__Z40Register_UnityEngine_Transform_SetParentv
_pn:__ZN15dense_hashtableINSt3__24pairIK10KeyWrapperINS1_IPK9EventInfoP11Il2CppClassEEEjEES9_17ReflectionMapHashIS8_EN14dense_hash_mapIS9_jSD_NS9_14EqualsComparerINS0_8equal_toIS8_EEEENS0_9allocatorISB_EEE9SelectKeyESI_SK_E6insertERKSB_
Rdp:_TMP_TextEventHandler_Awake_m3560580738
BRa:__ZN14Texture2DArray17UploadToGfxDeviceEv
BOl:_ReadOnlyCollection_1_IndexOf_m1402369841_gshared
wHm:_Event_set_displayIndex_m1342258734
SP:__Z14FMODMemoryFreePvjPKc
tKo:__ZL100RectTransform_t3704657025_CustomAttributesCacheGenerator_RectTransform_INTERNAL_get_rect_m3130887130P21CustomAttributesCache
asg:_PointerEventData_ToString_m238029461
Ara:__ZN9Scripting11UnityEngine12Experimental10PlayerLoop11FixedUpdate12CleanupProxyEv
eWj:_Int16_System_IConvertible_ToType_m3672347013
n_m:_NetFxCoreExtensions_GetMethodInfo_m444570327
txi:_Mesh_SetNormals_m2521889643
v1f:_TMP_Settings_get_missingGlyphCharacter_m3560139616
nHo:__ZL63SpriteBone_t303320096_CustomAttributesCacheGenerator_m_RotationP21CustomAttributesCache
Ovf:_tt_cmap0_validate
R3i:_Char_System_IConvertible_ToDecimal_m3534906463
gqf:_cf2_glyphpath_moveTo
dZn:_EnemyScript_Start_m2844579575
fLe:__ZN5physx3Scb4Body9syncStateEv
hdo:__ZL86MSCompatUnicodeTable_t1453885583_CustomAttributesCacheGenerator_U3CU3Ef__switchU24map4P21CustomAttributesCache
ZZh:_TypeDelegator_IsPointerImpl_m458295709
OGd:__ZNK13BoxCollider2D22GetTypeVirtualInternalEv
Uvd:__Z6b2FreePv10MemLabelId
dQc:__Z51Register_UnityEngine_Texture_get_texelSize_Injectedv
lGi:_StackTraceUtility_SetProjectFolder_m830524047
Fhe:__ZN5physx12PxsRigidBody23updatePoseDependenciesVERNS_10PxsContextE
nz:__ZN7mecanim23TransformValueArrayLoopEiiiRKN4math4trsXES3_RNS_10ValueArrayEf
voj:_ClientSessionInfo_Finalize_m2165787049
ZXc:__ZN5IMGUI14GUIWindowStateD2Ev
snj:_ClientContext_Clear_m1774063253
XLc:__ZN4Mesh17SetIndicesComplexEPKvjj16GfxPrimitiveTypeij
Iod:__Z20UpdateWholeSheet2TplIL27ParticleSystemCurveEvalMode1ELS0_0EEvfRK11MinMaxCurveS3_RK23ParticleSystemParticlesPf
a6f:_TMP_Text_get_mappingUvLineOffset_m762916951
bbk:_DateTime_AddSeconds_m332574389_AdjustorThunk
HXm:_RequestAtlasCallback_Invoke_m378128467
a3i:_Byte_System_IConvertible_ToSByte_m1869482168
hzg:_U3CDelayedDestroyDropdownListU3Ec__Iterator0_MoveNext_m213723240
Pfo:__ZL56DynamicMethod_t2537779570_CustomAttributesCacheGeneratorP21CustomAttributesCache
KMb:__Z21PlayerStartFirstSceneb
bmh:__Z44RuntimeInvoker_MonoWin32Resource_t1904229483PFvvEPK10MethodInfoPvPS4_
oG:__ZN7mecanim5human10RetargetToEPKNS0_5HumanEPKNS0_9HumanPoseES6_RKN4math4trsXEPS4_PNS_8skeleton13SkeletonPoseTIS8_EESF_
gz:__ZN7mecanim9animation8SeekClipERKNS0_12StreamedClipERNS0_18StreamedClipMemoryEf
_em:_Collection_1_Add_m2420538118_gshared
Xfp:_Request_Send_m3316085126
Bti:_GameObject_Internal_AddComponentWithType_m3797731663
dn:_emscripten_glIsTexture
gch:__Z93RuntimeInvoker_Single_t1397266774_Vector3_t3722313464_Vector3_t3722313464_Vector3_t3722313464PFvvEPK10MethodInfoPvPS4_
jbl:_List_1__ctor_m2190796336_gshared
Kl:_emscripten_glHint
HKm:_Check_SourceAndPredicate_m2332465641
AQo:__ZL74ContactFilter2D_t3805203441_CustomAttributesCacheGenerator_useOutsideDepthP21CustomAttributesCache
V5g:__Z67RuntimeInvoker_Boolean_t97287965_TextGenerationSettings_t1351628751PFvvEPK10MethodInfoPvPS4_
Exf:_ft_var_readpackeddeltas
CJj:_String_op_Inequality_m215368492
ozl:_Dictionary_2_Clear_m1938428402_gshared
xdp:_U3CWarpTextU3Ec__Iterator0_MoveNext_m859178164
Yig:_FloatTween_set_duration_m2869502762
eDb:__Z35Transfer_Blittable_FixedBufferFieldI18StreamedBinaryReadILb1EEtEvRK29SerializationCommandArgumentsR31RuntimeSerializationCommandInfo
tsk:_UInt32_System_IConvertible_ToInt64_m2261037378
gn:_SDL_UpperBlit
M5e:__ZN5physx2Cm12DelegateTaskINS_2Sc5SceneEXadL_ZNS3_13ccdBroadPhaseEPNS_10PxBaseTaskEEEED0Ev
mel:_List_1_System_Collections_IList_Add_m49923158_gshared
yIa:__Z35GetTextureDecodeValuesWithIntensity16TextureUsageMode17TextureColorSpace10ColorSpacef
a1k:_Parser_ParseRepetitionBounds_m1246581246
P2h:_Array_InternalArray__ICollection_Remove_TisChar_t3634460470_m4143749387_gshared
WYb:__ZN15dense_hashtableINSt3__24pairIK9TextureIDiEES2_14GfxGenericHashIS2_EN14GfxDoubleCacheIS2_iS6_NS0_8equal_toIS2_EEN31GfxDoubleCacheConcurrencyPolicy11LocklessGetE42GfxDoubleCacheDefaultEmptyDeletedGeneratorIS2_EE9SelectKeyES9_13stl_allocatorIS4_L18MemLabelIdentifier24ELi16EEE14squash_deletedEv
vAc:__Z13RegisterClassI14Texture2DArrayEvPKc
hZf:_TMP_InputField_get_readOnly_m494535143
hXe:__ZN5physx14PxsAABBManager21processAggregatePairsEPKNS_19AggregateSortedDataE
Pud:__ZNK12b2MouseJoint10GetAnchorAEv
wff:_PxCreateCooking
rRj:_GregorianCalendar__ctor_m979779718
Mrj:_SslClientStream__ctor_m2402546929
zJb:__ZN14SafeBinaryRead20OverrideRootTypeNameEPKc
mgh:__Z55RuntimeInvoker_Int32_t2950945753_ArrayEntry_t3388270535PFvvEPK10MethodInfoPvPS4_
V8m:__ZNK10KeyWrapperIPK22Il2CppGenericParameterE14EqualsComparerINSt3__28equal_toIS2_EEEclERKS3_SA_
Nba:__ZN14FileCacherRead16UnlockCacheBlockEj
C9k:_Enumerator_Dispose_m951715887_AdjustorThunk
KQo:__ZL57ContactPoint2D_t3390240644_CustomAttributesCacheGeneratorP21CustomAttributesCache
JIn:__ZN6il2cpp2os10SocketImpl13GetHostByNameERKNSt3__212basic_stringIcNS2_11char_traitsIcEENS2_9allocatorIcEEEERS8_RNS2_6vectorIS8_NS6_IS8_EEEESF_
fVf:_TMP_Text_set_extraPadding_m286773043
Fih:__Z76RuntimeInvoker_Void_t1185182177_Int32_t2950945753_KeyValuePair_2_t2245450819PFvvEPK10MethodInfoPvPS4_
Ptp:_emscripten_glVertexAttrib1f__wrapper
dJ:__ZN26AnimatorOverrideController8TransferI24GenerateTypeTreeTransferEEvRT_
x$j:_IsolatedStorageException__ctor_m1022659452
Dke:__ZNK5physx12NpBatchQuery23getFilterShaderDataSizeEv
X5:__ZN10InstancingL21OnGraphicsCapsChangedEv
Fwb:__Z18Transfer_BlittableI17RemapPPtrTransferLb1E8Vector3fEvRK29SerializationCommandArgumentsR31RuntimeSerializationCommandInfo
yio:__ZL61ClassInterfaceType_t4029497327_CustomAttributesCacheGeneratorP21CustomAttributesCache
jWk:_Dictionary_2_InitArrays_m3098915476_gshared
Wnk:_WaitHandle_get_Handle_m3260446580
xal:_Enumerator_VerifyState_m1745883925_AdjustorThunk
adp:_U3CAnimateVertexColorsU3Ec__Iterator0_Dispose_m1243804753
wd:_emscripten_glUniform1f
w2j:_SortedList__ctor_m1261191695
Jwn:__ZN6il2cpp2vm6Thread28GetThreadStaticDataForThreadEiP12Il2CppThread
Z6c:__ZN14SafeBinaryRead21TransferSTLStyleArrayI13dynamic_arrayIN8UVModule10SpriteDataELj0EEEEvRT_17TransferMetaFlags
uif:__ZN5physx7profile11EventBufferINS_24PxDefaultContextProviderENS_6shdfnd6MutexTINS0_26WrapperReflectionAllocatorIhEEEENS0_14ScopedLockImplIS7_EENS_24PxProfileNullEventFilterEE10doAddEventINS0_17RelativeStopEventEEEvhtRKT_
wRg:__Z75RuntimeInvoker_Int32_t2950945753_DecimalU26_t3714369516_Int64U26_t200113976PFvvEPK10MethodInfoPvPS4_
sof:__Z20ParseImageParametersR11UTF16StringRiRN20TextRenderingPrivate16TextFormatChangeE
WZo:__ZL55CanvasScaler_t2767979955_CustomAttributesCacheGeneratorP21CustomAttributesCache
gLl:_Collection_1_RemoveItem_m2942561924_gshared
k3m:_UIntPtr_ToString_m984583492_AdjustorThunk
Bd:_emscripten_glUniform1i
g6n:_JSONString_get_Tag_m2633482921
tyb:__Z18Transfer_BlittableI24GenerateTypeTreeTransferLb1EN4math12int3_storageEEvRK29SerializationCommandArgumentsR31RuntimeSerializationCommandInfo
wG:__ZN12_GLOBAL__N_119PreProcessAnimationER35AnimationPlayableEvaluationConstantR17AnimationPlayable
N4e:__ZN5physx2Sc19ShapeInstancePairLL23postIslandGenSecondPassEv
EMd:__ZN14PhysicsManager23VirtualRedirectTransferER19StreamedBinaryWriteILb0EE
von:__ZN15dense_hashtableINSt3__24pairIK10KeyWrapperINS1_IPK10MethodInfoP11Il2CppClassEEEjEES9_17ReflectionMapHashIS8_EN14dense_hash_mapIS9_jSD_NS9_14EqualsComparerINS0_8equal_toIS8_EEEENS0_9allocatorISB_EEE9SelectKeyESI_SK_E12expand_arrayEjN21dense_hash_map_traits17integral_constantIbLb0EEE
cng:_TextMeshProUGUI_get_maskOffset_m421670010
n_:__ZN11UnityEngine15CloudWebService16SessionContainer20RestoreSessionHeaderERKN4core12basic_stringIcNS2_20StringStorageDefaultIcEEEES8_RNS0_13SessionHeaderE
Nif:__ZN5physx26PxPhysicsInsertionCallbackD2Ev
JPf:__ZN22UnityWebRequestManager13BackendRetainEv
eLc:__ZN8Material28ApplyMaterialPropertyDrawersEv
vQe:__ZN5physx2Sq16BucketPrunerCore12updateObjectERKNS_9PxBounds3ERKNS0_13PrunerPayloadE
_3e:__ZN5physx18PxsDynamicsContext23atomIntegrationParallelEfPKPNS_11PxsBodyCoreEPKPNS_12PxsRigidBodyEjPKNS_2Cm13SpatialVectorEPNS_13PxcSolverBodyEPNS_17PxcSolverBodyDataEPSA_RjSI_RNS_10PxBaseTaskE
kEk:_Enumerator_Dispose_m1360775770_AdjustorThunk
A9m:__ZN24dense_hashtable_iteratorINSt3__24pairIK10KeyWrapperIPK22Il2CppGenericParameterEP11Il2CppClassEES6_N6il2cpp5utils11PointerHashIS4_EEN14dense_hash_mapIS6_S9_SE_NS6_14EqualsComparerINS0_8equal_toIS5_EEEENS0_9allocatorISA_EEE9SelectKeyESJ_SL_E30advance_past_empty_and_deletedEv
$v:__ZN11UnityEngine9Animation27CreateAvatarBindingConstantER9TransformPKN7mecanim9animation14AvatarConstantERNS3_6memory9AllocatorE
gdi:_MonoTODOAttribute__ctor_m1298576268
EOi:_MaskableGraphic_get_onCullStateChanged_m3331479633
cWg:__Z151RuntimeInvoker_RuntimeObject_Int32_t2950945753_RuntimeObject_ObjectU5BU5DU26_t712384779_RuntimeObject_RuntimeObject_RuntimeObject_ObjectU26_t2146539884PFvvEPK10MethodInfoPvPS4_
kIf:__ZN8JSONRead19TransferSTLStyleMapINSt3__23mapIN4core12basic_stringIcNS3_20StringStorageDefaultIcEEEEN11UnityEngine9Analytics16LimitEventConfigENS1_4lessIS7_EE13stl_allocatorINS1_4pairIKS7_SA_EEL18MemLabelIdentifier6ELi16EEEEEEvRT_17TransferMetaFlags
oPc:__ZN9BlobWriteC2ER13dynamic_arrayIhLj16EE24TransferInstructionFlags19BuildTargetPlatform
uvg:_CanvasUpdateRegistry__ctor_m2005397069
Wmm:_TlsServerSettings_get_Certificates_m3981837031
V9:__ZN14MessageHandler3GetEv
nIh:_ArraySegment_1_Equals_m1390218566_gshared
osh:_InternalEnumerator_1__ctor_m1359891754_AdjustorThunk
kti:_SupportedRenderingFeatures_FallbackMixedLightingModeByRef_m3859171964
Qd:_emscripten_glAttachShader
zqc:__Z16tesedgeIntersectP10TESSvertexS0_S0_S0_S0_
X3:__Z40DebugStringToFilePostprocessedStacktraceRK21DebugStringToFileData
eDg:_Image__cctor_m1927508576
umk:_SendOrPostCallback_EndInvoke_m2485163446
olc:__ZNSt3__26vectorIN4core12basic_stringIcNS1_20StringStorageDefaultIcEEEENS_9allocatorIS5_EEE6assignIPS5_EENS_9enable_ifIXaasr21__is_forward_iteratorIT_EE5valuesr16is_constructibleIS5_NS_15iterator_traitsISC_E9referenceEEE5valueEvE4typeESC_SC_
B_d:__ZN5physx2Gu19GetRaycastFuncTableEv
tMm:_UploadHandler_Dispose_m3057340132
Icp:_VertexShakeA_Start_m1684282329
BXa:__ZThn32_N8Renderer15AddAsRenderNodeER15RenderNodeQueueRK20DeprecatedSourceData
sVb:__ZN13dynamic_arrayIN18GlslGpuProgramGLES9GLProgramELj0EE6insertEPS1_jRKS1_
QHh:_InternalEnumerator_1_get_Current_m3331252162_AdjustorThunk
t8j:_Convert_ToString_m2142825503
L9n:__ZL76String_t_CustomAttributesCacheGenerator_String_Concat_m1809518182____values0P21CustomAttributesCache
Rsb:__Z18Transfer_BlittableI14SafeBinaryReadLb0E11QuaternionfEvRK29SerializationCommandArgumentsR31RuntimeSerializationCommandInfo
LGd:__ZN13BoxCollider2D16CheckConsistencyEv
F4e:__ZN5physx17EdgeChangeManager23cleanupBrokenEdgeEventsEPKNS_4EdgeE
nGb:__Z18Transfer_BlittableI18StreamedBinaryReadILb0EELb1E12PropertyNameEvRK29SerializationCommandArgumentsR31RuntimeSerializationCommandInfo
F3:_tlsf_walk_heap
DVg:__Z49RuntimeInvoker_Void_t1185182177_OpCode_t123070264PFvvEPK10MethodInfoPvPS4_
t3d:__ZN5physx2Sc35ParticleElementRbElementInteraction7destroyEbj
yyn:__ZNK15dense_hashtableINSt3__24pairIK10KeyWrapperIP11Il2CppClassES4_EES5_N6il2cpp8metadata16SZArrayClassHashEN14dense_hash_mapIS5_S4_SA_NS5_14EqualsComparerINS9_19SZArrayClassCompareEEENS0_9allocatorIS7_EEE9SelectKeyESE_SG_E10test_emptyERK24dense_hashtable_iteratorIS7_S5_SA_SI_SE_SG_E
wln:__ZN6il2cpp2vm7Runtime6InvokeEPK10MethodInfoPvPS5_PP15Il2CppException
G3g:__Z69RuntimeInvoker_Void_t1185182177_Int32_t2950945753_HitInfo_t3229609740PFvvEPK10MethodInfoPvPS4_
gNo:__ZL59AnimatorClipInfo_t3156717155_CustomAttributesCacheGeneratorP21CustomAttributesCache
Z8j:_Convert_ToUInt32_m3592050311
Ab:invoke_vif
wdj:_Component_GetComponents_TisRuntimeObject_m2416546752_gshared
Bb:invoke_vid
sBh:_InternalEnumerator_1__ctor_m2202456613_AdjustorThunk
hAf:__Z38Register_UnityEngine_TextMesh_get_fontv
Db:invoke_vii
U0b:__ZNK12ImageFilters8DoRenderER17ShaderPassContextP13RenderTextureS3_RKNSt3__26vectorI11ImageFilterNS4_9allocatorIS6_EEEE
yJe:__ZN5physx13NpVolumeCacheD2Ev
t7f:_TMP_Text_SetVertexColorGradient_m1499765483
Fwa:__ZN12TLSAllocatorI14StackAllocatorE16ThreadInitializeEP13BaseAllocator
GXg:__Z82RuntimeInvoker_Boolean_t97287965_SByte_t1669577662_RuntimeObject_SByte_t1669577662PFvvEPK10MethodInfoPvPS4_
ifi:_IPEndPoint_Serialize_m504081642
Clb:__ZN9GfxDevice32UpdateStereoViewProjectionMatrixE21MonoOrStereoscopicEye
Qcl:_List_1_GetEnumerator_m668609203_gshared
A1e:__ZThn8_N5physx2Sc35ParticleElementRbElementInteraction12onDeactivateEj
F0:__Z29GetCloudWebServicesModuleSpecv
_Ef:__Z41CanvasRenderer_CUSTOM_DisableRectClippingP12Il2CppObject
$wl:_Dictionary_2__ctor_m1324730059_gshared
oyj:_MonoType_GetConstructorImpl_m441167626
K6n:_U3CStartU3Ec__Iterator0_Reset_m816692654
rTe:__ZN5physx16PxsThreadContextC2EPNS_10PxsContextE
sma:__ZL45__ManagedRegistrationHelperFunction_CoroutinePv
uMf:__ZNSt3__26__treeINS_12__value_typeIN4core12basic_stringIcNS2_20StringStorageDefaultIcEEEE14CallbackArray3IRKS6_R8JSONReadbEEENS_19__map_value_compareIS6_SD_NS_4lessIS6_EELb1EEE13stl_allocatorISD_L18MemLabelIdentifier6ELi16EEE4findIS6_EENS_15__tree_iteratorISD_PNS_11__tree_nodeISD_PvEEiEERKT_
dim:_Collection_1_IsFixedSize_m3709118201_gshared
Pjb:__ZN25SingleBlockMemoryFileDataD0Ev
ZL:__ZNSt3__26vectorI14ConstantStringNS_9allocatorIS1_EEE6assignINS_11__wrap_iterIPS1_EEEENS_9enable_ifIXaasr21__is_forward_iteratorIT_EE5valuesr16is_constructibleIS1_NS_15iterator_traitsISA_E9referenceEEE5valueEvE4typeESA_SA_
RYl:_ReadOnlyCollection_1_CopyTo_m586367390_gshared
CWd:__ZN5physx3Cct10Controller4moveERNS0_11SweptVolumeERKNS_6PxVec3EffRKNS_19PxControllerFiltersEPKNS_17PxObstacleContextEb
i_:__ZN11UnityEngine15CloudWebService16SessionContainer21ConvertFromFolderTimeERKN4core12basic_stringIcNS2_20StringStorageDefaultIcEEEEPjPt
qlg:_TextContainer_OnDisable_m1100107207
Tab:__Z15UnloadGameScenev
Bub:__ZNSt3__26vectorI8GUIStyle13stl_allocatorIS1_L18MemLabelIdentifier1ELi16EEE7reserveEj
ySl:_ReadOnlyCollection_1_Contains_m3869904379_gshared
Azn:__ZN6il2cpp6icalls8mscorlib6System9Threading6Thread27GetSerializedCurrentCultureEP12Il2CppThread
f7h:__ZN21InterfaceFuncInvoker2IibbE6InvokeEjP11Il2CppClassP12Il2CppObjectbb
Soj:_Context_set_ReadSequenceNumber_m2154909392
Thg:_RijndaelTransform_SubByte_m3037693507
vCc:__Z31CalculateHierarchyTransformType23TransformAccessReadOnly
sTm:__ZL25UnresolvedVirtualCall_148P12Il2CppObject6Guid_tS0_iPK10MethodInfo
sP:__ZN4FMOD8ChannelI11setPositionEjj
rui:_Input_INTERNAL_CALL_GetTouch_m3481893561
xDd:__ZN10Collider2D12SetPolygon2DEP9Polygon2D
Zze:__ZN5physx15NpActorTemplateINS_14PxRigidDynamicEE17setDominanceGroupEh
MQn:_GC_set_fl_marks
dae:__ZN5physx6shdfnd8PoolBaseINS_2Sc12SimStateDataENS0_19ReflectionAllocatorIS3_EEE17releaseEmptySlabsEv
fCg:_Image__ctor_m2551076292
Flb:__ZN9GfxDevice17SetStereoViewportE15StereoscopicEyeRK5RectTIiE
yDm:_Tree_DistanceCode_m3077210417
Tha:__ZN17BaseObjectManager13StaticDestroyEPv
fAl:_DefaultComparer_GetHashCode_m1018059730_gshared
y2:__GLOBAL__sub_I_Runtime_Graphics_Mesh_1_cpp
Jjg:_KerningTable_RemoveKerningPair_m3737762598
KKh:_Comparer_1__cctor_m3891417387_gshared
Mzd:__ZN27b2UpdateTriggerContactsTask8FinalizeEv
bRd:__ZN5physx2Gu22closestPtPointTriangleEPNS_6shdfnd3aos5Vec3VES4_S4_Rj
aV:__ZN12AudioManager14UpdateListenerERK8Vector3fS2_S2_S2_
Vao:__ZL70RuntimeArray_CustomAttributesCacheGenerator_Array_get_Rank_m3448755881P21CustomAttributesCache
ake:__ZN5physx2Cm8PtrTableC2Ev
y0j:_FileSystemInfo_get_FullName_m3468398407
rZm:_Vector3_get_forward_m3100859705
rgk:_Double_Equals_m2309369974_AdjustorThunk
uN:__ZN4FMOD6Reverb13setPropertiesEPK22FMOD_REVERB_PROPERTIES
Kve:__ZNK5physx22NpParticleBaseTemplateINS_15PxParticleFluidENS_15NpParticleFluidEE14getRestitutionEv
G2b:__ZN9DepthPass13PrepareSubsetEjRK10RenderNodeifRK17ShaderReplaceData
BWe:__ZN5physx16PxsBroadPhaseMBP6updateEjjRKNS_23PxcBroadPhaseUpdateDataEPNS_10PxBaseTaskE
Z4o:__ZL67TMP_Text_t2599618874_CustomAttributesCacheGenerator_m_pageToDisplayP21CustomAttributesCache
Qne:__ZN5physx9NpPhysics18createRigidDynamicERKNS_11PxTransformE
T4d:__ZN5physx6shdfnd5ArrayIPvNS0_19ReflectionAllocatorINS_2Sc18TriggerInteractionEEEE15growAndPushBackERKS2_
S5f:_TMP_Text_get_isOrthographic_m424304365
ekc:__ZN9ShaderLab20SerializedSubProgram16TextureParameter8TransferI14SafeBinaryReadEEvRT_
CQg:__Z82RuntimeInvoker_Int32_t2950945753_RuntimeObject_Int32_t2950945753_Int32_t2950945753PFvvEPK10MethodInfoPvPS4_
wij:_ASN1__ctor_m3517592395
Etf:_otv_BaseCoord_validate
gMc:__Z35SetMeshComponentFromArrayFromScriptR4Mesh30InternalScriptingShaderChannel34InternalScriptingVertexChannelTypei17ScriptingArrayPtri
Jtc:__Z18ExtractTagThrowingR11ICallString
iIa:__ZN4PPtrI6ShaderE8TransferI19StreamedBinaryWriteILb0EEEEvRT_
Vnl:_Array_InternalArray__ICollection_Add_TisCustomAttributeNamedArgument_t287865710_m4157175270_gshared
sng:_TextMeshProUGUI_UpdateFontAsset_m4196244475
ETd:__ZN5physx2Gu17intersectRayAABB2ERKNS_6shdfnd3aos5Vec3VES5_S5_S5_RKNS2_6FloatVERS6_S9_
os:__ZN4core20StringStorageDefaultIcE6assignEPKcj
ztk:_UInt64_System_IConvertible_ToUInt64_m2135047981_AdjustorThunk
ggm:_Collection_1_System_Collections_IEnumerable_GetEnumerator_m1376351129_gshared
Uoe:__ZNK5physx7NpShape17getSphereGeometryERNS_16PxSphereGeometryE
Khj:_BigInteger_ModPow_m3776562770
f8o:__ZL85Scoreboard_t4002975821_CustomAttributesCacheGenerator_Scoreboard_get_Score_m459727822P21CustomAttributesCache
h_d:__ZL18intersectAnyVsMeshILi1EEbPKN5physx2Gu6SphereEPKNS1_7CapsuleEPKNS1_3BoxERKNS1_13RTreeMidphaseERKNS0_11PxTransformERKNS0_11PxMeshScaleEP14LimitedResults
d6f:_TMP_Text_set_renderMode_m3516136471
vMf:__ZNSt3__26__treeINS_12__value_typeIN4core12basic_stringIcNS2_20StringStorageDefaultIcEEEE14CallbackArray3IRKS6_R8JSONReadbEEENS_19__map_value_compareIS6_SD_NS_4lessIS6_EELb1EEE13stl_allocatorISD_L18MemLabelIdentifier6ELi16EEE25__emplace_unique_key_argsIS6_JNS_4pairIS6_SC_EEEEENSN_INS_15__tree_iteratorISD_PNS_11__tree_nodeISD_PvEEiEEbEERKT_DpOT0_
wri:_ArgumentCache_get_unityObjectArgumentAssemblyTypeName_m3450114170
VEc:__ZN15SharedLightDataC2E10MemLabelId
v5i:_ArrayList_IndexOf_m305368842
jam:_List_1_Add_m2996644200_gshared
l8d:__ZN5physx6shdfnd5ArrayIPvNS0_15InlineAllocatorILj256ENS0_19ReflectionAllocatorINS_2Cm5BlockIhLj128EEEEEEEE15growAndPushBackERKS2_
Gcc:__ZN6Camera6SetFarEf
INg:_FormatterConverter_ToBoolean_m1680758923
tpp:dynCall_viiiiiiii
J_n:_U3CSpawnEnemyType2WaveU3Ec__Iterator7_Reset_m444857884
S2h:_Array_InternalArray__ICollection_Remove_TisKeyValuePair_2_t1383673463_m2503620538_gshared
dla:__ZN6prcoreL12RemapGenericI17TexFormatABGR888817TexFormatARGB8888EEvPKNS_9InnerInfoE
cxa:__ZN11GameManager17MainThreadCleanupEv
o3j:_Stack_get_Count_m2258661097
Sfd:__Z25UpdateOrbitalAndRadialTplIL27ParticleSystemCurveEvalMode1ELS0_4ELS0_2EEvRK11MinMaxCurveS3_S3_S3_S3_S3_S3_R23ParticleSystemParticlesjjRKN4math8float3x3ERKNS6_7affineXERKNS6_7_float4E
HEf:__Z50Register_UnityEngine_UISystemProfilerApi_EndSamplev
uvl:_Dictionary_2_System_Collections_ICollection_get_SyncRoot_m2020472285_gshared
Zlp:__ZNKSt3__212basic_stringIcNS_11char_traitsIcEENS_9allocatorIcEEE4findEcj
L_f:_TMP_InputField_PageDownCharacterPosition_m1882261777
GLk:__ZN23GenericVirtFuncInvoker2I25KeyValuePair_2_t727985506ixE6InvokeEPK10MethodInfoP12Il2CppObjectix
tGh:_InternalEnumerator_1_System_Collections_IEnumerator_Reset_m1775752715_AdjustorThunk
v2m:_Physics2D_Raycast_m2082490717
uxo:__ZL91Application_t1852185770_CustomAttributesCacheGenerator_Application_get_isPlaying_m100394690P21CustomAttributesCache
Gzl:_DefaultComparer_GetHashCode_m1852619184_gshared
cFg:_ConfigHandler_OnProcessingInstruction_m4212209262
pDd:__ZN10Collider2D12AddToManagerEv
Oad:__ZN14ParticleSystem10ResetSeedsEv
P9f:_SerializationCallbacks_GetSerializationCallbacks_m2939476649
vre:__ZNK5physx7NpCloth24getParticleAccelerationsEPNS_6PxVec4E
Dqb:__ZNSt3__26vectorIN20GpuProgramParameters19AtomicCounterBufferENS_9allocatorIS2_EEE21__push_back_slow_pathIRKS2_EEvOT_
qwf:_UNITY_tt_slot_init
o_b:__ZZ23InitPlayerLoopCallbacksvEN41PostLateUpdateUpdateResolutionRegistrator7ForwardEv
IIk:_KeyCollection_GetEnumerator_m1168803204_gshared
cIb:__Z25scripting_array_class_get17ScriptingClassPtrj
Mye:__ZN5physx22NpParticleBaseTemplateINS_16PxParticleSystemENS_16NpParticleSystemEE20lockParticleReadDataEv
VT:__ZNK10SampleClip22GetTypeVirtualInternalEv
xmb:__ZN9GfxDevice20DestroyRenderSurfaceER12ObjectHandleI17RenderSurface_TagP17RenderSurfaceBaseE
l3j:_Stack__ctor_m2602729586
PPg:__Z77RuntimeInvoker_Byte_t1134296376_RuntimeObject_Int32_t2950945753_RuntimeObjectPFvvEPK10MethodInfoPvPS4_
fxc:__Z35Resources_CUSTOM_GetBuiltinResourceP12Il2CppObjectP12Il2CppString
_Wj:_Int32_System_IConvertible_ToInt32_m265310525_AdjustorThunk
L0i:_Array_slow_swapper_m4116724811
ybc:__ZN12_GLOBAL__N_15qAsinEff
$qi:_Display__ctor_m3105658851
o1j:_HashValues_get_IsSynchronized_m3461082747
Gwh:_InternalEnumerator_1_System_Collections_IEnumerator_get_Current_m2629988057_AdjustorThunk
Gwa:__ZN12TLSAllocatorI14StackAllocatorE13ThreadCleanupEv
tGi:_SystemInfo_GetOperatingSystem_m2857477099
w0a:__ZN14SafeBinaryRead21TransferSTLStyleArrayI13dynamic_arrayI8Vector4fLj0EEEEvRT_17TransferMetaFlags
CP:__Z18GetAudioManagerPtrv
L3m:_ValueType_InternalEquals_m1384040357
Xnj:_Context_get_HandshakeMessages_m3655705111
iOn:__ZThn4_N6il2cpp2vm13ComObjectBase16MarshalInterfaceEP13Il2CppIStreamRK10Il2CppGuidPvjS7_j
Fnh:__Z74RuntimeInvoker_DictionaryEntry_t3123975638_RuntimeObject_SByte_t1669577662PFvvEPK10MethodInfoPvPS4_
Whc:__Z27FindActiveTransformWithPathPKc
cjl:_List_1_System_Collections_IEnumerable_GetEnumerator_m3790284976_gshared
UVl:_ReadOnlyCollection_1_System_Collections_IList_Remove_m4169110229_gshared
Zrk:_UInt16_ToString_m3020002356
kFe:__ZN5physx16PxsIslandManager14setEdgeRigidCMERKNS_20PxsIslandManagerHookIjLj4294967295EEEPNS_17PxsContactManagerE
GNi:_LayoutRebuilder_LayoutComplete_m68578143
n8m:_RequiredByNativeCodeAttribute__ctor_m119855101
tza:__ZN12BaseRendererD0Ev
Bgc:__Z29StdTemplateConversionFunctionIbyEbPvR14SafeBinaryRead
Phg:_RijndaelManaged_GenerateKey_m1736287430
UHl:_KeyValuePair_2_ToString_m823870646_gshared
FOn:__ZNSt3__26vectorIPN6il2cpp2os6HandleENS_9allocatorIS4_EEEC2Ej
gde:__ZN5physx14NpArticulation25setStabilizationThresholdEf
b_m:_WaitForSeconds_t1699091251_marshal_pinvoke
nUo:__ZL90PointerEventData_t3807901092_CustomAttributesCacheGenerator_U3ClastPressU3Ek__BackingFieldP21CustomAttributesCache
M2j:_SortedList_Find_m3363512987
hVm:__ZL25UnresolvedVirtualCall_245P12Il2CppObject22OrderBlock_t1585977831S1_PK10MethodInfo
_8e:__ZN5physx2Gu11HeightField7releaseEv
N4b:__ZNK6Camera7GetNearEv
AQh:_GenericTypeParameterBuilder_GetConstructorImpl_m863833310
FGk:_Enumerator_get_Current_m3687673883_AdjustorThunk
oDf:__ZN2UI13CanvasManager8SortListEv
$Ub:__ZN7ApiGLES11UnmapBufferEjN2gl12BufferTargetE
zOn:__ZN6il2cpp5utilsL24Utf32CharToSurrogatePairEjRA2_Ds
pUa:__Z25GetNextAllowedTextureSizeib13TextureFormat
VKb:__ZN20LocalFileSystemWebGL4CopyER13FileEntryDataS1_
o1:__ZN19CloudServiceHandler6RetainEv
NZn:_GameController_SpawnPowerUpWaves_m3905404505
VWn:__ZN6il2cpp2os9Semaphore4WaitEb
Qtd:__ZN15b2FrictionJointD0Ev
gRl:_ReadOnlyCollection_1_System_Collections_IList_IndexOf_m198887188_gshared
Tfj:_Component_GetComponent_TisRuntimeObject_m2906321015_gshared
YVc:__Z36Event_CUSTOM_Internal_SetNativeEventPv
gkk:_UTF32Encoding_GetBytes_m3180303867
sam:_List_1_CopyTo_m4034402519_gshared
b1e:__ZN5physx2Sc8ClothSim23addCollisionHeightfieldEPKNS0_8ShapeSimE
h7h:__ZN21InterfaceFuncInvoker2IihhE6InvokeEjP11Il2CppClassP12Il2CppObjecthh
bll:_List_1_System_Collections_IList_Add_m1651178974_gshared
Xcb:__Z34scripting_liveness_calculation_endPv
H3i:_Char_GetDataTablePointers_m754571594
PKn:__ZN6il2cpp2os6ThreadC2Ev
orh:_U3CGetEnumeratorU3Ec__Iterator0_System_Collections_Generic_IEnumeratorU3CTU3E_get_Current_m1566629109_gshared
tFc:__ZN28ReflectionProbeAnchorManager7CleanupEv
W5l:_List_1_set_Capacity_m725662605_gshared
Ick:_DateTimeOffset_get_UtcDateTime_m1021718282_AdjustorThunk
Cla:__ZN16memory_pool_implILi64EE15AutoPoolWrapper12UninitializeEPv
oFm:_ZlibBaseStream_Close_m3571334171
By:__ZN21AnimationClipPlayable22ProcessAnimationNoClipEPK35AnimationPlayableEvaluationConstantPK32AnimationPlayableEvaluationInputP33AnimationPlayableEvaluationOutput
sbi:_HybridDictionary_get_Count_m1166314536
UCm:_CRC32_get_Crc32Result_m2869070385
Eom:_TlsStream_Write_m1412844442
n1c:__Z18Transfer_BlittableI8JSONReadLb0E8Vector3fEvRK29SerializationCommandArgumentsR31RuntimeSerializationCommandInfo
oTm:__ZL25UnresolvedVirtualCall_144P12Il2CppObject29CullingGroupEvent_t1722745023PK10MethodInfo
XLo:__ZL84TextMesh_t1536577757_CustomAttributesCacheGenerator_TextMesh_set_fontSize_m147394684P21CustomAttributesCache
kwn:__ZN6il2cpp2vm6Thread6DetachEP12Il2CppThread
fpm:_GeneralNames_get_DNSNames_m3788548987
uil:_List_1_AddCollection_m2026039026_gshared
izf:_Render_Single_Pass
V6n:_Benchmark03__ctor_m2259752292
Mge:__ZNK5physx18NpArticulationLink13isSubordinateEv
x4h:_SetPropertyUtility_SetStruct_TisContentType_t1128941285_m1600165170_gshared
Aeh:__Z58RuntimeInvoker_Boolean_t97287965_KeyValuePair_2_t625878672PFvvEPK10MethodInfoPvPS4_
Zbg:_SerializationEntry_t648286436_marshal_pinvoke
Lma:__ZL56__ManagedRegistrationHelperFunction_TextureMixerPlayablePv
nw:__ZN7mecanim8skeleton30SkeletonBuildReverseIndexArrayEPiPKiPKNS0_8SkeletonES6_
thd:__Z22UpdateOrbitalOffsetTplIL27ParticleSystemCurveEvalMode0ELS0_0EEvRK11MinMaxCurveS3_S3_S3_S3_S3_S3_R23ParticleSystemParticlesjjRKN4math8float3x3ERKNS6_7affineXERKNS6_7_float4E
tWc:__Z19GetGUIBlendMaterialv
oBl:_DefaultComparer_GetHashCode_m177499767_gshared
Qwj:_Math_Round_m3018379666
EYg:__Z41RuntimeInvoker_Boolean_t97287965_IntPtr_tPFvvEPK10MethodInfoPvPS4_
ELn:__ZN6il2cpp2os10ThreadImpl5SleepEjb
aKh:_Comparer_1__cctor_m269133611_gshared
FQc:__Z53Register_UnityEngine_Quaternion_LookRotation_Injectedv
PVe:__ZN5physx14SapPairManager12shrinkMemoryEv
X2o:__ZL74TMP_Settings_t2071156274_CustomAttributesCacheGenerator_m_warningsDisabledP21CustomAttributesCache
QDm:_DeflateManager_Initialize_m2148547130
kNf:__ZN22BaseUnityConnectClient12IsNewSessionEv
yOo:__ZL82LayoutCache_t78309876_CustomAttributesCacheGenerator_LayoutCache__ctor_m3885940174P21CustomAttributesCache
JJg:__ZN28GenericInterfaceFuncInvoker0IP12Il2CppObjectE6InvokeEPK10MethodInfoS1_
jdf:__ZN5physx6shdfnd8internal7median3IjKNS_19SortBoundsPredicateEEEvPT_iiRT0_
F4h:_PlayableHandle_IsPlayableOfType_TisRuntimeObject_m503495943_AdjustorThunk
vup:_glBindSampler__wrapper
wZb:__ZNSt3__26vectorIN20ArchiveStorageHeader12StorageBlockE13stl_allocatorIS2_L18MemLabelIdentifier55ELi16EEE8__appendEj
xg:_emscripten_set_mouseup_callback
Ric:__Z14resize_trimmedINSt3__26vectorIN9ShaderLab14SerializedPassENS0_9allocatorIS3_EEEEEvRT_j
kwi:_Mathf_Clamp_m3350697880
oob:__ZN9GfxDevice27SetRandomWriteTargetTextureEi9TextureID
dyl:_Dictionary_2_System_Collections_Generic_ICollectionU3CSystem_Collections_Generic_KeyValuePairU3CTKeyU2CTValueU3EU3E_Contains_m3033743418_gshared
VXg:__Z165RuntimeInvoker_Void_t1185182177_UInt32U26_t3735378166_Int32_t2950945753_UInt32U26_t3735378166_Int32_t2950945753_Int32_t2950945753_Int32_t2950945753_Int32_t2950945753PFvvEPK10MethodInfoPvPS4_
kil:_List_1_System_Collections_IList_Remove_m3140917266_gshared
Rhk:_Encoding_get_DecoderFallback_m1525880676
Gko:__ZL59ITrackingHandler_t1244553475_CustomAttributesCacheGeneratorP21CustomAttributesCache
Gah:__Z73RuntimeInvoker_Color32_t2600501292_Color32_t2600501292_Single_t1397266774PFvvEPK10MethodInfoPvPS4_
Ufg:_DSASignatureDeformatter__ctor_m2759753186
YHe:__ZN5physx7NpScene22removeBroadPhaseRegionEj
k5d:__ZL34GeomOverlapCallback_CapsuleCapsuleRKN5physx10PxGeometryERKNS_11PxTransformES2_S5_PNS_2Gu12TriggerCacheE
WJl:_Collection_1_System_Collections_IEnumerable_GetEnumerator_m801406918_gshared
OKb:__ZNK18ScreenManagerWebGL8GetWidthEv
eHe:__ZNK5physx7NpScene23getFilterShaderDataSizeEv
nKk:_Transform_1_Invoke_m1211838035_gshared
zok:_TimeSpan_get_TotalHours_m306507525_AdjustorThunk
ST:__ZN10SampleClipD2Ev
VQh:_GenericTypeParameterBuilder_get_AssemblyQualifiedName_m2323022482
ptm:_Predicate_1_Invoke_m2389850270_gshared
X9o:__ZL129U3CRevealCharactersU3Ec__Iterator0_t860191687_CustomAttributesCacheGenerator_U3CRevealCharactersU3Ec__Iterator0__ctor_m4163835966P21CustomAttributesCache
tag:_SerializationObjectManager_RegisterObject_m951822324
Hyo:__ZL90Coroutine_t3829159415_CustomAttributesCacheGenerator_Coroutine_ReleaseCoroutine_m947702340P21CustomAttributesCache
hJo:__ZL90PlayerPrefs_t3518992213_CustomAttributesCacheGenerator_PlayerPrefs_TrySetFloat_m2507302512P21CustomAttributesCache
pcb:__Z13GetGISettingsv
Hqc:__ZN19SpriteMeshGenerator7contourERNSt3__26vectorINS_6vertexENS0_9allocatorIS2_EEEERiRf
_0:__ZN11UnityEngine15CloudWebService20WebRequestRestClientC2Ev
Rrf:_cff_cmap_unicode_init
Ozf:__Z31Font_CUSTOM_Internal_CreateFontP12Il2CppObjectP12Il2CppString
_la:__ZL60__ManagedRegistrationHelperFunction_AssemblyIsEditorAssemblyPv
Qba:__ZN14FileCacherRead13GetFileLengthEv
Qym:_UnityAction_1_EndInvoke_m542551745_gshared
fPm:_ValueProperty_IsValid_m3724034537
Igm:_Collection_1_IsValidItem_m3080586124_gshared
QWm:__ZL25UnresolvedVirtualCall_334P12Il2CppObject40CustomAttributeTypedArgument_t2723150157PK10MethodInfo
Hyg:_DropdownItem_set_text_m3702712387
Svg:_ClipperRegistry_Register_m2407166513
ykp:_readlink
$pn:__ZN15dense_hashtableINSt3__24pairIK10KeyWrapperINS1_IPK9EventInfoP11Il2CppClassEEEjEES9_17ReflectionMapHashIS8_EN14dense_hash_mapIS9_jSD_NS9_14EqualsComparerINS0_8equal_toIS8_EEEENS0_9allocatorISB_EEE9SelectKeyESI_SK_E12resize_deltaEjj
tWh:_MonoCMethod_Invoke_m2700167622
t1j:_KeyMarker__cctor_m2590194914
qcd:__ZN14ParticleSystem38UpdateModulesPostSimulationIncrementalER24ParticleSystemUpdateDataR23ParticleSystemParticlesjRKf
dWn:__ZN6il2cpp2os13SemaphoreImplC2Eii
R3m:_Version__ctor_m872301635
Zdl:_List_1_Sort_m2867357390_gshared
$gl:_List_1_get_Item_m3345800295_gshared
s8j:_Convert_ToString_m1282703378
ZEd:__ZNSt3__26vectorIN10ClipperLib8IntPointENS_9allocatorIS2_EEE21__push_back_slow_pathIS2_EEvOT_
q2a:__ZNK6Sprite9GetBoundsE8Vector2fbb
IBa:__ZNK19RenderEventsContext21CleanupCommandBuffersEv
h0m:_TextGenerator_PopulateWithErrors_m1222498386
gCk:_Enumerator_get_Current_m465000956_AdjustorThunk
ijl:_List_1_System_Collections_Generic_ICollectionU3CTU3E_get_IsReadOnly_m507350231_gshared
ASb:__ZN11ContextGLES6CreateEi
JZd:__ZN5physx6shdfnd5ArrayINS_10PxTriangleENS0_19ReflectionAllocatorIS2_EEE15growAndPushBackERKS2_
b1m:_WillRenderCanvases_BeginInvoke_m1804779886
aEi:_RectTransform_INTERNAL_set_anchoredPosition_m939517950
Onl:_List_1_set_Capacity_m3382070520_gshared
zJo:__ZL83TextAsset_t3022178571_CustomAttributesCacheGenerator_TextAsset_get_text_m2027878391P21CustomAttributesCache
eMi:_U3CMouseDragOutsideRectU3Ec__Iterator1_Dispose_m267465418
jek:_Decimal_CompareTo_m3502307243_AdjustorThunk
cHb:__Z19TransferField_ArrayI18StreamedBinaryReadILb0EE27Converter_SimpleNativeClassI17AnimationCurveTplIfEEEvRK23StaticTransferFieldInfoR31RuntimeSerializationCommandInfoRT0_
_wa:__ZN14StackAllocator16FrameMaintenanceEb
kZd:__ZL11SweepBoxBoxPKN5physx3Cct9SweepTestEPKNS0_11SweptVolumeEPKNS0_11TouchedGeomERKNS_14PxExtendedVec3ERKNS_6PxVec3ERNS0_12SweptContactE
UWa:__Z18ReadStringFromFilePN4core17string_with_labelILi1EEERKNS_12basic_stringIcNS_20StringStorageDefaultIcEEEE
g0c:__ZN9JSONWrite8TransferI13dynamic_arrayIjLj0EEEEvRT_PKc17TransferMetaFlags
yca:__ZNK10GameObject20QueryComponentByTypeEPKN5Unity4TypeE
Cdk:_Decimal_System_IConvertible_ToInt32_m1488426794_AdjustorThunk
c1o:__ZL66TMP_Dropdown_t3024694699_CustomAttributesCacheGenerator_m_ItemTextP21CustomAttributesCache
txj:_MonoCustomAttrs_IsUserCattrProvider_m2878058089
yGi:_TextAsset_ToString_m2170047097
GXo:__ZL71InputField_t3762917431_CustomAttributesCacheGenerator_m_HideMobileInputP21CustomAttributesCache
jNm:_UploadHandler_Finalize_m3322774190
_Sa:__ZN11TextureData5ResetEv
iuc:__Z53Register_UnityEngine_GameObject_get_activeInHierarchyv
tHj:_ToBase64Transform_InternalTransformFinalBlock_m360524956
RZi:_ActivationContext_Dispose_m2038725770
vwb:__Z35Transfer_Blittable_FixedBufferFieldI17RemapPPtrTransferiEvRK29SerializationCommandArgumentsR31RuntimeSerializationCommandInfo
E7:__ZL30InitializeCoreScriptingClassesv
EWl:_ReadOnlyCollection_1_Contains_m1699971074_gshared
dIa:__ZN15SerializeTraitsI12fixed_bitsetILi28EjEE8TransferI18StreamedBinaryReadILb0EEEEvRS1_RT_
uh:_glBlitFramebuffer
wib:__ZN17ArchiveFileSystem5TouchER13FileEntryData
KPe:__ZN5physx2Sq10AABBPrunerC2Eb
_nn:__ZN6il2cpp2vm10Reflection15GetMethodObjectEPK10MethodInfoP11Il2CppClass
PIk:_KeyCollection_System_Collections_Generic_IEnumerableU3CTKeyU3E_GetEnumerator_m818204647_gshared
qwb:__Z35Transfer_Blittable_SingleValueFieldI14SafeBinaryReadhEvRT_R17GeneralMonoObjectRK23StaticTransferFieldInfo
mOc:__ZN4core8hash_setINS_4pairIKy9PlaneDataLb0EEENS_9hash_pairIN32PlaneColliderCache_dense_hashmap17UInt64HashFunctorES2_S3_EENS_10equal_pairINSt3__28equal_toIyEES2_S3_EEE4growEv
UVk:_Dictionary_2_System_Collections_IDictionary_Add_m583860526_gshared
zve:__ZN5physx22NpParticleBaseTemplateINS_15PxParticleFluidENS_15NpParticleFluidEE13setVelocitiesEjRKNS_16PxStrideIteratorIKjEERKNS4_IKNS_6PxVec3EEE
QFf:__Z47Register_UnityEngine_CanvasRenderer_GetMaterialv
nOc:__ZN4core8hash_setINS_4pairIKy9PlaneDataLb0EEENS_9hash_pairIN32PlaneColliderCache_dense_hashmap17UInt64HashFunctorES2_S3_EENS_10equal_pairINSt3__28equal_toIyEES2_S3_EEE4growEi
Y7c:__ZN24GenerateTypeTreeTransfer8TransferI13dynamic_arrayIN8UVModule10SpriteDataELj0EEEEvRT_PKc17TransferMetaFlags
wpl:_Array_InternalArray__ICollection_CopyTo_TisInt64_t3736567304_m2845057751_gshared
gTa:__ZNK12CubemapArray22GetTypeVirtualInternalEv
ORb:__ZN13GfxDeviceGLES25SetStereoConstantPlatformEijRK10Matrix4x4f
Mcm:_Collection_1_System_Collections_IList_Add_m842425514_gshared
Xo:FUNCTION_TABLE_vif
Yo:FUNCTION_TABLE_vid
Dcj:_Dictionary_2_Do_CopyTo_TisInt32_t2950945753_TisRuntimeObject_m213146570_gshared
_o:FUNCTION_TABLE_vii
gdb:__Z40scripting_liveness_calculation_from_root18ScriptingObjectPtrPv
acg:_SerializationEntry__ctor_m1411687997_AdjustorThunk
FMo:__ZL102UnityWebRequest_t463507806_CustomAttributesCacheGenerator_UnityWebRequest_get_isModifiable_m4181352937P21CustomAttributesCache
Njd:__ZN13InitialModuleD2Ev
kwl:_Dictionary_2_System_Collections_IDictionary_get_Item_m2163779460_gshared
Qjo:__ZL65IContributeDynamicSink_t2255997386_CustomAttributesCacheGeneratorP21CustomAttributesCache
zNa:__ZN7Texture23VirtualRedirectTransferER24GenerateTypeTreeTransfer
Mmf:_UNITY_FT_Set_Transform
GGc:__ZNK32RendererMaterialAnimationBinding12SetPPtrValueERKN11UnityEngine9Animation10BoundCurveEi
I1a:__ZN14SpriteRenderer16CheckConsistencyEv
DZo:__ZL74SpriteState_t1362986479_CustomAttributesCacheGenerator_m_HighlightedSpriteP21CustomAttributesCache
_tp:_glDeleteFramebuffers__wrapper
lem:_Collection_1_System_Collections_IList_get_IsFixedSize_m2620019318_gshared
DTg:__Z220RuntimeInvoker_Boolean_t97287965_RuntimeObject_Int32U26_t1369213839_Int32_t2950945753_Int32_t2950945753_Int32_t2950945753_RuntimeObject_SByte_t1669577662_Int32_t2950945753_ContractionU26_t961830454_ContextU26_t3937453398PFvvEPK10MethodInfoPvPS4_
hDo:__ZL73Rect_t2360479859_CustomAttributesCacheGenerator_Rect_get_zero_m4034156123P21CustomAttributesCache
tUe:__ZN5physx37solveFrictionCoulombPreBlock_ConcludeEPKNS_23PxcSolverConstraintDescEjRNS_16PxcSolverContextE
ayk:_BitConverterLE_GetUIntBytes_m949779219
$pf:_cff_blend_build_vector
bVf:_TMP_DefaultControls_CreateScrollbar_m4251525859
CAh:_InternalEnumerator_1_MoveNext_m1015797184_gshared
aAe:__ZNK5physx15NpActorTemplateINS_14PxRigidDynamicEE14getOwnerClientEv
yWg:__Z91RuntimeInvoker_Void_t1185182177_RuntimeObject_RuntimeObject_RuntimeObject_Int32_t2950945753PFvvEPK10MethodInfoPvPS4_
sph:__Z55RuntimeInvoker_Boolean_t97287965_Nullable_1_t1166124571PFvvEPK10MethodInfoPvPS4_
lwl:_Dictionary_2_System_Collections_IDictionary_set_Item_m977858099_gshared
nbg:_InstanceComparer__ctor_m2655670473
gSh:_MethodBuilder_get_ReflectedType_m3038768129
TNj:_String_CreateString_m2818852475
P8k:_Enumerator_get_Current_m335492761_AdjustorThunk
DHc:__Z22GenerateBoxTilingShapeP22GenerateTilingAreaInfo
WYa:__ZN28EnlightenRendererInformation8TransferI14SafeBinaryReadEEvRT_
M1m:_CanvasRenderer_get_hasMoved_m2236392341
Gke:__ZN5physx12NpBatchQuery13getUserMemoryEv
Lyi:_MessageEvent__ctor_m1231650089
gfb:__ZNK15Lz4Decompressor16DecompressMemoryEPKvPjPvS2_
Luf:_UNITY_tt_face_build_cmaps
$wj:_MemberAccessException__ctor_m3713703094
MVh:_MethodBase_get_ContainsGenericParameters_m2144492325
_fo:__ZL117GenericTypeParameterBuilder_t1988827940_CustomAttributesCacheGenerator_GenericTypeParameterBuilder_Equals_m3260957994P21CustomAttributesCache
Goc:__ZN4core8hash_mapINS_12basic_stringIcNS_20StringStorageDefaultIcEEEE10vector_setI4PPtrI11SpriteAtlasENSt3__24lessIS8_EE13stl_allocatorIS8_L18MemLabelIdentifier81ELi16EEENS_4hashIS4_EENS9_8equal_toIS4_EEEixERKS4_
YHd:__ZN11Rigidbody2D8TransferI24GenerateTypeTreeTransferEEvRT_
zRm:__ZL24UnresolvedVirtualCall_47P12Il2CppObject20DateTime_t3738529785PK10MethodInfo
L2o:__ZL84U3CRemoveStencilMaterialU3Ec__AnonStorey2_t2443477048_CustomAttributesCacheGeneratorP21CustomAttributesCache
kQa:__Z35UnityPropertySheet_MakeSortedColorsRKNSt3__23mapIN9ShaderLab16FastPropertyNameE10ColorRGBAfNS_4lessIS2_EENS_9allocatorINS_4pairIKS2_S3_EEEEEER10vector_mapIS2_S3_S5_NS6_INS7_IS2_S3_EEEEE
rto:__ZL72PKCS12_t4101533061_CustomAttributesCacheGenerator_U3CU3Ef__switchU24map8P21CustomAttributesCache
tdl:_List_1_System_Collections_Generic_ICollectionU3CTU3E_get_IsReadOnly_m3004284512_gshared
guf:_UNITY_tt_face_load_os2
m1l:_SortContext_1__ctor_m1830173245_gshared
BGd:__ZN17PolygonCollider2D8TransferI24GenerateTypeTreeTransferEEvRT_
sql:_Array_InternalArray__ICollection_CopyTo_TisUICharInfo_t75501106_m4268526610_gshared
FAe:__ZN5physx19NpRigidBodyTemplateINS_14PxRigidDynamicEE16setRigidBodyFlagENS_15PxRigidBodyFlag4EnumEb
dTo:__ZL63AnalyticsSessionState_t681173134_CustomAttributesCacheGeneratorP21CustomAttributesCache
$7d:__ZN5physx6shdfnd8PoolBaseINS_2Sc19ConstraintGroupNodeENS0_19ReflectionAllocatorIS3_EEE17releaseEmptySlabsEv
Lvb:__Z29Transfer_Blittable_ArrayFieldI14SafeBinaryRead8Vector4fEvRT_R9ArrayInfoRK23StaticTransferFieldInfo
yJn:__GLOBAL__sub_I_BoehmGC_cpp
AI:__ZNK26AnimatorOverrideController22GetTypeVirtualInternalEv
Kff:__ZNSt3__27__sort4IRNS_6__lessI24InterpolationDepthHandleS2_EEPS2_EEjT0_S6_S6_S6_T_
jXi:_PKCS12_Compare_m2975811353
Ish:_InternalEnumerator_1__ctor_m2406468324_AdjustorThunk
ilk:_UTF8Encoding_GetMaxCharCount_m3762459613
jzo:__ZL81Shader_t4151988712_CustomAttributesCacheGenerator_Shader_PropertyToID_m1030499873P21CustomAttributesCache
Pcg:_StreamingContext_get_Context_m541495931_AdjustorThunk
BNh:_ModuleBuilder_RegisterToken_m4166846047
DWd:__ZN5physx3Cct8SweptBoxD2Ev
Blg:_TextMeshPro_get_transform_m2127581678
f_b:__ZZ23InitPlayerLoopCallbacksvEN51PostLateUpdateUpdateCustomRenderTexturesRegistrator7ForwardEv
qRe:__ZN5physx2Cm12DelegateTaskINS_13PxsCCDContextEXadL_ZNS2_12postCCDSweepEPNS_10PxBaseTaskEEEED0Ev
PPi:_RawImage_OnPopulateMesh_m1115858855
iVg:__Z74RuntimeInvoker_MonoFileType_t221779374_IntPtr_t_MonoIOErrorU26_t1548853198PFvvEPK10MethodInfoPvPS4_
Ahn:__ZN6il2cpp2vm13MetadataCache25GetStringLiteralFromIndexEi
s_i:_Hashtable_ToPrime_m33531354
_y:__ZN7mecanim9animation12EvaluateClipEPKNS0_4ClipEPKNS0_9ClipInputEPNS0_10ClipMemoryEPNS0_10ClipOutputE
CKl:_Collection_1_IsSynchronized_m1117613618_gshared
vQf:__ZN20UnityWebRequestProtoI24UnityWebRequestTransport16AtomicRefCounter14RedirectHelper14ResponseHelper15DownloadHandler13UploadHandler18CertificateHandler12HeaderHelper14AsyncOperationE19Task_FinishRedirectEPv
LLj:_String__ctor_m1926862525
a1d:__ZN5physx3Cct9SweepTest15onObstacleAddedEjPKNS_17PxObstacleContextERKNS_6PxVec3ES7_f
L5d:__ZN5physx2Gu10SupportMapD2Ev
ark:_TypeInitializationException__ctor_m3546444694
uxc:__ZNK9Transform16GetLocalRotationEv
nGk:_Enumerator_System_Collections_IEnumerator_Reset_m4278714428_gshared
fZa:__ZN4PPtrI11LightProbesE8TransferI18StreamedBinaryReadILb0EEEEvRT_
a0:__ZN11UnityEngine15CloudWebService23WebRequestUploadHandler17ConsumeUploadDataEj
ojn:__ZNSt3__214__split_bufferI6pollfdRNS_9allocatorIS1_EEEC2EjjS4_
FEg:_CrossAppDomainData_get_DomainID_m3516796532
a9g:__Z68RuntimeInvoker_Void_t1185182177_Single_t1397266774_SByte_t1669577662PFvvEPK10MethodInfoPvPS4_
Ufe:__ZNK5physx15NpActorTemplateINS_18PxArticulationLinkEE22getClientBehaviorFlagsEv
N0j:_MemoryStream_set_Position_m3169779190
Abc:__ZN13RenderManager29SetCurrentCameraAndStackStateEP6CameraP25CameraStackRenderingState
hRo:__ZL77Physics_t2310948930_CustomAttributesCacheGenerator_Physics_Raycast_m630863594P21CustomAttributesCache
Rqg:_ExecuteEvents_get_scrollHandler_m2659345019
zxa:__ZNSt3__26__treeINS_12__value_typeIjN4core12basic_stringIcNS2_20StringStorageDefaultIcEEEEEENS_19__map_value_compareIjS7_NS_4lessIjEELb1EEE13stl_allocatorIS7_L18MemLabelIdentifier7ELi16EEE7destroyEPNS_11__tree_nodeIS7_PvEE
Ndj:_Mesh_SetArrayForChannel_TisColor32_t2600501292_m4048852508_gshared
ryn:__ZN15dense_hashtableINSt3__24pairIK10KeyWrapperINS1_IP11Il2CppClassjEEES4_EES6_N6il2cpp8metadata14ArrayClassHashEN14dense_hash_mapIS6_S4_SB_NS6_14EqualsComparerINSA_17ArrayClassCompareEEENS0_9allocatorIS8_EEE9SelectKeyESF_SH_E12resize_deltaEjj
Ji:_JS_WebRequest_Release
sEo:__ZL85Time_t2420636075_CustomAttributesCacheGenerator_Time_t2420636075____time_PropertyInfoP21CustomAttributesCache
$Lh:_Enumerator_System_Collections_IEnumerator_Reset_m2031362704_AdjustorThunk
Vfe:__ZNK5physx15NpActorTemplateINS_18PxArticulationLinkEE12getAggregateEv
K_:__ZN11UnityEngine15CloudWebService14DataErrorEventD0Ev
ndm:_Collection_1_ConvertItem_m525844156_gshared
QBn:__ZN6il2cpp6icalls8mscorlib6System4Type20internal_from_handleEi
dGl:_GenericEqualityComparer_1__ctor_m1453861043_gshared
ewo:__ZL72RequiredByNativeCodeAttribute_t4130846357_CustomAttributesCacheGeneratorP21CustomAttributesCache
m2i:_Boolean_System_IConvertible_ToUInt16_m3465173538_AdjustorThunk
$9c:__ZN14EmissionModule5ResetEv
yll:_List_1_CheckMatch_m2532733861_gshared
dGg:_Context__ctor_m254302079
tRe:__ZN5physx13PxsCCDContext12postCCDSweepEPNS_10PxBaseTaskE
Fra:__ZN9Scripting11UnityEngine12Experimental9Playables20TextureMixerPlayable9InitProxyEv
AAk:_KeyGeneratedEventHandler_EndInvoke_m3057317531
aWa:__ZN19ShaderPropertySheet16SetArrayPropertyEN9ShaderLab16FastPropertyNameENS_12PropertyTypeEPKvj
JRi:_Selectable_FindSelectable_m2348614027
I3b:__ZN22PerThreadPageAllocatorC2Ev
Cfm:_Collection_1_System_Collections_IList_Remove_m1265898254_gshared
nxg:_FloatTween_get_duration_m1227071020
ERf:__ZN16UploadHandlerRaw17ConsumeUploadDataEj
ozg:_DropdownItem_OnPointerEnter_m1492957598
Rdf:__ZN5physx6shdfnd10Foundation19AlignCheckAllocator28deregisterAllocationListenerERNS_20PxAllocationListenerE
ufe:__ZN5physx2Sc21ArticulationJointCore12setChildPoseERKNS_11PxTransformE
RYh:_ParameterInfo_get_ParameterType_m4197803362
EUg:__Z91RuntimeInvoker_Void_t1185182177_Int32U26_t1369213839_Int32U26_t1369213839_Int32_t2950945753PFvvEPK10MethodInfoPvPS4_
Jsa:__ZN9Scripting11UnityEngine9BoundsInt9InitProxyEv
e8m:_StaticAccessorAttribute_set_Type_m2333258271
OWc:__ZN8GUIState8EndOnGUIEv
BLf:__ZN11UnityEngine15PlatformWrapper16GetApplicationIdEv
xwf:_UNITY_TT_Get_VMetrics
kQg:__Z49RuntimeInvoker_Char_t3634460470_Int16_t2552820387PFvvEPK10MethodInfoPvPS4_
ITe:__ZN5physx33solveContactCoulombBlockWriteBackEPKNS_23PxcSolverConstraintDescEjRNS_16PxcSolverContextEPNS_25PxcThresholdStreamElementEjPi
EDl:_EqualityComparer_1__ctor_m2283513024_gshared
K6i:_SimpleEnumerator__cctor_m2844299657
xwj:_LocalDataStoreSlot__ctor_m4104083971
vul:_Array_qsort_TisVector3_t3722313464_m4117329442_gshared
lWl:_ReadOnlyCollection_1_System_Collections_Generic_IListU3CTU3E_RemoveAt_m3849058645_gshared
Qgp:_AudioSource_ReadExtensionName_m725112169
grm:_X509CertificateEnumerator_System_Collections_IEnumerator_Reset_m2039524926
v$e:__ZN5physx9PxTaskMgr17submitUnnamedTaskERNS_6PxTaskENS_10PxTaskType4EnumE
k$g:__Z128RuntimeInvoker_Void_t1185182177_RuntimeObject_BooleanU26_t4125257963_SByte_t1669577662_Int32U26_t1369213839_Int32U26_t1369213839PFvvEPK10MethodInfoPvPS4_
YNa:__ZN7Texture21GetMasterTextureLimitEv
VPk:_Enumerator_Dispose_m3503748991_AdjustorThunk
f6a:__ZN13dynamic_arrayI9InputAxisLj0EE18resize_initializedEj12ResizePolicy
sdc:__Z12CanAddScriptR10GameObject17ScriptingClassPtrPS1_S2_
NOm:_FieldWithTarget_get_paramName_m3501478659
u7g:__Z103RuntimeInvoker_Boolean_t97287965_RuntimeObject_Vector2_t2156229523_RuntimeObject_Vector3U26_t3464235976PFvvEPK10MethodInfoPvPS4_
TZl:_Comparison_1_BeginInvoke_m3263247262_gshared
y6:__ZN9ShaderLabL25StaticInitializeShaderLabEPv
mPe:__ZNK5physx2Sq12BucketPruner5sweepERKNS0_9ShapeDataERKNS_6PxVec3ERfRNS0_14PrunerCallbackE
U:Math_max
ukm:_Collection_1_System_Collections_IList_get_Item_m3426129749_gshared
Wel:_List_1_Sort_m1293013666_gshared
UMm:_UnityWebRequest_SerializeFormSections_m557418047
Sun:_il2cpp_class_get_methods
Bih:__Z75RuntimeInvoker_Void_t1185182177_Int32_t2950945753_KeyValuePair_2_t625878672PFvvEPK10MethodInfoPvPS4_
lWk:_Dictionary_2_make_pair_m891994456_gshared
B4c:__GLOBAL__sub_I_artifacts_WebGL_codegenerator_0_cpp_3493
HFi:_HitInfo_SendMessage_m1343099429_AdjustorThunk
wyb:__Z18Transfer_BlittableI24GenerateTypeTreeTransferLb0EN4math12int2_storageEEvRK29SerializationCommandArgumentsR31RuntimeSerializationCommandInfo
HSf:__Z64Register_UnityEngine_Networking_UnityWebRequest_get_isModifiablev
lLj:_Single_CompareTo_m2785801815_AdjustorThunk
XKn:__ZN6il2cpp2os6Thread16GetCurrentThreadEv
TMf:__ZN11UnityEngine7Connect20RemoteConfigSettings10UnregisterEv
ccl:_List_1_TrimExcess_m2202650502_gshared
Zrl:_Array_InternalArray__Insert_TisUILineInfo_t4195266810_m3191124053_gshared
vpc:__ZN10GameObject13ComponentPair15SetComponentPtrEPN5Unity9ComponentE
msp:_glBlitFramebuffer__wrapper
Yif:__ZN5physx6shdfnd8internal8HashBaseINS0_4PairIKPKNS0_14NamedAllocatorEPKcEES6_NS0_4HashIS6_EENS1_11HashMapBaseIS6_S9_SC_NS0_20NonTrackingAllocatorEE6GetKeyESE_Lb1EE15reserveInternalEj
YUm:__ZL25UnresolvedVirtualCall_234P12Il2CppObject19Vector3_t3722313464S1_PK10MethodInfo
CHi:_Transform_INTERNAL_set_position_m3627767375
Fxa:__ZN10TagManager8TransferI19StreamedBinaryWriteILb0EEEEvRT_
Ccb:__ZN11PreloadData23VirtualRedirectTransferER18StreamedBinaryReadILb0EE
__a:__ZN13sorted_vectorI4PPtrI11SpriteAtlasENSt3__24lessIS2_EE13stl_allocatorIS2_L18MemLabelIdentifier1ELi16EEE21sort_clear_duplicatesEv
OBk:_Enumerator_VerifyCurrent_m2516497577_AdjustorThunk
bBi:_PropertyNameUtils_PropertyNameFromString_Injected_m1259736140
PWo:__ZL60FontData_t746620069_CustomAttributesCacheGenerator_m_MinSizeP21CustomAttributesCache
hso:__ZL65NonSerializedAttribute_t2945079482_CustomAttributesCacheGeneratorP21CustomAttributesCache
qJk:_ShimEnumerator_Reset_m1479883403_gshared
eta:__ZN9Scripting11UnityEngine24AssemblyIsEditorAssembly12CleanupProxyEv
P3i:_Char_System_IConvertible_ToDateTime_m3564102661
I7f:_TMP_Text_UpdateVertexData_m4153248617
zM:__ZN13RuntimeStaticINSt3__26vectorI12WebCamDeviceNS0_9allocatorIS2_EEEELb0EE13StaticDestroyEPv
xZa:__ZN6Sprite17MainThreadCleanupEv
_eo:__ZL55BinaryWriter_t3992595042_CustomAttributesCacheGeneratorP21CustomAttributesCache
zsp:_glBlendFuncSeparate__wrapper
e3m:_UIntPtr_System_Runtime_Serialization_ISerializable_GetObjectData_m1767630151
dJo:__ZL116PlayerConnectionInternal_t3892293164_CustomAttributesCacheGenerator_PlayerConnectionInternal_SendMessage_m2378413408P21CustomAttributesCache
sR:__ZN10AudioMixer14UpdateMuteSoloEv
Iaa:__Z17GetMonoManagerPtrv
UCa:__ZN12BaseRenderer25FlattenSharedMaterialDataILb0EEEbRKS_R22PerThreadPageAllocatorR10RenderNode
ine:__ZN5physx6shdfnd5ArrayINS_3Scb13MaterialEventENS0_19ReflectionAllocatorIS3_EEE15growAndPushBackERKS3_
Xya:__ZN9Transform35SetLocalPositionWithoutNotificationERKN4math7_float3Ey
wPo:__ZL87GUIUtility_t1868551600_CustomAttributesCacheGenerator_U3CguiIsExitingU3Ek__BackingFieldP21CustomAttributesCache
U_g:__Z69RuntimeInvoker_UInt64_t4134040092_Int32_t2950945753_SByte_t1669577662PFvvEPK10MethodInfoPvPS4_
Kj:_JS_Eval_ClearTimeout
BQi:_Raycast2DCallback_Invoke_m1500574149
Zqb:__ZN7ApiGLES16SetPatchVerticesEi
aK:__ZZN26AnimatorOverrideController15InitializeClassEvEN30FunctorImpl_86kDidModifyMotion4CallEPviR11MessageData
R2k:_CharacterClass_Compile_m3296067317
Q9d:__ZN5physx2Sc5Scene11onBodySleepEPNS0_7BodySimE
zKn:__ZN6il2cpp2gc16GarbageCollector16InvokeFinalizersEv
h5m:_OnOverrideControllerDirtyCallback_EndInvoke_m2432606376
$2i:_Byte_System_IConvertible_ToInt64_m285584218_AdjustorThunk
YCi:_Rect_get_size_m477575021_AdjustorThunk
p9m:__ZN6il2cpp2vm5Class20FromGenericParameterEPK22Il2CppGenericParameter
k8h:_Array_IndexOf_TisVector3_t3722313464_m4284163268_gshared
kXd:__ZL28GeomMTDCallback_PlaneCapsuleRN5physx6PxVec3ERfRKNS_10PxGeometryERKNS_11PxTransformES5_S8_
SUk:_Dictionary_2_ContainsKeyValuePair_m2384174870_gshared
mha:__ZN15GlobalCallbacksC2Ev
fKg:_MethodCall_System_Runtime_Remoting_Messaging_IInternalMessage_set_Uri_m1919576807
fvd:__ZN7b2World10CreateBodyEPK9b2BodyDef
RLh:_Comparer_1_System_Collections_IComparer_Compare_m2016223770_gshared
Yhk:_Encoding_GetBytes_m3823106599
gjg:_FloatTweenCallback__ctor_m4067214846
i_g:__Z74RuntimeInvoker_DateTime_t3738529785_DateTime_t3738529785_Int32_t2950945753PFvvEPK10MethodInfoPvPS4_
yof:_UNITY_FT_New_Memory_Face
P5k:_KeyValuePair_2__ctor_m727165395_AdjustorThunk
Kme:__ZNK5physx10NpMaterial18getDynamicFrictionEv
sKf:__ZN22BaseUnityConnectClient18QueueAppStartEventERN11UnityEngine15CloudWebService26CloudServiceEventWithParamE
Ykm:_Collection_1_System_Collections_IList_IndexOf_m3271188411_gshared
wLm:_DownloadHandler_GetText_m600283602
hjm:_Collection_1_GetEnumerator_m3580195637_gshared
S1n:_Seed_GetSpecialCharacter_m1465474016
emf:__ZN20TextRenderingPrivate21TextMeshGeneratorImpl5FlushEv
Asj:_MonoIO_GetFileStat_m678141354
xsf:_UNITY_FT_Load_Sfnt_Table
kPl:_ReadOnlyCollection_1_System_Collections_Generic_ICollectionU3CTU3E_Remove_m1363008147_gshared
yVf:__Z15CastclassSealedP12Il2CppObjectP11Il2CppClass
Hwc:__ZN15ApplicationInfo14GetSandboxTypeEv
Fne:__ZN5physx9NpPhysics16createConvexMeshERNS_13PxInputStreamE
xwb:__Z18Transfer_BlittableI17RemapPPtrTransferLb1EhEvRK29SerializationCommandArgumentsR31RuntimeSerializationCommandInfo
_dk:_Decimal_IsZero_m4250358244_AdjustorThunk
jwj:_UnmanagedMemoryStream_get_CanRead_m3770815400
gcc:__ZN16ReflectionProbes40UpdateRealtimeReflectionProbesTimeslicedEv
NZa:__ZN14SafeBinaryRead21TransferSTLStyleArrayI13dynamic_arrayI8Vector2fLj0EEEEvRT_17TransferMetaFlags
Lql:_Array_InternalArray__Insert_TisKeyValuePair_2_t1383673463_m1372785123_gshared
uEn:__ZNSt3__26__treeINS_12__value_typeIP24Il2CppReflectionAssemblyPvEENS_19__map_value_compareIS3_S5_NS_4lessIS3_EELb1EEENS_9allocatorIS5_EEE16__insert_node_atEPNS_16__tree_node_baseIS4_EERSF_SF_
o4j:_Decimal_u64_m3374804932
b9d:__ZN5physx2Sq17SceneQueryManager8addShapeERKNS_7NpShapeERKNS_12PxRigidActorEbPNS_9PxBounds3E
vrk:_UInt16_System_IConvertible_ToInt32_m1950778303_AdjustorThunk
f8a:__ZNK30RuntimeInitializeOnLoadManager22GetTypeVirtualInternalEv
r7h:__ZN21InterfaceFuncInvoker2IiffE6InvokeEjP11Il2CppClassP12Il2CppObjectff
wen:__ZN15dense_hashtableINSt3__24pairIK10KeyWrapperIN6il2cpp5utils13dynamic_arrayIPK10Il2CppTypeLj4EEEEPFvvEEESA_NS3_8metadata19Il2CppSignatureHashEN14dense_hash_mapISA_SD_SG_NSA_14EqualsComparerINSF_22Il2CppSignatureCompareEEENS0_9allocatorISE_EEE9SelectKeyESK_SM_E12resize_deltaEjj
aGc:__ZN16ReflectionProbes15InitializeClassEv
U_:__ZN13dynamic_arrayIN11UnityEngine15CloudWebService14DataErrorEvent15FileErrorDetailELj0EE18resize_initializedEj12ResizePolicy
Qao:__ZL71Enum_t4135868527_CustomAttributesCacheGenerator_Enum_Format_m2588135982P21CustomAttributesCache
iud:__ZNK12b2WheelJoint17GetReactionTorqueEf
Ofn:__ZNK15dense_hashtableINSt3__24pairIK10KeyWrapperIPK11Il2CppClassEPKcEES6_N6il2cpp5utils11PointerHashIS3_EEN14dense_hash_mapIS6_S9_SE_NS6_14EqualsComparerINS0_8equal_toIS5_EEEENS0_9allocatorISA_EEE9SelectKeyESJ_SL_E12test_deletedEj
$bo:__ZL107ArrayReadOnlyList_1_t221793636_CustomAttributesCacheGenerator_ArrayReadOnlyList_1_GetEnumerator_m2012327150P21CustomAttributesCache
XTl:_ReadOnlyCollection_1_System_Collections_ICollection_CopyTo_m2527663815_gshared
S7k:_Enumerator_VerifyState_m1375238439_AdjustorThunk
pDn:__ZN6il2cpp2vm5Image9GetCorlibEv
vZm:_Vector3_get_left_m2428419009
J$f:_U3CMouseDragOutsideRectU3Ec__Iterator1_Dispose_m2308839382
$Hn:__ZN6il2cpp2vm11MethodStack17GetStackFramesRawEv
Pho:__ZL50Pointer_t2088917139_CustomAttributesCacheGeneratorP21CustomAttributesCache
Mqe:__ZNK5physx15NpActorTemplateINS_7PxClothEE14getOwnerClientEv
vbb:__ZN16LightmapSettings11UnshareDataEv
pTe:__ZNK5physx2Gu29EPASupportMapPairRelativeImplINS0_8CapsuleVES2_E9doSupportERKNS_6shdfnd3aos5Vec3VERS6_S9_S9_
Eqg:_ExecuteEvents_Execute_m113814934
Ida:__ZN13RuntimeStaticINSt3__23mapIN4core12basic_stringIcNS2_20StringStorageDefaultIcEEEES6_NS0_4lessIS6_EE13stl_allocatorINS0_4pairIKS6_S6_EEL18MemLabelIdentifier13ELi16EEEELb0EE13StaticDestroyEPv
iqi:_Coroutine_ReleaseCoroutine_m947702340
$cf:__ZN5physx10SubSortSAH5sort4EPjjRNS_6shdfnd5ArrayINS_11RTreeNodeNQENS2_19ReflectionAllocatorIS4_EEEERjjPS4_
sCk:_Enumerator_System_Collections_IEnumerator_get_Current_m2979767597_AdjustorThunk
yym:__ZN30GenericInterfaceActionInvoker1I17Color_t2555686324E6InvokeEPK10MethodInfoP12Il2CppObjectS0_
qhg:_MD5CryptoServiceProvider_ProcessFinalBlock_m2241588515
TSi:_ScrollRect_GetBounds_m449872505
Ik:_glIsVertexArray
hhd:__Z25UpdateOrbitalAndRadialTplIL27ParticleSystemCurveEvalMode3ELS0_2ELS0_1EEvRK11MinMaxCurveS3_S3_S3_S3_S3_S3_R23ParticleSystemParticlesjjRKN4math8float3x3ERKNS6_7affineXERKNS6_7_float4E
DPj:_Int16_Parse_m2276856944
GAh:_InternalEnumerator_1__ctor_m3443175323_AdjustorThunk
RBf:__ZL42__ManagedRegistrationHelperFunction_CanvasPv
Uua:__ZN5Unity9Component8TransferI18StreamedBinaryReadILb0EEEEvRT_
nho:__ZL131CustomAttributeData_t1084486650_CustomAttributesCacheGenerator_CustomAttributeData_t1084486650____ConstructorArguments_PropertyInfoP21CustomAttributesCache
ha:invoke_fff
nkp:_mbsinit
W3h:_Array_InternalArray__ICollection_Remove_TisContactPoint2D_t3390240644_m284878234_gshared
$qp:b14
Sif:__ZN5physx2Sc7PhysicsC2ERKNS_17PxTolerancesScaleERKNS_14PxvOffsetTableE
_Pc:__Z34RenderTexture_Get_Custom_PropWidthP12Il2CppObject
Iff:__ZNSt3__26__sortIRNS_6__lessI24InterpolationDepthHandleS2_EEPS2_EEvT0_S6_T_
ICf:__ZN2UI6Canvas17MainThreadCleanupEv
Yka:__ZN6prcoreL12RemapGenericI17TexFormatARGB155517TexFormatRGBA8888EEvPKNS_9InnerInfoE
ibn:__ZN13Il2CppHashMapIPK19Il2CppGenericMethodPK26Il2CppGenericMethodIndicesN6il2cpp8metadata23Il2CppGenericMethodHashENS7_26Il2CppGenericMethodCompareENSt3__29allocatorINSA_4pairIK10KeyWrapperIS2_ES5_EEEEEC2EjRKS8_RKS9_
lKh:_Comparer_1__ctor_m2785105123_gshared
uUh:_TypeBuilder_HasElementTypeImpl_m1871001960
qKj:_SecurityFrame__ctor_m2140076703_AdjustorThunk
E9i:_Array_Resize_TisVector2_t2156229523_m3382835435_gshared
EBl:_DefaultComparer_Equals_m2458578172_gshared
rrb:__ZN7ApiGLES13CreateProgramEv
dKa:__ZN11HaloManager7AddHaloEv
Eai:__ZN23InterfaceActionInvoker1IP11Exception_tE6InvokeEjP11Il2CppClassP12Il2CppObjectS1_
Yqp:b11
aKi:_InputField_set_caretPositionInternal_m3823580651
rDk:_Enumerator_VerifyState_m4003066746_gshared
BUa:__ZN4crnd12crn_unpackerD2Ev
PM:__ZN9Scripting11UnityEngine12Experimental5Audio19AudioSampleProvider9InitProxyEv
Zk:_emscripten_glTexImage2D
zKh:_Comparer_1_System_Collections_IComparer_Compare_m2537217645_gshared
TEa:__ZN16MeshVertexFormat20GetVertexDeclarationER9GfxDevice16VertexInputMasksPKS_
t7:__ZN18ScriptingArguments9AddStringEPKc
VRn:_setup_header
P4i:_Char_ToString_m3588025615
S4h:_SetPropertyUtility_SetStruct_TisAspectMode_t3417192999_m1565063249_gshared
mhm:_Collection_1_get_Count_m2853642267_gshared
iUl:_ReadOnlyCollection_1_System_Collections_IList_get_IsReadOnly_m375760151_gshared
oTe:__ZNK5physx2Gu29EPASupportMapPairRelativeImplINS0_8CapsuleVES2_E18doWarmStartSupportEiiRNS_6shdfnd3aos5Vec3VES7_S7_
Gyk:_CryptoConvert_ToCapiKeyBlob_m3371450375
URa:__ZL23stbir__resize_arbitraryPvPKviiiS_iiiffffPfiij14stbir_datatype12stbir_filterS4_10stbir_edgeS5_16stbir_colorspace
Lad:__ZN23ParticleSystemParticles13array_reserveEj
jDm:_DeflateManager_pqdownheap_m900267611
Gqc:__ZN19SpriteMeshGenerator4maskC2EP11ColorRGBA32iihj
Qyb:__Z18Transfer_BlittableI24GenerateTypeTreeTransferLb1E8Vector4fEvRK29SerializationCommandArgumentsR31RuntimeSerializationCommandInfo
drp:b18
_cp:_U3CAnimateVertexColorsU3Ec__Iterator0_System_Collections_Generic_IEnumeratorU3CobjectU3E_get_Current_m3219239971
il:_pthread_detach
Lin:__ZN6il2cpp2vm19SocketPollingThread7RunLoopEv
Wzg:_FontUpdateTracker_UntrackText_m1981515690
o5l:_List_1_System_Collections_ICollection_get_SyncRoot_m1937857346_gshared
m5o:__ZL64AnalyticsEventTracker_t2285229262_CustomAttributesCacheGeneratorP21CustomAttributesCache
vOe:__ZN5physx11EdgeManager6resizeEj
Qid:__Z16EmitterStoreDataRKN4math8float3x3ERKNS_7affineXER23ParticleSystemParticlesRK19ParticleSystemStatejRNS_8floatNx3ESC_RKNS_4pix4ER5RandNfffbb
SJc:__ZN15DirectorManager20ScheduleGraphDestroyERK14HPlayableGraph
THb:__ZNSt3__213__stable_sortIRN10vector_mapI17ScriptingClassPtrPKN5Unity4TypeENS_4lessIS2_EENS_9allocatorINS_4pairIS2_S6_EEEEE13value_compareENS_11__wrap_iterIPSB_EEEEvT0_SJ_T_NS_15iterator_traitsISJ_E15difference_typeEPNSM_10value_typeEi
snh:__Z92RuntimeInvoker_RuntimeObject_Int32_t2950945753_Int64_t3736567304_RuntimeObject_RuntimeObjectPFvvEPK10MethodInfoPvPS4_
JVm:__ZL25UnresolvedVirtualCall_273P12Il2CppObjectisPK10MethodInfo
u6l:_List_1_AddEnumerable_m1284696147_gshared
Wei:_IPAddress_Equals_m1823478787
Fqm:_X509Certificate_get_RSA_m1755006809
WGg:_Context_CreateNewContext_m3053563976
nlg:_TextContainer_get_rectTransform_m3829128540
sDo:__ZL83RectOffset_t1369453676_CustomAttributesCacheGenerator_RectOffset_set_top_m713260669P21CustomAttributesCache
gEm:_ZlibBaseStream__ctor_m2328519018
Plc:__ZN9ShaderLab25SerializedTextureProperty8TransferI24GenerateTypeTreeTransferEEvRT_
Kbj:_Array_swap_TisVector2_t2156229523_TisVector2_t2156229523_m345092822_gshared
LJk:_ShimEnumerator_Reset_m227785477_gshared
lOl:_ReadOnlyCollection_1_System_Collections_IList_Contains_m2935297083_gshared
Sqn:__ZN6il2cpp2gc19AppendOnlyGCHashMapINSt3__24pairIPK14Il2CppAssemblyP11Il2CppClassEEP24Il2CppReflectionAssembly17ReflectionMapHashIS9_ENS2_8equal_toIS9_EEEC2Ev
Puf:_tt_cmap14_char_next
hSm:__ZL24UnresolvedVirtualCall_83P12Il2CppObjectPK10MethodInfo
CBb:__Z18Transfer_BlittableI19StreamedBinaryWriteILb0EELb0EdEvRK29SerializationCommandArgumentsR31RuntimeSerializationCommandInfo
oBe:__ZN5physx2Sc5Scene12removeStaticERNS0_10StaticCoreERNS_6shdfnd11InlineArrayIPKNS0_9ShapeCoreELj64ENS4_19ReflectionAllocatorIS8_EEEEb
o2:__GLOBAL__sub_I_Runtime_Camera_RenderLoops_2_cpp
X7l:_List_1__ctor_m404557453_gshared
bwa:__ZN11NamedObject8TransferI18StreamedBinaryReadILb0EEEEvRT_
IXb:__ZNK17GPUSkinPoseBuffer12GetBoneCountEv
rag:__ZN23InterfaceActionInvoker3IP12Il2CppObjectP28SerializationInfo_t95087717928StreamingContext_t3711869237E6InvokeEjP11Il2CppClassS1_S1_S3_S4_
Xcn:__ZNK15dense_hashtableINSt3__24pairIK10KeyWrapperIPK19Il2CppGenericMethodEPK26Il2CppGenericMethodIndicesEES6_N6il2cpp8metadata23Il2CppGenericMethodHashEN14dense_hash_mapIS6_SA_SE_NS6_14EqualsComparerINSD_26Il2CppGenericMethodCompareEEENS0_9allocatorISB_EEE9SelectKeyESI_SK_E5beginEv
Nri:_InvokableCall_remove_Delegate_m1376110510
g9i:_Hashtable_Clear_m3112193608
Skk:_UTF8Encoding_InternalGetByteCount_m771565606
WCn:__ZNK15dense_hashtableINSt3__24pairIK10KeyWrapperIP14Il2CppIUnknownEjEES5_N6il2cpp5utils11PointerHashIS3_EEN14dense_hash_mapIS5_jSB_NS5_14EqualsComparerINS0_8equal_toIS4_EEEENS0_9allocatorIS7_EEE9SelectKeyESG_SI_E12test_deletedEj
l2c:__Z18Transfer_BlittableI8JSONReadLb1EyEvRK29SerializationCommandArgumentsR31RuntimeSerializationCommandInfo
gkl:_List_1_System_Collections_IList_Remove_m3654336679_gshared
sIo:__ZL51GUILayer_t2783472903_CustomAttributesCacheGeneratorP21CustomAttributesCache
xdo:__ZL56IDictionary_2_t3177279192_CustomAttributesCacheGeneratorP21CustomAttributesCache
VEa:__ZN9GfxDevice20GetVertexDeclarationERK18VertexChannelsInfoNS_30VertexDeclarationMRUCacheIndexE
f6h:_Array_InternalArray__IEnumerable_GetEnumerator_TisUInt64_t4134040092_m1382862496_gshared
Fl:_emscripten_glMatrixMode
dRg:__Z100RuntimeInvoker_Boolean_t97287965_RuntimeObject_Int32_t2950945753_RuntimeObject_DoubleU26_t1739162597PFvvEPK10MethodInfoPvPS4_
aPi:_MaskableGraphic_UnityEngine_UI_IClippable_get_gameObject_m1739855597
TTj:_NumberFormatInfo_get_RawPercentGroupSizes_m97703232
Iw:__ZN8Animator23VirtualRedirectTransferER18StreamedBinaryReadILb0EE
fVj:_Guid__ctor_m3562600567_AdjustorThunk
B1:__ZN19CloudServiceHandler19StopEventDispatcherEv
V8e:__ZN5physx13GuMeshFactory17createHeightFieldERNS_13PxInputStreamE
xEe:__ZN5physx2Sc10NPhaseCore25createShapeInstancePairLLERNS0_8ShapeSimES3_NS_7PxFlagsINS_10PxPairFlag4EnumEtEE
rOd:__ZN8Collider11PoseChangedEb
r1f:_TMP_Settings_get_enableKerning_m2305860424
eak:_DateTime_System_IConvertible_ToInt16_m3239820399
c_:__ZN11UnityEngine15CloudWebService14DataDispatcher16PrepareDataBlockERNS0_16SessionContainerE
hYb:__ZN18GfxFramebufferGLES5ClearE13GfxClearFlagsRK10ColorRGBAffib
CFe:__ZThn8_N5physx2Sc19ShapeInstancePairLL12onDeactivateEj
_6h:_Array_compare_TisProgressHandler_t926933139_m465927472_gshared
Okl:_List_1_Sort_m2163953164_gshared
rbg:_ObjectManager_DoFixups_m3038765937
q2f:_TMP_SpriteAsset_SearchForSpriteByUnicodeInternal_m1359718671
sGb:__ZL26Transfer_SimpleNativeClassI18StreamedBinaryReadILb0EE10RectOffsetLb0EEvRK29SerializationCommandArgumentsR31RuntimeSerializationCommandInfo
_Zh:_TypeDelegator_IsPrimitiveImpl_m2362421338
Dzh:_InternalEnumerator_1_get_Current_m2316281569_gshared
q2b:__ZL12DepthPassJobPN21GfxDeviceAsyncCommand10ArgScratchEPKNS_3ArgE
gkc:__ZNSt3__26vectorIN9ShaderLab20SerializedSubProgram16TextureParameterENS_9allocatorIS3_EEE6assignINS_11__wrap_iterIPS3_EEEENS_9enable_ifIXaasr21__is_forward_iteratorIT_EE5valuesr16is_constructibleIS3_NS_15iterator_traitsISC_E9referenceEEE5valueEvE4typeESC_SC_
$xi:_MonoBehaviour_IsInvoking_m3285132449
POk:_Transform_1_EndInvoke_m1701794896_gshared
zZc:__ZN5Unity9rapidjson6WriterI16TempBufferWriterNS0_4UTF8IcEES4_13JSONAllocatorE11WriteDoubleEd
Swl:_Dictionary_2_TryGetValue_m3741534516_gshared
dMd:__ZN9Rigidbody16ApplyConstraintsEv
Qmk:_Thread_SetCachedCurrentUICulture_m1729523031
Dpb:__ZN14GfxDeviceStats16CopyAllDrawStatsERKS_
SLi:_InputField_get_minHeight_m2822964544
SNk:__ZN23GenericVirtFuncInvoker1I27DictionaryEntry_t3123975638iE6InvokeEPK10MethodInfoP12Il2CppObjecti
rnj:_ClientContext_set_ClientHelloProtocol_m4189379912
j6c:__ZN11MinMaxCurve5ResetE23ParticleSystemCurveModef
Nn:FUNCTION_TABLE_iiiiiiiiiiii
Kad:__ZNK14ParticleSystem27CalculateMaxActiveParticlesEv
Y5l:_List_1_get_Item_m1686506901_gshared
BIk:_KeyCollection_System_Collections_Generic_IEnumerableU3CTKeyU3E_GetEnumerator_m1982109872_gshared
exe:__ZN5physx2Sc17ParticleSystemSim8setFlagsEj
_Ga:__ZN16GraphicsSettingsD0Ev
o4:__Z12FormatBufferPciPKcz
JMf:__ZNSt3__26__treeINS_12__value_typeIN4core12basic_stringIcNS2_20StringStorageDefaultIcEEEE14CallbackArray3IRKS6_R8JSONReadbEEENS_19__map_value_compareIS6_SD_NS_4lessIS6_EELb1EEE13stl_allocatorISD_L18MemLabelIdentifier6ELi16EEE7destroyEPNS_11__tree_nodeISD_PvEE
n:cttz_i8
Ppf:_UNITY_FT_GlyphLoader_Add
Ubf:__ZN5physx2Gu15EdgeListBuilder18CreateEdgesToFacesEjPKjPKt
uZd:__ZN5physx11PxMeshQuery5sweepERKNS_6PxVec3EfRKNS_10PxGeometryERKNS_11PxTransformEjPKNS_10PxTriangleERNS_10PxSweepHitENS_7PxFlagsINS_9PxHitFlag4EnumEtEEPKjfb
OIh:_DefaultComparer_Compare_m1878901918_gshared
RPf:__ZN9Scripting11UnityEngine10Networking29UnityWebRequestAsyncOperation9InitProxyEv
UEg:_ServerIdentity_OnLifetimeExpired_m3729485875
Cwn:__ZNSt3__26vectorIP12Il2CppThreadN6il2cpp2gc9AllocatorIS2_EEE26__swap_out_circular_bufferERNS_14__split_bufferIS2_RS6_EE
khp:_AudioListener_INTERNAL_CALL_ReadExtensionPropertyName_m330480156
tio:__ZL62ActivationArguments_t4219999170_CustomAttributesCacheGeneratorP21CustomAttributesCache
D1g:__Z53RuntimeInvoker_Interval_t1802865632_Int32_t2950945753PFvvEPK10MethodInfoPvPS4_
q2j:_SyncQueue_Clone_m4021562953
Cm:_emscripten_glViewport
pHc:__Z21GenerateTilingAreaJobP22GenerateTilingAreaInfoj
pOn:__ZN6il2cpp6icalls8mscorlib6System15MonoCustomAttrs17IsDefinedInternalEP12Il2CppObjectP20Il2CppReflectionType
UQe:__ZN5physx6shdfnd5ArrayIPhNS0_19ReflectionAllocatorIS2_EEE8recreateEj
w9k:_Enumerator__ctor_m40451936_AdjustorThunk
P3g:__Z53RuntimeInvoker_Vector3_t3722313464_Single_t1397266774PFvvEPK10MethodInfoPvPS4_
Qti:_Gradient_t3067099924_marshal_pinvoke_back
p5m:_SkeletonBone_t4134054672_marshal_pinvoke_back
Yjo:__ZL115SynchronizationAttribute_t3946661254_CustomAttributesCacheGenerator_SynchronizationAttribute_IsContextOK_m324067792P21CustomAttributesCache
Fsa:__ZN9Scripting11UnityEngine10CacheIndex9InitProxyEv
NDj:_CustomAttributeData_get_Constructor_m489601093
XFo:__ZL56PlayableGraph_t3515989261_CustomAttributesCacheGeneratorP21CustomAttributesCache
krf:_cff_parse_font_bbox
UMd:__ZThn28_N14PhysicsManagerD0Ev
P$e:__ZN5physx2Sc27ConstraintProjectionManagerC2Ev
C_d:__Z14raycast_sphereRKN5physx10PxGeometryERKNS_11PxTransformERKNS_6PxVec3ES8_fNS_7PxFlagsINS_9PxHitFlag4EnumEtEEjPNS_12PxRaycastHitEbPFbRSD_PvESG_
v6a:__ZN14PlayerSettings23VirtualRedirectTransferER18StreamedBinaryReadILb0EE
J5o:__ZL105TrackableField_t1772682203_CustomAttributesCacheGenerator_TrackableField__ctor_m3758796351____validTypes0P21CustomAttributesCache
Sfk:_Double_System_IConvertible_ToDateTime_m2414543049_AdjustorThunk
_Kf:__ZN11UnityEngine15PlatformWrapper16GetVRFieldOfViewEv
zYg:__Z235RuntimeInvoker_Int32_t2950945753_RuntimeObject_Int32_t2950945753_RuntimeObject_Int32_t2950945753_UInt32U26_t3735378166_UInt32U26_t3735378166_RuntimeObject_DecoderFallbackBufferU26_t3866396827_ByteU5BU5DU26_t4057885439_SByte_t1669577662PFvvEPK10MethodInfoPvPS4_
lXn:__ZN6il2cpp2os5Event5ResetEv
Ecl:__ZN23InterfaceActionInvoker2IP32ResolveHandlerU5BU5D_t4152721480iE6InvokeEjP11Il2CppClassP12Il2CppObjectS1_i
zuf:_tt_name_ascii_from_other
dQm:_ToggleGroup__ctor_m3308114662
Fwl:_Dictionary_2_CopyToCheck_m4199563090_gshared
sFn:__ZN6il2cpp8metadata15GenericMetadata17InflateParametersEPK13ParameterInfohPK20Il2CppGenericContextb
iFj:_RSAParameters_t1728406613_marshal_pinvoke_back
Naj:_Array_Sort_TisUILineInfo_t4195266810_m3737783007_gshared
u0f:_TMP_MaterialManager_GetFallbackMaterial_m1227931643
Xz:__ZNK17AnimationPlayable27GetNextCompatibleDescendantEj
Ioj:_Context_get_LastHandshakeMsg_m2730646725
J4e:__ZNK5physx2Cm12DelegateTaskINS_2Sc5SceneEXadL_ZNS3_23postIslandGenSecondPassEPNS_10PxBaseTaskEEEE7getNameEv
zof:__ZN13dynamic_arrayIN4core17string_with_labelILi35EEELj0EE6insertEPS2_jRKS2_
cwa:__ZN4PPtrI6SpriteE8TransferI18StreamedBinaryReadILb0EEEEvRT_
Ibg:_ObjectManager_RecordArrayElementFixup_m2171848602
Sag:_ObjectWriter_BlockWrite_m827549826
m2j:_SyncQueue_get_IsSynchronized_m1019791572
hBd:__ZN34b2SolveDiscreteIslandBodySleepTask7TaskJobEPS_j
CZl:_Comparison_1_BeginInvoke_m829878058_gshared
vtf:_otv_LigatureSubst_validate
m2g:__Z50RuntimeInvoker_Ray_t3785851493_Vector3_t3722313464PFvvEPK10MethodInfoPvPS4_
ZQm:__ZL24UnresolvedVirtualCall_19P12Il2CppObject25DSAParameters_t1885824122PK10MethodInfo
BLb:__Z25SetNeedToPerformRenderingb
w8c:__ZN12LightsModule8TransferI17RemapPPtrTransferEEvRT_
hmp:__ZN10__cxxabiv116__shim_type_infoD2Ev
ZGi:_Touch_get_phase_m214549210
N1k:_Alternation__ctor_m1629257642
mIf:__ZN8JSONRead12TransferPairINSt3__24pairIN4core12basic_stringIcNS3_20StringStorageDefaultIcEEEEN11UnityEngine9Analytics16LimitEventConfigEEEEEvRT_17TransferMetaFlagsPKN5Unity9rapidjson12GenericValueINSG_4UTF8IcEE13JSONAllocatorEE
fya:__ZN10GameObjectD2Ev
E2b:__ZN14qsort_internal30FindAndMovePivotToLastPositionIP15RODataDepthPassi17ROSorterDepthPassEEvT_S4_T0_T1_
Ild:__ZN29InitialModulePropertyBindings13GetFloatValueERK14ParticleSystemi
iSc:__Z27Mesh_CUSTOM_MarkDynamicImplP12Il2CppObject
bxj:_MethodAccessException__ctor_m3411913042
sxj:_MonoCustomAttrs__cctor_m4000462365
qSe:__ZN5physxL27PxcSweepAnyShapeHeightfieldERKNS_11PxsCCDShapeES2_PKNS_12PxsRigidBodyES5_RKNS_11PxTransformES8_fRNS_6PxVec3ESA_RNS_10PxcNpCacheERNS_18PxcNpThreadContextE
UEl:_EqualityComparer_1__ctor_m1767308726_gshared
w5k:_KeyValuePair_2_get_Key_m2106922848_gshared
ebc:__ZN12CullingGroup10SendEventsEPK17CullingGroupEventj
qjn:__ZNSt3__214__split_bufferI6pollfdRNS_9allocatorIS1_EEED2Ev
XTj:_NumberFormatInfo_get_PerMilleSymbol_m1360140831
ilj:_EncryptedData_get_EncryptionAlgorithm_m905084934
gQj:_EventHandler_EndInvoke_m269746120
dsg:_PointerInputModule__ctor_m3728889932
CXa:__ZThn32_NK8Renderer8GetLayerEv
j9h:_Array_InternalArray__IndexOf_TisUInt64_t4134040092_m1206929132_gshared
vNe:__ZN5physx3Scb5SceneD2Ev
V9k:_Enumerator_System_Collections_IEnumerator_Reset_m2915500989_gshared
prf:_cff_parse_vsindex
e$h:_ResourceSet_System_Collections_IEnumerable_GetEnumerator_m2807499934
gKj:_SecurityException_GetObjectData_m1968030344
RDn:__ZN30dense_hashtable_const_iteratorINSt3__24pairIK10KeyWrapperINS1_IPKcS4_EEEiEES6_24NamespaceAndNamePairHashN14dense_hash_mapIS6_iS9_NS6_14EqualsComparerI26NamespaceAndNamePairEqualsEENS0_9allocatorIS8_EEE9SelectKeyESD_SF_E30advance_past_empty_and_deletedEv
BWj:_Int32_ValidDigit_m1059003769
sLm:_DownloadHandler_Dispose_m2747726581
Wwp:_emscripten_glTexParameterfv__wrapper
YXm:_UnitySynchronizationContext_Exec_m3359802660
zln:__ZN6il2cpp2vm7Runtime23GetGenericVirtualMethodEPK10MethodInfoS4_
QMi:_LayoutGroup_get_rectTransform_m442863741
Ysb:__Z18Transfer_BlittableI14SafeBinaryReadLb1E9BoundsIntEvRK29SerializationCommandArgumentsR31RuntimeSerializationCommandInfo
zBc:__ZN2UI13RectTransform17GetLocalPositionZEv
jsp:b63
Jvn:_il2cpp_method_get_param_count
kda:__ZNK5Unity4Type21FindAllDerivedClassesER13dynamic_arrayIPKS0_Lj0EENS0_17TypeFilterOptionsE
Nwc:__ZN10systeminfo19ISOToSystemLanguageERN4core12basic_stringIcNS0_20StringStorageDefaultIcEEEE
Lpn:__ZNK15dense_hashtableINSt3__24pairIK10KeyWrapperINS1_IPK12PropertyInfoP11Il2CppClassEEEjEES9_17ReflectionMapHashIS8_EN14dense_hash_mapIS9_jSD_NS9_14EqualsComparerINS0_8equal_toIS8_EEEENS0_9allocatorISB_EEE9SelectKeyESI_SK_E3endEv
_Hd:__ZN11Rigidbody2D8TransferI19StreamedBinaryWriteILb0EEEEvRT_
SZl:__ZN28GenericInterfaceFuncInvoker2Ii39CustomAttributeNamedArgument_t287865710S0_E6InvokeEPK10MethodInfoP12Il2CppObjectS0_S0_
cej:_LayoutGroup_SetProperty_TisAxis_t3613393006_m3591044743_gshared
YLd:__Z16GetDynamicsScenev
IEe:__ZThn8_N5physx2Sc18TriggerInteraction7destroyEv
oRo:__ZL94Physics_t2310948930_CustomAttributesCacheGenerator_Physics_Raycast_m3336206959____maxDistance2P21CustomAttributesCache
ebo:__ZL69RuntimeArray_CustomAttributesCacheGenerator_Array_SetValue_m282347242P21CustomAttributesCache
dPf:__ZN22BaseUnityConnectClient14AppRunningTickEj
vyf:_ps_dimension_done
tAf:__Z46Register_UnityEngine_TextGenerator_Dispose_cppv
jOg:_MessageFormatter_GetExtraProperties_m305191653
DWg:__Z67RuntimeInvoker_GCHandle_t3351438187_RuntimeObject_Int32_t2950945753PFvvEPK10MethodInfoPvPS4_
zvc:__ZNSt3__26vectorIN4core12basic_stringIcNS1_20StringStorageDefaultIcEEEENS_9allocatorIS5_EEE6assignINS_11__wrap_iterIPKS5_EEEENS_9enable_ifIXaasr21__is_forward_iteratorIT_EE5valuesr16is_constructibleIS5_NS_15iterator_traitsISF_E9referenceEEE5valueEvE4typeESF_SF_
Wak:_DateTime_get_Kind_m2154871796
Ahd:__Z25UpdateOrbitalAndRadialTplIL27ParticleSystemCurveEvalMode0ELS0_4ELS0_2EEvRK11MinMaxCurveS3_S3_S3_S3_S3_S3_R23ParticleSystemParticlesjjRKN4math8float3x3ERKNS6_7affineXERKNS6_7_float4E
Uto:__ZL59HybridDictionary_t4070033136_CustomAttributesCacheGeneratorP21CustomAttributesCache
Hyn:__ZN6il2cpp6icalls8mscorlib6System7Runtime15InteropServices7Marshal17GetLastWin32ErrorEv
BYa:__ZN16LightmapSettings8TransferI14SafeBinaryReadEEvRT_
vSb:__ZN17BufferManagerGLES13ReleaseBufferEP14DataBufferGLES
qmj:_CipherSuite_Write_m1172814058
h6d:__ZN5physx6shdfnd5ArrayIPvNS0_19ReflectionAllocatorINS_16NpConnectorArrayEEEE15growAndPushBackERKS2_
z3g:__Z50RuntimeInvoker_Void_t1185182177_Bounds_t2266837910PFvvEPK10MethodInfoPvPS4_
rvj:_SynchronizedWriter_Write_m301917713
c5:__ZN9profiling6MarkerC2EPKc13ProfilerGroupNS0_5FlagsE
FDe:__ZN5physx2Sc5Scene15prepareSimulateEv
KJh:__ZN21InterfaceFuncInvoker1Ii22UILineInfo_t4195266810E6InvokeEjP11Il2CppClassP12Il2CppObjectS0_
i2c:__Z18Transfer_BlittableI8JSONReadLb1EjEvRK29SerializationCommandArgumentsR31RuntimeSerializationCommandInfo
N7d:__ZN5physx6shdfnd5ArrayIPNS_2Sc11InteractionENS0_19ReflectionAllocatorIS4_EEE8recreateEj
xbl:_List_1_System_Collections_ICollection_get_SyncRoot_m838625336_gshared
iag:_SerializationObjectManager_RaiseOnSerializedEvent_m272248422
wGm:_TMP_UpdateRegistry_InternalRegisterCanvasElementForLayoutRebuild_m2704284210
Oqi:_Debug_LogWarning_m3752629331
HAc:__Z13RegisterClassIN2UI13RectTransformEEvPKc
lsa:__ZN9Scripting11UnityEngine7Texture9InitProxyEv
xYl:_ReadOnlyCollection_1_System_Collections_Generic_IListU3CTU3E_RemoveAt_m4037795630_gshared
a7l:_List_1_System_Collections_Generic_IEnumerableU3CTU3E_GetEnumerator_m1273481299_gshared
ZUg:__Z117RuntimeInvoker_Void_t1185182177_RuntimeObject_Int32_t2950945753_Int32_t2950945753_Int32_t2950945753_Int32_t2950945753PFvvEPK10MethodInfoPvPS4_
N$a:__ZNK13ScreenManager17GetFullscreenModeEv
US:__Z30GetAudioSpatializerDefinitionsR13dynamic_arrayIP29AudioEffectInternalDefinitionLj0EE31UnityAudioEffectDefinitionFlags
cYo:__ZL81U3CMouseDragOutsideRectU3Ec__Iterator1_t3909241878_CustomAttributesCacheGeneratorP21CustomAttributesCache
Qug:_U3COnFinishSubmitU3Ec__Iterator0_Reset_m3632769946
Hq:stackSave
C0:__ZN5Unity9rapidjson15GenericDocumentINS0_4UTF8IcEE13JSONAllocatorNS0_12CrtAllocatorEE6StringEPKcjb
Pwg:_ColorTween_get_targetColor_m1724075482_AdjustorThunk
Qyf:_ps_dimension_end
jSc:__Z41Register_UnityEngine_Mesh_Internal_Createv
Ukb:__ZN16MemoryFileSystem5TouchER13FileEntryData
P1a:__ZN14SpriteRenderer23VirtualRedirectTransferER24GenerateTypeTreeTransfer
qFn:__ZNK15dense_hashtableI10KeyWrapperIP18Il2CppGenericClassES3_N6il2cpp8metadata22Il2CppGenericClassHashEN14dense_hash_setIS3_S6_NS3_14EqualsComparerINS5_25Il2CppGenericClassCompareEEENSt3__29allocatorIS3_EEE8IdentityESA_SD_E12test_deletedERK30dense_hashtable_const_iteratorIS3_S3_S6_SF_SA_SD_E
Kyd:__ZNSt3__27__sort3IRN18Overlap2DQueryBase29ColliderHitsByDepthComparitorEPP10Collider2DEEjT0_S7_S7_T_
san:__ZN6il2cpp2vm5Class14GetNestedTypesEP11Il2CppClassPPv
Nef:__Z63Register_UnityEngine_Physics_INTERNAL_CALL_Internal_RaycastTestv
jmh:__Z35RuntimeInvoker_UriScheme_t722425697PFvvEPK10MethodInfoPvPS4_
wal:_Enumerator_Dispose_m2498245804_AdjustorThunk
G4k:_Uri_get_Fragment_m575158891
I3j:_Console_Open_m3077673205
vum:_TMP_ObjectPool_1_Release_m423123894_gshared
nrm:_X509StoreManager_get_CurrentUser_m4040993045
Ncc:__ZN6Camera9SetAspectEf
C2o:__ZL81U3CMouseDragOutsideRectU3Ec__Iterator1_t2283961069_CustomAttributesCacheGeneratorP21CustomAttributesCache
K8h:_Array_InternalArray__IndexOf_TisDateTime_t3738529785_m2463359116_gshared
b3l:__ZN23GenericVirtFuncInvoker1IbDsE6InvokeEPK10MethodInfoP12Il2CppObjectDs
ogi:_SslStream_Dispose_m3651067425
Da:invoke_viiffiii
L8c:__ZN8UVModule8TransferI18StreamedBinaryReadILb0EEEEvRT_
qyh:_InternalEnumerator_1_MoveNext_m4138204635_gshared
wyp:_emscripten_glBindVertexArray__wrapper
dzo:__ZL84Renderer_t2627027031_CustomAttributesCacheGenerator_Renderer_GetMaterial_m1815496413P21CustomAttributesCache
Wgl:_List_1_ToArray_m2453307698_gshared
gvl:_Array_Resize_TisTMP_WordInfo_t3331066303_m1200832340_gshared
OLo:__ZL102TextGenerator_t3211863866_CustomAttributesCacheGenerator_TextGenerator_GetVerticesInternal_m3222977969P21CustomAttributesCache
t_o:__ZL93HorizontalOrVerticalLayoutGroup_t729725570_CustomAttributesCacheGenerator_m_ChildControlWidthP21CustomAttributesCache
z3k:_Parser_IsECMAScript_m674158805
bN:__ZN10ObjectPoolIN4FMOD3DSPENS0_4DSPIEE7GetFreeEi
$mj:_CipherSuiteCollection_get_Item_m3790183696
eza:__ZN9Transform37InitializeTransformHierarchyRecursiveER18TransformHierarchyRii
Crb:__ZN26SinglePassStereoSupportExt23SetupStereoMatrixParamsE21MonoOrStereoscopicEye24BuiltinShaderMatrixParamRK10Matrix4x4f
gng:_TextMeshProUGUI_RecalculateMasking_m2292306590
mAl:_DefaultComparer_Equals_m3770904334_gshared
kob:__ZN9GfxDevice23CreateAsyncReadbackDataEv
Jqd:__ZN14ParticleSystem22UpdateAllTransformDataEv
ikp:_fscanf
dQf:__ZNK25UnityWebRequestJavaScript16GetUploadedBytesEv
RV:__Z46AudioListener_CUSTOM_GetNumExtensionPropertiesP12Il2CppObject
Xjn:__ZN6il2cpp6icalls8mscorlib6SystemL16CheckMemberMatchI9FieldInfoNS_5utils10functional6FilterINSt3__212basic_stringIcNS8_11char_traitsIcEENS8_9allocatorIcEEEENS5_13VmStringUtils23CaseInsensitiveComparerEEEEEbPKT_PK11Il2CppClassSN_iRKT0_
jRo:__ZL92Physics_t2310948930_CustomAttributesCacheGenerator_Physics_Raycast_m3133704280____layerMask2P21CustomAttributesCache
Zkd:__ZN27ColorModulePropertyBindings13AddPropertiesER10vector_mapIi22ParticleModulePropertyNSt3__24lessIiEENS2_9allocatorINS2_4pairIiS1_EEEEE
csj:_SslClientStream_Finalize_m1251363641
AIh:_ArraySegment_1_GetHashCode_m3428798772_AdjustorThunk
cQk:_Enumerator_System_Collections_IEnumerator_Reset_m2313871153_gshared
r2g:__Z84RuntimeInvoker_RuntimeObject_RayU26_t3515555043_Single_t1397266774_Int32_t2950945753PFvvEPK10MethodInfoPvPS4_
mcd:__ZN13InitialModule18SetInheritedParamsERK23SubEmitterInheritValues
U7:__Z14GetMonoManagerv
X8h:_Array_InternalArray__IndexOf_TisMonoResource_t4103430009_m1351751258_gshared
Px:__ZN17AnimationPlayable34CollectAnimatorControllerPlayablesER13dynamic_arrayIP26AnimatorControllerPlayableLj0EE
KCe:__ZN5physx2Sc9StaticSim21postActor2WorldChangeEv
xQj:_FieldAccessException__ctor_m3583219052
Vnd:__ZL16ParticleGeomInitILb0EEvRK31ParticleSystemParticlesTempDatajRN4math8floatNx3ERK23ParticleSystemParticlesS5_S5_RKNS3_7_float4EPKfSB_SD_SB_RKNS3_5_int4EbSB_
xdk:_Decimal_System_IConvertible_ToDouble_m3125524987
Vsm:__ZN28GenericInterfaceFuncInvoker1Ib19Color32_t2600501292E6InvokeEPK10MethodInfoP12Il2CppObjectS0_
eyc:__Z57Register_UnityEngine_Transform_INTERNAL_set_localPositionv
Jun:_il2cpp_class_from_system_type
kRb:__ZN13GfxDeviceGLES26SetRandomWriteTargetBufferEi15ComputeBufferID
Gs:__ZNK4PPtrI4MeshEptEv
URn:_GC_split_block
y9i:_Array_Resize_TisUICharInfo_t75501106_m3903846016_gshared
fVl:_ReadOnlyCollection_1_System_Collections_Generic_ICollectionU3CTU3E_get_IsReadOnly_m3887826072_gshared
Cpn:__ZNK15dense_hashtableINSt3__24pairIK10KeyWrapperINS1_IPK12PropertyInfoP11Il2CppClassEEEjEES9_17ReflectionMapHashIS8_EN14dense_hash_mapIS9_jSD_NS9_14EqualsComparerINS0_8equal_toIS8_EEEENS0_9allocatorISB_EEE9SelectKeyESI_SK_E8min_sizeEjj
VZb:__ZZ23InitPlayerLoopCallbacksvEN49EarlyUpdateResetFrameStatsAfterPresentRegistrator7ForwardEv
Oie:__ZN5physx6shdfnd4sortIPvNS0_4LessIS2_EENS0_19ReflectionAllocatorINS_2Cm5BlockIhLj256EEEEEEEvPT_jRKT0_RKT1_j
Kkp:_poll
hVl:_ReadOnlyCollection_1_System_Collections_IEnumerable_GetEnumerator_m1671097018_gshared
Mtk:_UInt64_ToString_m1529093114_AdjustorThunk
tZo:__ZL85Selectable_t3250028441_CustomAttributesCacheGenerator_Selectable_IsPressed_m907486548P21CustomAttributesCache
fDg:_TypeLibImportClassAttribute__ctor_m2302178978
trm:_X509Store_LoadCertificate_m1587806288
Qvk:_Escape_t3294788190_marshal_pinvoke
evi:_Material__ctor_m1662457592
XBl:_EqualityComparer_1__cctor_m2335367819_gshared
kLi:_InputField_OnUpdateSelected_m1118869681
J9e:__ZN5physx20InternalTriangleMesh7releaseEv
XQe:__ZN5physx6shdfnd5ArrayINS_16PxsCCDBlockArrayINS_13PxsCCDOverlapELi128EE9BlockInfoENS0_19ReflectionAllocatorIS5_EEE15growAndPushBackERKS5_
a9d:__ZNK5physx7NpShape8getFlagsEv
hcg:_SerializationException__ctor_m3131447373
KUa:__ZN4crnd12crn_unpacker11unpack_dxt1EPPhjjj
tL:__ZL55__ManagedRegistrationHelperFunction_CoordinateFramePairPv
c_j:_BinaryWriter_Write_m3577537050
woc:__ZNK11ICallString6ToUTF8Ev
amh:__Z39RuntimeInvoker_MonoResource_t4103430009PFvvEPK10MethodInfoPvPS4_
v9m:__ZN15dense_hashtableINSt3__24pairIK10KeyWrapperIPK22Il2CppGenericParameterEP11Il2CppClassEES6_N6il2cpp5utils11PointerHashIS4_EEN14dense_hash_mapIS6_S9_SE_NS6_14EqualsComparerINS0_8equal_toIS5_EEEENS0_9allocatorISA_EEE9SelectKeyESJ_SL_E15insert_noresizeERKSA_
tNk:_Transform_1_Invoke_m2468053724_gshared
PWg:__Z51RuntimeInvoker_Void_t1185182177_TimeSpan_t881159249PFvvEPK10MethodInfoPvPS4_
dZ:__ZL60__ManagedRegistrationHelperFunction_ClothSkinningCoefficientPv
F2b:__ZNSt3__211__sift_downIR17ROSorterDepthPassP15RODataDepthPassEEvT0_S5_T_NS_15iterator_traitsIS5_E15difference_typeES5_
sAe:__ZN5physx19NpRigidBodyTemplateINS_14PxRigidDynamicEE25setMassSpaceInertiaTensorERKNS_6PxVec3E
xse:__ZNK5physx7NpCloth16getContactOffsetEv
Q_i:_ArgumentException__ctor_m3200406061
dF:__ZN8Animator17ApplyOnAnimatorIKEiRNS_11AnimatorJobE
Yba:__ZN12FileAccessor4ReadEyyPvPy
zHb:__Z29Transfer_Blittable_ArrayFieldI18StreamedBinaryReadILb0EE11QuaternionfEvRT_R9ArrayInfoRK23StaticTransferFieldInfo
Whn:__ZNSt3__26vectorIN6il2cpp2os11PollRequestENS_9allocatorIS3_EEE26__swap_out_circular_bufferERNS_14__split_bufferIS3_RS5_EE
S7l:_List_1_set_Capacity_m2777925136_gshared
lNc:__Z21GetSceneHierarchyPathPK6Object
UMl:_ReadOnlyCollection_1_System_Collections_Generic_ICollectionU3CTU3E_Remove_m1581675040_gshared
fuo:__ZL88U3CBeginAuthenticateAsClientU3Ec__AnonStorey7_t1222040293_CustomAttributesCacheGeneratorP21CustomAttributesCache
eYo:__ZL195U3CMouseDragOutsideRectU3Ec__Iterator1_t3909241878_CustomAttributesCacheGenerator_U3CMouseDragOutsideRectU3Ec__Iterator1_System_Collections_Generic_IEnumeratorU3CobjectU3E_get_Current_m3688496850P21CustomAttributesCache
pcc:__ZN13RenderTexture9SetHeightEi
zkg:_ShaderUtilities_GetFontExtent_m2484659839
Caa:__ZN17PersistentManager25PreallocateObjectThreadedEiNS_9LockFlagsE
iy:__ZN7mecanim9animation17ClearMotionOutputEPNS0_18AnimationNodeStateE
nzo:__ZL59LightmapBakeType_t1497855756_CustomAttributesCacheGeneratorP21CustomAttributesCache
cnj:_CipherSuiteCollection_get_IsFixedSize_m3127823890
Pbp:_TMP_TextSelector_A_OnPointerExit_m1409227044
RGa:__ZN16LevelGameManager8TransferI24GenerateTypeTreeTransferEEvRT_
UHh:_InternalEnumerator_1_System_Collections_IEnumerator_get_Current_m3537550566_gshared
vWg:__Z63RuntimeInvoker_Void_t1185182177_RuntimeMethodHandle_t1133924984PFvvEPK10MethodInfoPvPS4_
t9o:__ZL66U3CStartU3Ec__Iterator0_t1520811813_CustomAttributesCacheGeneratorP21CustomAttributesCache
cqm:_PKCS12_get_Keys_m2165478388
Ozn:__ZN6il2cpp6icalls8mscorlib6System2IO6MonoIO17GetFileAttributesEP12Il2CppStringPi
Hgg:_HMACMD5__ctor_m3008609295
a5j:_DateTime__ParseAmPm_m3478436123
bck:_DateTime_ToString_m2992030064_AdjustorThunk
rvf:_tt_cmap8_char_index
cqc:__Z14tessMeshDeleteP8TESSmeshP12TESShalfEdge
Kcm:_Collection_1_System_Collections_ICollection_CopyTo_m388022681_gshared
S7:__Z24scripting_class_get_name17ScriptingClassPtr
och:__Z39RuntimeInvoker_JSONNodeType_t2191432521PFvvEPK10MethodInfoPvPS4_
mhi:_Oid__ctor_m911618594
CQm:_VerticalLayoutGroup_CalculateLayoutInputHorizontal_m1404590745
FZh:_TypeDelegator_get_TypeHandle_m1498852405
eea:__ZN13RuntimeStaticI15GUIEventManagerLb0EE13StaticDestroyEPv
Ufp:_Response_AddHeader_m2396573179
gyj:_ShortComparer_Compare_m1881262465
Oub:__Z29Transfer_Blittable_ArrayFieldI14SafeBinaryReadjEvRT_R9ArrayInfoRK23StaticTransferFieldInfo
iFf:__ZN2UI14CanvasRenderer11GetMaterialEi
We:_emscripten_set_keydown_callback
whk:_EncoderReplacementFallback__ctor_m1483565116
_Zk:_Interpreter_IsWordChar_m2858055765
Rjh:__Z77RuntimeInvoker_Void_t1185182177_SingleU5BU5DU26_t2684236517_Int32_t2950945753PFvvEPK10MethodInfoPvPS4_
b6c:__ZN18ColorBySpeedModule8TransferI14SafeBinaryReadEEvRT_
gsa:__ZN9Scripting11UnityEngine29CustomRenderTextureUpdateZone12CleanupProxyEv
eca:__ZN12FileAccessorC2Ev
Hjh:__Z96RuntimeInvoker_Void_t1185182177_BooleanU5BU5DU26_t3454195888_Int32_t2950945753_Int32_t2950945753PFvvEPK10MethodInfoPvPS4_
q2g:__Z73RuntimeInvoker_Void_t1185182177_Vector2U26_t2376273893_RayU26_t3515555043PFvvEPK10MethodInfoPvPS4_
SEl:_EqualityComparer_1_System_Collections_IEqualityComparer_Equals_m3855544238_gshared
Fde:__ZN5physx2Sc15ArticulationSim12applyImpulseERNS0_8BodyCoreERKNS_9PxcFsDataERKNS_6PxVec3ES9_
OXa:__ZNK8Renderer29FlattenPerMaterialCustomPropsER22PerThreadPageAllocatorR10RenderNode
aed:__Z15UpdateRandomTplIL27ParticleSystemCurveEvalMode0EEvRK11MinMaxCurveS3_S3_R5RandNR23ParticleSystemParticlesjjRKN4math8float3x3ERKNS8_7_float4E
SLk:_Transform_1_Invoke_m1062341206_gshared
qC:__ZThn152_NK26AnimatorControllerPlayable25GetStateMachineBehavioursEv
qBm:_EventFunction_1_Invoke_m2429482587_gshared
$_m:_U3CDefaultUnityWebRequestU3Ed__0_System_Collections_IEnumerator_get_Current_m332100748
eqg:_EventTrigger_OnDeselect_m1919608102
Mqd:__ZN14ParticleSystem16AssignRayBudgetsEv
CId:__ZN23ColliderTilingExtensionC2Ev
O7o:__ZL92HighscoreMenu_t988333087_CustomAttributesCacheGenerator_HighscoreMenu_Processjson_m644347857P21CustomAttributesCache
LSh:_ModuleBuilder_set_wrappers_type_m2998401134
B4:__ZN14StackAllocator10ReallocateEPvji
sXm:__ZL25UnresolvedVirtualCall_364P12Il2CppObjectiPK10MethodInfo
U5a:__ZNK12InputManager22GetTypeVirtualInternalEv
BQm:_VerticalLayoutGroup__ctor_m321345421
MJ:__ZN4PPtrI13MonoBehaviourE8TransferI18StreamedBinaryReadILb0EEEEvRT_
xkd:__ZN16CustomDataModuleD2Ev
ryd:__ZNSt3__27__sort3IR22InverseDepthComparitorP8DepthHitEEjT0_S5_S5_T_
t9k:_Enumerator_MoveNext_m1177880931_AdjustorThunk
_ce:__ZNK5physx14NpArticulation26getInternalDriveIterationsEv
OAd:__ZN14qsort_internal18QSortSingleJobDataIPN25b2SynchronizeFixturesTask14b2DeferredMoveEiPFbRKS2_S5_EE7SortJobEPS8_
wFi:_SendMouseEvents_SetMouseMoved_m2822596724
UNo:__ZL82Event_t2956885303_CustomAttributesCacheGenerator_Event_get_commandName_m4275147343P21CustomAttributesCache
Mai:_Array_InternalArray__ICollection_Add_TisResolveHandler_t4124874245_m584706233_gshared
Xum:_TMP_XmlTagStack_1_Push_m1847519558_AdjustorThunk
nai:_Enumerable_ThenBy_TisRuntimeObject_TisRuntimeObject_m2491979270_gshared
BOh:_DerivedType_get_FullName_m1025358827
Neg:_CryptoConfig_MapNameToOID_m2044758263
coa:__ZL50__ManagedRegistrationHelperFunction_SetupCoroutinePv
jt:__ZN13ConstraintJob23ConstraintComponentDataC2ERKS0_
V5c:__ZN14VelocityModule8TransferI14SafeBinaryReadEEvRT_
KXo:__ZL70InputField_t3762917431_CustomAttributesCacheGenerator_m_OnValueChangedP21CustomAttributesCache
cKb:__Z39WriteQueueForTransferSignatureIntoCacheRK31TransferFunctionScriptingTraitsRK24TransferRequestSignature17ScriptingClassPtrR23CachedSerializationDataRb
Nqe:__ZN5physx15NpActorTemplateINS_7PxClothEE22setClientBehaviorFlagsENS_7PxFlagsINS_25PxActorClientBehaviorFlag4EnumEhEE
Jik:_Encoding_get_UTF8UnmarkedUnsafe_m320312322
$mk:_Thread_Thread_free_internal_m333849022
X_c:__Z35Transfer_Blittable_FixedBufferFieldI9JSONWritexEvRK29SerializationCommandArgumentsR31RuntimeSerializationCommandInfo
__k:_CostDelegate_BeginInvoke_m2828452701
oKf:__ZN22BaseUnityConnectClient30OnEnteringStatePausedOrStoppedEv
EEd:__ZN10ClipperLib7Clipper18SwapPositionsInAELEPNS_5TEdgeES2_
x0l:_U3CCreateWhereIteratorU3Ec__Iterator1D_1_MoveNext_m3448330397_gshared
Zkg:_TextContainer_get_rect_m3292172739
INm:_AnalyticsEventParam_get_value_m2837935290
cJl:_Collection_1_ConvertItem_m1556170494_gshared
wy:__ZN7mecanim5human12HumanPoseAddERNS0_9HumanPoseERKS1_S4_
q5j:_DateTime_ToUniversalTime_m1945318289
C$f:_U3CCaretBlinkU3Ec__Iterator0_System_Collections_Generic_IEnumeratorU3CobjectU3E_get_Current_m414319169
Ifk:_DllNotFoundException__ctor_m1156705135
J5i:_ArrayList_ToArray_m3827492363
Pod:__Z20UpdateWholeSheet2TplIL27ParticleSystemCurveEvalMode2ELS0_2EEvfRK11MinMaxCurveS3_RK23ParticleSystemParticlesPf
SUi:_Slider_get_stepSize_m1423227661
Htk:_UInt64_Parse_m819899889
vFn:__ZN6il2cpp8metadata15GenericMetadata15GetGenericClassEiPK17Il2CppGenericInst
ZGj:_SymmetricAlgorithm_set_IV_m3196220308
nRh:_GenericTypeParameterBuilder_GetHashCode_m852224381
V8j:_Convert_ToUInt32_m1453583008
CRj:_CompareInfo_Compare_m894311506
Lya:__Z24MergeTransformComponentsR9TransformS0_b
Pdn:__ZNK15dense_hashtableI10KeyWrapperIPK19Il2CppGenericMethodES4_N6il2cpp8metadata23Il2CppGenericMethodHashEN14dense_hash_setIS4_S7_NS4_14EqualsComparerINS6_26Il2CppGenericMethodCompareEEENSt3__29allocatorIS4_EEE8IdentityESB_SE_E10test_emptyEj
eIh:_InternalEnumerator_1_System_Collections_IEnumerator_get_Current_m3982010935_AdjustorThunk
REh:_InternalEnumerator_1_MoveNext_m683739489_AdjustorThunk
F8d:__ZThn24_N5physx2Sc20ArticulationJointSimD0Ev
Rog:_EventSystem_UpdateModules_m3643806022
wKn:__ZN6il2cpp2gc16GarbageCollector10StartWorldEv
ROd:__ZN14PhysicsManager32AddToTriggerStayStatesIfRequiredEPK9Rigidbody
Rxd:__ZN15b2CircleContactD0Ev
Q4m:_AnimationOffsetPlayable__cctor_m1029460816
hxm:_InvokableCall_1__ctor_m2610016537_gshared
Yfi:_SslStream_get_Position_m2568970827
JQo:__ZL54Collision2D_t2842956331_CustomAttributesCacheGeneratorP21CustomAttributesCache
ZIj:_Evidence_get_SyncRoot_m2835084965
M2d:__ZN5physx14PxsAABBManager12createBPElemEv
R4h:_SetPropertyUtility_SetStruct_TisTouchScreenKeyboardType_t1530597702_m2455393348_gshared
CAl:_DefaultComparer__ctor_m2280347240_gshared
ype:__ZThn12_N5physx7NpShape14onRefCountZeroEv
pmo:__ZL59ICryptoTransform_t2733259762_CustomAttributesCacheGeneratorP21CustomAttributesCache
xXd:__ZL26GeomMTDCallback_ConvexMeshRN5physx6PxVec3ERfRKNS_10PxGeometryERKNS_11PxTransformES5_S8_
ZNn:__ZN6il2cpp2vm13ComObjectBase19GetRuntimeClassNameEPP15Il2CppHString__
CGb:__Z35Transfer_Blittable_FixedBufferFieldI18StreamedBinaryReadILb0EEyEvRK29SerializationCommandArgumentsR31RuntimeSerializationCommandInfo
VFa:__Z37GetBarycentricCoordinatesForOuterCellPPK8Vector3fRK13dynamic_arrayIS_Lj0EERS0_RK11TetrahedronR8Vector4f
n1n:_PowerUpSpeed__ctor_m2105052929
Gk:_emscripten_glVertexAttribPointer
Hmp:__ZNSt11logic_errorD0Ev
RMb:__ZN14PreloadManager26UpdatePreloadingSingleStepENS_21UpdatePreloadingFlagsEi
aCm:_TweenRunner_1__ctor_m340723704_gshared
GTi:_ScrollRect_SetLayoutHorizontal_m3078869633
$4e:__ZN18ScBeforeSolverTask11runInternalEv
g9k:_Enumerator_VerifyState_m1661520664_AdjustorThunk
Fuk:_SimpleCollator__ctor_m1587210019
msc:__Z57Register_UnityEngine_RectTransform_INTERNAL_set_anchorMinv
m5d:__ZL33GeomOverlapCallback_CapsuleConvexRKN5physx10PxGeometryERKNS_11PxTransformES2_S5_PNS_2Gu12TriggerCacheE
M8j:_Convert_ToUInt16_m1480956416
sla:__ZN6prcoreL25inner_stretch_i8_bilinearEPKNS_9InnerInfoE
nol:_Array_InternalArray__ICollection_Add_TisUriScheme_t722425697_m3142345403_gshared
mGn:__ZNSt3__26__treeINS_12__value_typeIjN6il2cpp2os17SocketHandleEntryEEENS_19__map_value_compareIjS5_NS_4lessIjEELb1EEENS_9allocatorIS5_EEE16__insert_node_atEPNS_16__tree_node_baseIPvEERSG_SG_
X7o:__ZL75U3CDelayLoadLevelU3Ec__Iterator0_t1718656173_CustomAttributesCacheGeneratorP21CustomAttributesCache
Pcb:__ZL30RegisterFilteredObjectCallbackPP12Il2CppObjectiPv
nhp:_AudioListenerExtension_get_audioListener_m3597041395
VXl:_ReadOnlyCollection_1_System_Collections_Generic_IListU3CTU3E_RemoveAt_m3317217538_gshared
tLo:__ZL54AudioSource_t3935305588_CustomAttributesCacheGeneratorP21CustomAttributesCache
xvd:__ZN16PhysicsManager2D19ApplyParticleForcesER13dynamic_arrayI21BatchedColliderResultLj0EE
h9b:__Z30GetScriptableCullingParametersR6CamerabR27ScriptableCullingParameters
z_:__ZN11UnityEngine15CloudWebService16SessionContainer24GetSessionHeaderJsonDataERKN4core12basic_stringIcNS2_20StringStorageDefaultIcEEEERNS2_13StringBuilderE
eOh:_DerivedType_GetEvent_m4157575360
wda:__ZN13RuntimeStaticI21AssetReferenceStorageLb0EE13StaticDestroyEPv
Q9e:__ZN5physx20InternalTriangleMesh9loadRTreeERNS_13PxInputStreamEj
Rdg:_SByte_System_IConvertible_ToType_m4075253447_AdjustorThunk
DBe:__ZN5physx19NpRigidBodyTemplateINS_14PxRigidDynamicEE25setCMassLocalPoseInternalERKNS_11PxTransformE
u8i:_Comparer__ctor_m2831654082
q5g:__Z51RuntimeInvoker_Void_t1185182177_Vector2_t2156229523PFvvEPK10MethodInfoPvPS4_
rCe:__ZNK5physx15NpActorTemplateINS_13PxRigidStaticEE14getOwnerClientEv
xsl:_Array_InternalArray__set_Item_TisKeyValuePair_2_t2530217319_m258011711_gshared
h9g:__Z72RuntimeInvoker_Bounds_t2266837910_RuntimeObject_Matrix4x4U26_t3606180965PFvvEPK10MethodInfoPvPS4_
k0l:__ZN28GenericInterfaceFuncInvoker2IbiiE6InvokeEPK10MethodInfoP12Il2CppObjectii
J7k:_Enumerator_MoveNext_m2041610666_AdjustorThunk
GKn:__ZN6il2cpp6icalls8mscorlib6System9AppDomain22InternalGetProcessGuidEP12Il2CppString
xw:__ZNK25RuntimeAnimatorController30GetAnimationClipOverrideVectorEv
Mxe:__ZN5physx2Sc18ParticleSystemCore16releaseParticlesEv
oVm:__ZL25UnresolvedVirtualCall_252P12Il2CppObject19Vector3_t3722313464S1_PK10MethodInfo
pSe:__ZNK5physx2Gu29EPASupportMapPairRelativeImplINS0_8CapsuleVENS0_4BoxVEE6getDirEv
u_d:__ZN5physx2Gu20intersectTriangleBoxERKNS_6shdfnd3aos5Vec3VES5_S5_S5_S5_
Wqo:__ZL79Convert_t2465617642_CustomAttributesCacheGenerator_Convert_ToUInt32_m3188121845P21CustomAttributesCache
iRg:__Z48RuntimeInvoker_RuntimeObject_Decimal_t2948259380PFvvEPK10MethodInfoPvPS4_
tnk:_ThreadStart_EndInvoke_m3768045394
cv:__ZN9Scripting11UnityEngine10Animations16ConstraintSource9InitProxyEv
mQc:__Z34Quaternion_CUSTOM_Inverse_InjectedRK11QuaternionfRS_
ckn:__ZNSt3__214__split_bufferIP9FieldInfoRNS_9allocatorIS2_EEEC2EjjS5_
U9j:_DateTime__cctor_m1880035693
Ocg:_StreamingContext__ctor_m2604757771_AdjustorThunk
lzb:__Z18Transfer_BlittableI24GenerateTypeTreeTransferLb1EjEvRK29SerializationCommandArgumentsR31RuntimeSerializationCommandInfo
p8l:_List_1_AddCollection_m1469681717_gshared
gpn:__ZNK15dense_hashtableINSt3__24pairIK10KeyWrapperINS1_IPK11Il2CppImageP11Il2CppClassEEEjEES9_17ReflectionMapHashIS8_EN14dense_hash_mapIS9_jSD_NS9_14EqualsComparerINS0_8equal_toIS8_EEEENS0_9allocatorISB_EEE9SelectKeyESI_SK_E10test_emptyERK30dense_hashtable_const_iteratorISB_S9_SD_SM_SI_SK_E
s5k:_KeyValuePair_2_ToString_m3013572783_gshared
i7g:__Z103RuntimeInvoker_Boolean_t97287965_Ray_t3785851493_Single_t1397266774_Int32_t2950945753_Int32_t2950945753PFvvEPK10MethodInfoPvPS4_
Sgo:__ZL68AssemblyCopyrightAttribute_t836190902_CustomAttributesCacheGeneratorP21CustomAttributesCache
SAc:__ZNK28RectTransformPropertyBinding9BindValueER6ObjectRKN11UnityEngine9Animation14GenericBindingERNS3_10BoundCurveE
IIa:__ZN11ColorRGBA328TransferI14SafeBinaryReadEEvRT_
Yhp:_AudioSampleProvider_InvokeSampleFramesAvailable_m3478252833
Khm:_Collection_1_Add_m1736908447_gshared
Drf:_cff_vstore_done
Kgf:__ZN5physx6shdfnd5ArrayIPvNS0_19ReflectionAllocatorINS_24NpPtrTableStorageManager8PtrBlockILi4EEEEEE15growAndPushBackERKS2_
dmb:__ZN9GfxDevice33ScheduleComputeBufferJobsInternalEPFvP20ComputeBufferJobDataEPFvRK8JobFenceEPK27ComputeBufferJobInstructionj
R1g:__Z68RuntimeInvoker_Void_t1185182177_UInt16_t2177724958_SByte_t1669577662PFvvEPK10MethodInfoPvPS4_
u3m:__ZN25GenericVirtActionInvoker2IP12Il2CppObjectP39UnhandledExceptionEventArgs_t2886101344E6InvokeEPK10MethodInfoS1_S1_S3_
Awh:_InternalEnumerator_1_get_Current_m3008260692_AdjustorThunk
Qof:__ZN20TextRenderingPrivate8TextMesh8TransferI14SafeBinaryReadEEvRT_
ehg:_MACTripleDES_HashFinal_m3613553534
btk:_UInt64_System_IConvertible_ToChar_m2074245892
QRa:__Z11IsHDRFormat13TextureFormat
ft:__ZN4core8hash_setIPN5Unity9ComponentENS_4hashIS3_EENSt3__28equal_toIS3_EEE4growEi
Wkk:_UTF8Encoding_InternalGetBytes_m1965760031
zg:_emscripten_glClearDepth
OCc:__ZNK8GUILayer22GetTypeVirtualInternalEv
qWa:__ZN14SafeBinaryRead21TransferSTLStyleArrayINSt3__26vectorIN15QualitySettings14QualitySettingENS1_9allocatorIS4_EEEEEEvRT_17TransferMetaFlags
eym:_UnityAction_1__ctor_m3007623985_gshared
iIk:_KeyCollection__ctor_m2388548663_gshared
g_l:_Comparison_1_Invoke_m3423206938_gshared
Oeh:__Z56RuntimeInvoker_Boolean_t97287965_ILTokenInfo_t2325775114PFvvEPK10MethodInfoPvPS4_
qFm:_ZlibBaseStream_Seek_m1748085148
O7a:__ZNSt3__26vectorINS_4pairIPKN5Unity4TypeE7Hash128EENS_9allocatorIS7_EEE8__appendEj
Et:__ZN4core8hash_setIPN5Unity9ComponentENS_4hashIS3_EENSt3__28equal_toIS3_EEE4growEv
D6k:_LinkedList_1_get_First_m1512309353_gshared
X2c:__ZN8JSONRead21TransferSTLStyleArrayI13dynamic_arrayIaLj0EEEEvRT_17TransferMetaFlags
rSk:_ValueCollection_get_Count_m241121908_gshared
Grf:_cff_font_load
kLn:__GLOBAL__sub_I_LibraryLoader_cpp
aOc:__Z13IsPathCreatedRKN4core12basic_stringIcNS_20StringStorageDefaultIcEEEE
wWo:__ZL99Dropdown_t2274391225_CustomAttributesCacheGenerator_Dropdown_DelayedDestroyDropdownList_m2082128994P21CustomAttributesCache
MUe:__ZN5physx35solveContactPreBlock_ConcludeStaticEPKNS_23PxcSolverConstraintDescEjRNS_16PxcSolverContextE
Qqi:_Debug_LogWarningFormat_m2535776735
_Ra:__ZL22stbir__encode_scanlineP11stbir__infoiPvPfiii
gRm:__ZL24UnresolvedVirtualCall_28P12Il2CppObjectS0_iiPK10MethodInfo
Q$h:_ExternalException__ctor_m2877839282
ekf:__ZN20QuadTreeNodeRenderer13StaticDestroyEPv
v$:__ZN11UnityEngine15CloudWebService20WebRequestRestClient5AbortEv
FJl:_Collection_1_InsertItem_m954500348_gshared
I1k:_Regex_Matches_m2080913806
NBc:__ZN9Transform12CleanupClassEv
h1f:_TMP_MeshInfo__cctor_m2816277573
SFi:_Sprite_get_rect_m2575211689
B7d:__ZN5physx6shdfnd5ArrayIPvNS0_15InlineAllocatorILj256ENS0_19ReflectionAllocatorINS_2Cm5BlockIS2_Lj32EEEEEEEE15growAndPushBackERKS2_
$3e:__ZN5physx18PxsSolverStartTask13setupDescTaskEv
Bof:_UNITY_FT_Set_Pixel_Sizes
KBj:_OperatingSystem_Clone_m1122165140
a9j:_Convert_ToUInt32_m1767593911
iKk:__ZN23GenericVirtFuncInvoker2IbibE6InvokeEPK10MethodInfoP12Il2CppObjectib
EE:__ZN11UnityEngine9Animation33SetGenericTransformPropertyValuesERKNS0_30AnimatorGenericBindingConstantERKN7mecanim10ValueArrayEP9Transformy
zpo:__ZL59AttributeTargets_t1784037988_CustomAttributesCacheGeneratorP21CustomAttributesCache
xaj:_Array_Sort_TisSpriteData_t3048397587_m3876534650_gshared
W0m:_Canvas_add_willRenderCanvases_m1234571137
P6n:_U3CStartU3Ec__Iterator0_System_Collections_Generic_IEnumeratorU3CobjectU3E_get_Current_m2957603276
aWd:__ZN5physx3Cct13BoxController6resizeEf
S3l:_List_1_RemoveAll_m3165362277_gshared
Vpk:_Type_type_is_subtype_of_m1406623598
goa:__ZL54__ManagedRegistrationHelperFunction_SpriteAtlasManagerPv
ffl:_List_1__ctor_m3151640588_gshared
Y8o:__ZL58JSONLazyCreator_t3621052039_CustomAttributesCacheGeneratorP21CustomAttributesCache
QLj:_String_System_IConvertible_ToByte_m4057316234
F5e:__ZN5physx6shdfnd5ArrayINS_2Cm12DelegateTaskINS_2Sc5SceneEXadL_ZNS5_19updateCCDSinglePassEPNS_10PxBaseTaskEEEEENS0_19ReflectionAllocatorIS8_EEE8recreateEj
vlk:_Thread_get_CurrentThread_m4142136012
hFa:__Z30ProcessDynamicBatchGeometryJobP25DynamicVBOGeometryJobDataj
g3b:__ZNSt3__27__sort4IRNS_6__lessI11CulledLightS2_EEPS2_EEjT0_S6_S6_S6_T_
jtn:__ZN6il2cpp2vm14TypeNameParser26ParseArrayModifierOptionalEv
k9:__Z26scripting_object_get_class18ScriptingObjectPtr
Oyn:__ZN6il2cpp6icalls8mscorlib6System10Reflection8Assembly13get_code_baseEP24Il2CppReflectionAssemblyb
gBd:__ZN34b2SolveDiscreteIslandBodySleepTaskD0Ev
H8a:__ZNSt3__26vectorIN4core12basic_stringIcNS1_20StringStorageDefaultIcEEEE13stl_allocatorIS5_L18MemLabelIdentifier13ELi16EEE7reserveEj
B1h:_Array_InternalArray__ICollection_Contains_TisInt16_t2552820387_m2915683400_gshared
dgd:__Z25UpdateOrbitalAndRadialTplIL27ParticleSystemCurveEvalMode1ELS0_3ELS0_0EEvRK11MinMaxCurveS3_S3_S3_S3_S3_S3_R23ParticleSystemParticlesjjRKN4math8float3x3ERKNS6_7affineXERKNS6_7_float4E
foi:_Bounds_get_center_m1418449258_AdjustorThunk
Vfg:_DSASignatureDeformatter__ctor_m2889130126
QWk:_X509ChainElementCollection_Clear_m2271223414
MDc:__ZNK28MonoBehaviourPropertyBinding15GenerateBindingERKN4core12basic_stringIcNS0_20StringStorageDefaultIcEEEEbRN11UnityEngine9Animation14GenericBindingE
iEi:_RectTransform_INTERNAL_set_pivot_m1160676233
T8l:_List_1_set_Item_m35836043_gshared
uum:_TMP_ObjectPool_1_Get_m49507659_gshared
bZo:__ZL70ScrollRect_t4137855814_CustomAttributesCacheGenerator_m_OnValueChangedP21CustomAttributesCache
GWk:_X509ChainElementCollection__ctor_m3424079155
$6n:_CameraController_Awake_m2307893076
Vgg:_HMACSHA512__cctor_m4155933671
f$k:_LinkStack_Push_m3081279930
vdj:_TMP_TextInfo_Resize_TisTMP_WordInfo_t3331066303_m943255601_gshared
l1f:_TMP_ScrollbarEventHandler_OnDeselect_m2716618027
xid:__Z20StartSingleSidedEdgeILN11ShapeModule14MultiModeValueE0EEvRS0_R23ParticleSystemParticlesRK19ParticleSystemStateRK27ParticleSystemEmissionStateRKN4math8float3x3ERKNSB_7affineXEjbj
x1l:_Nullable_1__ctor_m509459810_AdjustorThunk
CEk:_Enumerator_MoveNext_m1107569389_gshared
E4o:__ZL72TMP_Text_t2599618874_CustomAttributesCacheGenerator_m_wordWrappingRatiosP21CustomAttributesCache
xnk:_Timer_Init_m891735195
tbe:__ZNK5physx21PxsBodyTransformVault12getTransformERKNS_11PxsBodyCoreE
dkn:__ZNSt3__26vectorIP9FieldInfoNS_9allocatorIS2_EEE26__swap_out_circular_bufferERNS_14__split_bufferIS2_RS4_EE
jBm:_UnityEvent_3_GetDelegate_m1156357290_gshared
bMn:__ZN6il2cpp6icalls8mscorlib6System11Environment15internalGetHomeEv
aFk:_Enumerator_System_Collections_IEnumerator_get_Current_m2223443336_AdjustorThunk
lAh:_InternalEnumerator_1__ctor_m4200721464_gshared
Bwi:_Matrix4x4_GetHashCode_m4034747639_AdjustorThunk
Q_h:_ResourceCacheItem_t51292791_marshal_pinvoke_cleanup
Yta:__ZNK5Unity9Component7GetNameEv
XIf:__ZN11UnityEngine9Analytics15UserCustomEvent15Internal_CreateE18ScriptingObjectPtrRKN4core12basic_stringIcNS3_20StringStorageDefaultIcEEEE
mdc:__Z23FindMonoScriptFromClass17ScriptingClassPtr
V6f:_TMP_Text_ReplaceClosingStyleTag_m761056113
aHj:_SymmetricAlgorithm_get_KeySize_m4185004893
Dkl:_List_1_GetEnumerator_m232588170_gshared
OXd:__ZN44ConvexVsHeightfieldContactGenerationCallback7onEventEjPj
hdp:_VertexZoom_AnimateVertexColors_m3033224630
rEd:__ZNSt3__26vectorIPN10ClipperLib6OutRecENS_9allocatorIS3_EEE21__push_back_slow_pathIRKS3_EEvOT_
_pb:__ZN21ScalableBufferManager23UnregisterRenderSurfaceEP17RenderSurfaceBaseb
XOh:_DynamicMethod_ToString_m2710486086
h7l:_List_1_System_Collections_IList_Remove_m1070694895_gshared
oIm:_LayoutCache__ctor_m3885940174
q$a:__ZN13ScreenManagerD0Ev
I4m:_AnimationMotionXToDeltaPlayable_GetHandle_m1319190040_AdjustorThunk
Gtd:__ZNK11b2RopeJoint16GetReactionForceEf
XF:__ZN7mecanim8skeleton26SkeletonPoseComputeGlobalQEPKNS0_8SkeletonEPKNS0_13SkeletonPoseTIN4math4trsXEEEPS7_ii
eom:_TlsServerSettings__ctor_m373357120
atk:_UInt64_System_IConvertible_ToByte_m1501504925_AdjustorThunk
omk:__ZN30GenericInterfaceActionInvoker2IP12Il2CppObjectbE6InvokeEPK10MethodInfoS1_S1_b
T$m:_TextGenerator_Invalidate_m1072346986
t0m:_TextMesh_set_anchor_m3559070145
knd:__ZN14ParticleSystem40OnTrailGeometryJobsScheduledRenderThreadERK8JobFence
Opj:_TlsClientHello_ProcessAsTls1_m2549285167
roh:__Z74RuntimeInvoker_Boolean_t97287965_UIVertex_t4057497605_UIVertex_t4057497605PFvvEPK10MethodInfoPvPS4_
cQl:_ReadOnlyCollection_1_System_Collections_IList_RemoveAt_m3006136027_gshared
SSe:__ZN5physx2Gu19_gjkRelativeRayCastINS0_9TriangleVENS0_8CapsuleVEEEbRT_RT0_RKNS_6shdfnd3aos15PsMatTransformVERKNS9_6FloatVERKNS9_5Vec3VESI_RSD_RSG_SK_f
nSi:_ScrollRect_set_decelerationRate_m723367336
dcp:_TMP_UiFrameRateCounter_Update_m2632221777
G9c:__ZN13TriggerModule8TransferI19StreamedBinaryWriteILb0EEEEvRT_
xF:__ZN9BlobWrite8TransferI22OffsetPtrArrayTransferIiEEEvRT_PKc17TransferMetaFlags
lhk:_EncoderExceptionFallback_Equals_m2760188920
KPn:__ZN6il2cpp6icalls8mscorlib6System7Runtime15InteropServices8GCHandle15GetTargetHandleEP12Il2CppObjectii
GFh:_InternalEnumerator_1__ctor_m43405049_AdjustorThunk
zxb:__Z18Transfer_BlittableI17RemapPPtrTransferLb1EjEvRK29SerializationCommandArgumentsR31RuntimeSerializationCommandInfo
Chg:_RC2CryptoServiceProvider_get_EffectiveKeySize_m3835262416
cce:__ZN5physx6shdfnd5ArrayIPvNS0_15InlineAllocatorILj256ENS0_19ReflectionAllocatorINS_11NpAggregateEEEEEE15growAndPushBackERKS2_
Wac:__ZNK15LODGroupManager17CalculateLODMasksERK13LODParametersfPhPf
gQ:__ZN4FMOD6System7releaseEv
ROe:__ZN5physx6shdfnd8PoolBaseINS_2Sc18TriggerInteractionENS0_19ReflectionAllocatorIS3_EEE15disposeElementsEv
kBb:__Z18Transfer_BlittableI19StreamedBinaryWriteILb0EELb1E8BitFieldEvRK29SerializationCommandArgumentsR31RuntimeSerializationCommandInfo
r2i:_Boolean_CompareTo_m3665076258
nMj:_String_Split_m3580120853
aAk:_PrivateKeyInfo__ctor_m2811023496
Bba:__Z18PathToAbsolutePathRKN4core12basic_stringIcNS_20StringStorageDefaultIcEEEE
STh:_PropertyBuilder_GetCustomAttributes_m2917594003
kJm:_GUILayoutUtility_LayoutFromEditorWindow_m2914699782
Hco:__ZL76MarshalAsAttribute_t3522571978_CustomAttributesCacheGenerator_MarshalTypeRefP21CustomAttributesCache
chj:_BigInteger_SetBit_m1723423691
tra:__ZN9Scripting11UnityEngine12Experimental10PlayerLoop13PreLateUpdate9InitProxyEv
Bok:_TimeSpan_get_TotalMinutes_m3920401708
hgf:__ZN5physx28PxcContactCapsuleHeightFieldERKNS_2Gu13GeometryUnionES3_RKNS_11PxTransformES6_RKfRNS_10PxcNpCacheERNS0_13ContactBufferE
Rch:__Z78RuntimeInvoker_RuntimeObject_ObjectU26_t2146539884_RuntimeObject_RuntimeObjectPFvvEPK10MethodInfoPvPS4_
pdo:__ZL65X509ExtensionCollection_t609554708_CustomAttributesCacheGeneratorP21CustomAttributesCache
wIf:__ZN21UnityAnalyticsManager15ThreadedCleanupEv
Rum:_TMP_XmlTagStack_1_SetDefault_m860177551_AdjustorThunk
zTn:__ZN6il2cpp6icalls8mscorlib6System10Reflection16MonoPropertyInfo16GetTypeModifiersEPvb
hGd:__ZThn160_N17PolygonCollider2D5ResetEv
KXd:__ZL31PointInConvexPolygon2D_OutCodesPKfjffffRh
dze:__ZN5physx22NpParticleBaseTemplateINS_16PxParticleSystemENS_16NpParticleSystemEE18setDynamicFrictionEf
aBm:_UnityEvent_3_RemoveListener_m3235168934_gshared
ERa:__ZL13BlitImageImplR14ImageReferenceiiRKS_NS_10ColorSpaceENS_8BlitModeEb
OJc:__ZN15DirectorManager17AcquireOutputNodeEv
Ted:__ZL15AccumulateNoiseILb1ELi1EEN4math8floatNx2ERKNS0_8floatNx3ERKfiS6_S6_
MZa:__Z14resize_trimmedINSt3__26vectorI13dynamic_arrayI8Vector2fLj0EENS0_9allocatorIS4_EEEEEvRT_j
rtl:_Array_InternalArray__set_Item_TisColor32_t2600501292_m1891325855_gshared
tTm:__ZL25UnresolvedVirtualCall_149P12Il2CppObject25PlayableGraph_t3515989261S0_PK10MethodInfo
BIb:__ZN10MonoScript23VirtualRedirectTransferER17RemapPPtrTransfer
_fj:_GameObject_GetComponentInChildren_TisRuntimeObject_m1310240902_gshared
pfe:__ZN5physx2Sc21ArticulationJointCore21setInternalComplianceEf
kHk:_KeyCollection_System_Collections_Generic_ICollectionU3CTKeyU3E_Remove_m1071033400_gshared
Gkj:__ZN30GenericInterfaceActionInvoker2IP12Il2CppObjectP21EventArgs_t3591816995E6InvokeEPK10MethodInfoS1_S1_S3_
Eef:__ZN9Rigidbody12MoveRotationERK11Quaternionf
b8o:__ZL80Scoreboard_t4002975821_CustomAttributesCacheGenerator_U3CScoreU3Ek__BackingFieldP21CustomAttributesCache
Edf:__ZNK5physx6shdfnd10Foundation13getErrorLevelEv
bFo:__ZL69PersistentCall_t3407714124_CustomAttributesCacheGenerator_m_ArgumentsP21CustomAttributesCache
QHa:__Z32TransferEnumWithNameForceIntSizeI14SafeBinaryReadN21BuiltinShaderSettings17BuiltinShaderModeEEvRT_RT0_PKc17TransferMetaFlags
aqj:_TlsServerCertificateRequest_ProcessAsSsl3_m1084200341
jJa:__ZN16ReflectionProbes28GetMinBakedCubemapResolutionEv
Myn:__ZN6il2cpp6icalls8mscorlib6System10Reflection8Assembly22load_with_partial_nameEP12Il2CppStringP40mscorlib_System_Security_Policy_Evidence
P6e:__ZN5physx2Cm12DelegateTaskINS_2Sc5SceneEXadL_ZNS3_15postNarrowPhaseEPNS_10PxBaseTaskEEEE11runInternalEv
rwh:_InternalEnumerator_1__ctor_m1196506529_gshared
Pjf:__Z20ConvertContactToMonoP9Collision
RIj:_PermissionSet__ctor_m2328457660
OPk:_Enumerator__ctor_m1849900510_gshared
UAk:_Enumerator__ctor_m3604398513_AdjustorThunk
s9m:__ZN15dense_hashtableINSt3__24pairIK10KeyWrapperIPK22Il2CppGenericParameterEP11Il2CppClassEES6_N6il2cpp5utils11PointerHashIS4_EEN14dense_hash_mapIS6_S9_SE_NS6_14EqualsComparerINS0_8equal_toIS5_EEEENS0_9allocatorISA_EEE9SelectKeyESJ_SL_E6insertERKSA_
cZf:_TMP_InputField_get_characterValidation_m293459329
X3f:_TMP_SubMeshUI_get_mesh_m1845552462
hyo:__ZL49Camera_t4157153871_CustomAttributesCacheGeneratorP21CustomAttributesCache
IKo:__ZL101SpriteAtlasManager_t3158462485_CustomAttributesCacheGenerator_SpriteAtlasManager_Register_m2413332465P21CustomAttributesCache
Y_m:_RequestHelper_get_Method_m965173330
Wpm:_X509CertificateEnumerator__ctor_m85694331
pSb:__ZN14DataBufferGLES16RecreateWithDataEjPKv
uua:__Z29GetGlobalAllowNameConversionsv
JXd:__ZL17transformVerticesRfS_S_S_PfjPKN5physx6PxVec3EPKhRKNS1_7PxMat33E
mgf:__ZNK5physx2Gu15HeightFieldUtil31getFaceIndexAtShapePointNoTest2Ejff
zql:_Array_InternalArray__Insert_TisTableRange_t3332867892_m558285859_gshared
aPd:__ZNK12PhysXRaycast20FindParticleOverlapsER13dynamic_arrayI15BatchedOverlapsLj0EEPP8Colliderj
cec:__ZN8Material8SetColorEN9ShaderLab16FastPropertyNameERK10ColorRGBAf
dUo:__ZL77ExecuteEvents_t3484638744_CustomAttributesCacheGenerator_U3CU3Ef__mgU24cacheFP21CustomAttributesCache
k0e:__ZN5physx6shdfnd5ArrayIPNS_14PxLightCpuTaskENS0_13TempAllocatorEE6resizeEjRKS3_
$al:_Enumerator_System_Collections_IEnumerator_Reset_m3754523291_gshared
aCl:_EqualityComparer_1__cctor_m2645305258_gshared
XMf:__ZN11UnityEngine7Connect20RemoteConfigSettings19ConfigUpdatedStaticEPS1_bbi
Npo:__ZL77Convert_t2465617642_CustomAttributesCacheGenerator_Convert_ToByte_m2375887898P21CustomAttributesCache
bS:__ZN11AudioSource23VirtualRedirectTransferER18StreamedBinaryReadILb0EE
Dgi:_X509CertificateEnumerator__ctor_m943731472
Pfp:_Request_InfoString_m3189957263
iCi:_RangeInt_get_end_m4128831787
SPe:__ZNK5physx2Sq10AABBPruner5sweepERKNS0_9ShapeDataERKNS_6PxVec3ERfRNS0_14PrunerCallbackE
aqm:_PKCS12_get_IterationCount_m3005687235
RBb:__ZN10RectOffset8TransferI19StreamedBinaryWriteILb0EEEEvRT_
Znp:dynCall_iiifiii
HOf:__Z25GetUnityConnectModuleSpecv
edl:_List_1_get_Count_m3994226496_gshared
Z5l:_List_1_set_Item_m2082115010_gshared
_hk:_Encoding_GetBytes_m3735967069
$Cd:__ZN23ColliderTilingExtension5ResetEv
o0i:_Array_Initialize_m3004991267
GVb:__ZN14GfxContextGLES43AddRenderSurfaceToDeferredFBOInvalidateListEPK17RenderSurfaceGLES
wRe:__ZN5physx17PxsCCDAdvanceTask11runInternalEv
uwa:__ZN11NamedObject23VirtualRedirectTransferER14SafeBinaryRead
mpp:dynCall_vifiii
MVi:_Text_get_resizeTextMinSize_m1002355407
pof:__ZNSt3__26vectorIN20TextRenderingPrivate8FontImpl13CharacterInfoE13stl_allocatorIS3_L18MemLabelIdentifier1ELi16EEE6insertENS_11__wrap_iterIPKS3_EERS9_
mo:FUNCTION_TABLE_vifiiiiiiiiiiiii
a0i:_Array_CreateInstance_m1027597705
w7f:_TMP_Text_SetFaceColor_m1487954336
oon:__ZNK15dense_hashtableINSt3__24pairIK10KeyWrapperINS1_IPK10MethodInfoP11Il2CppClassEEEjEES9_17ReflectionMapHashIS8_EN14dense_hash_mapIS9_jSD_NS9_14EqualsComparerINS0_8equal_toIS8_EEEENS0_9allocatorISB_EEE9SelectKeyESI_SK_E8min_sizeEjj
LRi:_Selectable_get_navigation_m3508916916
FJd:__ZN10Effector2D10EndContactEP9b2Contact
kNn:__ZN6il2cpp5utils11StringUtils11Utf16ToUtf8ERKNSt3__212basic_stringIDsNS2_11char_traitsIDsEENS2_9allocatorIDsEEEE
Ijj:_MD4Managed_Decode_m4273685594
tZg:__Z50RuntimeInvoker_Int64_t3736567304_Int16_t2552820387PFvvEPK10MethodInfoPvPS4_
q8m:_UnityEngineModuleAssembly__ctor_m242195730
t0d:__ZN5physx3Cct26CharacterControllerManagerD2Ev
f3g:__Z57RuntimeInvoker_Quaternion_t2301928331_Vector3_t3722313464PFvvEPK10MethodInfoPvPS4_
Kml:_List_1_Sort_m955247884_gshared
Ehh:__Z58RuntimeInvoker_Void_t1185182177_KeyValuePair_2_t2245450819PFvvEPK10MethodInfoPvPS4_
Dig:_Compute_DT_EventArgs__ctor_m1008311213
Vbb:__ZN21LightProbeProxyVolume18HasHardwareSupportEv
s6b:__ZN26LightProbeProxyVolumeCacheC2ER13BatchRendererR15RenderLoopStats
rla:__ZN6prcoreL31inner_stretch_argb8888_bilinearEPKNS_9InnerInfoE
qDb:__Z18Transfer_BlittableI18StreamedBinaryReadILb1EELb1E8BitFieldEvRK29SerializationCommandArgumentsR31RuntimeSerializationCommandInfo
Xvf:_UNITY_FT_Outline_Decompose
Z5k:_Enumerator_System_Collections_IEnumerator_get_Current_m3484854280_gshared
Lfi:__ZN23GenericVirtFuncInvoker4IP26X509Certificate_t713131622P8String_tP37X509CertificateCollection_t3399372417S1_P24StringU5BU5D_t1281789340E6InvokeEPK10MethodInfoP12Il2CppObjectS3_S5_S1_S7_
MWb:__ZNK12GraphicsCaps24GetFallbackSampledFormatE14GraphicsFormat
gpm:_GeneralNames_get_IPAddresses_m4242915644
n6j:_Decimal_op_Implicit_m3873897383
L8k:_Enumerator_Dispose_m3500272053_AdjustorThunk
kSn:_GC_init_size_map
WKo:__ZL84AudioSampleProvider_t3950279772_CustomAttributesCacheGenerator_sampleFramesAvailableP21CustomAttributesCache
MNl:_ReadOnlyCollection_1_System_Collections_IList_RemoveAt_m1118392812_gshared
ZQe:__ZN5physx6shdfnd8internal8HashBaseINS0_4PairIKNS3_IPKNS_12PxsRigidCoreEPKNS_12PxsShapeCoreEEEPNS_11PxsCCDShapeEEESA_NS0_4HashISA_EENS1_11HashMapBaseISA_SD_SG_NS0_9AllocatorEE6GetKeyESI_Lb1EE15reserveInternalEj
CVf:_TMP_Dropdown_set_captionText_m4280879908
zBa:__Z20scripting_object_new17ScriptingClassPtr
ZCm:_CRC32__ctor_m3861574013
rpp:dynCall_iiiiifi
Abo:__ZL69RuntimeArray_CustomAttributesCacheGenerator_Array_Reverse_m3714848183P21CustomAttributesCache
sta:__ZN9Scripting5Unity11Collections39NativeMatchesParallelForLengthAttribute12CleanupProxyEv
nAk:_KeyGeneratedEventHandler_Invoke_m2527485594
bDg:_Image_get_layoutPriority_m1290204116
iid:__Z16RandomUnitVectorRKN4math7_float4ES2_
E7n:_TeleType__ctor_m1571455078
qnn:__ZN24dense_hashtable_iteratorINSt3__24pairIK10KeyWrapperINS1_IPK9FieldInfoP11Il2CppClassEEEjEES9_17ReflectionMapHashIS8_EN14dense_hash_mapIS9_jSD_NS9_14EqualsComparerINS0_8equal_toIS8_EEEENS0_9allocatorISB_EEE9SelectKeyESI_SK_E30advance_past_empty_and_deletedEv
K3k:_Repetition_get_Expression_m2673886232
FLe:__ZN5physx2Sc5Scene21setDominanceGroupPairEhhRKNS_20PxDominanceGroupPairE
hdk:_Decimal__ctor_m1925875020_AdjustorThunk
Yra:__ZN9Scripting11UnityEngine6Events14UnityEventBase12CleanupProxyEv
YGa:__ZN18ShadowMapJobHeaderD0Ev
Alo:__ZL59SerializationInfo_t950877179_CustomAttributesCacheGeneratorP21CustomAttributesCache
t0o:__ZL72TextMeshProUGUI_t529313277_CustomAttributesCacheGenerator_m_baseMaterialP21CustomAttributesCache
_8c:__ZN16CustomDataModule8TransferI18StreamedBinaryReadILb0EEEEvRT_
P:Math_exp
awl:_Dictionary_2_ToTKey_m224697230_gshared
swo:__ZL69NativeConditionalAttribute_t2439539374_CustomAttributesCacheGeneratorP21CustomAttributesCache
dq:FUNCTION_TABLE_iiifi
oIn:__ZN6il2cpp2os5posix13PosixAutoLockD2Ev
omo:__ZL56HashAlgorithm_t1432317219_CustomAttributesCacheGeneratorP21CustomAttributesCache
EId:__ZN13BoxCollider2D15InitializeClassEv
oom:_TlsServerSettings_set_CertificateTypes_m2047242411
Tun:_il2cpp_class_get_name
qKm:_SymmetricTransform_OFB_m3690147804
bHh:_InternalEnumerator_1_MoveNext_m3713722659_AdjustorThunk
ODb:__Z30TransferField_LinearCollectionI18StreamedBinaryReadILb1EEEvRK29SerializationCommandArgumentsR31RuntimeSerializationCommandInfo
yJb:__ZN13MonoBehaviour9SetScriptERK4PPtrI10MonoScriptE18ScriptingObjectPtr
OVo:__ZL88TweenRunner_1_t3844461449_CustomAttributesCacheGenerator_TweenRunner_1_Start_m2515881864P21CustomAttributesCache
U2m:_RaycastHit2D_get_collider_m1549426026
ato:__ZL55g_Mono_Security_Assembly_CustomAttributesCacheGeneratorP21CustomAttributesCache
Iwb:__Z18Transfer_BlittableI17RemapPPtrTransferLb0E8Vector2fEvRK29SerializationCommandArgumentsR31RuntimeSerializationCommandInfo
qcj:_Dictionary_2_Do_CopyTo_TisKeyValuePair_2_t727985506_TisKeyValuePair_2_t727985506_m1839692500_gshared
hhi:_X500DistinguishedName_GetSeparator_m1336760642
uRh:_ILGenerator_target_len_m542103396
ieh:__Z77RuntimeInvoker_Void_t1185182177_Vector2U5BU5DU26_t476646542_Int32_t2950945753PFvvEPK10MethodInfoPvPS4_
eDe:__ZN5physx7NpScene12loadFromDescERKNS_11PxSceneDescE
ZXi:_PKCS12_get_RNG_m2649456600
phb:__ZNK10FileSystem16LastErrorMessageEv
bsl:_Array_InternalArray__Insert_TisVector3_t3722313464_m3862657277_gshared
VTk:_Dictionary_2_get_Keys_m398094503_gshared
KSl:_ReadOnlyCollection_1_System_Collections_Generic_IListU3CTU3E_get_Item_m1659090079_gshared
g_a:__ZN15SerializeTraitsI13dynamic_arrayI12SpriteVertexLj0EEE19ResizeSTLStyleArrayERS2_i
mJj:_SecurityException__ctor_m1631242336
tbn:__ZN15dense_hashtableINSt3__24pairIK10KeyWrapperIPK11Il2CppClassEPKcEES6_N6il2cpp5utils11PointerHashIS3_EEN14dense_hash_mapIS6_S9_SE_NS6_14EqualsComparerINS0_8equal_toIS5_EEEENS0_9allocatorISA_EEE9SelectKeyESJ_SL_E14squash_deletedEv
Qpg:_EventSystem_Update_m1662072334
vMc:__ZN11TimeManager16HasFixedTimeStepEv
_Yf:_TMP_InputField_set_inputType_m3691041596
MRf:__ZN22UnityWebRequestManager10InitializeEv
g2n:_JSONArray_get_Item_m1015314168
HPj:_Enum_ToString_m2477889358
D9a:__ZNSt3__26__treeINS_12__value_typeIN4core12basic_stringIcNS2_20StringStorageDefaultIcEEEE4PPtrI6ObjectEEENS_19__map_value_compareIS6_SA_NS_4lessIS6_EELb1EEE13stl_allocatorISA_L18MemLabelIdentifier52ELi16EEE15__emplace_multiIJRNS_4pairIS6_S9_EEEEENS_15__tree_iteratorISA_PNS_11__tree_nodeISA_PvEEiEEDpOT_
hTn:__ZN6il2cpp6icalls8mscorlib6System10Reflection4Emit13ModuleBuilder20create_modified_typeEP27Il2CppReflectionTypeBuilderP12Il2CppString
mfo:__ZL51FileMode_t1183438340_CustomAttributesCacheGeneratorP21CustomAttributesCache
sxb:__ZL26Transfer_SimpleNativeClassI17RemapPPtrTransfer8GradientLb1EEvRK29SerializationCommandArgumentsR31RuntimeSerializationCommandInfo
spg:_RaycasterManager_RemoveRaycasters_m3057093063
B6f:_TMP_Text_set_isVolumetricText_m2363419080
Uoc:__ZN12CachedWriter9InitWriteER15CacheWriterBase
DJc:__Z21UnsignedInt64ToStringy
jQi:_GetRaycastNonAllocCallback_BeginInvoke_m3984885848
ryh:_InternalEnumerator_1_MoveNext_m4138204635_AdjustorThunk
W$k:_PatternCompiler_BeginLink_m1295557963
Xeo:__ZL90BinaryReader_t2428077293_CustomAttributesCacheGenerator_BinaryReader_ReadUInt16_m267781130P21CustomAttributesCache
qFb:__ZN18StreamedBinaryReadILb1EE8TransferI13dynamic_arrayIiLj0EEEEvRT_PKc17TransferMetaFlags
DLe:__ZN5physx14PxsAABBManager15createAggregateEPvb
i3k:_Group_GetAnchorInfo_m3730312864
ZWo:__ZL50Graphic_t1660335611_CustomAttributesCacheGeneratorP21CustomAttributesCache
GBg:_GridLayoutGroup_set_constraint_m3308895167
LIk:_KeyCollection_System_Collections_Generic_ICollectionU3CTKeyU3E_Add_m454648927_gshared
mpk:_TimeSpan_op_LessThanOrEqual_m300470010
rbk:_DateTime_GetDateTimeFormats_m3421493225
xNo:__ZL139AnimatorOverrideController_t3582062219_CustomAttributesCacheGenerator_AnimatorOverrideController_OnInvalidateOverrideController_m3380737075P21CustomAttributesCache
c7e:__ZN5physx2Sc15ClothFabricCore4loadERKNS_17PxClothFabricDescE
tyc:__Z66Register_UnityEngine_Transform_INTERNAL_CALL_InverseTransformPointv
H1l:_Nullable_1_GetHashCode_m1030690889_gshared
Sfa:__ZZN15DirectorManager15InitializeClassEvEN41FixedUpdateDirectorFixedUpdateRegistrator7ForwardEv
M0j:_MemoryStream_get_Position_m3733941202
ECm:_ListPool_1_Clear_m2587502754_gshared
ib:invoke_iiiiifiiiif
rzo:__ZL96TouchScreenKeyboard_t731888065_CustomAttributesCacheGenerator_TouchScreenKeyboard_Open_m43950298P21CustomAttributesCache
MSg:__Z58RuntimeInvoker_RuntimeTypeHandle_t3027515415_RuntimeObjectPFvvEPK10MethodInfoPvPS4_
cCg:_HorizontalOrVerticalLayoutGroup_set_childControlWidth_m3261460516
u1j:_Slot_t3975888750_marshal_pinvoke
fyp:_glLinkProgram__wrapper
Jfb:__ZN18ScriptingArguments8AddInt64Ex
Cka:__ZN6prcoreL12RemapGenericI17TexFormatARGB888815TexFormatBGR888EEvPKNS_9InnerInfoE
wrb:__ZN26SinglePassStereoSupportExt19SaveStereoConstantsEv
rha:__ZNSt3__26vectorIP10MemoryPool13stl_allocatorIS2_L18MemLabelIdentifier76ELi16EEE21__push_back_slow_pathIRKS2_EEvOT_
FUj:_TextInfo_get_ListSeparator_m1628160079
WTo:__ZL77ExecuteEvents_t3484638744_CustomAttributesCacheGenerator_U3CU3Ef__mgU24cache6P21CustomAttributesCache
qdd:__Z20UpdateCustomCurveTplIL27ParticleSystemCurveEvalMode1EEvRK11MinMaxCurveR23ParticleSystemParticlesiijjRKN4math5_int4E
fUi:_Selectable_OnCanvasGroupChanged_m472903475
Flk:_EventWaitHandle_Reset_m3348053200
zbd:__ZNK10SizeModule6UpdateER23ParticleSystemParticlesjj
tpe:__ZN5physx7NpShape8requiresERNS_23PxProcessPxBaseCallbackE
gCn:__ZN6il2cpp6icalls8mscorlib6System13Globalization11CultureInfo35construct_internal_locale_from_nameEP17Il2CppCultureInfoP12Il2CppString
kfl:_List_1_System_Collections_IList_Add_m2656245659_gshared
Azb:__ZL22Transfer_ManagedObjectI24GenerateTypeTreeTransferLb1EEvRK29SerializationCommandArgumentsR31RuntimeSerializationCommandInfo
dQg:__Z100RuntimeInvoker_Boolean_t97287965_RuntimeObject_Int32_t2950945753_RuntimeObject_UInt16U26_t2814738322PFvvEPK10MethodInfoPvPS4_
Skh:__Z56RuntimeInvoker_ILTokenInfo_t2325775114_Int32_t2950945753PFvvEPK10MethodInfoPvPS4_
pgg:_HMAC_get_BlockSizeValue_m455678067
_Tm:__ZL25UnresolvedVirtualCall_182P12Il2CppObject19Color32_t2600501292PK10MethodInfo
F0b:__ZN15RenderNodeQueueC2E10MemLabelId
Nem:_Collection_1_System_Collections_ICollection_CopyTo_m1597420376_gshared
ggp:_ResponseCallbackDispatcher__cctor_m70018758
N_h:_ResourceEnumerator_FillCache_m1661715061
_7n:_U3CRevealCharactersU3Ec__Iterator0_Dispose_m3637291311
Dro:__ZL61MonoEnumInfo_t3694469084_CustomAttributesCacheGenerator_cacheP21CustomAttributesCache
SVl:_ReadOnlyCollection_1_System_Collections_IList_IndexOf_m3664838805_gshared
KBf:__ZL17CleanupModule_TLSv
Fno:__ZL72SecuritySafeCriticalAttribute_t3505979402_CustomAttributesCacheGeneratorP21CustomAttributesCache
Rk:_emscripten_set_main_loop_timing
ooi:_Bounds_get_min_m3755135869
D8h:_Array_InternalArray__IndexOf_TisKeyValuePair_2_t2245450819_m1517102824_gshared
F8j:_Convert_ToUInt16_m3523269149
boi:_Bounds_get_center_m1418449258
LCn:__ZN30dense_hashtable_const_iteratorINSt3__24pairIK10KeyWrapperIP14Il2CppIUnknownEjEES5_N6il2cpp5utils11PointerHashIS3_EEN14dense_hash_mapIS5_jSB_NS5_14EqualsComparerINS0_8equal_toIS4_EEEENS0_9allocatorIS7_EEE9SelectKeyESG_SI_E30advance_past_empty_and_deletedEv
FTb:__ZN14DataBufferGLES12RecordRenderEv
Pqg:_ExecuteEvents_get_endDragHandler_m2879610446
PXo:__ZL60InputField_t3762917431_CustomAttributesCacheGenerator_m_TextP21CustomAttributesCache
WXe:__ZNK5physx20SingleAABBUpdateTask7getNameEv
Idc:__ZN14ImageReference10FlipImageYEv
AZk:_Interpreter_GetLastDefined_m4107643411
l8c:__ZN21InheritVelocityModule8TransferI17RemapPPtrTransferEEvRT_
I$j:_FileStream_RefillBuffer_m4186945278
eAa:__ZN21ScalableBufferManager20GetHeightScaleFactorEv
rkc:__ZNSt3__26vectorIN9ShaderLab20SerializedSubProgram15VectorParameterENS_9allocatorIS3_EEE8__appendEj
bYn:_BossBullet_Update_m3668511664
$M:__ZN4FMOD3DSP9setBypassEb
ihc:__Z19NormalizeWheelInputf
JAg:_Graphic_DoMeshGeneration_m3548487693
hgc:__Z29StdTemplateConversionFunctionIsaEbPvR14SafeBinaryRead
uJ:__ZN11KeyframeTplIfE8TransferI14SafeBinaryReadEEvRT_
sC:__ZNK4PPtrI13MonoBehaviourEcvPS0_Ev
b1k:_Repetition__ctor_m1672362629
j4c:__Z29Transfer_Blittable_ArrayFieldI8JSONReadhEvRT_R9ArrayInfoRK23StaticTransferFieldInfo
xKj:_SecurityFrame_ToString_m339310712_AdjustorThunk
oUh:_TypeBuilder_create_runtime_class_m2581270900
moc:__ZN11MonoManager25GetImageFromAssemblyIndexEi
vwh:_InternalEnumerator_1_get_Current_m3008260692_gshared
Tte:__ZN5physx2Sc9ClothCore17addCollisionPlaneERKNS_21PxClothCollisionPlaneE
gCa:__ZN22RenderingCommandBuffer20CleanupCommandBufferEv
zTk:_Dictionary_2_System_Collections_IDictionary_GetEnumerator_m1381304260_gshared
p6j:_Decimal_op_Implicit_m2299919277
Y8k:_Enumerator_MoveNext_m3275886745_gshared
Z_c:__Z18Transfer_BlittableI9JSONWriteLb1EtEvRK29SerializationCommandArgumentsR31RuntimeSerializationCommandInfo
Cid:__Z10StartDonutILN11ShapeModule14MultiModeValueE0EEvRS0_R23ParticleSystemParticlesRK19ParticleSystemStateRK27ParticleSystemEmissionStateRKN4math8float3x3ERKNSB_7affineXEjbj
cwj:_UnexceptionalStreamReader_ReadToEnd_m920589220
oak:_DateTime_System_IConvertible_ToType_m1242864300
MMj:_String_IndexOf_m1298810678
kl:___syscall85
ljn:__ZNSt3__214__split_bufferIP17Il2CppAsyncResultRN6il2cpp2gc9AllocatorIS2_EEEC2EjjS7_
HFf:__ZN2UI14CanvasRenderer18UpdateTRSHierarchyEb
mOo:__ZL85GUI_t1624858472_CustomAttributesCacheGenerator_GUI_set_nextScrollStepTime_m1026410471P21CustomAttributesCache
c9e:__ZNK5physx13PxHeightField8isKindOfEPKc
xgj:_Mesh_GetAllocArrayFromChannel_TisVector3_t3722313464_m2332439905_gshared
KCo:__ZL61ThreadedLoadingDebug_t53594427_CustomAttributesCacheGeneratorP21CustomAttributesCache
K0b:__ZNSt3__26__sortIRPFbP10GUIElementS2_EPS2_EEvT0_S7_T_
dNh:_ConstructorBuilder_GetILGenerator_m1750792206
yhk:_EncoderFallback_get_ReplacementFallback_m818398284
gLn:__ZN6il2cpp2os6Thread19DetachCurrentThreadEv
jqg:_EventTrigger_OnBeginDrag_m4203438710
PEg:_ClientActivatedIdentity_OnLifetimeExpired_m635240647
asb:__ZN11MonoManager23VirtualRedirectTransferER24GenerateTypeTreeTransfer
H6e:__ZNK5physx2Sc18ParticleSystemCore16getInternalFlagsEv
Ecj:_Dictionary_2_Do_CopyTo_TisRuntimeObject_TisRuntimeObject_m2344529027_gshared
vD:__ZN23AnimationPlayableOutput17SetSourcePlayableEP8Playable
rqd:__ZL24BuildParticleLineSegmentILb1EEvjRPhRKN4math8float4x4EPK15LineBuilderDataRKfSA_11ColorRGBA32
uKn:__ZN6il2cpp2gc16GarbageCollector22MakeDescriptorForArrayEv
Mok:_TimeSpan_CompareTo_m3633415627_AdjustorThunk
HDh:_InternalEnumerator_1_get_Current_m1900477722_gshared
FXj:_Int32_ToString_m2507389746_AdjustorThunk
aml:_List_1_System_Collections_IList_Contains_m3829146114_gshared
oqi:_CullingGroup_Dispose_m782801025
bzl:_Dictionary_2_System_Collections_IDictionary_GetEnumerator_m529247385_gshared
$_d:__ZN16ControllerFilter9preFilterERKN5physx12PxFilterDataEPKNS0_7PxShapeEPKNS0_12PxRigidActorERNS0_7PxFlagsINS0_9PxHitFlag4EnumEtEE
v_:__ZN11UnityEngine15CloudWebService14DataDispatcher15SetupWebRequestEv
xlm:_Collection_1_ConvertItem_m492501417_gshared
QLf:__ZN11UnityEngine15PlatformWrapper13GetShaderCapsEv
SWe:__ZN16MBPOS_TmpBuffers16allocateSleepingEjj
NMo:__ZL99CertificateHandler_t2739891000_CustomAttributesCacheGenerator_CertificateHandler_Release_m648790222P21CustomAttributesCache
XQh:_GenericTypeParameterBuilder_IsDefined_m98179866
gQo:__ZL82Physics2D_t1528932956_CustomAttributesCacheGenerator_Physics2D_Raycast_m1377762210P21CustomAttributesCache
kzk:_KeyPairPersistence_get_MachinePath_m3812267291
w3j:_Stack_Peek_m2216191248
bak:_DateTime_System_IConvertible_ToDecimal_m1044850612_AdjustorThunk
eDc:__ZN21FixedBehaviourManager6UpdateEv
Bxc:__ZN9Transform9SetParentEPS_NS_15SetParentOptionE
V8c:__ZN15CollisionModule8TransferI18StreamedBinaryReadILb0EEEEvRT_
rTm:__ZL25UnresolvedVirtualCall_147P12Il2CppObject6Guid_tPK10MethodInfo
sEa:__ZN19ShaderPropertySheet8SetFloatEN9ShaderLab16FastPropertyNameEfNS_8SetFlagsE
O6m:_Physics_Raycast_m952690504
rab:__ZN19RuntimeSceneManager24BeginIntegrateMainThreadEP10UnityScene
$ce:__ZN5physx14NpArticulation26setExternalDriveIterationsEj
QRd:__ZN16RayRTreeCallbackILi0ELb0EED0Ev
DFm:_TMP_TextInfo__ctor_m1227556611
Upj:_TlsServerCertificate_ProcessAsSsl3_m1306583193
_1n:_SeedMenu_Update_m125121590
o0e:__ZN5physx20PxsParticleSystemSim23scheduleCollisionUpdateERNS_10PxBaseTaskE
ULn:__ZNSt3__2plIcNS_11char_traitsIcEENS_9allocatorIcEEEENS_12basic_stringIT_T0_T1_EERKS9_S6_
$uj:_StringReader_CheckObjectDisposedException_m3796163530
psk:_UInt32_System_IConvertible_ToInt16_m1659441601
KOh:_DynamicMethod_create_dynamic_method_m1579875961
zbl:_List_1_System_Collections_IList_get_IsReadOnly_m1922977905_gshared
Ckc:__ZN9ShaderLab20SerializedSubProgramaSERKS0_
hbp:__ZL136U3CAnimateVertexColorsU3Ec__Iterator0_t3792186008_CustomAttributesCacheGenerator_U3CAnimateVertexColorsU3Ec__Iterator0_Reset_m1240569973P21CustomAttributesCache
snp:_roundf
d3i:_Byte_System_IConvertible_ToSingle_m324484566_AdjustorThunk
ich:__Z42RuntimeInvoker_RequirementType_t3584265503PFvvEPK10MethodInfoPvPS4_
n4j:_Decimal_op_Explicit_m2848387298
tIl:_KeyValuePair_2_ToString_m1238786018_gshared
I1d:__ZN5physx15PxBoxControllerD0Ev
Qw:__ZN8Animator15SetPrepareStageEv
igl:_List_1_System_Collections_IEnumerable_GetEnumerator_m276846789_gshared
QK:__ZN8AnimatorC2E10MemLabelId18ObjectCreationMode
P9m:__ZN6il2cpp2vmL24SetupTypeHierarchyLockedEP11Il2CppClassRKNS_2os12FastAutoLockE
gMj:_String_Clone_m3573869765
shc:__ZL11TextHandleriPK23EmscriptenKeyboardEventPv
b6b:__Z20CalculateLightMatrixRK15SharedLightDataP10Matrix4x4f
yZb:__ZNSt3__26vectorIP17FileSystemHandlerNS_9allocatorIS2_EEE21__push_back_slow_pathIRKS2_EEvOT_
Dnf:_destroy_face
AYn:_CollisionCheckerSpeedPowerUp__ctor_m2809153290
bbg:_SerializableTypeMetadata_WriteTypeData_m1099030367
eSc:__Z31Mesh_CUSTOM_get_bounds_InjectedP12Il2CppObjectR4AABB
CMf:__ZNSt3__26vectorIPN11UnityEngine15CloudWebService14CloudEventInfoE13stl_allocatorIS4_L18MemLabelIdentifier88ELi16EEE21__push_back_slow_pathIS4_EEvOT_
ZKd:__ZN5physx19PxAllocatorCallbackD2Ev
gZl:_Comparison_1__ctor_m1312243963_gshared
I6o:__ZL66U3CSpawnU3Ec__Iterator0_t2937824069_CustomAttributesCacheGeneratorP21CustomAttributesCache
OTn:__ZN6il2cpp6icalls8mscorlib6System8Security12Cryptography24RNGCryptoServiceProvider13RngInitializeEP11Il2CppArray
pOg:_CodeGenerator__cctor_m3167429173
dwo:__ZL68UsedByNativeCodeAttribute_t1703770351_CustomAttributesCacheGeneratorP21CustomAttributesCache
lkd:__ZN21RotationBySpeedModuleD0Ev
Fye:__ZNK5physx15NpActorTemplateINS_16PxParticleSystemEE17getDominanceGroupEv
kS:__ZN20SoundChannelInstance7setMuteEb
nQg:__Z81RuntimeInvoker_Void_t1185182177_RuntimeObject_Int32_t2950945753_Int32_t2950945753PFvvEPK10MethodInfoPvPS4_
_ig:_FloatTween_get_ignoreTimeScale_m1816752126
hJa:__ZN4PPtrI5LightE8TransferI19StreamedBinaryWriteILb0EEEEvRT_
m0d:__ZN5physx3Cct26CharacterControllerManager21createObstacleContextEv
Sol:_Array_InternalArray__ICollection_Add_TisVector2_t2156229523_m4029235359_gshared
Wml:_List_1__cctor_m972674764_gshared
qBj:_NumberFormatter_NumberToString_m3906556024
rEb:__Z19TransferField_ArrayI18StreamedBinaryReadILb1EE27Converter_SimpleNativeClassI17AnimationCurveTplIfEEEvRK23StaticTransferFieldInfoR31RuntimeSerializationCommandInfoRT0_
Eng:_TextMeshProUGUI_SetSharedMaterial_m2699207012
eJd:__ZN7b2World18SetContactListenerEP17b2ContactListener
gpd:__Z19UpdateSingleRow2TplIL27ParticleSystemCurveEvalMode1ELS0_1EEvfRK11MinMaxCurveS3_RK23ParticleSystemParticlesPfbiii
lNl:_ReadOnlyCollection_1_System_Collections_IList_get_Item_m695218107_gshared
XTb:__ZN18GfxFramebufferGLES22MakeCurrentFramebufferENS_7BuiltinE
VOn:__ZN6il2cpp2vm12MarshalAlloc4FreeEPv
qFe:__ZN5physx6shdfnd5ArrayIPNS_2Sc19ShapeInstancePairLLENS0_19ReflectionAllocatorIS4_EEE15growAndPushBackERKS4_
fIa:__ZN12CachedReader4ReadEPvj
LUo:__ZL104PointerEventData_t3807901092_CustomAttributesCacheGenerator_PointerEventData_get_pointerDrag_m3056187725P21CustomAttributesCache
bWe:__ZN5physx21MBPPostUpdateWorkTaskD0Ev
D0o:__ZL105TMPro_ExtensionMethods_t1453208966_CustomAttributesCacheGenerator_TMPro_ExtensionMethods_Tint_m3544070525P21CustomAttributesCache
f_h:_TypeFilter_EndInvoke_m998903841
Jpf:_cf2_blues_init
nhe:__ZN5physx2Sc8BodyCore24clearSpatialAccelerationEbb
WRo:__ZL49Canvas_t3310196443_CustomAttributesCacheGeneratorP21CustomAttributesCache
Lvk:_SimpleCollator_MatchesForwardCore_m850743967
aQm:_Toggle_OnPointerClick_m3526893169
gdd:__ZNK14RotationModule6UpdateERK27ParticleSystemReadOnlyStateRK19ParticleSystemStateR23ParticleSystemParticlesRKN4math7_float4Ejj
a8:__ZN19RuntimeSceneManagerD2Ev
Gyi:_PlayerConnectionInternal__ctor_m2406218802
p1h:_Array_InternalArray__ICollection_Contains_TisKeyValuePair_2_t727985506_m2528174741_gshared
XQj:_CCGregorianCalendar_GetMonth_m1547203696
q9k:_Enumerator_Dispose_m786980821_AdjustorThunk
L$:__ZN11UnityEngine15CloudWebService25WebRequestDownloadHandler17OnCompleteContentEv
lSa:__ZN6prcore17GetIntegerBlitterE13TextureFormatS0_N14ImageReference8BlitModeE
LRn:_GC_print_block_descr
jFe:__ZN5physx10PxsContext20createContactManagerERKNS_24PxvManagerDescRigidRigidEPNS_18PxsMaterialManagerE
vem:_Collection_1_IndexOf_m934463944_gshared
KGd:__ZN13BoxCollider2DD0Ev
Yna:__ZL51__ManagedRegistrationHelperFunction_ResourceRequestPv
wDe:__ZN5physx2Cm12DelegateTaskINS_7NpSceneEXadL_ZNS2_12executeSolveEPNS_10PxBaseTaskEEEED0Ev
OQd:__ZN5physx2GuL18gPCMHullPrefetchCBEjPKNS_6PxVec3E
i7d:__ZN5physx2Sc5Scene31removeActiveBreakableConstraintEPNS0_13ConstraintSimE
XTk:_Dictionary_2_ToTKey_m59443895_gshared
Z2n:_JSONLazyCreator_get_AsFloat_m3551746937
Mii:_Socket_set_SendTimeout_m2494155708
dfo:__ZL51Directory_t828876208_CustomAttributesCacheGeneratorP21CustomAttributesCache
S0i:_SimpleEnumerator_Reset_m2182001888
sPl:_ReadOnlyCollection_1_System_Collections_IList_Clear_m1160136535_gshared
B5l:_List_1_Contains_m1925266201_gshared
Nfh:__Z86RuntimeInvoker_Int32_t2950945753_Vector2_t2156229523_Vector2_t2156229523_RuntimeObjectPFvvEPK10MethodInfoPvPS4_
xPc:__ZN9BlobWrite14ReduceCopyImplERK14ReduceCopyDataj
T9h:_Array_LastIndexOf_TisRuntimeObject_m1677937501_gshared
eW:__ZN11AudioSource18IsPlayingScriptingEv
czk:_KeyBuilder_IV_m2230195376
UMk:_Transform_1_Invoke_m3983555223_gshared
fud:__ZNK12b2WheelJoint10GetAnchorAEv
GJe:__ZN5physx6shdfnd5ArrayINS_12PxActorShapeENS0_19ReflectionAllocatorIS2_EEE15growAndPushBackERKS2_
djb:__ZN25MultiBlocksMemoryFileData17AdjustBlocksCountEj
$yn:__ZNSt3__214__split_bufferIN6il2cpp2vm22EmbeddedResourceRecordERNS_9allocatorIS3_EEED2Ev
$xm:_InvokableCall_3_Invoke_m1014600903_gshared
X2h:_Array_InternalArray__ICollection_Remove_TisKeyValuePair_2_t2245450819_m3064110492_gshared
Klf:__ZN13TextRendering4Font8TransferI24GenerateTypeTreeTransferEEvRT_
Knb:__ZN9GfxDevice15EndProfileEventEPN9profiling6MarkerE
Q3o:__ZL68TMP_SubMeshUI_t1578871311_CustomAttributesCacheGenerator_m_fontAssetP21CustomAttributesCache
BYf:_TMP_InputField_set_onValueChanged_m1887358354
Rsc:__Z27CullingGroup_CUSTOM_DisposeP12Il2CppObject
tod:__Z18UpdateSingleRowTplIL27ParticleSystemCurveEvalMode0EEvfRK11MinMaxCurveS3_RK23ParticleSystemParticlesPfbiii
m1m:_CanvasRenderer_INTERNAL_CALL_GetColor_m597074473
v7o:__ZL132U3CSpawnPowerUpWavesU3Ec__Iterator6_t2214992415_CustomAttributesCacheGenerator_U3CSpawnPowerUpWavesU3Ec__Iterator6_Reset_m1689556088P21CustomAttributesCache
FKh:_Comparer_1__ctor_m319670016_gshared
Zle:__ZN5physx2Sc14ConstraintCore8setFlagsENS_7PxFlagsINS_16PxConstraintFlag4EnumEtEE
tn:_glStencilMask
GLn:__ZN6il2cpp2os10ThreadImpl16GetCurrentThreadEv
_7e:__ZNK5physx2Sc15ClothFabricCore20getNbParticleIndicesEv
khc:__ZN15GUIEventManager10QueueEventERK10InputEvent
G_h:_ResourceReader_ReadNonPredefinedValue_m2638853518
bhm:_Collection_1_Clear_m1300437781_gshared
Hhn:_AnalyticsEvent_OnValidationFailed_m2609604624
YKl:_Collection_1_Contains_m1707523067_gshared
y$h:_DecimalConstantAttribute__ctor_m3583301917
$1f:_TMP_SpriteAnimator_DoSpriteAnimation_m4244961026
W2g:__Z116RuntimeInvoker_Vector3_t3722313464_Vector3_t3722313464_Vector3_t3722313464_Vector3U26_t3464235976_Single_t1397266774PFvvEPK10MethodInfoPvPS4_
$km:_Collection_1_System_Collections_ICollection_get_IsSynchronized_m1640823718_gshared
lRn:_GC_push_conditional_with_exclusions
Mz:__ZN21AnimationPosePlayableD0Ev
$Pe:__ZN5physx2Sq8AABBTree11shiftOriginERKNS_6PxVec3E
Zpo:__ZL80Convert_t2465617642_CustomAttributesCacheGenerator_Convert_ToDecimal_m2858622624P21CustomAttributesCache
XEn:__GLOBAL__sub_I_GenericMetadata_cpp
Mzm:__ZN30GenericInterfaceActionInvoker4IP12Il2CppObjectS1_S1_S1_E6InvokeEPK10MethodInfoS1_S1_S1_S1_S1_
E2a:__Z31DrawSpriteDeformedFromNodeQueueRK15RenderNodeQueuej16VertexInputMasksi
a3l:__ZN28GenericInterfaceFuncInvoker1IbDsE6InvokeEPK10MethodInfoP12Il2CppObjectDs
g5k:_UriParser_InitializeAndValidate_m2008117311
I5o:__ZL68TrackableField_t1772682203_CustomAttributesCacheGenerator_m_EnumTypeP21CustomAttributesCache
vkp:_strrchr
$pi:_Component_GetComponentInParent_m779177818
o0l:_Func_3__ctor_m1375075958_gshared
gbk:_DateTime_IsDaylightSavingTime_m2632700238_AdjustorThunk
A6d:__ZN5physx2Sc7BodySim6wakeUpEv
Rhl:_List_1_Reverse_m3551828919_gshared
eul:_Array_qsort_TisSpriteData_t3048397587_m2161552423_gshared
Xtg:_UIBehaviour_IsDestroyed_m3033055982
$Ih:__ZN21InterfaceFuncInvoker1Ii6Guid_tE6InvokeEjP11Il2CppClassP12Il2CppObjectS0_
$Ee:__ZN5physx6shdfnd8PoolBaseINS_2Gu30LargePersistentContactManifoldENS0_19ReflectionAllocatorIS3_EEE17releaseEmptySlabsEv
X6d:__ZN5physx2Sc21ConstraintInteraction7destroyEv
FXm:_Enumerator_Reset_m39541243
AUc:__Z33Register_UnityEngine_Random_Rangev
kcm:_Collection_1_System_Collections_IList_get_Item_m2924127876_gshared
UJi:_InputField_get_readOnly_m3111985574
yTe:__ZN5physx13PxsSolverCoreD2Ev
wJa:__ZN14RenderSettings27UpdateIndirectSpecularColorEv
XZh:_TypeDelegator_IsByRefImpl_m613197127
Sui:_Logger_get_logHandler_m1335645353
X6a:__ZN14PlayerSettings8TransferI18StreamedBinaryReadILb0EEEEvRT_
AKk:_Transform_1__ctor_m2467867069_gshared
nkn:__ZN6il2cpp6icalls8mscorlib6System8MonoType16GetMethodsByNameEP20Il2CppReflectionTypeP12Il2CppStringibS5_
f$n:_GameOverMenu_SendScore_m2393156162
Pko:__ZL73ObjRef_t2141158884_CustomAttributesCacheGenerator_U3CU3Ef__switchU24map26P21CustomAttributesCache
UUo:__ZL102PointerEventData_t3807901092_CustomAttributesCacheGenerator_PointerEventData_set_pointerId_m1888344330P21CustomAttributesCache
kLo:__ZL88AudioClip_t3680889665_CustomAttributesCacheGenerator_AudioClip_get_ambisonic_m3815052287P21CustomAttributesCache
FGe:__ZNK5physx7NpScene16getNbConstraintsEv
_Kc:__ZN8Renderer20SetShadowCastingModeE17ShadowCastingMode
pep:_Cookie_CollidesWith_m3724591895
oNi:_U3CDelayedSetDirtyU3Ec__Iterator0__ctor_m3936335621
Ecp:_VertexShakeA__ctor_m1957129449
U1o:__ZL75TMP_InputField_t1099764886_CustomAttributesCacheGenerator_m_HideMobileInputP21CustomAttributesCache
Cse:__ZN5physx7NpCloth14setWakeCounterEf
cYa:__ZN4PPtrI10GameObjectE8TransferI14SafeBinaryReadEEvRT_
ogp:_AudioClipPlayable_Equals_m3705880618_AdjustorThunk
UFo:__ZL106PlayableAsset_t3219022681_CustomAttributesCacheGenerator_PlayableAsset_Internal_CreatePlayable_m2550417712P21CustomAttributesCache
_lk:_Monitor_Monitor_wait_m3706677354
_hg:_RijndaelTransform__cctor_m2439033240
bOb:__ZNSt3__27__sort3IRNS_4lessIN22BuiltinResourceManager8ResourceEEEPS3_EEjT0_S7_S7_T_
St:__ZN13dynamic_arrayIPN11UnityEngine9Animation23CachedComponentBindingsELj0EE18resize_initializedEjRKS3_12ResizePolicy
bco:__ZL175U3CGetEnumeratorU3Ec__Iterator0_t1202911786_CustomAttributesCacheGenerator_U3CGetEnumeratorU3Ec__Iterator0_System_Collections_Generic_IEnumeratorU3CTU3E_get_Current_m322251035P21CustomAttributesCache
UQm:__ZL24UnresolvedVirtualCall_14P12Il2CppObject25RSAParameters_t1728406613PK10MethodInfo
Dyf:_ps_hints_t2mask
fej:_LayoutGroup_SetProperty_TisVector2_t2156229523_m2721164497_gshared
p3h:_Array_InternalArray__ICollection_Remove_TisMonoResource_t4103430009_m238733686_gshared
z9o:__ZL109ShaderPropAnimator_t3617420994_CustomAttributesCacheGenerator_ShaderPropAnimator_AnimateProperties_m796027546P21CustomAttributesCache
aVi:_Slider_Set_m1476104429
m_h:__ZN28GenericInterfaceFuncInvoker1IP10Assembly_tP28ResolveEventArgs_t1779456501E6InvokeEPK10MethodInfoP12Il2CppObjectS3_
tCg:_Image_set_fillClockwise_m2210525152
r4a:__ZN10BlendShape8TransferI19StreamedBinaryWriteILb0EEEEvRT_
sto:__ZL72PKCS12_t4101533061_CustomAttributesCacheGenerator_U3CU3Ef__switchU24mapCP21CustomAttributesCache
ejf:__ZN14PhysicsManagerC2E10MemLabelId18ObjectCreationMode
n9e:__ZNK5physx2Gu11HeightField17getReferenceCountEv
yej:_Array_InternalArray__get_Item_TisKeyValuePair_2_t625878672_m751890403_gshared
oU:__Z32TransferEnumWithNameForceIntSizeI14SafeBinaryReadN10SampleClip8LoadTypeEEvRT_RT0_PKc17TransferMetaFlags
$yi:_PlayerConnection_DisconnectedCallback_m1697017309
M5a:__Z19GetTimeSinceStartupv
TCg:_Image_AddQuad_m2161647989
yNa:__ZN7Texture23VirtualRedirectTransferER17RemapPPtrTransfer
gpg:_BaseInputModule_DeactivateModule_m856719157
wLn:__ZN6il2cpp2os10ThreadImpl11SetPriorityENS0_14ThreadPriorityE
Pal:_Enumerator_System_Collections_IEnumerator_Reset_m2953002685_gshared
hSg:__Z50RuntimeInvoker_Int64_t3736567304_Int32_t2950945753PFvvEPK10MethodInfoPvPS4_
Zxf:_TT_Load_Composite_Glyph
S4a:__Z33MultiplyMatrixArrayWithBase4x4REFPK10Matrix4x4fS1_S1_PS_j
JLf:__ZN11UnityEngine15PlatformWrapper18GetWin8ScalingModeEv
Nnb:__ZN9GfxDevice16DeleteTimerQueryEP13GfxTimerQuery
D9l:_List_1_Insert_m1695211546_gshared
fu:__ZL51__ManagedRegistrationHelperFunction_ScaleConstraintPv
v5g:__Z49RuntimeInvoker_Void_t1185182177_Color_t2555686324PFvvEPK10MethodInfoPvPS4_
hvl:_Array_Resize_TisTMP_WordInfo_t3331066303_m2364034418_gshared
vOa:__ZN9ShaderLab11shaderprops9GetTexEnvEPK19ShaderPropertySheetS3_NS_16FastPropertyNameE16TextureDimensionb
V3l:_List_1_Sort_m3232912161_gshared
FQo:__ZL67ContactFilter2D_t3805203441_CustomAttributesCacheGenerator_maxDepthP21CustomAttributesCache
T$o:__ZL85RestClient_t2766934261_CustomAttributesCacheGenerator_RestClient_Promisify_m430309437P21CustomAttributesCache
gJm:_GUILayoutGroup_CalcHeight_m1669391299
A3b:__ZN29RenderNodeQueuePrepareContextC2Ev
vvn:_il2cpp_gc_disable
bqh:_Promise_1_Reject_m617672045_gshared
Llc:__ZN9ShaderLab20SerializedSubProgram16TextureParameter8TransferI24GenerateTypeTreeTransferEEvRT_
yta:__ZN9Scripting5Unity11Collections8LowLevel6Unsafe29NativeSetThreadIndexAttribute12CleanupProxyEv
Xfg:_DSASignatureDeformatter_SetKey_m2999549245
E3f:_TMP_SubMeshUI_get_mainTexture_m2995021644
mUn:__ZN6il2cpp2os11MutexHandle4WaitEb
Jlb:__ZN9GfxDevice19SaveStereoConstantsEv
lUn:__ZN6il2cpp2os11MutexHandle4WaitEj
ctc:__ZL34GetComponentsImplementationRecurseILb1ELi1ELi1EEbR10GameObjectbRK17CompareParametersRK39GetComponentsImplementation_ReturnValue
sTg:__Z114RuntimeInvoker_Boolean_t97287965_RuntimeObject_RuntimeObject_Int32_t2950945753_Int32_t2950945753_Int32_t2950945753PFvvEPK10MethodInfoPvPS4_
lNh:_AssemblyBuilder_GetTypes_m3415680380
Qja:__ZN6prcoreL17RemapGenericFloatI15TexFormatRGHalf18TexFormatARGBFloatEEvPKNS_9InnerInfoE
FNm:_AnalyticsEventParam_get_groupID_m569309506
sfk:_StackFrame_GetMethod_m1395840764
zMa:__ZNK13RenderTexture13GetDataHeightEv
ZLb:__Z18SimulateMouseInputi
w$b:__ZN13RenderManager23AddRemoveCamerasDelayedEv
cM:__ZN23PreloadManagerOperation11GetPriorityEv
GMi:_LayoutElement_OnEnable_m1760066426
Bdp:_U3CWarpTextU3Ec__Iterator0_Reset_m3555627670
AIf:__ZN11UnityEngine9Analytics15AnalyticsConfigC2Ev
UBj:_OverflowException__ctor_m4029085969
A1i:_BitConverter__cctor_m3841343255
W3j:_Decimal_Compare_m3062820418
M_k:_IntervalCollection_GetMetaCollection_m4029522214
pef:__ZNK5Unity5Joint16GetCurrentForcesER8Vector3fS2_
VNb:__ZNSt3__27__sort4IRN10vector_mapIiN17InstancingBatcher12PropertyTypeENS_4lessIiEE13stl_allocatorINS_4pairIiS3_EEL18MemLabelIdentifier1ELi16EEE13value_compareEPS8_EEjT0_SF_SF_SF_T_
m0m:_TextGenerator_get_characterCount_m864136654
ZSm:__ZL25UnresolvedVirtualCall_127P12Il2CppObjectS0_S0_S0_iPK10MethodInfo
Eni:_AsyncOperation_t1445031843_marshal_pinvoke_cleanup
jok:_TimeSpan__ctor_m2047388489_AdjustorThunk
occ:__ZN13RenderTexture8SetWidthEi
PAc:__ZNK28RectTransformPropertyBinding12SetPPtrValueERKN11UnityEngine9Animation10BoundCurveEi
qOb:__ZN18FrameTimingManager18GetVSyncsPerSecondEv
Xjd:__ZN11ColorModuleD0Ev
w8m:_ProgressHandler_t926933139_marshal_pinvoke_back
n1a:__ZN10MeshFilterD0Ev
zda:__ZN22BuiltinResourceManager16StaticInitializeEPv
Qvh:_InternalEnumerator_1__ctor_m1341209356_AdjustorThunk
gim:_Collection_1_System_Collections_ICollection_CopyTo_m1516601228_gshared
jea:__ZN23DefaultMeshVertexFormatC2E18VertexChannelsInfo
O9o:__ZL66U3CStartU3Ec__Iterator0_t3341539328_CustomAttributesCacheGeneratorP21CustomAttributesCache
iIl:_KeyValuePair_2_set_Key_m975493760_AdjustorThunk
Akm:_Collection_1_CopyTo_m4278237485_gshared
UVj:_Int16_System_IConvertible_ToDouble_m1661805412
oKg:_MethodCall_get_Uri_m1720935531
Coe:__ZNK5physx9NpFactory11getNbShapesEv
lIl:_KeyValuePair_2_set_Value_m596466564_AdjustorThunk
mEh:_InternalEnumerator_1_MoveNext_m3404184455_gshared
LQm:__ZL23UnresolvedVirtualCall_5P12Il2CppObjectsPK10MethodInfo
$H:__ZN4PPtrI6AvatarE8TransferI19StreamedBinaryWriteILb0EEEEvRT_
Mhl:_List_1_Insert_m4050947056_gshared
Xaj:_Array_Sort_TisVector3_t3722313464_m1030213405_gshared
u3c:__ZN8JSONRead21TransferSTLStyleArrayI13dynamic_arrayI5RectTIiELj0EEEEvRT_17TransferMetaFlags
Q5:__ZN9ShaderLab16FastPropertyName4InitEPKc
Kzh:_InternalEnumerator_1__ctor_m39232262_AdjustorThunk
d4g:__Z48RuntimeInvoker_OperatingSystemFamily_t1868066375PFvvEPK10MethodInfoPvPS4_
I8k:_Enumerator_System_Collections_IEnumerator_Reset_m2011433533_AdjustorThunk
DNa:__ZN6ObjectC2E10MemLabelId18ObjectCreationMode
ro:FUNCTION_TABLE_iiiii
fMl:_Collection_1_System_Collections_IEnumerable_GetEnumerator_m3596816767_gshared
uAh:_InternalEnumerator_1_get_Current_m3911557813_AdjustorThunk
tLf:__ZN11UnityEngine15PlatformWrapper19GetPhysicalMemoryMBEv
Fz:__ZN17AnimationPlayable17GetAnimationClipsER13dynamic_arrayIP13AnimationClipLj0EE
N3i:_Char_System_IConvertible_ToByte_m2347554595_AdjustorThunk
xpn:__ZNK15dense_hashtableINSt3__24pairIK10KeyWrapperINS1_IPK12PropertyInfoP11Il2CppClassEEEjEES9_17ReflectionMapHashIS8_EN14dense_hash_mapIS9_jSD_NS9_14EqualsComparerINS0_8equal_toIS8_EEEENS0_9allocatorISB_EEE9SelectKeyESI_SK_E12test_deletedERK30dense_hashtable_const_iteratorISB_S9_SD_SM_SI_SK_E
VCo:__ZL59TooltipAttribute_t3957072629_CustomAttributesCacheGeneratorP21CustomAttributesCache
w_a:__ZN10VertexData8TransferI17RemapPPtrTransferEEvRT_
Yod:__Z20UpdateWholeSheet2TplIL27ParticleSystemCurveEvalMode0ELS0_2EEvfRK11MinMaxCurveS3_RK23ParticleSystemParticlesPf
Kbn:__ZN15dense_hashtableINSt3__24pairIK10KeyWrapperIPK11Il2CppClassEPKcEES6_N6il2cpp5utils11PointerHashIS3_EEN14dense_hash_mapIS6_S9_SE_NS6_14EqualsComparerINS0_8equal_toIS5_EEEENS0_9allocatorISA_EEE9SelectKeyESJ_SL_E13set_empty_keyERKSA_
Nsd:__ZN9Scripting11UnityEngine14ContactPoint2D9InitProxyEv
SNj:_String_CreateString_m860434552
rga:__Z18GetDirectorManagerv
lnb:__ZN9GfxDevice14InsertCPUFenceEv
qio:__ZL107CriticalFinalizerObject_t701527852_CustomAttributesCacheGenerator_CriticalFinalizerObject__ctor_m3245424448P21CustomAttributesCache
_Gh:_InternalEnumerator_1_System_Collections_IEnumerator_get_Current_m2649471526_AdjustorThunk
wXj:_Int32_Equals_m2976157357_AdjustorThunk
rxc:__Z38Transform_CUSTOM_INTERNAL_get_rotationP12Il2CppObjectP11Quaternionf
FJo:__ZL99SceneManager_t2787271929_CustomAttributesCacheGenerator_SceneManager_LoadScene_m2298600132____mode1P21CustomAttributesCache
Hxn:__ZNK15dense_hashtableINSt3__24pairIK10KeyWrapperIP11Il2CppClassES4_EES5_N6il2cpp8metadata16SZArrayClassHashEN14dense_hash_mapIS5_S4_SA_NS5_14EqualsComparerINS9_19SZArrayClassCompareEEENS0_9allocatorIS7_EEE9SelectKeyESE_SG_E3endEv
n4g:__Z73RuntimeInvoker_Single_t1397266774_Vector2_t2156229523_Vector2_t2156229523PFvvEPK10MethodInfoPvPS4_
VLg:_SoapAttribute_get_XmlNamespace_m859394681
tTk:_Dictionary_2_System_Collections_Generic_ICollectionU3CSystem_Collections_Generic_KeyValuePairU3CTKeyU2CTValueU3EU3E_Contains_m2338231611_gshared
won:__ZNK15dense_hashtableINSt3__24pairIK10KeyWrapperINS1_IPK10MethodInfoP11Il2CppClassEEEjEES9_17ReflectionMapHashIS8_EN14dense_hash_mapIS9_jSD_NS9_14EqualsComparerINS0_8equal_toIS8_EEEENS0_9allocatorISB_EEE9SelectKeyESI_SK_E5beginEv
bsm:_X509ExtensionCollection_System_Collections_IEnumerable_GetEnumerator_m1475785462
qSb:__ZN7ApiGLES19UploadBufferSubDataEjN2gl12BufferTargetEllPKv
q5m:_SkeletonBone_t4134054672_marshal_pinvoke_cleanup
IQe:__ZN5physx2Sc5Scene17createClothSolverEv
Kia:__ZNSt3__216__rotate_forwardINS_11__wrap_iterIPN4core12basic_stringIcNS2_20StringStorageDefaultIcEEEEEEEET_S9_S9_S9_
B3l:__ZN21InterfaceFuncInvoker0I19Color32_t2600501292E6InvokeEjP11Il2CppClassP12Il2CppObject
hea:__ZdaPv
Iwe:__ZNK5physx15PxsParticleData16getMaxParticlesVEv
_Yi:_SmallXmlParserException__ctor_m1976648878
$Ti:_Selectable_get_isPointerDown_m3518318267
bHj:_SymmetricAlgorithm_set_KeySize_m3805756466
wrc:__Z40SpriteRenderer_CUSTOM_INTERNAL_get_colorP12Il2CppObjectP10ColorRGBAf
O5o:__ZL70ValueProperty_t1868393739_CustomAttributesCacheGenerator_m_CustomValueP21CustomAttributesCache
sEf:__Z44Register_UnityEngine_Canvas_get_pixelPerfectv
E6n:_Benchmark01_Start_m4262200517
fWe:__ZN15MBP_PairManager17removeMarkedPairsEPK10MBP_ObjectPN5physx16PxsBroadPhaseMBPERK8BitArrayS8_
h3i:_Byte_System_IConvertible_ToUInt32_m1049546902_AdjustorThunk
nCn:__ZN6il2cpp6icalls8mscorlib6System10Reflection10MonoMethod19GetGenericArgumentsEP22Il2CppReflectionMethod
F1g:__Z53RuntimeInvoker_Double_t594665363_Interval_t1802865632PFvvEPK10MethodInfoPvPS4_
lOb:__Z21InitializeBatchedJobsv
g1m:_CanvasGroup_get_blocksRaycasts_m1805542303
LFj:_SHA1Internal_ProcessBlock_m1991889327
sub:__Z19TransferField_ArrayI14SafeBinaryRead27Converter_SimpleNativeClassI8GUIStyleEEvRK23StaticTransferFieldInfoR31RuntimeSerializationCommandInfoRT0_
nIb:__ZN9TextAsset23VirtualRedirectTransferER19StreamedBinaryWriteILb0EE
tCn:__ZN15dense_hashtableINSt3__24pairIK10KeyWrapperIP14Il2CppIUnknownEjEES5_N6il2cpp5utils11PointerHashIS3_EEN14dense_hash_mapIS5_jSB_NS5_14EqualsComparerINS0_8equal_toIS4_EEEENS0_9allocatorIS7_EEE9SelectKeyESG_SI_ED2Ev
caj:_Array_Sort_TisRuntimeObject_TisRuntimeObject_m1685639929_gshared
Ehd:__Z25UpdateOrbitalAndRadialTplIL27ParticleSystemCurveEvalMode0ELS0_1ELS0_3EEvRK11MinMaxCurveS3_S3_S3_S3_S3_S3_R23ParticleSystemParticlesjjRKN4math8float3x3ERKNS6_7affineXERKNS6_7_float4E
Onk:_TimerCallback_Invoke_m1938221087
RIa:__ZN14RenderSettings5ResetEv
Ioc:__ZN6Sprite9BindAtlasERK4PPtrI11SpriteAtlasE
TZc:__ZN5Unity9rapidjson12GenericValueINS0_4UTF8IcEE13JSONAllocatorE10FindMemberIS4_EENS0_21GenericMemberIteratorILb0ES3_S4_EERKNS1_IS3_T_EE
I6n:_U3CStartU3Ec__Iterator0_System_Collections_IEnumerator_get_Current_m3995609180
doe:__ZN5physx9NpPhysics33unregisterDeletionListenerObjectsERNS_18PxDeletionListenerEPKPKNS_6PxBaseEj
qAh:_InternalEnumerator_1_System_Collections_IEnumerator_get_Current_m3892960115_AdjustorThunk
coc:__ZN9ShaderLabL18AddPropertyToArrayERK19ShaderPropertySheetR13dynamic_arrayIiLj0EERKNS_8FloatValE
Aue:__ZNK5physx2Sc9ClothCore22getAngularInertiaScaleEv
kKm:_SymmetricTransform_Finalize_m4129642865
Rbj:_Dictionary_2_Do_CopyTo_TisBoolean_t97287965_TisRuntimeObject_m879421870_gshared
Pdl:_List_1_IndexOf_m654529719_gshared
G5j:_Convert_ToDateTime_m1800003024
XWh:_MonoEventInfo_t346866618_marshal_pinvoke_cleanup
Bgg:_HMAC_HashCore_m3684104066
IOf:__Z13RegisterClassI20UnityConnectSettingsEvPKc
T_l:__ZN28GenericInterfaceFuncInvoker2Ii20UIVertex_t4057497605S0_E6InvokeEPK10MethodInfoP12Il2CppObjectS0_S0_
cZc:__ZN5Unity9rapidjson13GenericReaderINS0_4UTF8IcEES3_13JSONAllocatorE11ParseNumberILj1ENS0_25GenericInsituStringStreamIS3_EENS0_15GenericDocumentIS3_S4_S4_EEEEvRT0_RT1_
Mfe:__ZN5physx20NpRigidActorTemplateINS_18PxArticulationLinkEE12setActorFlagENS_11PxActorFlag4EnumEb
PKf:__ZN22BaseUnityConnectClient20StartEventDispatcherEv
T1a:__ZN14SpriteRenderer14OnChangeSpriteEv
amm:_Collection_1_RemoveItem_m2911050674_gshared
bQg:__Z79RuntimeInvoker_UInt16_t2177724958_RuntimeObject_Int32_t2950945753_RuntimeObjectPFvvEPK10MethodInfoPvPS4_
qLn:__ZN6il2cpp2os10ThreadImplD2Ev
JCo:__ZL56ResetInputAxis_t866062302_CustomAttributesCacheGeneratorP21CustomAttributesCache
Lqd:__ZN14ParticleSystem18MarkAllSubEmittersEPS_
g_c:__ZN8Gradient8TransferI9JSONWriteEEvRT_
ZGg:_ContextCallbackObject__ctor_m3499682402
Hah:__Z90RuntimeInvoker_Boolean_t97287965_Vector3_t3722313464_Vector3_t3722313464_Int32_t2950945753PFvvEPK10MethodInfoPvPS4_
UPo:__ZL81TextEditor_t2759855366_CustomAttributesCacheGenerator_TextEditor__ctor_m242049450P21CustomAttributesCache
$3j:_Convert_ToBoolean_m2833621053
Cwa:__ZNK12TLSAllocatorI14StackAllocatorE22GetAllocatedMemorySizeEv
edm:__ZN23InterfaceActionInvoker2Ii26ResolveHandler_t4124874245E6InvokeEjP11Il2CppClassP12Il2CppObjectiS0_
tuo:__ZL62WebHeaderCollection_t1942268960_CustomAttributesCacheGeneratorP21CustomAttributesCache
mNc:__Z32GetSceneHierarchyPathDescriptivePK6Object
VDl:_EqualityComparer_1_System_Collections_IEqualityComparer_GetHashCode_m2138064395_gshared
rT:__ZNK7WeakPtrI20SoundChannelInstanceE10SharedData9GetRawPtrEv
$fb:__ZN12HandlerChain4NameEv
Xyc:__ZN17AnimationCurveTplIfE15SetPostInfinityE8WrapMode
Psl:_Array_InternalArray__set_Item_TisMonoWin32Resource_t1904229483_m4042549565_gshared
fWj:_Int16_System_IConvertible_ToType_m3672347013_AdjustorThunk
H_j:_EndOfStreamException__ctor_m1590165188
Gn:FUNCTION_TABLE_fiiiiiifiiiiiif
gXj:_Int32_System_IConvertible_ToType_m3009233912_AdjustorThunk
IWj:_Int16_ToString_m2013897809
iqk:_Type_GetType_m1766533001
u3e:__ZN5physx37setupFinalizeSolverConstraintsCoulombERNS_13PxcNpWorkUnitERKNS_2Gu13ContactBufferERKNS_27PxcCorrelationBufferCoulombERKNS_11PxTransformESB_bPhRKNS_13PxcSolverBodyESF_RKNS_17PxcSolverBodyDataESI_ffjffff
ygd:__Z25UpdateOrbitalAndRadialTplIL27ParticleSystemCurveEvalMode2ELS0_1ELS0_3EEvRK11MinMaxCurveS3_S3_S3_S3_S3_S3_R23ParticleSystemParticlesjjRKN4math8float3x3ERKNS6_7affineXERKNS6_7_float4E
L0g:__Z123RuntimeInvoker_Boolean_t97287965_RuntimeObject_StringU26_t181565287_StringU5BU5DU26_t2154486980_StringU5BU5DU26_t2154486980PFvvEPK10MethodInfoPvPS4_
_Ff:__Z44Register_UnityEngine_CanvasRenderer_get_cullv
Q8m:__ZN15dense_hashtableINSt3__24pairIK10KeyWrapperIPK22Il2CppGenericParameterEP11Il2CppClassEES6_N6il2cpp5utils11PointerHashIS4_EEN14dense_hash_mapIS6_S9_SE_NS6_14EqualsComparerINS0_8equal_toIS5_EEEENS0_9allocatorISA_EEE9SelectKeyESJ_SL_ED2Ev
fgj:_ScriptableObject_CreateInstance_TisRuntimeObject_m1552711675_gshared
dKj:_SecurityException_get_PermissionType_m2237538728
Jgc:__Z29StdTemplateConversionFunctionIbbEbPvR14SafeBinaryRead
Kqn:__ZN6il2cpp2vm10Reflection7IsFieldEP12Il2CppObject
XKf:__ZN11UnityEngine7Connect17XRDeviceInfoEvent12XRDeviceInfoD2Ev
vsb:__Z44InitializeTransferFunctionScriptingTraitsForI17RemapPPtrTransferEvR31TransferFunctionScriptingTraits
IMi:_LayoutElement_OnDisable_m3869995817
ABc:__ZNSt3__26vectorI16MessageForwarder13stl_allocatorIS1_L18MemLabelIdentifier7ELi8EEE6resizeEj
Lhi:_X509Chain_SelectBestFromCollection_m1068759221
tKm:_SymmetricTransform_TransformBlock_m851059707
fcd:__Z19UpdateProceduralTplIL27ParticleSystemCurveEvalMode4EEvRK20DualMinMaxPolyCurvesR23ParticleSystemParticlesPfRKN4math7_float4E
pMl:_Collection_1_System_Collections_IList_get_IsReadOnly_m2978442176_gshared
x1k:_Regex_System_Runtime_Serialization_ISerializable_GetObjectData_m4061390789
abm:_Enumerator_System_Collections_IEnumerator_Reset_m2261065994_AdjustorThunk
SSi:_ScrollRect_get_verticalNormalizedPosition_m3693218937
gVe:__ZN5physx31ComputeCreatedDeletedPairsListsEPKjS1_jRPNS_17PxcBroadPhasePairERjS5_S4_S5_S5_RNS_14SapPairManagerE
qab:__ZN18LoadSceneOperation21MustCompleteNextFrameEv
cVi:_Slider_UpdateDrag_m1102107039
$Wk:_X509ChainPolicy_set_RevocationMode_m3002768104
bYh:_MonoMethodInfo_get_method_info_m88651774
n5n:_JSONNull_set_Value_m336791264
KV:__ZNK12AudioManager16GetAudioListenerEv
Wyp:_pthread_mutex_lock__wrapper
SWj:_Int32_System_IConvertible_ToDateTime_m1824716955
mxl:_Dictionary_2_System_Collections_Generic_ICollectionU3CSystem_Collections_Generic_KeyValuePairU3CTKeyU2CTValueU3EU3E_CopyTo_m331407443_gshared
JLn:__ZN6il2cpp2osL23CleanupThreadIfCanceledEPv
fQl:_ReadOnlyCollection_1_System_Collections_IList_get_IsFixedSize_m26770954_gshared
odg:_RuntimeTypeHandle__ctor_m3315980708_AdjustorThunk
ino:__ZL69IIdentityPermissionFactory_t3268650966_CustomAttributesCacheGeneratorP21CustomAttributesCache
pWk:_Dictionary_2_Resize_m536405636_gshared
Tbc:__ZNSt3__26vectorI11CameraStackNS_9allocatorIS1_EEE8__appendEj
jBl:_DefaultComparer_Equals_m2585095694_gshared
h_e:__ZN5physx2Gu16pcmContactBoxBoxERKNS0_13GeometryUnionES3_RKNS_11PxTransformES6_RKfRNS0_5CacheERNS0_13ContactBufferE
Rui:_Logger_set_filterLogType_m3622751173
_fp:_Request_ValidateServerCertificate_m1146481384
W9f:__ZN25GenericVirtActionInvoker1I28StreamingContext_t3711869237E6InvokeEPK10MethodInfoP12Il2CppObjectS0_
pAm:_UnityEvent_1_GetDelegate_m25714567_gshared
oy:__ZN7mecanim9animation12GetHumanPoseERKNS0_18ClipMuscleConstantEPKNS0_10ValueDeltaERNS_5human9HumanPoseE
ZIf:__ZN11UnityEngine9Analytics15UserCustomEvent12CustomParams6InsertEPKcRNS1_11CustomValueE
iA:__ZN22AnimationMixerPlayable17ProcessRootMotionEP35AnimationPlayableEvaluationConstantP32AnimationPlayableEvaluationInputP33AnimationPlayableEvaluationOutput
Kyl:_Dictionary_2__ctor_m518943619_gshared
WBb:__Z29Transfer_Blittable_ArrayFieldI19StreamedBinaryWriteILb0EEjEvRT_R9ArrayInfoRK23StaticTransferFieldInfo
Hba:__Z13GetFileSystemv
SEc:__ZZL23RegisterLightPropertiesR22GenericPropertyBindingEN29Wrapper_LightColorTemperature13SetFloatValueEPvf
Rhp:_AudioSourceExtension_ExtensionUpdate_m2790353999
r9n:__ZL54IEnumerable_t1941168011_CustomAttributesCacheGeneratorP21CustomAttributesCache
dea:__ZN13RuntimeStaticI15GUIEventManagerLb0EE16StaticInitializeEPv
cyi:_MonoBehaviour_IsObjectMonoBehaviour_m2134950949
Zmg:_TextMeshProUGUI_Rebuild_m2217366760
IGb:__ZL12InvokeMethodI18StreamedBinaryReadILb0EEEvRK29SerializationCommandArgumentsR31RuntimeSerializationCommandInfo
lPd:__ZN15RaycastCallback14processTouchesEPKN5physx12PxRaycastHitEj
eoa:__ZL45__ManagedRegistrationHelperFunction_Texture2DPv
Zuo:__ZL53RegexOptions_t92845595_CustomAttributesCacheGeneratorP21CustomAttributesCache
qKh:_Comparer_1__cctor_m2209434164_gshared
b4m:_Version_CompareTo_m3146217210
Jvd:__ZN24RigidbodyMovementState2D21ResetAngularMoveStateEv
X1a:__ZThn32_N14SpriteRenderer15AddAsRenderNodeER15RenderNodeQueueRK20DeprecatedSourceData
L6c:__Z32TransferEnumWithNameForceIntSizeI14SafeBinaryReadN15CollisionModule4ModeEEvRT_RT0_PKc17TransferMetaFlags
jpl:_Array_InternalArray__ICollection_CopyTo_TisKeyValuePair_2_t71524366_m1056941380_gshared
zaf:__ZN5physx2Gu5RTree15exportExtraDataERNS_22PxSerializationContextE
Ipk:_Type_get_IsClass_m589177581
Upk:_Type_get_IsSystemType_m624798880
kNj:_String_ReplaceUnchecked_m1381393810
HEb:__Z29Transfer_Blittable_ArrayFieldI18StreamedBinaryReadILb1EE5RectTIfEEvRT_R9ArrayInfoRK23StaticTransferFieldInfo
Irb:__ZN19ShaderPropertySheet9SetMatrixEN9ShaderLab16FastPropertyNameERK10Matrix4x4fNS_8SetFlagsE
J6o:__ZL108U3CSpawnU3Ec__Iterator0_t2937824069_CustomAttributesCacheGenerator_U3CSpawnU3Ec__Iterator0__ctor_m3257505222P21CustomAttributesCache
Xjh:__Z91RuntimeInvoker_Void_t1185182177_TextAlignmentOptionsU5BU5DU26_t1394617819_Int32_t2950945753PFvvEPK10MethodInfoPvPS4_
vUa:__Z29GetTextureSizeAllowedMultiple13TextureFormat
RPe:__ZNK5physx2Sq10AABBPruner7overlapERKNS0_9ShapeDataERNS0_14PrunerCallbackE
Sdk:_Decimal_Subtract_m835601464
OZb:__ZZ23InitPlayerLoopCallbacksvEN52InitializationAsyncUploadTimeSlicedUpdateRegistrator7ForwardEv
YBc:__Z46CleanupSpriteRendererAnimationBindingInterfacev
Qai:_Array_InternalArray__ICollection_Add_TisBoolean_t97287965_m1361760099_gshared
BBi:_Quaternion_Internal_ToEulerRad_m1503250752
DXk:_X509ExtensionCollection_get_IsSynchronized_m2607599544
iok:_TimeSpan__ctor_m3689759052_AdjustorThunk
Mhd:__Z25UpdateOrbitalAndRadialTplIL27ParticleSystemCurveEvalMode0ELS0_2ELS0_4EEvRK11MinMaxCurveS3_S3_S3_S3_S3_S3_R23ParticleSystemParticlesjjRKN4math8float3x3ERKNS6_7affineXERKNS6_7_float4E
Gun:_il2cpp_array_element_size
aFe:__ZN5physx6shdfnd5ArrayIPvNS0_19ReflectionAllocatorINS_2Gu30LargePersistentContactManifoldEEEE4copyINS0_15InlineAllocatorILj256ES6_EEEEvRKNS1_IS2_T_EE
mOa:__ZN19ShaderPropertySheet22CopyVectorPropertyFromERKS_i
Cig:_Compute_DT_EventArgs__ctor_m1650926598
i4l:_List_1_System_Collections_IEnumerable_GetEnumerator_m1824431956_gshared
wxa:__ZNSt3__26__treeINS_12__value_typeIN4core12basic_stringIcNS2_20StringStorageDefaultIcEEEEjEENS_19__map_value_compareIS6_S7_NS_4lessIS6_EELb1EEE13stl_allocatorIS7_L18MemLabelIdentifier7ELi16EEE25__emplace_unique_key_argsIS6_JNS_4pairIS6_jEEEEENSH_INS_15__tree_iteratorIS7_PNS_11__tree_nodeIS7_PvEEiEEbEERKT_DpOT0_
eEi:_RectTransform_INTERNAL_set_sizeDelta_m188783163
Mg:_glCheckFramebufferStatus
sTn:__ZN6il2cpp2os11EventHandle4WaitEv
crh:_U3CGetEnumeratorU3Ec__Iterator0_System_Collections_Generic_IEnumeratorU3CTU3E_get_Current_m9057020_gshared
N7:__Z43scripting_class_get_method_from_name_filter17ScriptingClassPtrPKciN24ScriptingMethodFiltering18MethodSearchFilterEPK16ScriptingTypePtr
oGf:__Z13RegisterClassIN2UI6CanvasEEvPKc
r9:__ZN4core8hash_setINS_4pairIKi17ThreadedAwakeDataLb0EEENS_9hash_pairINS_4hashIiEES2_S3_EENS_10equal_pairINSt3__28equal_toIiEES2_S3_EEE4growEv
x1:__ZN19CloudServiceHandler20StartEventDispatcherERKN11UnityEngine15CloudWebService18CloudServiceConfigERNS1_23WebRequestRestHeaderMapE
gBg:_GraphicRaycaster__ctor_m646559428
U5e:__ZN5physx2Cm12DelegateTaskINS_2Sc5SceneEXadL_ZNS3_19updateCCDSinglePassEPNS_10PxBaseTaskEEEE11runInternalEv
bmj:_CipherSuite_get_CipherAlgorithmType_m137858741
V1d:__ZN5physx6string9sprintf_sEPcjPKcz
avd:__ZNK15b2DistanceJoint17GetReactionTorqueEf
rdf:__ZThn8_N5physx19TriangleMeshBuilderD1Ev
G7i:_BitArrayEnumerator_get_Current_m4220391712
Zhh:__Z54RuntimeInvoker_Void_t1185182177_SpriteData_t3048397587PFvvEPK10MethodInfoPvPS4_
MCj:__Z37il2cpp_codegen_get_executing_assemblyPK10MethodInfo
Aei:_HttpWebRequest_GetServicePoint_m2640244283
AEi:_Transform_get_parent_m835071599
s9:__ZN4core8hash_setINS_4pairIKi17ThreadedAwakeDataLb0EEENS_9hash_pairINS_4hashIiEES2_S3_EENS_10equal_pairINSt3__28equal_toIiEES2_S3_EEE4growEi
GSd:__ZN5physx2Gu16intersectRayAABBERKNS_6PxVec3ES3_S3_S3_RfS4_
_eb:__ZN9Transform23VirtualRedirectTransferER17RemapPPtrTransfer
Qei:_IPAddress_get_ScopeId_m4237202723
sra:__ZN9Scripting11UnityEngine12Experimental10PlayerLoop9PreUpdate12CleanupProxyEv
Ax:__ZN21AnimationClipPlayable7SetTimeEd
f1k:_ExpressionCollection_get_Item_m3510736379
uOj:_ASCIIEncoding_GetByteCount_m1773359527
Wsg:_StandaloneInputModule_get_inputActionsPerSecond_m3946624274
$kk:_UTF8Encoding_InternalGetCharCount_m82458470
_Vm:__ZL25UnresolvedVirtualCall_290P12Il2CppObjectS0_iPK10MethodInfo
w4g:__Z72RuntimeInvoker_Boolean_t97287965_Vector4_t3319028937_Vector4_t3319028937PFvvEPK10MethodInfoPvPS4_
DEc:__ZZL23RegisterLightPropertiesR22GenericPropertyBindingEN22Wrapper_LightIntensity13GetFloatValueEPv
$dh:__Z77RuntimeInvoker_Boolean_t97287965_ContentTypeU26_t1583467619_Int32_t2950945753PFvvEPK10MethodInfoPvPS4_
jpa:__ZN9Scripting11UnityEngine9Rendering20SphericalHarmonicsL29InitProxyEv
zGh:_InternalEnumerator_1_MoveNext_m2734554195_AdjustorThunk
C3e:__ZN5physx30setupFinalizeSolverConstraintsERNS_13PxcNpWorkUnitERKNS_2Gu13ContactBufferERKNS_20PxcCorrelationBufferERKNS_11PxTransformESB_bPhRKNS_13PxcSolverBodyESF_RKNS_17PxcSolverBodyDataESI_ffffff
wCn:__ZN14dense_hash_mapI10KeyWrapperIP14Il2CppIUnknownEjN6il2cpp5utils11PointerHashIS1_EENS3_14EqualsComparerINSt3__28equal_toIS2_EEEENS9_9allocatorINS9_4pairIKS3_jEEEEE15set_deleted_keyERSF_
Xqc:__ZN19SpriteMeshGenerator12path_segment12max_distanceENSt3__26vectorINS_6vertexENS1_9allocatorIS3_EEEEii
_Oi:_MaskableGraphic_RecalculateClipping_m1772937317
Uke:__ZN5physx7NpScene17releaseBatchQueryEPNS_12PxBatchQueryE
own:__ZN6il2cpp2gc9AllocatorIP12Il2CppThreadE10deallocateEPvj
yCe:__ZN5physx20NpRigidActorTemplateINS_13PxRigidStaticEE11attachShapeERNS_7PxShapeE
$qn:__ZN13Il2CppHashMapIPK14Il2CppAssemblyPK22Il2CppMonoAssemblyNameN6il2cpp5utils11PointerHashIS1_EENSt3__28equal_toIS2_EENSA_9allocatorINSA_4pairIK10KeyWrapperIS2_ES5_EEEEEC2EjRKS9_RKSC_
Avc:__ZN9Scripting39GetScriptingArrayStringElementNoRefImplE17ScriptingArrayPtri
V2e:__ZN5physx26solveVBlockDefaultFrictionEPNS_13PxsSolverCoreEfjjPNS_13PxcSolverBodyEPNS_17PxcSolverBodyDataEjjPNS_25PxcArticulationSolverDescEjPNS_23PxcSolverConstraintDescEjS9_jRNS_6shdfnd5ArrayINS_24PxsConstraintBatchHeaderENSA_19ReflectionAllocatorISC_EEEESG_PNS_2Cm13SpatialVectorEPNS_25PxcThresholdStreamElementEjRj
x_i:_DelegatePInvokeWrapper_AppDomainInitializer_t682969308
aHo:__ZL141SupportedRenderingFeatures_t353898663_CustomAttributesCacheGenerator_SupportedRenderingFeatures_IsMixedLightingModeSupportedByRef_m2282093837P21CustomAttributesCache
gje:__ZN5physx15NpActorTemplateINS_18PxArticulationLinkEE17resolveReferencesERNS_24PxDeserializationContextE
Yfd:__Z25UpdateOrbitalAndRadialTplIL27ParticleSystemCurveEvalMode1ELS0_1ELS0_1EEvRK11MinMaxCurveS3_S3_S3_S3_S3_S3_R23ParticleSystemParticlesjjRKN4math8float3x3ERKNS6_7affineXERKNS6_7_float4E
v2o:__ZL137TMP_InputField_t1099764886_CustomAttributesCacheGenerator_TMP_InputField_SetToCustomIfContentTypeIsNot_m372805797____allowedContentTypes0P21CustomAttributesCache
Maa:__ZN8Remapper6RemoveEi
Rzm:_UnityEvent_1__ctor_m3777630589_gshared
Afm:_Collection_1_System_Collections_IList_IndexOf_m3538466904_gshared
vMe:__ZN5physx19NpRigidBodyTemplateINS_18PxArticulationLinkEE9visualizeERNS_2Cm12RenderOutputEPNS_7NpSceneE
bUe:__ZN5physx11writeBack1DERKNS_23PxcSolverConstraintDescERNS_16PxcSolverContextERNS_17PxcSolverBodyDataES6_
_vm:_TMP_XmlTagStack_1_SetDefault_m3926551933_AdjustorThunk
Zhk:_Encoding_GetBytes_m3148649984
wOc:__ZN9Scripting27CreateArgumentNullExceptionEPKc
xof:__ZL36CleanupTextRenderingScriptingClassesv
VRd:__ZThn4_N16RayRTreeCallbackILi0ELb0EED0Ev
lcc:__ZN15ReflectionProbe17UseRendererResultEP13ProbeRenderer
aSc:__Z34Mesh_CUSTOM_SetArrayForChannelImplP12Il2CppObject30InternalScriptingShaderChannel34InternalScriptingVertexChannelTypeiP11Il2CppArrayi
R7:__Z32scripting_class_get_nested_types17ScriptingClassPtrRNSt3__26vectorIS_13stl_allocatorIS_L18MemLabelIdentifier1ELi16EEEE
o1m:_CanvasRenderer_INTERNAL_CALL_EnableRectClipping_m3318097918
gtk:_UInt64_System_IConvertible_ToDecimal_m806594027_AdjustorThunk
Kma:__ZL58__ManagedRegistrationHelperFunction_MaterialEffectPlayablePv
l2o:__ZL68TMP_InputField_t1099764886_CustomAttributesCacheGenerator_m_ReadOnlyP21CustomAttributesCache
WOf:__ZN11UnityEngine7Connect20RemoteConfigSettings18StaticCallOnUpdateEPS1_
wAm:_UnityEvent_1_GetDelegate_m274387680_gshared
aEk:_Enumerator_get_CurrentValue_m3103267885_gshared
Zjl:_List_1__ctor_m3395838871_gshared
fSj:_CultureInfo_get_Parent_m672689885
VIo:__ZL93AnimationCurve_t3046754366_CustomAttributesCacheGenerator_AnimationCurve_Evaluate_m2125563588P21CustomAttributesCache
Fpn:__ZN15dense_hashtableINSt3__24pairIK10KeyWrapperINS1_IPK12PropertyInfoP11Il2CppClassEEEjEES9_17ReflectionMapHashIS8_EN14dense_hash_mapIS9_jSD_NS9_14EqualsComparerINS0_8equal_toIS8_EEEENS0_9allocatorISB_EEE9SelectKeyESI_SK_ED2Ev
nLe:__ZNK5physx2Sc5Scene20getNbParticleSystemsEv
SL:__ZN9Scripting11UnityEngine18AssetBundleRequest9InitProxyEv
wpm:_PKCS12__ctor_m1854440921
Pul:_Array_Resize_TisCustomAttributeNamedArgument_t287865710_m885566878_gshared
Mca:__ZN17TransformInternal19FreeTransformThreadER18TransformHierarchyjj
xu:__ZN9Scripting11UnityEngine12SkeletonBone12CleanupProxyEv
Rzl:_DefaultComparer__ctor_m2556554241_gshared
Nv:__ZN11UnityEngine9Animation28GenericAnimationBindingCache25RegisterIAnimationBindingEPKN5Unity4TypeEiP17IAnimationBinding
K5i:_ArrayList_ToArray_m3439706433
XOe:__ZN5physx2Gu17GetGeomSweepFuncsEv
P8d:__ZN5physx6shdfnd8PoolBaseINS_15PxsArticulationENS0_16AlignedAllocatorILj64ENS0_9AllocatorEEEE17releaseEmptySlabsEv
A_j:_DirectoryInfo__ctor_m481305441
aop:dynCall_viiffiii
EXk:_X509ExtensionCollection_get_SyncRoot_m2667861032
G9m:__ZN6il2cpp2vm5Class15GetElementClassEP11Il2CppClass
Dpc:__ZNK6Sprite15GenerateOutlineEfhbRNSt3__26vectorI13dynamic_arrayI8Vector2fLj0EENS0_9allocatorIS4_EEEEi
P5:__ZN10MemoryPoolC2E10MemLabelIdbPKciii
dwe:__ZN5physx22NpParticleBaseTemplateINS_15PxParticleFluidENS_15NpParticleFluidEE23setParticleReadDataFlagENS_22PxParticleReadDataFlag4EnumEb
aJl:_Collection_1_SetItem_m941095285_gshared
wLl:__ZN21InterfaceFuncInvoker1Ib19Vector3_t3722313464E6InvokeEjP11Il2CppClassP12Il2CppObjectS0_
bIf:__ZN14UnityAnalytics25UnregisterGlobalCallbacksEv
Dac:__Z40ProcessCameraIndexListIsNodeVisibleInOutRK22SceneCullingParametersPK9SceneNodePK4AABBR9IndexList
oJm:_GUIScrollGroup_SetHorizontal_m291416666
WHa:__ZN16GraphicsSettings8TransferI17RemapPPtrTransferEEvRT_
XGf:__ZN2UI6Canvas13UpdateBatchesEb
Fli:_X509BasicConstraintsExtension_Decode_m120598446
sD:__ZNK23AnimationPlayableOutput11DerivesFromE17ScriptingClassPtr
QRm:__ZL24UnresolvedVirtualCall_64P12Il2CppObjectiS0_S0_S0_S0_PK10MethodInfo
TSa:__ZN7Texture19SupportsAsyncUploadI19StreamedBinaryWriteILb0EEEEbRT_
U3g:__Z49RuntimeInvoker_Boolean_t97287965_Rect_t2360479859PFvvEPK10MethodInfoPvPS4_
Isp:_glGetShaderInfoLog__wrapper
Xbk:_DateTime_ToShortTimeString_m1551520344
pHo:__ZL63SpriteBone_t303320096_CustomAttributesCacheGenerator_m_ParentIdP21CustomAttributesCache
l6m:_CustomEventData_t317522481_marshal_pinvoke
Ipe:__ZN5physx2Gu5Debug9visualizeERKNS_13PxBoxGeometryERNS_2Cm12RenderOutputERKNS5_8Matrix34ERKNS_9PxBounds3Eyfj
BHk:_KeyCollection_System_Collections_IEnumerable_GetEnumerator_m462018897_gshared
wdm:_Collection_1_System_Collections_IList_Contains_m3515532313_gshared
QZg:__Z51RuntimeInvoker_UInt32_t2560061978_Int16_t2552820387PFvvEPK10MethodInfoPvPS4_
CPb:__ZNK13GfxDeviceGLES12GetWireframeEv
BKm:_DelegatePInvokeWrapper_Action_t1264377477
U1j:_Queue_get_Count_m2065247734
TWd:__ZN5physx6shdfnd5ArrayIPKvNS0_19ReflectionAllocatorIS3_EEE6resizeEjRKS3_
pSk:_ValueCollection_CopyTo_m3747598240_gshared
_ai:_Array_InternalArray__ICollection_Add_TisKeyValuePair_2_t2245450819_m3591771797_gshared
nMf:__ZN11UnityEngine7Connect13ConfigHandler12GetListenersERKN4core12basic_stringIcNS2_20StringStorageDefaultIcEEEE
Jmb:__ZN9GfxDevice18AllocRenderSurfaceEb
G3i:_Char__cctor_m2787437263
I3e:__ZN5physx31setupFinalizeSolverConstraints4EPNS_21PxcSolverContact4DescERNS_18PxcNpThreadContextEPhffRKNS_6shdfnd3aos5Vec4VES9_S9_S9_
oHe:__ZN5physx7NpScene5flushEb
lHc:__ZN10TagManager32GetSortingLayerUniqueIDFromValueEi
yKf:__ZN11UnityEngine7Connect15DeviceInfoEvent7GFXInfoD2Ev
jug:_AspectRatioFitter_get_rectTransform_m2996235303
F7:__ZL27CleanupCoreScriptingClassesv
KSj:_DateTimeFormatInfo_get_IsReadOnly_m1173781646
L3h:_Array_InternalArray__ICollection_Remove_TisContentType_t1128941285_m2281326462_gshared
lpd:__Z19UpdateSingleRow2TplIL27ParticleSystemCurveEvalMode2ELS0_1EEvfRK11MinMaxCurveS3_RK23ParticleSystemParticlesPfbiii
U_o:__ZL107LayoutRebuilder_t541313304_CustomAttributesCacheGenerator_LayoutRebuilder_U3Cs_RebuildersU3Em__0_m589488547P21CustomAttributesCache
QFe:__ZThn8_N5physx2Sc24ElementInteractionMarker10onActivateEj
rIh:_ArraySegment_1_GetHashCode_m3394884290_AdjustorThunk
Y$d:__ZThn8_N5physx3Cct17CapsuleController15getPxControllerEv
BLh:_Comparer_1_System_Collections_IComparer_Compare_m1313384821_gshared
INi:_LayoutRebuilder_GetHashCode_m1943075341
pRh:_GenericTypeParameterBuilder_MakeGenericType_m3048165991
Yyc:__Z26AnimationCurve_CUSTOM_InitP12Il2CppObjectP11Il2CppArray
Cwp:_glUniform1uiv__wrapper
Qwd:__ZNK14b2PolygonShape5CloneEP16b2BlockAllocator
Mqn:__ZN6il2cpp2vm10Reflection7IsEventEP12Il2CppObject
KWn:__ZNSt3__26__treeINS_12__value_typeIPFvvEPK10MethodInfoEENS_19__map_value_compareIS3_S7_NS_4lessIS3_EELb1EEENS_9allocatorIS7_EEE16__insert_node_atEPNS_16__tree_node_baseIPvEERSI_SI_
Naa:__ZN17PersistentManager26GetStreamNameSpaceInternalEi
lcl:_List_1__cctor_m2829153476_gshared
aT:__ZN4FMOD6System11createSoundEPKcjP22FMOD_CREATESOUNDEXINFOPPNS_5SoundE
mp:FUNCTION_TABLE_iiifiiii
DGh:_InternalEnumerator_1_System_Collections_IEnumerator_Reset_m1451164462_AdjustorThunk
mkf:__ZN13SpeedTreeWind20AdvanceWithoutUpdateEd
VHl:_KeyValuePair_2_ToString_m823870646_AdjustorThunk
Dvc:__Z48Register_UnityEngine_Material_get_shaderKeywordsv
aak:_DateTime_System_IConvertible_ToDecimal_m1044850612
Fjl:_List_1_IndexOf_m2206067159_gshared
WXk:_X509Store_get_Factory_m3282910266
fif:__ZThn128_N5physx7profile8ZoneImplINS_28PxProfileNameProviderForwardEED1Ev
L6:__ZN9ShaderLab19CommonPropertyNames13StaticCleanupEPv
iWh:_Module_IsResource_m553227372
aaa:__Z31scripting_method_get_returntype18ScriptingMethodPtr
mQe:__ZN5physx2Sq17AABBTreeUpdateMap10invalidateEjjRNS0_8AABBTreeE
qkk:_UTF32Encoding_GetByteCount_m3610769032
ZYa:__ZN15SerializeTraitsI12LightmapDataE8TransferI24GenerateTypeTreeTransferEEvRS0_RT_
BIj:_SecurityElement_AddAttribute_m311510562
wta:__ZN9Scripting5Unity11Collections44NativeDisableParallelForRestrictionAttribute12CleanupProxyEv
_2e:__ZN5physx28solveParallelDefaultFrictionERNS_18PxsDynamicsContextEjjPNS_13PxcSolverBodyEPNS_17PxcSolverBodyDataEjjPNS_25PxcArticulationSolverDescEjPNS_23PxcSolverConstraintDescEjS9_jPiSA_SA_SA_SA_SA_PNS_25PxcThresholdStreamElementEjSA_PNS_2Cm13SpatialVectorEPKPNS_11PxsBodyCoreERNSD_10BitMapBaseINS_6shdfnd9AllocatorEEEPKPNS_15PxsArticulationEjPViRNSL_5ArrayINS_24PxsConstraintBatchHeaderENSL_19ReflectionAllocatorISW_EEEES10_RNSV_IjNSX_IjEEEES13_PPNS_12PxsRigidBodyEj
Osp:_glStencilOpSeparate__wrapper
PLc:__ZN4Mesh5SetUvEiPKfjj
JWa:__ZN7Texture13SetAnisoLimitENS_20AnisotropicFilteringE
xxa:__ZNSt3__26__treeINS_12__value_typeIjN4core12basic_stringIcNS2_20StringStorageDefaultIcEEEEEENS_19__map_value_compareIjS7_NS_4lessIjEELb1EEE13stl_allocatorIS7_L18MemLabelIdentifier7ELi16EEE25__emplace_unique_key_argsIjJNS_4pairIjS6_EEEEENSH_INS_15__tree_iteratorIS7_PNS_11__tree_nodeIS7_PvEEiEEbEERKT_DpOT0_
Ox:__ZN21AnimationClipPlayable22PrepareAnimationEventsEfR13dynamic_arrayI22AnimationClipEventInfoLj0EE
q1i:_Attribute_IsDefined_m4069052474
Gi:_emscripten_glCompressedTexSubImage2D
vVb:__ZN13GfxDeviceGLES22MemoryBarrierImmediateEyN2gl17MemoryBarrierTypeE
Jm:_abort
$Li:_U3CCaretBlinkU3Ec__Iterator0_Dispose_m860898205
ska:__ZN6prcoreL26RemapGenericFloatToIntegerI18TexFormatARGBFloat17TexFormatARGB8888EEvPKNS_9InnerInfoE
rAd:__ZN14qsort_internal5QSortIPN35b2SynchronizeContinuousFixturesTask14b2DeferredMoveEiPFbRKS2_S5_EEEvT_S8_T0_T1_
O9l:_List_1_set_Capacity_m1977188119_gshared
cJk:_ShimEnumerator_Reset_m4072444564_gshared
INc:__Z46GetShaderModelNumericValueFromRequirementsMask18ShaderRequirements
Bkk:_UTF7Encoding_InternalGetBytes_m797138468
dJc:__ZN6Object27GetOffsetOfInstanceIdMemberEv
nsf:_cff_ps_has_glyph_names
wdf:__ZN5physx15writeWordBufferEPKtjbRNS_14PxOutputStreamE
mzl:_Dictionary_2_Resize_m3287623642_gshared
PPn:_GC_write
dbo:__ZL69RuntimeArray_CustomAttributesCacheGenerator_Array_SetValue_m394135409P21CustomAttributesCache
whg:_RC2_Create_m2516417038
n3o:__ZL75TMP_Settings_t2071156274_CustomAttributesCacheGenerator_m_linebreakingRulesP21CustomAttributesCache
PAg:_Graphic_OnPopulateMesh_m767318148
_s:__ZN17ConstraintManagerD2Ev
Ugg:_HMACSHA512_set_ProduceLegacyHmacValues_m3961135292
vRm:__ZL24UnresolvedVirtualCall_43P12Il2CppObjectS0_PK10MethodInfo
Yvl:_Dictionary_2_Remove_m4193450060_gshared
Qpc:__Z13tessTesselateP14TESStesselatoriiiiPKf
g8c:__ZN10SizeModule8TransferI17RemapPPtrTransferEEvRT_
j0n:_JSON_SerializeNumber_m511027017
tmo:__ZL46MD5_t3177620429_CustomAttributesCacheGeneratorP21CustomAttributesCache
lzj:_MulticastDelegate_GetObjectData_m3957553424
aPm:_StandardEventPayload_set_name_m549984672
wYj:_Int64_TryParse_m3606398488
wGg:_RemotingServices_IsTransparentProxy_m1535738947
Ysl:_Array_InternalArray__set_Item_TisMark_t3471605523_m1299772331_gshared
CXc:__Z44Register_UnityEngine_GUIStyle_SetDefaultFontv
Kpc:__ZN19SpriteMeshGenerator9MakeShapeEP11ColorRGBA32iifhbjfi
yCb:__Z18Transfer_BlittableI18StreamedBinaryReadILb1EELb1EiEvRK29SerializationCommandArgumentsR31RuntimeSerializationCommandInfo
vF:__ZN9BlobWrite8TransferI22OffsetPtrArrayTransferIKN4math7_float3EEEEvRT_PKc17TransferMetaFlags
I4a:__ZN16MeshSkinningData14GetBoneWeightsEi
yTg:__Z173RuntimeInvoker_Int32_t2950945753_RuntimeObject_Int32_t2950945753_Int32_t2950945753_Int32_t2950945753_RuntimeObject_Int32_t2950945753_SByte_t1669577662_ContextU26_t3937453398PFvvEPK10MethodInfoPvPS4_
g3l:_List_1__ctor_m2576108087_gshared
Bpn:__ZN15dense_hashtableINSt3__24pairIK10KeyWrapperINS1_IPK12PropertyInfoP11Il2CppClassEEEjEES9_17ReflectionMapHashIS8_EN14dense_hash_mapIS9_jSD_NS9_14EqualsComparerINS0_8equal_toIS8_EEEENS0_9allocatorISB_EEE9SelectKeyESI_SK_E12maybe_shrinkEv
C6d:__ZN5physx2Sc7BodySim37checkSleepReadinessBesidesWakeCounterEv
Tpm:_X509Certificate_get_DSA_m565099499
ZCb:__Z18Transfer_BlittableI18StreamedBinaryReadILb1EELb1EsEvRK29SerializationCommandArgumentsR31RuntimeSerializationCommandInfo
rjk:_StringBuilder_Remove_m940064945
M6a:__ZN14SafeBinaryRead21TransferSTLStyleArrayI13dynamic_arrayI16SplashScreenLogoLj0EEEEvRT_17TransferMetaFlags
oqb:__ZN13dynamic_arrayIN16GeometryJobTasks15GeometryJobTaskELj0EE18resize_initializedEjRKS1_12ResizePolicy
BJk:_ShimEnumerator_get_Key_m2888790658_gshared
qfg:_DESCryptoServiceProvider_GenerateIV_m683687014
OZj:_BinaryWriter__ctor_m2439641268
fpd:__Z19UpdateSingleRow2TplIL27ParticleSystemCurveEvalMode1ELS0_2EEvfRK11MinMaxCurveS3_RK23ParticleSystemParticlesPfbiii
PWa:__ZL21SetAnisoLimitEnumImplN7Texture20AnisotropicFilteringEb
iMf:__ZN22BaseUnityConnectClient17OnEnterStateReadyEv
lze:__ZNK5physx22NpParticleBaseTemplateINS_16PxParticleSystemENS_16NpParticleSystemEE15getMaxParticlesEv
gqk:_Type_GetTypeHandle_m1526957577
hke:__ZN5physx2Sc16ArticulationCore14setWakeCounterEf
DOe:__ZN5physx13PxsCCDContextD2Ev
UVi:_Text_get_fontSize_m1677872538
jWm:__ZL25UnresolvedVirtualCall_301P12Il2CppObject22Navigation_t3049316579PK10MethodInfo
UFk:_Enumerator_System_Collections_IEnumerator_Reset_m3448033483_AdjustorThunk
qil:_List_1_System_Collections_IList_get_Item_m995551621_gshared
$qa:__ZN9Scripting11UnityEngine12Experimental9Rendering15ShadowSplitData9InitProxyEv
gQd:__ZN5physx2Gu9ContainerD2Ev
uzc:__Z29Input_CUSTOM_GetMouseButtonUpi
yYd:__ZN5physx2Gu12selectNormalEhff
Nkn:__ZN6il2cpp6icalls8mscorlib6System8MonoType16InternalGetEventEP20Il2CppReflectionTypeP12Il2CppStringi
Sef:__Z13RegisterClassI9RigidbodyEvPKc
cji:_Socket_EndSend_m1244041542
_4k:_UriScheme_t722425697_marshal_pinvoke_back
fuf:_UNITY_tt_face_load_maxp
Kzc:__Z46Input_CUSTOM_INTERNAL_set_compositionCursorPosRK13Vector2fIcall
sx:__ZN7mecanim5human12FullBodyMaskEv
Nxe:__ZN5physx3Scb14ParticleSystem16releaseParticlesEjRKNS_16PxStrideIteratorIKjEE
XZn:_U3CSpawnEnemyType1U3Ec__Iterator3__ctor_m3347728908
JOn:__ZN6il2cpp6icalls8mscorlib6System9Threading10WaitHandle16WaitAny_internalEP11Il2CppArrayib
w2b:__ZN13BatchRenderer15ApplyShaderPassER17ShaderPassContextPK18SharedMaterialDataP6ShaderPN9ShaderLab4PassEi13BatchingFlagsbbPKNS7_10GrabPassesEPK22DeviceRenderStateBlock
B2a:__ZN19ShaderPropertySheet11ComputeHashEv
Qdn:__ZN30dense_hashtable_const_iteratorI10KeyWrapperIPK19Il2CppGenericMethodES4_N6il2cpp8metadata23Il2CppGenericMethodHashEN14dense_hash_setIS4_S7_NS4_14EqualsComparerINS6_26Il2CppGenericMethodCompareEEENSt3__29allocatorIS4_EEE8IdentityESB_SE_EppEv
Svj:_TextWriter_WriteLine_m337766814
xKe:__ZN5physx2Sc5Scene21processLostTouchPairsEv
uxd:__ZN12b2EPCollider24ComputePolygonSeparationEv
VDb:__ZN4PPtrI6ObjectE8TransferI18StreamedBinaryReadILb1EEEEvRT_
VPl:_ReadOnlyCollection_1_System_Collections_ICollection_CopyTo_m95132623_gshared
u$:__ZN11UnityEngine15CloudWebService20WebRequestRestClient6IsDoneEv
QZn:_GameController_Delay_m166886129
F5f:_TMP_Text_get_firstOverflowCharacterIndex_m2980550079
qCo:__ZL61UpdateAllRenderers_t4055013667_CustomAttributesCacheGeneratorP21CustomAttributesCache
G2k:_Group__ctor_m2980794822
Vmm:_X509CertificateCollection_get_Item_m1033426577
ywm:_CachedInvokableCall_1_Invoke_m502907382_gshared
tvo:__ZL79Enumerable_t538148348_CustomAttributesCacheGenerator_Enumerable_Any_m1084009618P21CustomAttributesCache
Dj:_llvm_fabs_f32
Z_:__ZN11UnityEngine15CloudWebService16SessionContainer16GetJsonDataBlockEjRKN4core12basic_stringIcNS2_20StringStorageDefaultIcEEEERS6_PjSA_
o2f:_TMP_SpriteAsset_GetSpriteIndexFromName_m4129359537
QMd:__ZThn28_N14PhysicsManager7onSleepEPPN5physx7PxActorEj
Mxk:_ASN1_Decode_m1695284166
DMo:__ZL100UnityWebRequest_t463507806_CustomAttributesCacheGenerator_UnityWebRequest_BeginWebRequest_m464964044P21CustomAttributesCache
PGa:__ZNK4PPtrI20OcclusionCullingDataEcvPS0_Ev
Slj:__ZN23GenericVirtFuncInvoker0IP28ValidationResult_t3834298736E6InvokeEPK10MethodInfoP12Il2CppObject
xrn:__ZN15dense_hashtableINSt3__24pairIK10KeyWrapperIPK14Il2CppAssemblyEPK22Il2CppMonoAssemblyNameEES6_N6il2cpp5utils11PointerHashIS4_EEN14dense_hash_mapIS6_SA_SF_NS6_14EqualsComparerINS0_8equal_toIS5_EEEENS0_9allocatorISB_EEE9SelectKeyESK_SM_E13set_empty_keyERKSB_
PYe:__ZN5physx22PxcContactConvexConvexERKNS_2Gu13GeometryUnionES3_RKNS_11PxTransformES6_RKfRNS_10PxcNpCacheERNS0_13ContactBufferE
SOj:_Enum_ToString_m3248653065
Slf:__ZN18StreamedBinaryReadILb0EE21TransferSTLStyleArrayI13dynamic_arrayIcLj0EEEEvRT_17TransferMetaFlags
pEg:_ChannelServices__cctor_m2475086854
FQd:__ZNK5physx2Gu11ConvexHullV12HillClimbingERKNS_6shdfnd3aos5Vec3VE
rEe:__ZNK5physx2Sc17ParticleSystemSim7getCoreEv
e9:__ZN14SafeBinaryReadD2Ev
ami:_X509BasicConstraintsExtension_CopyFrom_m1931463033
Bxe:__ZN5physx2Sc18ParticleSystemCore10setDampingEf
ubk:_DateTime_GetDateTimeFormats_m4255658003
Wal:_Enumerator_MoveNext_m3859993671_gshared
nlf:__ZN14SafeBinaryRead21TransferSTLStyleArrayI13dynamic_arrayIN20TextRenderingPrivate8FontImpl13CharacterInfoELj0EEEEvRT_17TransferMetaFlags
nEb:__ZN8Gradient8TransferI18StreamedBinaryReadILb1EEEEvRT_
qij:_SequentialSearchPrimeGeneratorBase_IsPrimeAcceptable_m1127740833
CYk:_Capture__ctor_m3103117740
wIo:__ZL74Input_t1431474628_CustomAttributesCacheGenerator_Input_GetAxis_m4009438427P21CustomAttributesCache
t3o:__ZL184U3CDoSpriteAnimationInternalU3Ec__Iterator0_t827549206_CustomAttributesCacheGenerator_U3CDoSpriteAnimationInternalU3Ec__Iterator0_System_Collections_IEnumerator_get_Current_m3789207392P21CustomAttributesCache
vSg:__Z113RuntimeInvoker_Void_t1185182177_RuntimeObject_Int64_t3736567304_RuntimeObject_Int64_t3736567304_Int64_t3736567304PFvvEPK10MethodInfoPvPS4_
Lsk:_UInt32_CompareTo_m2218823230
l3d:__ZN5physx2Sc10NPhaseCore16deleteFilterPairEPNS0_10FilterPairE
J3h:_Array_InternalArray__ICollection_Remove_TisTMP_CharacterInfo_t3185626797_m1831411579_gshared
Jjd:__ZN14ParticleSystem15ThreadedCleanupEv
jCi:_RangeInt_get_end_m4128831787_AdjustorThunk
UBn:__ZN6il2cpp6icalls8mscorlib6System4Type15MakeGenericTypeEP20Il2CppReflectionTypeP11Il2CppArray
tff:_PxCreateBasePhysics
Oxo:__ZL119NativeClassAttribute_t2601352714_CustomAttributesCacheGenerator_NativeClassAttribute_set_QualifiedNativeName_m817439736P21CustomAttributesCache
MFi:_Shader__ctor_m837260462
dk:_SDL_PauseAudio
deh:__Z72RuntimeInvoker_Boolean_t97287965_Int64_t3736567304_ObjectU26_t2146539884PFvvEPK10MethodInfoPvPS4_
yzi:_Object_Internal_InstantiateSingle_m4074556765
bvn:_il2cpp_class_from_type
UEo:__ZL71ArgumentCache_t2187958399_CustomAttributesCacheGenerator_m_BoolArgumentP21CustomAttributesCache
t$n:_HighscoreMenu_Reset_m3282129528
Nln:__ZN6il2cpp2os4File11GetStdErrorEv
K7m:_NativeHeaderAttribute__ctor_m457462113
JRc:__Z48Register_UnityEngine_Camera_set_orthographicSizev
m7d:__ZN5physx2Sc5Scene28addActiveBreakableConstraintEPNS0_13ConstraintSimE
K6:__ZN9ShaderLab19CommonPropertyNames16StaticInitializeEPv
mme:__ZN5physx6shdfnd8PoolBaseINS_16NpParticleSystemENS0_19ReflectionAllocatorIS2_EEE15disposeElementsEv
Tcb:__ZN13MemoryManager31DisallowAllocationsOnThisThreadEv
iKh:_Comparer_1__cctor_m2517796511_gshared
Zv:__ZN7mecanim9animation18CreateAvatarOutputEPKNS0_14AvatarConstantEbbRNS_6memory9AllocatorE
Bif:__ZN5physx7profile11EventBufferINS_24PxDefaultContextProviderENS_6shdfnd6MutexTINS0_26WrapperReflectionAllocatorIhEEEENS0_14ScopedLockImplIS7_EENS_24PxProfileNullEventFilterEE10eventValueEtyx
z$i:_Array_GetLongLength_m561139708
Wed:__Z14UpdateSpeedTplIL27ParticleSystemCurveEvalMode1EEvRK11MinMaxCurveR23ParticleSystemParticlesjj
KUi:_Slider_set_maxValue_m2251404465
eNm:_UnityWebRequestAsyncOperation__ctor_m1252495487
tVi:_SpriteState_get_pressedSprite_m3868967445_AdjustorThunk
dS:__ZN11AudioSource23VirtualRedirectTransferER24GenerateTypeTreeTransfer
BSd:__ZN5physx2Gu11getBoxEdgesEv
Nvi:_Material_CopyPropertiesFromMaterial_m2896226580
lNf:__ZN22BaseUnityConnectClient13ResumeSessionEv
sRa:__ZN14Texture2DArray23VirtualRedirectTransferER14SafeBinaryRead
gxj:_MissingMemberException__ctor_m1220732369
j5b:__ZNK6Camera21CalculateCanDoShadowsEv
YIe:__ZNK5physx2Sc5Scene17getBroadPhaseCapsERNS_16PxBroadPhaseCapsE
GUm:__ZL25UnresolvedVirtualCall_216P12Il2CppObjectffPK10MethodInfo
O8g:__Z52RuntimeInvoker_Void_t1185182177_Int32U26_t1369213839PFvvEPK10MethodInfoPvPS4_
_ie:__ZN5physx9NpFactory14onActorReleaseEPNS_7PxActorE
Pji:_Socket_Connect_m2387904622
rWk:_Dictionary_2_Clear_m2536615998_gshared
o9d:__ZN5physx2Sc5Actor15onElementAttachERNS0_7ElementE
$Oi:_MaskableGraphic_RecalculateMasking_m183336762
Qej:_Array_InternalArray__get_Item_TisRuntimeObject_m3347010206_gshared
_4g:__Z38RuntimeInvoker_LightmapsMode_t12202505PFvvEPK10MethodInfoPvPS4_
EUh:_TypeBuilder_IsSubclassOf_m3458909121
GDj:_Default_check_arguments_with_score_m3467814020
Iao:__ZL73Enum_t4135868527_CustomAttributesCacheGenerator_Enum_ToObject_m3092348831P21CustomAttributesCache
mxe:__ZN5physx2Sc18ParticleSystemCore23setSimulationFilterDataERKNS_12PxFilterDataE
wFb:__Z18Transfer_BlittableI18StreamedBinaryReadILb0EELb1EhEvRK29SerializationCommandArgumentsR31RuntimeSerializationCommandInfo
oYi:_X509Certificate__cctor_m198658613
qHc:__ZL24GenerateTilingJobCombineP22GenerateTilingAreaInfo
qJ:__ZN14SafeBinaryRead21TransferSTLStyleArrayI13dynamic_arrayI11KeyframeTplIfELj0EEEEvRT_17TransferMetaFlags
kAi:_PlayableHandle_Equals_m1666612586_AdjustorThunk
_ja:__ZN6prcoreL27StretchGenericFloatBilinearI15TexFormatRFloatEEvPKNS_9InnerInfoE
n9h:_Array_InternalArray__IndexOf_TisSpriteData_t3048397587_m1184765788_gshared
fPe:__ZN5physx6shdfnd8internal8HashBaseINS0_4PairIKNS_2Sq13PrunerPayloadEjEES5_NS0_4HashIS5_EENS1_11HashMapBaseIS5_jS9_NS0_9AllocatorEE6GetKeyESB_Lb1EE15reserveInternalEj
ruo:__ZL139ServicePointManager_t170559685_CustomAttributesCacheGenerator_ServicePointManager_t170559685____CheckCertificateRevocationList_PropertyInfoP21CustomAttributesCache
nio:__ZL53IsVolatile_t2097058663_CustomAttributesCacheGeneratorP21CustomAttributesCache
MP:__ZNK11AudioSource19GetFilterComponentsERNSt3__26vectorIPN4FMOD3DSPENS0_9allocatorIS4_EEEEb
lA:__Z24ProcessAnimationMixBeginP35AnimationPlayableEvaluationConstantP32AnimationPlayableEvaluationInputP33AnimationPlayableEvaluationOutput
Ruj:_StreamWriter_LowLevelWrite_m1081676583
L_a:__ZN19StreamedBinaryWriteILb0EE21TransferSTLStyleArrayI13dynamic_arrayI8Vector2fLj0EEEEvRT_17TransferMetaFlags
dVa:__Z14PadImageBorderR14ImageReferenceii
bon:__ZN15dense_hashtableINSt3__24pairIK10KeyWrapperINS1_IPK10MethodInfoP11Il2CppClassEEEjEES9_17ReflectionMapHashIS8_EN14dense_hash_mapIS9_jSD_NS9_14EqualsComparerINS0_8equal_toIS8_EEEENS0_9allocatorISB_EEE9SelectKeyESI_SK_E4findERSA_
_gn:__ZN6il2cpp2vm13MetadataCache28GetFieldDefaultValueForFieldEPK9FieldInfo
LSm:__ZL25UnresolvedVirtualCall_113P12Il2CppObjectPK10MethodInfo
i8h:_Array_IndexOf_TisUIVertex_t4057497605_m3336763564_gshared
kUl:__ZN21InterfaceFuncInvoker1I22OrderBlock_t1585977831iE6InvokeEjP11Il2CppClassP12Il2CppObjecti
$4f:_TMP_Text_set_outlineWidth_m3845803135
PA:__ZN27AnimationLayerMixerPlayableD2Ev
rwg:_ColorBlock_Equals_m518833916_AdjustorThunk
TSe:__ZN5physx2Gu22gjkRelativePenetrationINS0_9TriangleVENS0_8CapsuleVEEEjRKT_RKT0_RKNS_6shdfnd3aos15PsMatTransformVERKNSB_6FloatVERNSB_5Vec3VESJ_SJ_RSF_PhSL_Rh
Ihl:_List_1_GetEnumerator_m2838255531_gshared
LVn:__ZN6il2cpp2os9FastMutexC2Ev
ULd:__ZN9Rigidbody14SetIsKinematicEb
_Eo:__ZL66PersistentCall_t3407714124_CustomAttributesCacheGenerator_m_TargetP21CustomAttributesCache
cO:__ZN12AudioManager39HandlePendingAudioConfigurationCallbackEv
loa:__ZL43__ManagedRegistrationHelperFunction_Vector3Pv
dl:_emscripten_glIsFramebuffer
sAk:_RSAManaged_EncryptValue_m799827583
xbc:__ZN12_GLOBAL__N_16qAtan2Eff
FPg:__Z61RuntimeInvoker_UInt32_t2560061978_RuntimeObject_RuntimeObjectPFvvEPK10MethodInfoPvPS4_
gnk:_ThreadAbortException__ctor_m1955533141
hl:_JS_Sound_SetLoopPoints
j$m:_RestClient_Post_m775137210
CUn:__ZN6il2cpp2vm26MetadataAllocGenericMethodEv
B3h:_Array_InternalArray__ICollection_Remove_TisUInt16_t2177724958_m1766181761_gshared
LXb:__ZN19ConstantBuffersGLES12RecordRenderEv
IOe:__ZN5physx13ActorAABBTaskD2Ev
yAm:_UnityEvent_1__ctor_m3675246889_gshared
$no:__ZL83StringBuilder_t_CustomAttributesCacheGenerator_StringBuilder_AppendLine_m1438862993P21CustomAttributesCache
Y$c:__ZN9JSONWrite8TransferI10RectOffsetEEvRT_PKc17TransferMetaFlags
cYf:_TMP_InputField_get_textComponent_m3597517520
WUa:__ZN4crnd12symbol_codec11decode_bitsEj
Feh:__Z59RuntimeInvoker_Boolean_t97287965_KeyValuePair_2_t3842366416PFvvEPK10MethodInfoPvPS4_
jkj:_EncryptedPrivateKeyInfo__ctor_m3415744930
Qxd:__ZN15b2CircleContact8EvaluateEP10b2ManifoldRK11b2TransformS4_
qli:_AsnEncodedData__ctor_m3792312694
NKm:_AesManaged_GenerateIV_m1368817386
dDc:__ZN21FixedBehaviourManagerD0Ev
B1f:_TMP_Settings_get_defaultTextMeshProUITextContainerSize_m3222036350
oN:__ZN4FMOD6System12createReverbEPPNS_6ReverbE
tnd:__ZL17DrawMeshParticlesILb1EL25ParticleSystemRenderSpace1EEvRK26ParticleSystemTempMeshDataRK22ParticleSystemTempDataRK23ParticleSystemParticlesRK31ParticleSystemParticlesTempDataRK26ParticleSystemRendererDataRK21ParticleSystemModulesPfPv
eeo:__ZL48Queue_t3637523393_CustomAttributesCacheGeneratorP21CustomAttributesCache
GA:__ZN7mecanim19ValueArrayBlendNodeILb1EEEvRKNS_10ValueArrayERKNS_14ValueArrayMaskERS1_RS4_RNS_16ValueArrayWeightEf
seg:_CodeAccessPermission_GetHashCode_m880096813
Vcb:__Z16MarkDependenciesR27GarbageCollectorThreadStatej
OCj:_AssemblyConfigurationAttribute__ctor_m3236176989
sgl:_List_1_System_Collections_IList_get_IsReadOnly_m1080071399_gshared
NZh:_TypeDelegator_GetEvent_m3148520673
iqh:_Action_1_EndInvoke_m1146224530_gshared
QCm:_ObjectPool_1_get_countInactive_m526975942_gshared
mRm:__ZL24UnresolvedVirtualCall_34P12Il2CppObjectPK10MethodInfo
REg:_RemotingServices_DisposeIdentity_m2605848806
Xia:__ZNK9Transform11GetPositionEv
Tle:__ZN5physx12NpConstraint8requiresERNS_23PxProcessPxBaseCallbackE
xCd:__ZNK29b2ClearContactIslandFlagsTask13GetRangeCountEv
XUj:_GuidParser_Reset_m2640004655
yig:_ColorTween_AddOnChangedCallback_m2712346959_AdjustorThunk
Icl:_List_1_AsReadOnly_m289902294_gshared
src:__ZN23SharedMeshRenderingData18UnloadVertexStreamEi
Y0d:__ZN5physx3Cct13HandleManager3AddEPv
lJc:__ZN31CanvasBatchIntermediateRenderer11AddSubBatchERK16DrawBuffersRangePK19ShaderPropertySheet
XEc:__ZN19RenderEventsContextC2Ei
RY:__Z6simd4fRKf
BJo:__ZL67SceneManager_t2787271929_CustomAttributesCacheGenerator_sceneLoadedP21CustomAttributesCache
wTj:_GregorianCalendar_GetEra_m2369958449
rdg:_RuntimeTypeHandle_GetObjectData_m1599302095_AdjustorThunk
Ll:_emscripten_glEnable
R6o:__ZL145U3CDelayU3Ec__Iterator1_t1616925293_CustomAttributesCacheGenerator_U3CDelayU3Ec__Iterator1_System_Collections_IEnumerator_get_Current_m4036500312P21CustomAttributesCache
cyh:_InternalEnumerator_1_System_Collections_IEnumerator_get_Current_m2982675020_gshared
Hmd:__ZNK14ParticleSystem16GetParticleCountEv
lxa:__ZN10TagManager23VirtualRedirectTransferER14SafeBinaryRead
vYo:__ZL51RawImage_t3182918964_CustomAttributesCacheGeneratorP21CustomAttributesCache
$7e:__ZNK5physx2Sc15ClothFabricCore9getNbSetsEv
cUm:__ZL25UnresolvedVirtualCall_186P12Il2CppObjectPK10MethodInfo
qMl:_Collection_1_System_Collections_IList_get_Item_m2931804586_gshared
VXm:_UnityException__ctor_m1456865679
vwn:__ZN6il2cpp2vm6Thread16RequestInterruptEP12Il2CppThread
xMg:_ObjRef_get_EnvoyInfo_m1782007847
tga:__ZN14PlayableOutput26ClearInvalidSourcePlayableEv
f8b:__Z15InitLightMeshesv
$Sf:__Z60Register_UnityEngine_Networking_DownloadHandlerBuffer_Createv
r7m:_RaycastHit_get_collider_m1464180279
g7o:__ZL179U3CSpawnHazardsU3Ec__Iterator4_t3641860696_CustomAttributesCacheGenerator_U3CSpawnHazardsU3Ec__Iterator4_System_Collections_Generic_IEnumeratorU3CobjectU3E_get_Current_m1604446665P21CustomAttributesCache
dIe:__ZNK5physx7NpScene26getNbContactDataBlocksUsedEv
Eo:FUNCTION_TABLE_iifiii
oUd:__ZN5physx2Gu29computeCapsule_HeightFieldMTDERKNS_21PxHeightFieldGeometryERKNS_11PxTransformERNS0_8CapsuleVEffbjRNS_10PxSweepHitE
e9m:__ZNK15dense_hashtableINSt3__24pairIK10KeyWrapperIPK22Il2CppGenericParameterEP11Il2CppClassEES6_N6il2cpp5utils11PointerHashIS4_EEN14dense_hash_mapIS6_S9_SE_NS6_14EqualsComparerINS0_8equal_toIS5_EEEENS0_9allocatorISA_EEE9SelectKeyESJ_SL_E10test_emptyEj
CDe:__ZNK5physx2Cm12DelegateTaskINS_7NpSceneEXadL_ZNS2_14executeCollideEPNS_10PxBaseTaskEEEE7getNameEv
Wbm:_Stack_1_Push_m1669856732_gshared
q9e:__ZN5physx2Gu11HeightField15exportExtraDataERNS_22PxSerializationContextE
zXl:_ReadOnlyCollection_1_System_Collections_IList_Contains_m2904046095_gshared
EWa:__ZN15QualitySettings8TransferI19StreamedBinaryWriteILb0EEEEvRT_
DQj:_GC_KeepAlive_m1400443516
AUj:_SortKey_GetHashCode_m3547067087
Hkg:_SpriteDataObject__ctor_m2091411677
iOi:_LayoutUtility_U3CGetFlexibleHeightU3Em__7_m2991026842
HAb:__Z18Transfer_BlittableI19StreamedBinaryWriteILb0EELb1E8Vector2fEvRK29SerializationCommandArgumentsR31RuntimeSerializationCommandInfo
Rpf:_cf2_arrstack_init
_ej:_Array_InternalArray__get_Item_TisResourceCacheItem_t51292791_m1306056717_gshared
L7g:__Z157RuntimeInvoker_Void_t1185182177_RuntimeObject_RuntimeObject_RuntimeObject_RuntimeObject_RuntimeObject_RuntimeObject_RuntimeObject_RuntimeObject_RuntimeObjectPFvvEPK10MethodInfoPvPS4_
ypg:_EventSystem_get_pixelDragThreshold_m1103650852
$wo:__ZL60StaticAccessorType_t186341701_CustomAttributesCacheGeneratorP21CustomAttributesCache
fvl:_Array_Resize_TisTMP_PageInfo_t2608430633_m3712126464_gshared
_3:__Z15CleanLogHandler7LogTypePKcz
xAj:_NumberFormatter_NumberToString_m2481532188
omc:__ZN9ShaderLab19SerializedSubShader8TransferI19StreamedBinaryWriteILb0EEEEvRT_
noe:__ZN5physx10NpMaterialC2ERKNS_2Sc12MaterialCoreE
VSi:_ScrollRect_InternalGetBounds_m599803667
OYn:_DestroyByBoundary__ctor_m325595327
CGk:_Enumerator_MoveNext_m76191888_gshared
fV:__ZN14AudioBehaviour15ThreadedCleanupEv
L$e:__ZN5physx9PxTaskMgr10resolveRowEjb
cdl:_List_1_get_Capacity_m2483689068_gshared
Pta:__ZN9Scripting5Unity11Collections8LowLevel6Unsafe41NativeContainerIsAtomicWriteOnlyAttribute9InitProxyEv
iJb:__ZN6Camera17RemoveImageFilterERK11ImageFilter
Uqb:__ZNSt3__218__insertion_sort_3IR25ValueParameterArraySorterPN20GpuProgramParameters14ValueParameterEEEvT0_S6_T_
nEd:__ZN10ClipperLib7Clipper27ProcessEdgesAtTopOfScanbeamEx
icd:__ZN14EmissionModule15AccumulateBurstER27ParticleSystemEmissionStateRK11MinMaxCurvef
w8i:_Comparer__cctor_m3311686689
hYf:_TMP_InputField_set_scrollSensitivity_m275207258
zGf:__ZZN2UI11CanvasGroup15InitializeClassEvEN38FunctorImpl_117kTransformParentChanged4CallEPviR11MessageData
Utg:_UIBehaviour_OnDidApplyAnimationProperties_m2143584361
Hjd:__ZN11ShapeModule17MainThreadCleanupEv
Fqj:_HttpsClientStream_U3CHttpsClientStreamU3Em__1_m1202173386
pad:__ZN9SubModule5ResetEv
yNd:__ZN8Collider12GetIsTriggerEv
yei:_HttpWebRequest_get_Address_m2672661563
h$f:_TMP_InputField_Rebuild_m919426078
eqn:__ZNK10KeyWrapperINSt3__24pairIPK9EventInfoP11Il2CppClassEEE14EqualsComparerINS0_8equal_toIS7_EEEclERKS8_SE_
Gxh:_InternalEnumerator_1_get_Current_m3500427238_AdjustorThunk
JHf:__ZN2UI26InitializeDeviceForOverlayEi
v7e:__ZNK5physx13NpClothFabric13getRestvaluesEPfj
Hhj:_Kernel_PlusEq_m136676638
u5:__Z27LogRepeatingStringWithFlagsRKN4core12basic_stringIcNS_20StringStorageDefaultIcEEEE15LogMessageFlagsi
_Qd:__ZN5physx2Gu16_gjkLocalRayCastINS0_9TriangleVENS0_11ConvexHullVEEEbRT_RT0_RKNS_6shdfnd3aos6FloatVERKNS9_5Vec3VESF_RSA_RSD_SH_f
jPj:_Enum_IsDefined_m1442314461
Gng:_TextMeshProUGUI_SetSharedMaterials_m854082582
Mgp:_AudioExtensionManager_RegisterBuiltinDefinitions_m2742744104
Ux:__ZN17AnimationPlayable28ComputeNeedsBindingRebuildedEv
Zw:__ZN17AnimationPlayable23RequestAllocateBindingsEv
x7d:__ZN5physx6shdfnd8PoolBaseINS_2Cm5BlockIPvLj32EEENS0_19ReflectionAllocatorIS5_EEE17releaseEmptySlabsEv
CZo:__ZL66Slider_t3903728902_CustomAttributesCacheGenerator_m_OnValueChangedP21CustomAttributesCache
YUe:__ZN5physx23PxsBroadPhaseContextSap21batchUpdateFewUpdatesEjRPNS_17PxcBroadPhasePairERjS4_
ehk:_DecoderReplacementFallbackBuffer_Fallback_m1261056214
yZd:__ZN5physx3Cct17getSceneTimestampEPKNS0_30InternalCBData_FindTouchedGeomE
N0b:__ZNSt3__227__insertion_sort_incompleteIRPFbP10GUIElementS2_EPS2_EEbT0_S7_T_
sTo:__ZL78g_UnityEngine_UnityWebRequestWWWModule_Assembly_CustomAttributesCacheGeneratorP21CustomAttributesCache
qyj:_Binder_get_DefaultBinder_m950908649
Gjh:__Z78RuntimeInvoker_Void_t1185182177_BooleanU5BU5DU26_t3454195888_Int32_t2950945753PFvvEPK10MethodInfoPvPS4_
E$m:_TextGenerationSettings_CompareColors_m3051734236_AdjustorThunk
fNf:__ZN18UnityConnectClient33OnPlayerSessionStateChangedStaticEPS_jyy
szd:__ZN19ProcessContactsDataD2Ev
VJ:__ZN25RuntimeAnimatorController12CleanupClassEv
kLh:_Comparer_1__cctor_m298632577_gshared
UEj:_RSA_ToXmlString_m2922661427
e0:__ZNK11UnityEngine15CloudWebService23WebRequestUploadHandler11GetProgressEv
ggl:_List_1_System_Collections_Generic_IEnumerableU3CTU3E_GetEnumerator_m1803486764_gshared
Zuc:__Z25PlayerPrefs_CUSTOM_GetIntP12Il2CppStringi
aTb:__ZN7ApiGLES4LoadE16GfxDeviceLevelGL
wcl:_List_1_System_Collections_ICollection_get_SyncRoot_m469757070_gshared
wne:__ZN5physx9NpPhysics15createAggregateEjb
qOo:__ZL61GUIContent_t3050628031_CustomAttributesCacheGenerator_m_ImageP21CustomAttributesCache
QUa:__ZN4crnd12crn_unpacker22decode_color_endpointsEv
AFn:__ZN15dense_hashtableI10KeyWrapperIP18Il2CppGenericClassES3_N6il2cpp8metadata22Il2CppGenericClassHashEN14dense_hash_setIS3_S6_NS3_14EqualsComparerINS5_25Il2CppGenericClassCompareEEENSt3__29allocatorIS3_EEE8IdentityESA_SD_E15insert_noresizeERKS3_
zGc:__ZZL31RegisterOtherRendererPropertiesR22GenericPropertyBindingEN30Wrapper_RendererReceiveShadows13GetFloatValueEPv
fwa:__ZN8Vector4f8TransferI18StreamedBinaryReadILb0EEEEvRT_
GOd:__ZN9Rigidbody5ResetEv
x1h:_Array_InternalArray__ICollection_Contains_TisSlot_t384495010_m688761886_gshared
tUa:__ZN17SharedTextureDataC2E10MemLabelIdii13TextureFormatjiibb
v9g:__Z114RuntimeInvoker_RuntimeObject_RuntimeObject_Int32_t2950945753_Int32_t2950945753_Int32_t2950945753_Int32_t2950945753PFvvEPK10MethodInfoPvPS4_
lMb:__ZN8Material11SetPassFastEPN9ShaderLab4PassER17ShaderPassContextP6Shaderib
QMf:__ZN11UnityEngine7Connect20BasePersistentValues10SaveValuesER9JSONWrite
GJk:_ShimEnumerator_MoveNext_m2632237013_gshared
cak:_DateTime_System_IConvertible_ToDouble_m2116720007
Oij:_BitConverterLE_GetUIntBytes_m795219058
eri:_Display_GetSystemExtImpl_m2808197389
vTg:__Z114RuntimeInvoker_Int32_t2950945753_RuntimeObject_RuntimeObject_Int32_t2950945753_Int32_t2950945753_Int32_t2950945753PFvvEPK10MethodInfoPvPS4_
feg:_SByte_Parse_m2899090751
W9c:__ZN11ShapeModule18MultiModeParameterIN25IParticleSystemProperties8PropertyIfNS1_5ClampILi0ELi360EEEEEE8TransferI19StreamedBinaryWriteILb0EEEEvRT_
ISm:__ZL25UnresolvedVirtualCall_110P12Il2CppObjectyPK10MethodInfo
Dai:_Promise_1_InvokeHandler_TisRuntimeObject_m339964354_gshared
qqa:__ZN9Scripting11UnityEngine20ManagedStreamHelpers12CleanupProxyEv
AXi:_X509Certificate_PEM_m1177570576
yvh:_InternalEnumerator_1_System_Collections_IEnumerator_get_Current_m4069223264_gshared
Drh:_ArrayReadOnlyList_1_GetEnumerator_m1835926958_gshared
C$e:__ZN5physx9PxTaskMgr12addReferenceEj
U0f:_TMP_MeshInfo_Clear_m2171221426_AdjustorThunk
ZMc:__Z14ScaleCurveTimeR17AnimationCurveTplIfEf
Sda:__ZN20GlobalCachingManager7DisposeEv
Q1b:__Z12SetupLODFadeR9GfxDeviceR17ShaderPassContextf
SQa:__ZNK14PlayableOutput7GetTypeEv
O0c:__ZN9JSONWrite8TransferI13dynamic_arrayI4AABBLj0EEEEvRT_PKc17TransferMetaFlags
oco:__ZL69Type_t_CustomAttributesCacheGenerator_Type_GetConstructors_m576905011P21CustomAttributesCache
wsm:_Predicate_1__ctor_m4256519903_gshared
u6n:_TileController__ctor_m2109448571
U7b:__ZL24CollectForwardObjectsJobP27CollectForwardObjectsHeader
S8l:_List_1_get_Item_m1378751541_gshared
O2c:__ZN8JSONRead21TransferSTLStyleArrayI13dynamic_arrayIdLj0EEEEvRT_17TransferMetaFlags
oac:__Z13IsNodeVisibleRK9SceneNodeRK4AABBRK22SceneCullingParameters
s5g:__Z54RuntimeInvoker_LayerMask_t3493934918_Int32_t2950945753PFvvEPK10MethodInfoPvPS4_
ISg:__Z44RuntimeInvoker_RuntimeTypeHandle_t3027515415PFvvEPK10MethodInfoPvPS4_
MIh:__ZN21InterfaceFuncInvoker1IibE6InvokeEjP11Il2CppClassP12Il2CppObjectb
XUh:__ZN30GenericInterfaceActionInvoker1IP20Delegate_t1188392813E6InvokeEPK10MethodInfoP12Il2CppObjectS1_
fvk:_SortKeyBuffer_AppendCJKExtension_m2591091991
ird:__ZN11ShapeModuleC2E10MemLabelId
Vkk:_UTF8Encoding_GetByteCount_m4153686982
Jyp:_emscripten_glStencilMask__wrapper
hRg:__Z49RuntimeInvoker_Void_t1185182177_Double_t594665363PFvvEPK10MethodInfoPvPS4_
Gdn:__ZN15dense_hashtableI10KeyWrapperIPK19Il2CppGenericMethodES4_N6il2cpp8metadata23Il2CppGenericMethodHashEN14dense_hash_setIS4_S7_NS4_14EqualsComparerINS6_26Il2CppGenericMethodCompareEEENSt3__29allocatorIS4_EEE8IdentityESB_SE_EC2ERKSH_j
gfn:__ZN15dense_hashtableINSt3__24pairIK10KeyWrapperIN6il2cpp5utils13dynamic_arrayIPK10Il2CppTypeLj4EEEEPFvvEEESA_NS3_8metadata19Il2CppSignatureHashEN14dense_hash_mapISA_SD_SG_NSA_14EqualsComparerINSF_22Il2CppSignatureCompareEEENS0_9allocatorISE_EEE9SelectKeyESK_SM_EC2EjRKSG_RKSK_RKSO_
YBa:__ZN15RenderNodeQueue7CleanupEv
AXh:_MonoMethodInfo_GetReturnType_m914391169
Vhb:__ZNK17ArchiveFileSystem8PositionERK13FileEntryData
$Kd:__ZN16NovodexAllocator8allocateEjPKcS1_i
o7b:__Z17PrepareShadowMapsRK11CullResultsRK11ActiveLightRK10MinMaxAABB
Kpm:_DeriveBytes_DeriveIV_m973925711
bXj:_Int32_System_IConvertible_ToSByte_m3133688512
epn:__ZN30dense_hashtable_const_iteratorINSt3__24pairIK10KeyWrapperINS1_IPK11Il2CppImageP11Il2CppClassEEEjEES9_17ReflectionMapHashIS8_EN14dense_hash_mapIS9_jSD_NS9_14EqualsComparerINS0_8equal_toIS8_EEEENS0_9allocatorISB_EEE9SelectKeyESI_SK_EppEv
FLo:__ZL117AudioSource_t3935305588_CustomAttributesCacheGenerator_AudioSource_INTERNAL_CALL_ClearExtensionProperties_m2159298662P21CustomAttributesCache
zUf:__ZN9Scripting11UnityEngine12Experimental23SubsystemDescriptorBase9InitProxyEv
AXl:_ReadOnlyCollection_1_System_Collections_IList_IndexOf_m848971554_gshared
Whp:_AudioSampleProvider_get_id_m2692334523
QSm:__ZL25UnresolvedVirtualCall_118P12Il2CppObjectssiPK10MethodInfo
Q7b:__ZN9ShaderLab10GrabPassesD2Ev
XOm:_OnTrigger_Invoke_m2120872091
tSa:__ZN14Texture2DArray13UploadTextureEv
LOi:_MaskableGraphic_UpdateCull_m2805101913
Nuf:_tt_cmap14_done
Vab:__ZN18AwakeFromLoadQueue25RegisterObjectInstanceIDsEv
Tdf:__ZN5physx21PxProfileNameProviderD2Ev
TIi:_InputField_UpdateLabel_m1837760870
vOk:_Transform_1_EndInvoke_m332304766_gshared
U7f:_TMP_Text_AddFloatToCharArray_m3062272884
wIh:_ArraySegment_1_Equals_m3304116411_gshared
Vsg:_StandaloneInputModule_set_forceModuleActive_m2237222402
UA:__ZNK27AnimationLayerMixerPlayable11DerivesFromE17ScriptingClassPtr
umf:__ZN20TextRenderingPrivate19NativeTextGenerator15InsertCharacterEiPj
HTm:__ZL25UnresolvedVirtualCall_163P12Il2CppObject19Vector2_t2156229523S0_PK10MethodInfo
QIe:__ZN5physx2Sc5Scene22removeBroadPhaseRegionEj
YTg:__Z77RuntimeInvoker_Void_t1185182177_RuntimeObject_SByte_t1669577662_RuntimeObjectPFvvEPK10MethodInfoPvPS4_
IUg:__Z81RuntimeInvoker_Void_t1185182177_RuntimeObject_SByte_t1669577662_SByte_t1669577662PFvvEPK10MethodInfoPvPS4_
o1d:__ZN5physx2Cm12RenderBuffer5clearEv
FBk:_Enumerator_get_CurrentValue_m3438280969_gshared
sti:_SpriteBone_t303320096_marshal_pinvoke_back
Cue:__ZNK5physx2Sc9ClothCore21getStiffnessFrequencyEv
C0o:__ZL108TMPro_ExtensionMethods_t1453208966_CustomAttributesCacheGenerator_TMPro_ExtensionMethods_Multiply_m885351763P21CustomAttributesCache
Ktd:__ZN11b2RopeJoint24SolveVelocityConstraintsERK12b2SolverData
kyj:_MonoType_get_attributes_m1332507727
DIm:_GUIContent_ClearStaticCache_m1205116045
p5l:_List_1_System_Collections_IList_get_IsFixedSize_m203251153_gshared
TMo:__ZL107DownloadHandler_t2937767557_CustomAttributesCacheGenerator_DownloadHandler_InternalGetByteArray_m4277508027P21CustomAttributesCache
m6c:__ZN24OptimizedPolynomialCurve19BuildOptimizedCurveERK17AnimationCurveTplIfEf
gRe:__ZN5physx13PxsCCDContext14postCCDAdvanceEPNS_10PxBaseTaskE
KJj:_WindowsIdentity_Dispose_m3466258450
Bz:__ZN17AnimationPlayableD0Ev
zBb:__Z18Transfer_BlittableI19StreamedBinaryWriteILb0EELb0EyEvRK29SerializationCommandArgumentsR31RuntimeSerializationCommandInfo
ONg:_BinaryCommon__cctor_m2978407547
g2:__GLOBAL__sub_I_Runtime_Burst_0_cpp
T5b:__Z19GetReflectionSampleRK23ReflectionProbesContextRK22ActiveReflectionProbesRK27PerObjectLightCullingOutputRK10RenderNodejP16ReflectionSample
gVk:_Dictionary_2_System_Collections_Generic_ICollectionU3CSystem_Collections_Generic_KeyValuePairU3CTKeyU2CTValueU3EU3E_Contains_m2599845875_gshared
d1n:_PowerUpBulletPower_Update_m1587125046
kGc:__ZN28ReflectionProbeAnchorManager23HandleAnchorDestructionEPK15TransformAccessj
qdo:__ZL47ASN1_t2114160832_CustomAttributesCacheGeneratorP21CustomAttributesCache
_zn:__ZN6il2cpp6icalls8mscorlib6System2IO6MonoIO20GetFileSystemEntriesEP12Il2CppStringS6_iiPi
NPf:__ZL65__ManagedRegistrationHelperFunction_UnityWebRequestAsyncOperationPv
yBm:_IndexedSet_1__ctor_m2250384602_gshared
CBl:_DefaultComparer__ctor_m1306123661_gshared
Urk:_UInt16_TryParse_m4139137016
KQc:__Z41MonoBehaviour_Set_Custom_PropUseGUILayoutP12Il2CppObjecth
QKn:__ZN6il2cpp5utils13dynamic_arrayIPNS_2os6ThreadELj4EE9push_backEv
gpa:__ZN9Scripting11UnityEngine15ResourceRequest12CleanupProxyEv
yKn:__ZN6il2cpp2gc16GarbageCollector9FreeFixedEPv
Mhk:_Encoding__ctor_m2997749867
cvi:_ManagedStreamHelpers_ManagedStreamSeek_m3158782053
c3k:_ExpressionAssertion_Compile_m2166597834
Srb:__ZN16ScriptingManagerD0Ev
YKj:_Single_System_IConvertible_ToSByte_m1208276900_AdjustorThunk
Apj:_TlsClientCertificate_ProcessAsSsl3_m3265529850
COn:__ZN6il2cpp6icalls8mscorlib6System7Convert24InternalFromBase64StringEP12Il2CppStringb
xXe:__ZNK5physx10BPWorkTask7getNameEv
Gje:__ZN5physx2Sc8ShapeSim16onResetFilteringEv
Zcg:_RuntimeFieldHandle_GetObjectData_m95767031_AdjustorThunk
Dhd:__Z25UpdateOrbitalAndRadialTplIL27ParticleSystemCurveEvalMode0ELS0_1ELS0_0EEvRK11MinMaxCurveS3_S3_S3_S3_S3_S3_R23ParticleSystemParticlesjjRKN4math8float3x3ERKNS6_7affineXERKNS6_7_float4E
QDn:__ZN30dense_hashtable_const_iteratorINSt3__24pairIK10KeyWrapperINS1_IPKcS4_EEEiEES6_24NamespaceAndNamePairHashN14dense_hash_mapIS6_iS9_NS6_14EqualsComparerI26NamespaceAndNamePairEqualsEENS0_9allocatorIS8_EEE9SelectKeyESD_SF_EppEv
UTc:__Z44Register_UnityEngine_Component_get_transformv
Jai:_Array_InternalArray__ICollection_Add_TisTableRange_t3332867892_m1428005761_gshared
Itc:__Z39GameObject_CUSTOM_FindGameObjectWithTagP12Il2CppString
AG:__ZN12_GLOBAL__N_120ProcessPlayableGraphERN8Animator11AnimatorJobER35AnimationPlayableEvaluationConstantR32AnimationPlayableEvaluationInputR33AnimationPlayableEvaluationOutputPFvS4_R17AnimationPlayableEPFvS4_S6_S8_EPFvS8_S4_S6_S8_fESE_MS9_FvPS3_PS5_PS7_E
L1m:_CanvasRenderer_get_absoluteDepth_m2703237819
JUj:_TextInfo_ToLower_m2744057472
h7d:__ZN5physx2Sc16ActorInteractionD2Ev
dZb:__ZN17ArchiveFileSystem12MountArchiveEPKcS1_
ncn:__ZN14dense_hash_mapI10KeyWrapperIP9FieldInfoEiN6il2cpp5utils11PointerHashIS1_EENS3_14EqualsComparerINSt3__28equal_toIS2_EEEENS9_9allocatorINS9_4pairIKS3_iEEEEE15set_deleted_keyERSF_
pFl:_EqualityComparer_1_System_Collections_IEqualityComparer_Equals_m3977314386_gshared
a$c:__Z18Transfer_BlittableI9JSONWriteLb1E8Vector4fEvRK29SerializationCommandArgumentsR31RuntimeSerializationCommandInfo
I7:__Z11RequireTypePKcS0_S0_
QQj:_CCGregorianCalendar_year_from_fixed_m463929682
WBf:__ZN2UI13CanvasManagerD0Ev
I6i:_ReadOnlyArrayListWrapper_Sort_m2577012511
Zmi:_Debug_get_unityLogger_m2239795986
oke:__ZN5physx2Sc16ArticulationCore26setExternalDriveIterationsEj
OOl:_ReadOnlyCollection_1_System_Collections_IEnumerable_GetEnumerator_m2123446296_gshared
xjj:_MD2Managed_Initialize_m2341076836
xXl:_ReadOnlyCollection_1_System_Collections_IList_Add_m4240023232_gshared
qnb:__ZN9GfxDevice15ImmediateVertexEfff
exk:_BigInteger_op_Modulus_m1987692259
vYa:__ZNK16LightmapSettings22GetTypeVirtualInternalEv
$Ga:__ZN16GraphicsSettings13AwakeFromLoadE17AwakeFromLoadMode
x2f:_TMP_Style_set_name_m734708838
Er:__ZN6Object13AwakeFromLoadE17AwakeFromLoadMode
wPb:__ZN13GfxDeviceGLES15SetStencilStateEPK18DeviceStencilStatei
j0j:__ZN28GenericInterfaceFuncInvoker3IiP22ByteU5BU5D_t4116647657iiE6InvokeEPK10MethodInfoP12Il2CppObjectS1_ii
I2i:_Buffer_BlockCopyInternal_m418318694
yjp:_cycle
ZGo:__ZL138SupportedRenderingFeatures_t353898663_CustomAttributesCacheGenerator_SupportedRenderingFeatures_get_supportedLightmapBakeTypes_m1596512019P21CustomAttributesCache
sOn:__ZN6il2cpp2vm8Profiler7GCEventE13Il2CppGCEvent
YSg:__Z76RuntimeInvoker_Void_t1185182177_RuntimeObject_RuntimeFieldHandle_t1871169219PFvvEPK10MethodInfoPvPS4_
PJl:_Collection_1_ConvertItem_m4023613763_gshared
Ylg:_TextMeshPro_GetTextInfo_m3192935234
Lhg:_Rijndael_Create_m3053077028
te:_emscripten_glUniform1iv
aqb:__ZN13ComputeShader14SetBufferParamEjRKN9ShaderLab16FastPropertyNameE15ComputeBufferIDb
AFl:_EqualityComparer_1_get_Default_m1095255266_gshared
dwd:__ZN15b2DistanceProxy3SetEPK7b2Shapei
y8h:_Array_InternalArray__IndexOf_TisKeyValuePair_2_t1383673463_m3347832327_gshared
cip:__ZN25GenericVirtActionInvoker1IjE6InvokeEPK10MethodInfoP12Il2CppObjectj
hkb:__ZN16MemoryFileSystemD2Ev
nTg:__Z150RuntimeInvoker_Int32_t2950945753_RuntimeObject_Int32_t2950945753_Int32_t2950945753_RuntimeObject_Int32_t2950945753_Int32_t2950945753_Int32_t2950945753PFvvEPK10MethodInfoPvPS4_
m8f:_TMP_Text_GetPreferredValues_m2784517200
R4j:_DateTime_Parse_m3729096069
n1o:__ZL61OptionData_t1114640268_CustomAttributesCacheGenerator_m_ImageP21CustomAttributesCache
qkg:_MaterialReferenceManager_TryGetMaterial_m183071449
l3l:_List_1_System_Collections_IList_Add_m1540114404_gshared
X1f:_TMP_SpriteAnimator_Awake_m377449737
psh:_InternalEnumerator_1_System_Collections_IEnumerator_Reset_m81420524_AdjustorThunk
pHa:__ZN16GraphicsSettings27SetLightsUseLinearIntensityEb
mCd:__ZN29b2InitializeContactSolverTask7TaskJobEPS_j
P9l:_List_1_get_Count_m576380744_gshared
uGc:__ZZN8Renderer15InitializeClassEvEN32FunctorImpl_146kCullSceneChanged4CallEPviR11MessageData
k0n:_JSON_SerializeArray_m1553454783
avj:_StringReader_Read_m3322058819
xEg:_CrossAppDomainChannel_get_ChannelPriority_m3418073750
tCl:_EqualityComparer_1__ctor_m1860346363_gshared
HLi:_Selectable_StartColorTween_m3618813981
EWe:__ZNK5physx16PxsBroadPhaseMBP18getNumDeletedPairsEv
Zog:_BaseInputModule_HandlePointerExitAndEnter_m1705532066
OUh:_EventInfo__ctor_m3033129999
Dhf:__ZN5physx7profile8ZoneImplINS_28PxProfileNameProviderForwardEE10startEventEty
lRm:__ZL24UnresolvedVirtualCall_33P12Il2CppObjectiS0_S0_PK10MethodInfo
ARe:__ZN5physx10PxsCCDPair17sweepAdvanceToToiEfb
Ewc:__ZN15ApplicationInfo16GetInstallerNameEv
Lgc:__Z23ConvertIntegerToTypePtrItEbPvR14SafeBinaryRead
Zek:_Delegate_CombineImpl_m3572135514
RHc:__Z13RegisterClassI15EditorExtensionEvPKc
yAj:_NumberFormatter_IntegerToString_m1679294587
eGj:_SHA256Managed_AddLength_m1060552216
KUl:_ReadOnlyCollection_1_System_Collections_IList_RemoveAt_m422909114_gshared
mH:__ZN7mecanim5human29HumanGetGoalOrientationOffsetENS0_4GoalE
Ke:_emscripten_glStencilFunc
R_o:__ZL78LayoutRebuilder_t541313304_CustomAttributesCacheGenerator_U3CU3Ef__amU24cache2P21CustomAttributesCache
Iie:__ZN5physx6shdfnd8PoolBaseINS_2Cm5BlockIhLj384EEENS0_19ReflectionAllocatorIS4_EEE17releaseEmptySlabsEv
C5e:__ZN5physx16PxsIslandManager11freeBuffersEv
MQm:__ZL23UnresolvedVirtualCall_6P12Il2CppObjectiPK10MethodInfo
ZPl:_ReadOnlyCollection_1_System_Collections_IList_Contains_m1942059508_gshared
e$j:_FileInfo_Open_m2640035097
Sjf:__ZN5Unity12PhysicsQuery21OverlapBoxUserCollectERK8Vector3fS3_RK11Quaternionfi23QueryTriggerInteractionRN8IPhysics12IUserCollectE
Dnc:__ZN9ShaderLab20SerializedSubProgram14AddMatrixParamEPKcii15ShaderParamTypei
Re:_glGetActiveUniformBlockName
tUo:__ZL90PointerEventData_t3807901092_CustomAttributesCacheGenerator_U3CpointerIdU3Ek__BackingFieldP21CustomAttributesCache
Zz:__ZN7mecanim13CopyValueMaskILb0EEEvPKNS_14ValueArrayMaskEPS1_
q1f:_TMP_Settings_get_enableWordWrapping_m1488159339
OQg:__Z67RuntimeInvoker_Int32_t2950945753_RuntimeObject_Int32U26_t1369213839PFvvEPK10MethodInfoPvPS4_
gdl:_List_1_set_Item_m1240329677_gshared
x3k:_Parser_IsIgnoreCase_m2210120858
Ukd:__ZN31CollisionModulePropertyBindings13GetFloatValueERK14ParticleSystemi
mlh:__Z57RuntimeInvoker_TMP_WordInfo_t3331066303_Int32_t2950945753PFvvEPK10MethodInfoPvPS4_
xIj:_SecurityPermission_IsSubsetOf_m545000671
R2h:_Array_InternalArray__ICollection_Remove_TisLink_t3209266973_m897088622_gshared
Jcb:__ZN27UnloadUnusedAssetsOperationD0Ev
$O:__ZN4FMOD7Channel20set3DConeOrientationEP11FMOD_VECTOR
to:FUNCTION_TABLE_iiifii
KMh:_AssemblyBuilder_not_supported_m1735277432
DFh:_InternalEnumerator_1_MoveNext_m1344185775_AdjustorThunk
THn:__ZN6il2cpp2vm12GenericClass11SetupEventsEP11Il2CppClass
nnf:_ft_open_face_internal
jvf:_tt_cmap12_get_info
_8i:_Hashtable_get_Keys_m625158339
_Cn:__ZN6il2cpp2vm15ReboxIReferenceEP14Il2CppIUnknownP11Il2CppClass
qal:_Enumerator__ctor_m2029608698_AdjustorThunk
Rxm:_InvokableCall_3_add_Delegate_m3928852530_gshared
B5m:__ZN6il2cpp6icalls8mscorlib6System7Decimal14decimalCompareEP19il2cpp_decimal_reprS5_
Xvl:_Dictionary_2_OnDeserialization_m4209543208_gshared
c4o:__ZL66TMP_Text_t2599618874_CustomAttributesCacheGenerator_m_fontMaterialP21CustomAttributesCache
Lll:_List_1_Sort_m2303854311_gshared
Qde:__ZN5physx26PxcFsComputeJointLoadsSimdERKNS_9PxcFsDataEPKNS_12PxcFsInertiaEPNS_6shdfnd3aos6Mat33VEPKfjjNS_21PxcFsScratchAllocatorE
tDe:__ZN5physx6shdfnd8SyncImpl7getSizeEv
NEj:_RNGCryptoServiceProvider_GetNonZeroBytes_m1918423726
zko:__ZL62SoapMethodAttribute_t1935009310_CustomAttributesCacheGeneratorP21CustomAttributesCache
U1g:__Z100RuntimeInvoker_Void_t1185182177_RuntimeObject_Int32_t2950945753_Int32_t2950945753_UInt16_t2177724958PFvvEPK10MethodInfoPvPS4_
Jgd:__Z25UpdateOrbitalAndRadialTplIL27ParticleSystemCurveEvalMode2ELS0_3ELS0_2EEvRK11MinMaxCurveS3_S3_S3_S3_S3_S3_R23ParticleSystemParticlesjjRKN4math8float3x3ERKNS6_7affineXERKNS6_7_float4E
yvp:_glCopyTexImage2D__wrapper
jJd:__ZN16PhysicsManager2D11CreateWorldERK8Vector2f
hgk:_Double_System_IConvertible_ToUInt32_m271206838
w4k:_Uri__ctor_m4293005803
Odi:_Dns_GetHostAddresses_m878956259
tPd:__ZN5physx11PxHitBufferINS_12PxRaycastHitEED0Ev
txg:_FloatTween_TweenValue_m52237061
n$f:_TMP_InputField_AdjustRectTransformRelativeToViewport_m2545853035
wMb:__Z18ClearByDrawingQuad13GfxClearFlagsRK10ColorRGBAffjR17ShaderPassContext
Fja:__ZN6prcoreL17RemapGenericFloatI14TexFormatRHalf15TexFormatRFloatEEvPKNS_9InnerInfoE
WAj:_NumberFormatter_FormatExponential_m2139559983
mXg:__Z155RuntimeInvoker_Void_t1185182177_RuntimeObject_SByte_t1669577662_SByte_t1669577662_Int64U26_t200113976_ObjectU26_t2146539884_SerializationInfoU26_t419328957PFvvEPK10MethodInfoPvPS4_
mga:__ZN15DirectorManager21RebuildStageCallbacksEv
OMb:__ZN19RuntimeSceneManager9LoadSceneERKN4core12basic_stringIcNS0_20StringStorageDefaultIcEEEES6_S6_RK9UnityGUIDiNS_11LoadingModeE
WCk:_Enumerator_Reset_m1756580451_gshared
$mi:_Application_Internal_ApplicationQuit_m2936209313
eSb:__ZN7ApiGLES10DrawArraysE16GfxPrimitiveTypejjj
kll:_List_1_System_Collections_IList_get_IsReadOnly_m2500128275_gshared
lWd:__ZN5physx3Cct13BoxController15getPxControllerEv
VS:__ZN10SampleClip13LoadBaseSoundEv
cSd:__ZN5physx2Gu22gjkRelativePenetrationINS0_17ShrunkConvexHullVES2_EEjRKT_RKT0_RKNS_6shdfnd3aos15PsMatTransformVERKNSA_6FloatVERNSA_5Vec3VESI_SI_RSE_PhSK_Rh
gZi:_SmallXmlParser_SkipWhitespaces_m4243606597
Wfm:_Collection_1_get_Count_m2512410151_gshared
KRj:_CompareInfo_IndexOf_m2631915198
QBd:__ZN43b2SolveVelocityConstraintsContactSolverTaskD0Ev
Cvb:__ZN14SafeBinaryRead21TransferSTLStyleArrayI13dynamic_arrayI10Matrix4x4fLj0EEEEvRT_17TransferMetaFlags
_Ig:_MethodCall__ctor_m3669645
k3i:_Byte_CompareTo_m4285128861
oqg:_TriggerEvent__ctor_m87299207
P$g:__Z48RuntimeInvoker_ExchangeAlgorithmType_t1320888206PFvvEPK10MethodInfoPvPS4_
EUf:__ZN9Scripting11UnityEngine12Experimental27Internal_SubsystemInstances12CleanupProxyEv
Jmc:__ZNSt3__26__treeINS_12__value_typeIN4core12basic_stringIcNS2_20StringStorageDefaultIcEEEEiEENS_19__map_value_compareIS6_S7_NS_4lessIS6_EELb1EEENS_9allocatorIS7_EEE25__emplace_unique_key_argsIS6_JNS_4pairIS6_iEEEEENSG_INS_15__tree_iteratorIS7_PNS_11__tree_nodeIS7_PvEEiEEbEERKT_DpOT0_
pW:__Z57AudioSource_CUSTOM_INTERNAL_CALL_ClearExtensionPropertiesP12Il2CppObjectRK12PropertyName
MHn:__ZN15dense_hashtableINSt3__24pairIK10KeyWrapperIP12Il2CppObjectEN6il2cpp2gc9CachedCCWEEES5_NS7_5utils11PointerHashIS3_EEN14dense_hash_mapIS5_S9_SD_NS5_14EqualsComparerINS0_8equal_toIS4_EEEENS0_9allocatorISA_EEE9SelectKeyESI_SK_E15insert_noresizeERKSA_
And:__ZL17DrawMeshParticlesILb0EL25ParticleSystemRenderSpace3EEvRK26ParticleSystemTempMeshDataRK22ParticleSystemTempDataRK23ParticleSystemParticlesRK31ParticleSystemParticlesTempDataRK26ParticleSystemRendererDataRK21ParticleSystemModulesPfPv
GMk:_Transform_1_Invoke_m2167534993_gshared
A6e:__ZN5physx2Sc19ParticlePacketShapeC2ERNS0_17ParticleSystemSimEjPNS_16PxvParticleShapeE
w5f:_TMP_Text_set_paragraphSpacing_m3392922741
NQa:__ZN22DeviceMVPMatricesStateC2ER9GfxDevice
X8f:_TMP_Text_PackUV_m2186616011
ied:__Z9UpdateTplIL27ParticleSystemCurveEvalMode1EEvRK11MinMaxCurveS3_S3_R23ParticleSystemParticlesjjRKN4math8float3x3ERKNS6_7_float4E
yne:__ZN5physx9NpPhysics18createTriangleMeshERNS_13PxInputStreamE
Fo:FUNCTION_TABLE_iiiiifiiiif
$n:FUNCTION_TABLE_iifii
Qui:_Logger_set_logEnabled_m1180597166
P7i:_Comparer_Compare_m3984347512
Dwo:__ZL64NativeMethodAttribute_t4187428193_CustomAttributesCacheGeneratorP21CustomAttributesCache
v2e:__ZN5physx2Cm12DelegateTaskINS_2Sc5SceneEXadL_ZNS3_14updateDynamicsEPNS_10PxBaseTaskEEEED0Ev
$sn:__ZN6il2cpp2vm10Reflection12HasAttributeEP9FieldInfoP11Il2CppClass
hra:__ZN9Scripting11UnityEngine12Experimental9Rendering11CullResults9InitProxyEv
Sc:invoke_viiifi
xAc:__Z13RegisterClassI6SpriteEvPKc
vYh:_MonoProperty_GetCustomAttributes_m3619796755
xzh:_InternalEnumerator_1_MoveNext_m4132713223_AdjustorThunk
Kaf:__ZN5physx6shdfnd5ArrayIPNS_7PxActorENS0_19ReflectionAllocatorIS3_EEE8recreateEj
tKg:_MethodDictionary_System_Collections_IEnumerable_GetEnumerator_m4169036899
lZi:__ZN23InterfaceActionInvoker2IP8String_tP12Il2CppObjectE6InvokeEjP11Il2CppClassS3_S1_S3_
DMk:_Transform_1_BeginInvoke_m1042516857_gshared
Xzo:__ZL81Mathf_t3464937446_CustomAttributesCacheGenerator_Mathf_NextPowerOfTwo_m1637187628P21CustomAttributesCache
WXl:_ReadOnlyCollection_1_System_Collections_Generic_IListU3CTU3E_get_Item_m3666607533_gshared
uEj:_RIPEMD160Managed_JJJ_m4161373884
qEg:_CrossContextChannel__ctor_m3755842292
aAl:_DefaultComparer_Equals_m3257444875_gshared
$f:_JS_Sound_SetPosition
FLa:__ZN19RenderBufferManager13GetTempBufferEii17DepthBufferFormat19RenderTextureFormatj22RenderTextureReadWrite14VRTextureUsagei23RenderTextureMemoryless
Ygm:_Collection_1_System_Collections_IList_get_IsFixedSize_m4038894826_gshared
Bgn:__ZL13GetSharedInstPK17Il2CppGenericInst
XUo:__ZL98PointerEventData_t3807901092_CustomAttributesCacheGenerator_PointerEventData_get_delta_m1062010255P21CustomAttributesCache
bGa:__Z27ConvertSubMeshesToTrianglesIjEvR13dynamic_arrayI7SubMeshLj0EERS0_IhLj0EE
$bn:__ZNK15dense_hashtableINSt3__24pairIK10KeyWrapperIPKcEP11Il2CppClassEES5_N6il2cpp5utils11StringUtils12StringHasherIS4_EEN14dense_hash_mapIS5_S8_SE_NS5_14EqualsComparerINSB_13VmStringUtils21CaseSensitiveComparerEEENS0_9allocatorIS9_EEE9SelectKeyESJ_SL_E3endEv
Sxl:_Dictionary_2__ctor_m2253601317_gshared
FDh:_InternalEnumerator_1_System_Collections_IEnumerator_Reset_m1481388055_AdjustorThunk
LKf:__ZN22BaseUnityConnectClient17SaveSessionValuesEv
Eim:_Collection_1_RemoveAt_m1763805052_gshared
Jvh:_InternalEnumerator_1_get_Current_m476140818_gshared
Rqe:__ZNK5physx7NpCloth14getNbParticlesEv
VLh:_Enumerator_System_Collections_IEnumerator_get_Current_m1741827799_gshared
efl:_List_1__ctor_m688098763_gshared
V6k:_Enumerator__ctor_m450133467_AdjustorThunk
Nii:_NetworkStream_BeginRead_m194067695
r3d:__ZN5physx2Sc10NPhaseCore24releaseShapeInstancePairEPNS0_19ShapeInstancePairLLEjj
T4l:_List_1_Sort_m4240158523_gshared
YLo:__ZL83TextMesh_t1536577757_CustomAttributesCacheGenerator_TextMesh_set_anchor_m3559070145P21CustomAttributesCache
$Zm:_WaitForEndOfFrame__ctor_m1381314187
X7b:__Z24SetupActiveLightsContextR21ActiveLightingContextRK12ActiveLightsRK11CullResultsP14ShadowMapCacheRK10MinMaxAABB
eug:_AnimationTriggers_set_disabledTrigger_m933056574
lrc:__Z38Sprite_CUSTOM_INTERNAL_get_textureRectP12Il2CppObjectP5RectTIfE
qWg:__Z68RuntimeInvoker_Void_t1185182177_IntPtr_t_MonoMethodInfoU26_t91913876PFvvEPK10MethodInfoPvPS4_
okl:_List_1_Add_m238442097_gshared
Xtc:__ZN9TextAsset7SetTextERKN4core12basic_stringIcNS0_20StringStorageDefaultIcEEEE
KAa:__ZN6Camera8TransferI24GenerateTypeTreeTransferEEvRT_
Ua:invoke_iiiiiiif
Na:invoke_iiiiiiii
lsl:_Array_InternalArray__set_Item_TisByte_t1134296376_m3104140039_gshared
cbd:__ZN14qsort_internal30FindAndMovePivotToLastPositionIPPKN9SubModule14SubEmitterDataEiPFbS4_S4_EEEvT_S8_T0_T1_
$Ue:__ZN5physx21SapPostUpdateWorkTaskD0Ev
oYg:__Z194RuntimeInvoker_Int32_t2950945753_RuntimeObject_Int32_t2950945753_Int32_t2950945753_RuntimeObject_Int32_t2950945753_SByte_t1669577662_Int32U26_t1369213839_BooleanU26_t4125257963_SByte_t1669577662PFvvEPK10MethodInfoPvPS4_
q$f:_TMP_InputField_GraphicUpdateComplete_m3115504076
mqm:_PKCS12_GetBytes_m415958948
Ynj:_Context_get_HandshakeState_m2425796590
L$b:__ZN8Renderer17PendingAddToSceneEv
pje:__ZN5physx7NpActor18releaseConstraintsERNS_12PxRigidActorE
u1d:__ZN5physx6shdfnd5ArrayINS_11PxDebugLineENS0_19ReflectionAllocatorIS2_EEE8recreateEj
Oxp:b125
Mxp:b124
Nyp:b127
Pxp:b126
Pyp:b129
ksc:__Z52Register_UnityEngine_RectTransform_INTERNAL_get_rectv
HSc:__Z38Material_CUSTOM_SetMatrixImpl_InjectedP12Il2CppObjectiRK10Matrix4x4f
mze:__ZNK5physx22NpParticleBaseTemplateINS_16PxParticleSystemENS_16NpParticleSystemEE20getMaxMotionDistanceEv
s7:__Z21PostprocessStacktracePKcRN4core12basic_stringIcNS1_20StringStorageDefaultIcEEEE
GQo:__ZL73ContactFilter2D_t3805203441_CustomAttributesCacheGenerator_minNormalAngleP21CustomAttributesCache
V4n:_LinqEnumerator_System_Collections_IEnumerator_get_Current_m70747910
dvi:_ManagedStreamHelpers_ManagedStreamLength_m2930872960
Wrc:__Z43RectTransform_CUSTOM_INTERNAL_get_anchorMinP12Il2CppObjectP13Vector2fIcall
eBe:__ZNK5physx14NpRigidDynamic25getContactReportThresholdEv
t0j:_FileStreamAsyncResult_CBWrapper_m1670848754
zii:_NetworkStream_get_CanWrite_m3803109243
Pvc:__Z47Register_UnityEngine_Camera_get_allCamerasCountv
xve:__ZN5physx22NpParticleBaseTemplateINS_15PxParticleFluidENS_15NpParticleFluidEE16releaseParticlesEv
xv:__ZN16MecanimAnimation25RegisterIAnimationBindingEPKN5Unity4TypeEiP17IAnimationBinding
VLc:__ZNSt3__26vectorIj13stl_allocatorIjL18MemLabelIdentifier1ELi16EEE6assignIPKtEENS_9enable_ifIXaasr21__is_forward_iteratorIT_EE5valuesr16is_constructibleIjNS_15iterator_traitsIS9_E9referenceEEE5valueEvE4typeES9_S9_
RF:__ZN7mecanim9animation16EvaluateAvatarIKEPKNS0_14AvatarConstantEPKNS0_11AvatarInputEPNS0_12AvatarOutputEPNS0_12AvatarMemoryEPNS0_15AvatarWorkspaceEb
eC:__ZN26AnimatorControllerPlayable10GetIntegerEiRi
cgc:__Z29StdTemplateConversionFunctionIsiEbPvR14SafeBinaryRead
c2e:__Z22updateIslandsToProcessRKN5physx2Cm10BitMapBaseINS_6shdfnd9AllocatorEEEPKjRKNS_11NodeManagerERS4_
X_b:__ZN12InputManager13InputEndFrameEv
Aig:_ColorTween_GetDuration_m360696398_AdjustorThunk
ikn:__ZNSt3__26__treeIP11Il2CppClassNS_4lessIS2_EENS_9allocatorIS2_EEE25__emplace_unique_key_argsIS2_JRKS2_EEENS_4pairINS_15__tree_iteratorIS2_PNS_11__tree_nodeIS2_PvEEiEEbEERKT_DpOT0_
bng:_TextMeshProUGUI_UpdateMaterial_m902456839
yxi:_Object_get_name_m4211327027
rwn:__ZN6il2cpp2vm6Thread5SetupEP12Il2CppThread
FNd:__ZN8Collider30GetRelativePositionAndRotationERK9TransformR10Matrix4x4f
GRe:__ZN5physx35PxcSweepEstimateAnyShapeHeightfieldERKNS_11PxsCCDShapeES2_PKNS_12PxsRigidBodyES5_RKNS_11PxTransformES8_f
nRl:_ReadOnlyCollection_1_System_Collections_IList_get_IsReadOnly_m1248651675_gshared
wEk:_Enumerator_System_Collections_IDictionaryEnumerator_get_Key_m2500634048_gshared
H1d:__ZN5physx3Cct13BoxControllerC2ERKNS_16PxControllerDescERNS_9PxPhysicsEPNS_7PxSceneE
K$m:_TextGenerator_t3211863866_marshal_pinvoke_back
Dkp:___munmap
pAk:_RSAManaged_get_PublicOnly_m595121416
Sg:_localtime_r
k0b:__ZN22RenderingCommandBuffer13GetAndCheckRTE24BuiltinRenderTextureTypeRKN9ShaderLab16FastPropertyNameEPKcPP13RenderTexture
ddd:__ZN14ParticleSystem13KillParticlesILb1EEEvRjbR24ParticleSystemUpdateDataR23ParticleSystemParticlesjPj
HXf:_TMP_FontWeights_t916301067_marshal_pinvoke_back
Fyh:_InternalEnumerator_1_System_Collections_IEnumerator_Reset_m3619766341_AdjustorThunk
pod:__Z16UpdateSpritesTplIL27ParticleSystemCurveEvalMode3EEvfRK11MinMaxCurveS3_RK23ParticleSystemParticlesPf
Y2:__Z19free_alloc_internalPv10MemLabelId
wko:__ZL56ReturnMessage_t1376985608_CustomAttributesCacheGeneratorP21CustomAttributesCache
_u:__ZN9Scripting11UnityEngine10Animations18PositionConstraint9InitProxyEv
Vg:_strftime
WLa:__ZN7Texture33SetStoredColorSpaceNoDirtyNoApplyE17TextureColorSpace
d$h:_ResourceSet__ctor_m3618395942
ydk:_Decimal_System_IConvertible_ToDouble_m3125524987_AdjustorThunk
fca:__ZN12FileAccessorD2Ev
NAa:__ZN10ColorRGBAf8TransferI18StreamedBinaryReadILb0EEEEvRT_
qgo:__ZL48OpCode_t123070264_CustomAttributesCacheGeneratorP21CustomAttributesCache
qGa:__ZN14VertexDataInfoC2Ev
iKn:__ZN6il2cpp2gc16GarbageCollector14CollectALittleEv
xHo:__ZL87Sprite_t280657092_CustomAttributesCacheGenerator_Sprite_INTERNAL_get_border_m3728071101P21CustomAttributesCache
FJc:__ZNK9HPlayable15GetPlayableTypeEv
Qjh:__Z117RuntimeInvoker_Void_t1185182177_CustomAttributeTypedArgumentU5BU5DU26_t2503877664_Int32_t2950945753_Int32_t2950945753PFvvEPK10MethodInfoPvPS4_
MDb:__ZL17Transfer_GUIStyleI18StreamedBinaryReadILb1EELb1EEvRK29SerializationCommandArgumentsR31RuntimeSerializationCommandInfo
$cd:__ZNSt3__227__insertion_sort_incompleteIR31SortCollisionEventsByGameObjectP22ParticleCollisionEventEEbT0_S5_T_
YPi:_RectMask2D_IsRaycastLocationValid_m1652308696
v5:__ZNSt3__26__treeINS_12__value_typeIPKciEENS_19__map_value_compareIS3_S4_15compare_tstringIS3_ELb1EEENS_9allocatorIS4_EEE21__emplace_unique_implIJNS_4pairIPciEEEEENSD_INS_15__tree_iteratorIS4_PNS_11__tree_nodeIS4_PvEEiEEbEEDpOT_
hBk:_Enumerator_System_Collections_IDictionaryEnumerator_get_Value_m1780001393_AdjustorThunk
Dkn:__ZN6il2cpp6icalls8mscorlib6SystemL9IsPrivateEPK12PropertyInfo
vqm:_X501_ToString_m1148552872
MRe:__ZNK5physx18PxcConvexTriangles16getPolygonNormalEj
jEi:_RectTransform_add_reapplyDrivenProperties_m1374850920
G6:__ZN9shadertag10InitializeEv
Sdh:__Z69RuntimeInvoker_Void_t1185182177_Int32_t2950945753_Color32_t2600501292PFvvEPK10MethodInfoPvPS4_
Egf:__ZN5physx24NpPtrTableStorageManager8canReuseEjj
_jf:__GLOBAL__sub_I_Modules_Terrain_Public_1_cpp
BWa:__ZN15QualitySettings14QualitySetting8TransferI24GenerateTypeTreeTransferEEvRT_
rVn:__ZN6il2cpp5utils6Memory11AlignedFreeEPv
FMm:_UnityWebRequest_get_isHttpError_m797082501
WFe:__ZN5physx2Sc27ConstraintProjectionManager33processConstraintForGroupBuildingEPNS0_13ConstraintSimERNS0_20ScratchAllocatorListIS3_Lj64EEE
Emj:_Context_get_ClientWriteKey_m3174706656
XTo:__ZL77ExecuteEvents_t3484638744_CustomAttributesCacheGenerator_U3CU3Ef__mgU24cache7P21CustomAttributesCache
oJi:_InputField_get_textComponent_m948764648
Rzf:__Z28Font_Get_Custom_PropMaterialP12Il2CppObject
zsd:__ZL34CleanupModule_PerformanceReportingv
bfi:_IPEndPoint_get_Address_m834732349
Uah:__Z50RuntimeInvoker_RuntimeObject_Resources_t2155109485PFvvEPK10MethodInfoPvPS4_
apc:__ZN22BlockMemoryCacheWriter14LockCacheBlockEjPPhS1_
UWc:__ZNSt3__218__insertion_sort_3IRPFbPKN5IMGUI9GUIWindowES4_EPPS2_EEvT0_SA_T_
xBf:__ZN9Scripting11UnityEngine8Tilemaps8TileData12CleanupProxyEv
Weg:_CryptographicUnexpectedOperationException__ctor_m69881930
kye:__ZN5physx22NpParticleBaseTemplateINS_15PxParticleFluidENS_15NpParticleFluidEED2Ev
Hgm:_Collection_1_SetItem_m1218178236_gshared
_De:__ZN5physx2Cm29ConstraintImmediateVisualizer19visualizeDoubleConeERKNS_11PxTransformEfb
Ptk:_UInt64_ToString_m2177233542
uu:__ZN9Scripting11UnityEngine21StateMachineBehaviour9InitProxyEv
N2c:__Z22TransferField_NonArrayI8JSONRead27Converter_SimpleNativeClassI8GUIStyleEEvRK23StaticTransferFieldInfoR31RuntimeSerializationCommandInfoRT0_
WWd:__ZN5physx6shdfnd5ArrayINS_13PxExtendedBoxENS0_19ReflectionAllocatorIS2_EEE8recreateEj
Rra:__ZN9Scripting11UnityEngine26ExcludeFromPresetAttribute9InitProxyEv
C7d:__ZN5physx6shdfnd5ArrayIPvNS0_19ReflectionAllocatorINS_2Cm5BlockIS2_Lj16EEEEEE4copyINS0_15InlineAllocatorILj256ES7_EEEEvRKNS1_IS2_T_EE
Ah:_llvm_eh_typeid_for
l8i:_CollectionBase_OnClear_m883003723
Zvp:_glGetUniformLocation__wrapper
aKg:_RemotingServices_FindInterfaceMethod_m2125212568
Rbm:_Stack_1_System_Collections_ICollection_CopyTo_m1056090330_gshared
rD:__ZNK23AnimationPlayableOutput7GetTypeEv
CGe:__ZN5physx7NpScene19getActiveTransformsERjh
Huj:_StreamWriter__cctor_m1229272693
rJc:__ZN13RendererScene38UpdatePreviousFrameDataForRendererTypeEii12RendererType
b4e:__ZN5physx6shdfnd5ArrayIPKNS_24PxsIndexedContactManagerENS0_19ReflectionAllocatorIS4_EEE8recreateEj
U9g:__Z109RuntimeInvoker_RuntimeObject_Ray_t3785851493_Single_t1397266774_Int32_t2950945753_RuntimeObject_RuntimeObjectPFvvEPK10MethodInfoPvPS4_
fSm:__ZL24UnresolvedVirtualCall_81P12Il2CppObjectPK10MethodInfo
AQe:__ZN5physx6shdfnd8internal8HashBaseIjjNS0_4HashIjEENS1_11HashSetBaseIjS4_NS0_9AllocatorELb0EE6GetKeyES6_Lb0EE6createERKjRb
svh:_InternalEnumerator_1_MoveNext_m1543390728_gshared
_Vf:_TMP_Dropdown_get_value_m2972109009
bGb:__Z18Transfer_BlittableI18StreamedBinaryReadILb0EELb1E8Vector4fEvRK29SerializationCommandArgumentsR31RuntimeSerializationCommandInfo
rub:__ZNSt3__26vectorI17ScriptingFieldPtr13stl_allocatorIS1_L18MemLabelIdentifier1ELi16EEE21__push_back_slow_pathIRKS1_EEvOT_
xUj:_SortKey_get_OriginalString_m1428586816
C6l:_List_1_CheckMatch_m754192497_gshared
xah:__Z51RuntimeInvoker_Void_t1185182177_Vector4_t3319028937PFvvEPK10MethodInfoPvPS4_
rlf:__ZN14SafeBinaryRead21TransferSTLStyleArrayI13dynamic_arrayIN4core17string_with_labelILi35EEELj0EEEEvRT_17TransferMetaFlags
Bcm:_Collection_1_set_Item_m894620366_gshared
Bzl:_Dictionary_2_U3CCopyToU3Em__0_m2023886030_gshared
Reh:__Z64RuntimeInvoker_Boolean_t97287965_RefEmitPermissionSet_t484390987PFvvEPK10MethodInfoPvPS4_
eJk:_ShimEnumerator_MoveNext_m1353453605_gshared
jyp:_glBindVertexArray__wrapper
fdf:__ZN5physx6shdfnd5ArrayINS_11RTreeNodeNQENS0_19ReflectionAllocatorIS2_EEE19resizeUninitializedEj
n4d:__ZNK5physx2Sc16InteractionScene18getLLIslandManagerEv
O9f:_SerializationInfo__ctor_m2923079689
dPa:__ZN8Material8TransferI14SafeBinaryReadEEvRT_
jRe:__ZN5physx17PxcNpMemBlockPool34acquireExceptionalConstraintMemoryEj
vTa:__ZN12CubemapArray17UploadToGfxDeviceEv
T$l:_Func_2__ctor_m1150804732_gshared
yWj:_Int32_JumpOverWhite_m208298144
scn:__ZN15dense_hashtableINSt3__24pairIK10KeyWrapperIP9FieldInfoEiEES5_N6il2cpp5utils11PointerHashIS3_EEN14dense_hash_mapIS5_iSB_NS5_14EqualsComparerINS0_8equal_toIS4_EEEENS0_9allocatorIS7_EEE9SelectKeyESG_SI_E4swapERSL_
XVk:_Dictionary_2_System_Collections_ICollection_get_SyncRoot_m2353575981_gshared
vSe:__ZN5physxL23PxcSweepConvexTrianglesERKNS_11PxsCCDShapeES2_RKNS_11PxTransformES5_S5_S5_fRNS_6PxVec3ES7_RNS_10PxcNpCacheERNS_18PxcNpThreadContextERKNS_2Cm23FastVertex2ShapeScalingERNS_2Gu9TriangleVEf
Woe:__ZNK5physx7NpShape16getPlaneGeometryERNS_15PxPlaneGeometryE
ohh:__Z53RuntimeInvoker_Int32_t2950945753_UIVertex_t4057497605PFvvEPK10MethodInfoPvPS4_
$wp:_emscripten_glGetUniformiv__wrapper
bPn:__ZN6il2cpp2vm13ManagedObject14QueryInterfaceERK10Il2CppGuidPPv
pdf:__ZN5physx27InternalTriangleMeshBuilder14fillRemapTableEv
IP:__ZN11AudioSource4StopEb
Pbe:__ZN5physx6shdfnd8PoolBaseINS_13NpRigidStaticENS0_19ReflectionAllocatorIS2_EEE17releaseEmptySlabsEv
f_i:_AppDomain_LoadAssembly_m1557889794
ZZj:_BinaryWriter_Write_m340679106
RTn:__ZN6il2cpp2os14WindowsRuntime13DeleteHStringEP15Il2CppHString__
srb:__ZN18GlslGpuProgramGLESD2Ev
lec:__ZN13RenderTexture14SetVolumeDepthEi
Muo:__ZL69X509ChainElementCollection_t3110968994_CustomAttributesCacheGeneratorP21CustomAttributesCache
Ohf:__ZThn116_NK5physx7profile8ZoneImplINS_28PxProfileNameProviderForwardEE10hasClientsEv
E_e:__ZN5physx2Gu20pcmContactCapsuleBoxERKNS0_13GeometryUnionES3_RKNS_11PxTransformES6_RKfRNS0_5CacheERNS0_13ContactBufferE
k1g:__Z86RuntimeInvoker_Void_t1185182177_UInt16_t2177724958_SByte_t1669577662_SByte_t1669577662PFvvEPK10MethodInfoPvPS4_
qnc:__Z22LoadGpuProgramFromDataPKhS0_Rj
r3c:__ZN10Matrix4x4f8TransferI8JSONReadEEvRT_
wFm:_ZlibBaseStream_get_CanSeek_m1334254125
BFb:__Z15Transfer_StringI18StreamedBinaryReadILb0EELb0EEvRK29SerializationCommandArgumentsR31RuntimeSerializationCommandInfo
A4o:__ZL68TMP_Text_t2599618874_CustomAttributesCacheGenerator_m_lineSpacingMaxP21CustomAttributesCache
HPi:_PositionAsUV1_ModifyMesh_m4231919476
S8i:_Hashtable__ctor_m1941859523
p5b:__Z26FindForwardLightsForObjectR13dynamic_arrayIhLj0EEPK11CulledLightjRK12ActiveLightsRK10RenderNodePK19ShaderPropertySheetbRK23FindForwardLightsParamsf
Tna:__ZL44__ManagedRegistrationHelperFunction_GPUFencePv
DSi:_ScrollRect_set_horizontalScrollbarSpacing_m2209919081
gWb:__ZN25TransformFeedbackSkinning31CleanupTransformFeedbackShadersEv
eqk:_Type_GetTypeCodeInternal_m1968182887
rBa:__Z22scripting_object_unbox18ScriptingObjectPtr
K$h:_CriticalFinalizerObject__ctor_m3245424448
PIg:_AsyncResult_get_NextSink_m1844209137
wmf:__ZNK20TextRenderingPrivate8FontImpl19GetCharacterAdvanceEjijfPj
s1f:_TMP_Settings_get_enableExtraPadding_m167438525
$ip:_fmt_u
zcj:_Dictionary_2_Do_CopyTo_TisDictionaryEntry_t3123975638_TisDictionaryEntry_t3123975638_m1126292988_gshared
D_a:__ZN10VertexData8TransferI18StreamedBinaryReadILb0EEEEvRT_
Dbe:__ZN5physx2Sc5Scene9addStaticERNS0_10StaticCoreEPKPvjj
ibo:__ZL81RuntimeArray_CustomAttributesCacheGenerator_Array_GetValue_m116098292____indices0P21CustomAttributesCache
aCg:_HorizontalOrVerticalLayoutGroup_set_childForceExpandHeight_m1754245348
GGf:__ZN2UI29ResetVRScreenSpaceWarningFlagEv
Ryj:_MonoType_get_Assembly_m4290914179
$nc:__ZN9ShaderLab7ProgramC2E10MemLabelIdi10ShaderType
wec:__ZN14PreloadManager16UpdatePreloadingEv
sza:__ZN12BaseRendererD2Ev
Wtc:__ZNSt3__26vectorI4PPtrI10MonoScriptE13stl_allocatorIS3_L18MemLabelIdentifier79ELi16EEE6insertENS_11__wrap_iterIPKS3_EERS9_
aYf:_TMP_InputField_set_caretWidth_m141005399
iNe:__ZN5physx2Sc5Scene9addShapesEPKPvjjRNS0_8RigidSimEPNS_12PxsRigidBodyERPNS0_8ShapeSimEPNS_9PxBounds3E
Dtl:_Array_InternalArray__set_Item_TisUILineInfo_t4195266810_m2313892078_gshared
__m:_U3CDefaultUnityWebRequestU3Ed__0_System_Collections_IEnumerator_Reset_m2946020892
BEh:_InternalEnumerator_1_System_Collections_IEnumerator_Reset_m3355902602_AdjustorThunk
eTn:__ZN6il2cpp6icalls8mscorlib6System10Reflection4Emit13ModuleBuilder10basic_initEP29Il2CppReflectionModuleBuilder
z8o:__ZL168U3CU3Ec__Iterator1_t2360382562_CustomAttributesCacheGenerator_U3CU3Ec__Iterator1_System_Collections_Generic_IEnumeratorU3CSimpleJSON_JSONNodeU3E_get_Current_m3925466472P21CustomAttributesCache
Zzi:_PlayableAsset__ctor_m2395156306
vVo:__ZL79StandaloneInputModule_t2760469101_CustomAttributesCacheGenerator_m_SubmitButtonP21CustomAttributesCache
SIi:_InputField_SendOnValueChanged_m2560301445
uZe:__ZN5physx23PxcPCMContactConvexMeshERKNS_2Gu13GeometryUnionES3_RKNS_11PxTransformES6_RKfRNS_10PxcNpCacheERNS0_13ContactBufferE
i5:__ZN13RuntimeStaticI13dynamic_arrayI22RenderingExtPluginDescLj0EELb0EE13StaticDestroyEPv
Ihc:__ZNK21UnityDefaultAllocatorI17LowLevelAllocatorE8ContainsEPKv
Tin:__ZNSt3__213__vector_baseI6pollfdNS_9allocatorIS1_EEED2Ev
sdg:_RuntimeTypeHandle_Equals_m2857439487
Ki:_emscripten_get_main_loop_timing
iNm:_UploadHandler__ctor_m1351468229
F0h:_SafeHandle_Finalize_m3866180675
AWa:__ZN24GenerateTypeTreeTransfer21TransferSTLStyleArrayINSt3__26vectorIN15QualitySettings14QualitySettingENS1_9allocatorIS4_EEEEEEvRT_17TransferMetaFlags
W0j:_MemoryStream_ToArray_m3911744835
ygh:__Z59RuntimeInvoker_Int32_t2950945753_KeyValuePair_2_t2530217319PFvvEPK10MethodInfoPvPS4_
R9g:__Z72RuntimeInvoker_Boolean_t97287965_RaycastHitU26_t2429360258_RuntimeObjectPFvvEPK10MethodInfoPvPS4_
zdc:__ZN23ManagedAttributeManager52CallManagedGetParentTypeDisallowingMultipleInclusionE17ScriptingClassPtr
a6a:__Z10AddGUIAxesR13dynamic_arrayI9InputAxisLj0EE
nXn:__ZN6il2cpp2os5Event4WaitEjb
oqk:_Type_GetHashCode_m1947148725
SXg:__Z91RuntimeInvoker_Void_t1185182177_RuntimeObject_RuntimeObject_RuntimeObject_SByte_t1669577662PFvvEPK10MethodInfoPvPS4_
deb:__ZNK2UI13RectTransform22GetTypeVirtualInternalEv
E5c:__ZNK15PolynomialCurve18EvaluateIntegratedERKN4math7_float4E
ENk:__ZN28GenericInterfaceFuncInvoker2IP12Il2CppObjectS1_bE6InvokeEPK10MethodInfoS1_S1_b
Mq:getTempRet0
h4n:_JSONNode_GetHashCode_m1696452158
H2l:__ZN23GenericVirtFuncInvoker1Ib26ResolveHandler_t4124874245E6InvokeEPK10MethodInfoP12Il2CppObjectS0_
c6g:__Z64RuntimeInvoker_UnityWebRequestError_t359680823_Int32_t2950945753PFvvEPK10MethodInfoPvPS4_
AJj:_StrongName_get_Version_m4243032012
j_l:_Comparison_1_EndInvoke_m3369321931_gshared
Uyh:_InternalEnumerator_1_MoveNext_m2234422530_gshared
Lkd:__ZN26SizeModulePropertyBindings13GetFloatValueERK14ParticleSystemi
wbp:__ZL85Request_t2310692101_CustomAttributesCacheGenerator_Request_U3CSendU3Em__0_m3036197640P21CustomAttributesCache
pki:_SocketException__ctor_m480722159
O7k:_Enumerator_System_Collections_IEnumerator_Reset_m2394182378_AdjustorThunk
COo:__ZL73GUISettings_t1774757634_CustomAttributesCacheGenerator_m_CursorFlashSpeedP21CustomAttributesCache
ppg:_BaseRaycaster_OnEnable_m2678466030
qRk:_ValueCollection__ctor_m825399723_gshared
nsi:_UnityEventBase__ctor_m1851535676
_aj:_Array_Sort_TisVector4_t3319028937_m2797285308_gshared
hwj:_UnexceptionalStreamWriter_Write_m1834931241
VFm:_TMP_TextUtilities_FindIntersectingCharacter_m1441274992
NRh:_ILGenerator_EmitCall_m2478864924
SKl:_Collection_1_System_Collections_IList_get_Item_m3314684800_gshared
g7m:_Physics_RaycastAll_m3796226007
_2n:_JSONLazyCreator_set_AsFloat_m3519126835
vzn:__ZN6il2cpp6icalls8mscorlib6System9ThreadingL21lookup_cached_cultureEP12Il2CppThreadi
m_m:_NetFxCoreExtensions_CreateDelegate_m751211712
U8b:__ZN18DeferredRenderLoopD2Ev
E4m:_AnimationLayerMixerPlayable__cctor_m4086299972
qua:__ZNK16TypeTreeIterator4NameEv
Fbj:_Array_swap_TisUICharInfo_t75501106_m3934244159_gshared
vao:__ZL40UIntPtr_t_CustomAttributesCacheGeneratorP21CustomAttributesCache
Fba:__ZN15FileSystemEntry3SetEPKc
y4e:__ZN5physx6shdfnd5ArrayIPNS_13PxcNpMemBlockENS0_19ReflectionAllocatorIS3_EEE6resizeEjRKS3_
gug:_AspectRatioFitter_get_aspectMode_m3735191157
Uwc:__Z52Register_UnityEngine_Application_set_targetFrameRatev
iBe:__ZN5physx14NpRigidDynamic8requiresERNS_23PxProcessPxBaseCallbackE
tQl:_ReadOnlyCollection_1_System_Collections_Generic_IListU3CTU3E_Insert_m568455025_gshared
D2n:_JSONBool_get_Value_m1129555109
IO:__ZN20SoundChannelInstance15ParameterBuffer5ApplyEPN4FMOD7ChannelE
agm:_Collection_1_CheckWritable_m2727304722_gshared
Ddi:_IPv6Address__ctor_m4117281080
LXf:_SelectionEvent__ctor_m3977662582
fIo:__ZL88GameObject_t1113636619_CustomAttributesCacheGenerator_GameObject_SendMessage_m3720186693P21CustomAttributesCache
tmf:__ZN20TextRenderingPrivate19NativeTextGenerator9InsertTabEv
unp:_sbrk
Wdd:__Z13DragUpdateTplIL27ParticleSystemCurveEvalMode2EEvRK11MinMaxCurvebbR23ParticleSystemParticlesjjRKN4math7_float4E
G7g:__Z66RuntimeInvoker_Boolean_t97287965_Vector2_t2156229523_RuntimeObjectPFvvEPK10MethodInfoPvPS4_
ikm:_Collection_1_System_Collections_Generic_ICollectionU3CTU3E_get_IsReadOnly_m1032650589_gshared
KM:__ZL49__ManagedRegistrationHelperFunction_AudioSettingsPv
uhf:__ZN5physx7profile8ZoneImplINS_28PxProfileNameProviderForwardEE21setProfileZoneManagerEPNS_20PxProfileZoneManagerE
jMf:__ZN11UnityEngine15PlatformWrapper24GetRuntimePlatformStringEv
uj:_glIsEnabled
tdb:__ZN15CacheWriterBaseD2Ev
p$d:__ZN5physx3Cct17CapsuleController15setFootPositionERKNS_14PxExtendedVec3E
tUd:__ZN5physx2Gu33PCMCapsuleVsMeshContactGeneration13generateEEMTDERKNS_6shdfnd3aos5Vec3VES6_RKNS3_6FloatVES6_jS6_S6_PNS0_21MeshPersistentContactERj
uNh:_DerivedType__ctor_m1853298054
oub:__Z25scripting_class_get_image17ScriptingClassPtr
lle:__ZN18MultiQueryCallbackIN5physx10PxSweepHitEED0Ev
p_a:__ZN10SpriteBone8TransferI24GenerateTypeTreeTransferEEvRT_
Nil:_List_1_RemoveAt_m2730968292_gshared
K8a:__ZNSt3__26vectorIN4core12basic_stringIcNS1_20StringStorageDefaultIcEEEE13stl_allocatorIS5_L18MemLabelIdentifier13ELi16EEEC2INS_11__wrap_iterIPS5_EEEET_SE_RKS8_PNS_9enable_ifIXaasr21__is_forward_iteratorISE_EE5valuesr16is_constructibleIS5_NS_15iterator_traitsISE_E9referenceEEE5valueEvE4typeE
yj:_emscripten_glDrawElementsInstanced
aC:__ZN26AnimatorControllerPlayable27SetupStateMachineBehavioursEv
E5h:_Array_InternalArray__IEnumerable_GetEnumerator_TisSlot_t3975888750_m1869932007_gshared
Wzo:__ZL48Mathf_t3464937446_CustomAttributesCacheGeneratorP21CustomAttributesCache
iyo:__ZL79Camera_t4157153871_CustomAttributesCacheGenerator_Camera_RaycastTry_m3913529496P21CustomAttributesCache
VMi:_LayoutGroup_get_preferredWidth_m3816902260
hng:_TextMeshProUGUI_Cull_m2430697619
Wcm:_Collection_1_System_Collections_IList_set_Item_m478492625_gshared
aKa:__ZN18JobBatchDispatcherD2Ev
_db:__ZN9Transform17MainThreadCleanupEv
RRn:_GC_clear_hdr_marks
Gpd:__Z17UpdateSprites2TplIL27ParticleSystemCurveEvalMode1ELS0_4EEvfRK11MinMaxCurveS3_RK23ParticleSystemParticlesPf
q6f:_TMP_Text_get_pageToDisplay_m1088040628
opf:_cff_fd_select_get
LVi:_Text_set_resizeTextForBestFit_m4095249125
Uli:_OidEnumerator_MoveNext_m3138911739
pfh:__Z53RuntimeInvoker_Boolean_t97287965_Keyframe_t4206410242PFvvEPK10MethodInfoPvPS4_
Jj:_emscripten_glGetShaderiv
Iwm:_InvokableCall_1_add_Delegate_m1011133128_gshared
$P:__ZN4FMOD6System10getVersionEPj
t5e:__ZN5physx2Sc7BodySim10sleepCheckEffb
PCf:__ZN2UI6Canvas23VirtualRedirectTransferER24GenerateTypeTreeTransfer
UTi:_Selectable_set_animationTriggers_m2970345687
AJl:_Collection_1_CopyTo_m4271769704_gshared
V0c:__ZN9JSONWrite8TransferIN4math12int2_storageEEEvRT_PKc17TransferMetaFlags
dlf:__ZN13TextRendering4Font13AwakeFromLoadE17AwakeFromLoadMode
QRj:_CompareInfo_LastIndexOf_m2688553706
_8g:__Z55RuntimeInvoker_Boolean_t97287965_Navigation_t3049316579PFvvEPK10MethodInfoPvPS4_
Fyp:_emscripten_glCullFace__wrapper
mmb:__ZN9GfxDevice21ReleaseSharedMeshDataEP14SharedMeshData
Ucm:_Collection_1_System_Collections_IList_get_IsReadOnly_m3072577387_gshared
esg:_MouseState__ctor_m1467839005
n4k:_Uri_IsDomainAddress_m2867513594
L7a:__ZNSt3__27__sort5IRNS_6__lessINS_4pairIPKN5Unity4TypeE7Hash128EES8_EEPS8_EEjT0_SC_SC_SC_SC_T_
_po:__ZL79Convert_t2465617642_CustomAttributesCacheGenerator_Convert_ToDouble_m2949593046P21CustomAttributesCache
yTm:__ZL25UnresolvedVirtualCall_154P12Il2CppObjectPK10MethodInfo
$yg:_Dropdown_CreateItem_m2954407740
YQn:_GC_unreachable_finalize_mark_proc
IAi:_PlayerConnectionInternal_PollInternal_m3759016321
$gi:_X509Chain_ProcessCrlExtensions_m236234529
Qg:___syscall192
h3o:__ZL80TMP_Settings_t2071156274_CustomAttributesCacheGenerator_m_defaultSpriteAssetPathP21CustomAttributesCache
Uml:_List_1__ctor_m369633558_gshared
dbn:__ZN6il2cpp2vm5Class40GetInterfaceInvokeDataFromVTableSlowPathEPK12Il2CppObjectPK11Il2CppClassj
U8h:_Array_InternalArray__IndexOf_TisLabelData_t360167391_m1826525656_gshared
$7c:__ZN11ShapeModule18MultiModeParameterIN25IParticleSystemProperties8PropertyIfNS1_5ClampILi0ELi360EEEEEE8TransferI24GenerateTypeTreeTransferEEvRT_
Zrc:__Z43RectTransform_CUSTOM_INTERNAL_get_anchorMaxP12Il2CppObjectP13Vector2fIcall
$je:__ZN5physx14NpShapeManagerC2Ev
DGo:__ZL87PlayerEditorConnectionEvents_t3411787513_CustomAttributesCacheGenerator_connectionEventP21CustomAttributesCache
xGg:_RealProxy_get_ObjectIdentity_m2790771985
IFg:_RemotingConfiguration_RegisterChannelTemplate_m3105688054
V5j:_Decimal_Parse_m942471224
$Da:__ZN8Material28UpdateHashesOnPropertyChangeEN9ShaderLab16FastPropertyNameE
Ihm:_Collection_1_System_Collections_IList_get_Item_m1368877441_gshared
igo:__ZL56MethodBuilder_t2807316753_CustomAttributesCacheGeneratorP21CustomAttributesCache
Qgj:_Locale_GetText_m3520169047
ivc:__Z53Register_UnityEngine_SortingLayer_GetLayerValueFromIDv
acp:_TMP_UiFrameRateCounter_Awake_m2736519745
Iij:_ASN1_GetBytes_m1968380955
qDo:__ZL85RectOffset_t1369453676_CustomAttributesCacheGenerator_RectOffset_set_right_m807318764P21CustomAttributesCache
htb:__Z18Transfer_BlittableI14SafeBinaryReadLb1E8Vector4fEvRK29SerializationCommandArgumentsR31RuntimeSerializationCommandInfo
ATf:__ZN13RuntimeStaticINSt3__26vectorI23UnityVRDeviceDefinition13stl_allocatorIS2_L18MemLabelIdentifier90ELi16EEEELb0EE13StaticDestroyEPv
hS:__ZN11AudioSource12AddToManagerEv
Hw:__ZN8Animator23VirtualRedirectTransferER19StreamedBinaryWriteILb0EE
ND:__ZN11UnityEngine9Animation32CreateAnimatorGenericBindingsOptERKNS0_20AnimationSetBindingsER9TransformPKN7mecanim9animation14AvatarConstantEPKNS0_21AvatarBindingConstantEbRNS6_6memory9AllocatorER8Animator
UYl:_ReadOnlyCollection_1_get_Count_m3746330764_gshared
VDn:__ZN6il2cpp2vm5Image13ClassFromNameEPK11Il2CppImagePKcS6_
nop:dynCall_vdddddd
S7m:_NativePropertyAttribute__ctor_m2033094153
ylc:__ZN24GenerateTypeTreeTransfer21TransferSTLStyleArrayINSt3__26vectorIN9ShaderLab14SerializedPassENS1_9allocatorIS4_EEEEEEvRT_17TransferMetaFlags
V7d:__ZN5physx6shdfnd8internal8HashBaseIPNS_2Sc13ConstraintSimES5_NS0_4HashIS5_EENS1_11HashSetBaseIS5_S7_NS0_9AllocatorELb1EE6GetKeyES9_Lb1EE6createERKS5_Rb
g7:__ZL32MarkLevelGameManagerDependenciesR27GarbageCollectorThreadState
Uph:_U3CU3Ec__DisplayClass24_0__ctor_m1023270447_gshared
mRb:__ZNK13GfxDeviceGLES26HasActiveRandomWriteTargetEv
C5i:_ArrayList_CopyTo_m3962521159
p5k:_KeyValuePair_2_get_Value_m392474074_gshared
hwn:__GLOBAL__sub_I_Thread_cpp
Kfe:__ZNK5physx15NpActorTemplateINS_18PxArticulationLinkEE7getNameEv
kQc:__Z29Matrix4x4_CUSTOM_TRS_InjectedRK8Vector3fRK11QuaternionfS1_R10Matrix4x4f
Dtp:_glGetActiveUniformsiv__wrapper
rPa:__ZN14SafeBinaryRead8TransferINSt3__24pairIN9ShaderLab16FastPropertyNameE10ColorRGBAfEEEEvRT_PKc17TransferMetaFlags
yWd:__ZNK5physx3Cct10Controller16getInternalStateERNS_17PxControllerStateE
Gxi:_Mesh_GetIndices_m2873123901
aff:__ZZN8Collider15InitializeClassEvEN37FunctorImpl_822kForceRecreateCollider4CallEPviR11MessageData
B9:__ZN13MonoBehaviour19SetupScriptingCacheE17ScriptingClassPtrP10MonoScript
v5m:__ZL9rshift128PyS_
kjn:__ZNSt3__214__split_bufferIP12Il2CppThreadRNS_9allocatorIS2_EEED2Ev
WG:__Z20AnimationEventToMonoRK14AnimationEventR18MonoAnimationEvent
tGc:__ZZN8Renderer15InitializeClassEvEN28FunctorImpl_145kLayerChanged4CallEPviR11MessageData
mxg:_FloatTween_set_targetValue_m3604919944_AdjustorThunk
m5i:_ArrayList_get_IsReadOnly_m913775115
Urg:_PointerEventData_get_dragging_m746831934
Ypk:_Type_get_TypeHandle_m160082026
iMe:__ZN5physx10PxsContext15setScratchBlockEPvj
wXl:_ReadOnlyCollection_1_System_Collections_IEnumerable_GetEnumerator_m2781605075_gshared
jvm:_TMP_XmlTagStack_1_Remove_m1417473052_AdjustorThunk
ara:__ZN9Scripting11UnityEngine12Experimental9Rendering15ShadowSplitData12CleanupProxyEv
Yfa:__ZZN15DirectorManager15InitializeClassEvEN52PreLateUpdateDirectorUpdateAnimationBeginRegistrator7ForwardEv
ekh:__Z101RuntimeInvoker_Void_t1185182177_TMP_WordInfoU5BU5DU26_t1030603914_Int32_t2950945753_Int32_t2950945753PFvvEPK10MethodInfoPvPS4_
cBg:_Graphic_RegisterDirtyMaterialCallback_m106898453
IIm:_GUILayoutEntry_get_margin_m3174861737
Uva:__ZN4PPtrI6SpriteE8TransferI14SafeBinaryReadEEvRT_
LCl:_EqualityComparer_1_System_Collections_IEqualityComparer_Equals_m1672604045_gshared
R0n:_Mover__ctor_m198178838
Bxn:__ZN15dense_hashtableINSt3__24pairIK10KeyWrapperIP11Il2CppClassES4_EES5_N6il2cpp8metadata16SZArrayClassHashEN14dense_hash_mapIS5_S4_SA_NS5_14EqualsComparerINS9_19SZArrayClassCompareEEENS0_9allocatorIS7_EEE9SelectKeyESE_SG_E16reset_thresholdsEv
F6l:_List_1_GetEnumerator_m2095602005_gshared
T2d:__ZN5physx2Cm27getDynamicGlobalPoseAlignedERKNS_11PxTransformES3_S3_RS1_
Yol:_Array_InternalArray__ICollection_CopyTo_TisResolveHandler_t4124874245_m1101829896_gshared
xDn:__ZNK15dense_hashtableINSt3__24pairIK10KeyWrapperINS1_IPKcS4_EEEiEES6_24NamespaceAndNamePairHashN14dense_hash_mapIS6_iS9_NS6_14EqualsComparerI26NamespaceAndNamePairEqualsEENS0_9allocatorIS8_EEE9SelectKeyESD_SF_E13find_positionERS7_
Pkc:__ZNSt3__26vectorIN9ShaderLab14SerializedPassENS_9allocatorIS2_EEE8__appendEj
Zaf:__ZN5physx6shdfnd5ArrayIPvNS0_19ReflectionAllocatorIN17PxcPoolMallocData10PoolData32EEEE15growAndPushBackERKS2_
ckc:__ZNSt3__26vectorIN9ShaderLab20SerializedSubProgram13BufferBindingENS_9allocatorIS3_EEEC2INS_11__wrap_iterIPS3_EEEET_SB_RKS5_PNS_9enable_ifIXaasr21__is_forward_iteratorISB_EE5valuesr16is_constructibleIS3_NS_15iterator_traitsISB_E9referenceEEE5valueEvE4typeE
Ooh:__Z37RuntimeInvoker_Enumerator_t3436819725PFvvEPK10MethodInfoPvPS4_
wAi:_PlayableOutputHandle_op_Equality_m388301694
pik:_Encoding_get_ISOLatin1_m2107621369
Cvd:__ZNK16PhysicsManager2D21GetAutoSyncTransformsEv
vEc:__ZZL23RegisterLightPropertiesR22GenericPropertyBindingEN20Wrapper_LightColorb213GetFloatValueEPv
Xhj:_BigInteger_op_Inequality_m2697143438
Yzo:__ZL89Mathf_t3464937446_CustomAttributesCacheGenerator_Mathf_SmoothDamp_m394423605____maxSpeed4P21CustomAttributesCache
lud:__ZN12b2WheelJoint24SolveVelocityConstraintsERK12b2SolverData
iTh:_ModuleBuilderTokenGenerator_GetToken_m1396347424
pao:__ZL72IntPtr_t_CustomAttributesCacheGenerator_IntPtr_op_Inequality_m3063970704P21CustomAttributesCache
BKb:__ZNK25PathNamePersistentManager30PathIDToFileIdentifierInternalEi
GVa:__ZN9Texture2D23VirtualRedirectTransferER18StreamedBinaryReadILb0EE
iFd:__ZN10Collider2D8TransferI24GenerateTypeTreeTransferEEvRT_
ASf:__Z53Register_UnityEngine_Networking_UnityWebRequest_Abortv
I3n:_JSONNode_get_Linq_m3913908471
O3f:_TMP_SubMeshUI_set_fallbackMaterial_m2367683490
s9k:_Enumerator_MoveNext_m1177880931_gshared
WIh:_DefaultComparer__ctor_m3288720761_gshared
ddi:_Stopwatch_get_ElapsedMilliseconds_m1101465039
fgh:__Z102RuntimeInvoker_Int32_t2950945753_RuntimeObject_Vector2_t2156229523_Int32_t2950945753_Int32_t2950945753PFvvEPK10MethodInfoPvPS4_
dcn:__ZN30dense_hashtable_const_iteratorINSt3__24pairIK10KeyWrapperIPKcEP11Il2CppClassEES5_N6il2cpp5utils11StringUtils12StringHasherIS4_EEN14dense_hash_mapIS5_S8_SE_NS5_14EqualsComparerINSB_13VmStringUtils21CaseSensitiveComparerEEENS0_9allocatorIS9_EEE9SelectKeyESJ_SL_E30advance_past_empty_and_deletedEv
HLo:__ZL73g_UnityEngine_TextRenderingModule_Assembly_CustomAttributesCacheGeneratorP21CustomAttributesCache
gaa:__ZN16ScriptingManager27NativeTypeForScriptingClassE17ScriptingClassPtr
dtk:_UInt64_System_IConvertible_ToDateTime_m3434604642
Tpk:_Type_get_IsSerializable_m1040556850
hlg:_TextContainer_get_isAutoFitting_m1107908275
Xtf:_get_sfnt_table
B9i:_Array_Resize_TisUIVertex_t4057497605_m1219201596_gshared
Jak:_DateTime_get_TimeOfDay_m82064893_AdjustorThunk
Efo:__ZL55StreamWriter_t1266378904_CustomAttributesCacheGeneratorP21CustomAttributesCache
Gco:__ZL73MarshalAsAttribute_t3522571978_CustomAttributesCacheGenerator_MarshalTypeP21CustomAttributesCache
qAb:__Z29Transfer_Blittable_ArrayFieldI24GenerateTypeTreeTransferiEvRT_R9ArrayInfoRK23StaticTransferFieldInfo
_Rb:__ZThn10632_N13GfxDeviceGLES25SetStereoConstantPlatformEijRK8Vector4f
qXa:__ZN8Renderer20RendererAddedToSceneEv
wac:__ZL22ScheduleSceneNodesJobsP25ScheduleSceneNodesJobDataj
PUe:__ZN5physx22concludeContactCoulombERKNS_23PxcSolverConstraintDescERNS_16PxcSolverContextE
Cl:_emscripten_set_canvas_size
hAg:_Graphic_SetVerticesDirty_m2124914069
gwe:__ZNK5physx15NpParticleFluid12getStiffnessEv
TRj:_CultureInfo__ctor_m3285927757
KOi:_MaskableGraphic_get_rootCanvasRect_m3492154629
S0c:__ZN9JSONWrite8TransferI13dynamic_arrayI11QuaternionfLj0EEEEvRT_PKc17TransferMetaFlags
Lsd:__ZN9Scripting11UnityEngine9Physics2D9InitProxyEv
w9i:_Array_Resize_TisRaycastResult_t3360306849_m1811054291_gshared
$Dc:__ZN12MeshRenderer27PrepareSingleRendererUpdateER13RendererSceneRS_10MemLabelId
ful:_Array_qsort_TisOrderBlock_t1585977831_TisOrderBlock_t1585977831_m1675918557_gshared
aRl:_ReadOnlyCollection_1_System_Collections_Generic_ICollectionU3CTU3E_get_IsReadOnly_m3152485890_gshared
vkc:__ZNSt3__26vectorIN9ShaderLab20SerializedSubProgramENS_9allocatorIS2_EEE8__appendEj
j3:__ZN20DynamicHeapAllocatorI17LowLevelAllocatorE8AllocateEji
DIf:__ZN11UnityEngine9Analytics15UserCustomEvent12ToJsonStringER9JSONWrite
eKm:_Locale_GetText_m2427493201
z2b:__ZN20DynamicPropertySheet15SetVectorQueuedERKN9ShaderLab16FastPropertyNameERK8Vector4fN19ShaderPropertySheet8SetFlagsE
S4m:_AnimatorControllerPlayable_SetHandle_m2260644454
aF:__ZN7mecanim9animation22EvaluateAvatarRetargetEPKNS0_14AvatarConstantEPKNS0_11AvatarInputEPNS0_12AvatarOutputEPNS0_12AvatarMemoryEPNS0_15AvatarWorkspaceEb
VEh:_InternalEnumerator_1_System_Collections_IEnumerator_Reset_m996811230_AdjustorThunk
TIa:__ZN14RenderSettings23VirtualRedirectTransferER19StreamedBinaryWriteILb0EE
DNh:_ConstructorBuilder_get_TypeBuilder_m2755629087
r$c:__ZL26Transfer_SimpleNativeClassI9JSONWrite10RectOffsetLb0EEvRK29SerializationCommandArgumentsR31RuntimeSerializationCommandInfo
qRn:_GC_push_conditional
uIf:__ZN21UnityAnalyticsManager23VirtualRedirectTransferER24GenerateTypeTreeTransfer
h1a:__ZN17GenericDynamicVBO10AllocateVBEjR21DynamicVBOChunkHandle
qnj:_ClientContext_get_SslStream_m1583577309
kRk:_ValueCollection_System_Collections_Generic_ICollectionU3CTValueU3E_get_IsReadOnly_m3423371260_gshared
UYe:__ZL27PxcTestFacesSepAxesBackfaceRKN5physx2Gu13PolygonalDataES3_RKNS_2Cm8Matrix34ES7_RKNS4_23FastVertex2ShapeScalingESA_S7_RKNS_6PxVec3ERfRSB_RjPjSG_fSD_
adk:_DBNull_ToString_m3638608738
nFn:__ZN30dense_hashtable_const_iteratorI10KeyWrapperIP18Il2CppGenericClassES3_N6il2cpp8metadata22Il2CppGenericClassHashEN14dense_hash_setIS3_S6_NS3_14EqualsComparerINS5_25Il2CppGenericClassCompareEEENSt3__29allocatorIS3_EEE8IdentityESA_SD_EppEv
B7i:_BitArray_Clone_m3537018332
iWm:__ZL25UnresolvedVirtualCall_300P12Il2CppObject22ColorBlock_t2139031574PK10MethodInfo
l9f:_ObjectRecord_UnchainFixup_m3191243952
tom:_TlsStream_get_CanWrite_m16389328
nGf:__Z15GetUIModuleSpecv
j5g:__Z65RuntimeInvoker_RuntimeObject_RuntimeObject_Vector3U26_t3464235976PFvvEPK10MethodInfoPvPS4_
Rkf:__ZN9Scripting11UnityEngine8UIVertex9InitProxyEv
$l:_glMapBufferRange
yVa:__ZN9Texture2D8TransferI18StreamedBinaryReadILb0EEEEvRT_
tzc:__Z31Input_CUSTOM_GetMouseButtonDowni
h3f:_TMP_SubMesh_get_isDefaultMaterial_m4218956554
UJc:__ZN13PlayableGraph4PlayEv
tre:__ZNK5physx7NpCloth23getExternalAccelerationEv
Leb:__ZNK9Transform16GetLocalPositionEv
ohk:_EncoderExceptionFallbackBuffer_get_Remaining_m1573636148
Uyj:_MonoType_get_BaseType_m1098640416
S9a:__ZN13LoadOperation19IntegrateTimeSlicedEi
Mom:_TlsStream_Read_m3392972801
VXo:__ZL97InputField_t3762917431_CustomAttributesCacheGenerator_InputField_MouseDragOutsideRect_m1055889050P21CustomAttributesCache
lHi:_TouchScreenKeyboard_get_status_m3936201565
nWe:__ZN5physx16PxsBroadPhaseMBP9updatePPUEPNS_10PxBaseTaskE
wRb:__ZN13GfxDeviceGLES22DispatchComputeProgramE12ObjectHandleI18ComputeProgram_TagPvE15ComputeBufferIDj
MRo:__ZL95BoxCollider_t1640800422_CustomAttributesCacheGenerator_BoxCollider_INTERNAL_set_size_m404545260P21CustomAttributesCache
sEi:_Transform_get_localToWorldMatrix_m4155710351
RYb:__ZN20DefaultGfxDeviceImpl32InitStereoGlobalsBuffersPlatformEiijPKv
Zik:_Latin1Encoding_GetString_m254210343
Ubb:__Z17TransformAABBSlowRK4AABBRK10Matrix4x4fRS_
x0i:_Array_combsort_m4052486289
YQ:__ZN24AudioScriptBufferManager27InitialCompleteDomainReloadEv
kjl:_List_1_System_Collections_ICollection_get_SyncRoot_m314215814_gshared
Vic:__ZN9ShaderLab21SerializedShaderState8TransferI14SafeBinaryReadEEvRT_
VPj:_Environment_GetWindowsFolderPath_m1738399646
ybm:_Queue_1_System_Collections_Generic_IEnumerableU3CTU3E_GetEnumerator_m2263220760_gshared
M8l:_List_1_Sort_m378918663_gshared
X9e:__ZN5physx2Gu13RTreeMidphaseC2Ev
DBl:_DefaultComparer_GetHashCode_m77036565_gshared
oqf:_cf2_stack_pushInt
hI:__ZN7mecanim9animation20DestroyLayerConstantEPNS0_13LayerConstantERNS_6memory9AllocatorE
UE:__ZN8Animator19FireAnimationEventsERNS_11AnimatorJobE
pye:__ZN5physx6shdfnd8PoolBaseINS_16NpParticleSystemENS0_19ReflectionAllocatorIS2_EEE12allocateSlabEv
bWh:_Module_GetCustomAttributes_m76573271
Oeg:_CryptoConfig_EncodeOID_m2635914623
wll:_List_1_CopyTo_m2321906348_gshared
UPa:__ZN15SerializeTraitsINSt3__24pairIN4core12basic_stringIcNS2_20StringStorageDefaultIcEEEES6_EEE8TransferI24GenerateTypeTreeTransferEEvRS7_RT_
gvp:b89
Tmo:__ZL63SignatureDescription_t1971889425_CustomAttributesCacheGeneratorP21CustomAttributesCache
Qtp:b81
Ntp:b80
IWb:__ZN7ApiGLES19CreateSparseTextureEjj14GraphicsFormatiiiiRiS1_S1_
Waa:__ZN18ResourceImageGroup7CleanupEv
cvp:b85
G5d:__ZN5physx2Gu36closestPtPointTetrahedronTesselationEPNS_6shdfnd3aos5Vec3VES4_S4_RjRS3_S6_
evp:b87
WNj:_String_CharCopy_m3838781968
bs:__ZN11Quaternionf8TransferI24GenerateTypeTreeTransferEEvRT_
hZe:__ZN5physx25PxcPCMContactSphereConvexERKNS_2Gu13GeometryUnionES3_RKNS_11PxTransformES6_RKfRNS_10PxcNpCacheERNS0_13ContactBufferE
zLg:_RemotingSurrogateSelector_GetSurrogate_m3900875713
Wpj:_TlsServerCertificate_validateCertificates_m4242999387
L6e:__ZN5physx2Cm18DelegateFanoutTaskINS_2Sc5SceneEXadL_ZNS3_20particlePostShapeGenEPNS_10PxBaseTaskEEEED0Ev
OUl:_ReadOnlyCollection_1_System_Collections_IList_get_IsReadOnly_m3626439112_gshared
Dlj:_CertificateValidationCallback_Invoke_m1014111289
sLa:__ZN8Playable19SetOutputConnectionEPS_i
YHg:_LifetimeServices_get_RenewOnCallTime_m4192398854
KEa:__Z20RenderMultipleMeshesRK15RenderNodeQueueRK18RenderMultipleData16VertexInputMasks
Pm:_glDeleteShader
Y9i:_Array_Sort_TisChar_t3634460470_TisChar_t3634460470_m992244203_gshared
Nja:__ZN6prcoreL17RemapGenericFloatI15TexFormatRGHalf16TexFormatRGFloatEEvPKNS_9InnerInfoE
Laj:_Array_Sort_TisUICharInfo_t75501106_m128665067_gshared
Bsf:_otv_GSUB_validate
vFj:_RSAPKCS1SignatureDeformatter_SetHashAlgorithm_m1602190713
GOj:_Enum_System_IConvertible_ToByte_m1219166845
qme:__ZN5physx6shdfnd8PoolBaseINS_10NpMaterialENS0_19ReflectionAllocatorIS2_EEE15disposeElementsEv
Lvl:_Dictionary_2_CopyToCheck_m45332585_gshared
Ejm:_Collection_1_System_Collections_IList_IndexOf_m2831626011_gshared
bql:_Array_InternalArray__ICollection_CopyTo_TisTMP_MeshInfo_t2771747634_m3871978652_gshared
l6l:_List_1_System_Collections_ICollection_get_IsSynchronized_m3630704857_gshared
JDj:_ConstructorInfo__cctor_m1016079270
W0f:_TMP_MeshInfo_ClearUnusedVertices_m888817622_AdjustorThunk
Rvh:_InternalEnumerator_1_System_Collections_IEnumerator_Reset_m4239728915_AdjustorThunk
$Lf:__ZN11UnityEngine15PlatformWrapper20IsRootedOrJailbrokenEv
goc:__Z27scripting_add_internal_callPKcPKv
ZJl:__ZN21InterfaceFuncInvoker1Ib20UIVertex_t4057497605E6InvokeEjP11Il2CppClassP12Il2CppObjectS0_
g_i:_AppDomain_Load_m4174353770
WGn:__GLOBAL__sub_I_GarbageCollector_cpp
oEa:__Z17GetPlayerSettingsv
Hkc:__ZNSt3__26vectorIN9ShaderLab20SerializedSubProgram16SamplerParameterENS_9allocatorIS3_EEE6assignIPS3_EENS_9enable_ifIXaasr21__is_forward_iteratorIT_EE5valuesr16is_constructibleIS3_NS_15iterator_traitsISA_E9referenceEEE5valueEvE4typeESA_SA_
AF:__ZN34BlobWriteTransferSTLStyleArrayImplI22OffsetPtrArrayTransferIiEEclERS1_17TransferMetaFlagsR9BlobWrite
iMm:_UnityWebRequest_get_disposeCertificateHandlerOnDispose_m4051074453
Stl:_Array_qsort_TisByte_t1134296376_m726517433_gshared
$Wh:_MonoField_get_FieldHandle_m3729647377
AVc:__ZN9Scripting11UnityEngine3GUI9InitProxyEv
j6o:__ZL72EventTrigger_t2527451695_CustomAttributesCacheGenerator_m_LifecycleEventP21CustomAttributesCache
aSi:_ScrollRect_get_content_m2477524320
jwl:_Dictionary_2__ctor_m2709410819_gshared
dEk:_Enumerator_MoveNext_m1556953412_AdjustorThunk
bx:__ZN26AnimatorControllerPlayable18SetLayerAutoWeightEv
hc:invoke_vffff
m3k:_Literal_GetAnchorInfo_m810577400
z9c:__ZN20ExternalForcesModule8TransferI19StreamedBinaryWriteILb0EEEEvRT_
CHf:__ZN2UI14CanvasRenderer12SyncMaterialENS0_8SyncFlagE
Wjg:_MaterialReference_AddMaterialReference_m1459790169
Uuj:_StreamWriter_Write_m1660535366
zih:__Z66RuntimeInvoker_Void_t1185182177_Int32_t2950945753_Link_t3209266973PFvvEPK10MethodInfoPvPS4_
crg:_PhysicsRaycaster_get_finalEventMask_m5197086
vVn:__ZN6il2cpp2vm9Parameter30GetDefaultParameterValueObjectEPK10MethodInfoPK13ParameterInfoPb
Ukk:_UTF8Encoding_GetByteCount_m4152118078
Khh:__Z71RuntimeInvoker_Void_t1185182177_CustomAttributeNamedArgument_t287865710PFvvEPK10MethodInfoPvPS4_
Azk:_KeyPairPersistence__CanSecure_m3516574278
mhg:_MD5CryptoServiceProvider_Dispose_m3502499818
$Cl:_EqualityComparer_1_get_Default_m2359341649_gshared
vge:__ZN5physx19NpRigidBodyTemplateINS_18PxArticulationLinkEE16setRigidBodyFlagENS_15PxRigidBodyFlag4EnumEb
zcm:_Collection_1_get_Count_m2196797808_gshared
dlm:_Collection_1_System_Collections_IList_get_Item_m2422562729_gshared
c4g:__Z87RuntimeInvoker_Void_t1185182177_RuntimeObject_StringU26_t181565287_StringU26_t181565287PFvvEPK10MethodInfoPvPS4_
HJa:__ZN12LightManager28IsLightTransformDataUpToDateEPK5Light
nbo:__ZL74RuntimeArray_CustomAttributesCacheGenerator_Array_BinarySearch_m3171087170P21CustomAttributesCache
Oao:__ZL72Enum_t4135868527_CustomAttributesCacheGenerator_Enum_ToObject_m122225012P21CustomAttributesCache
Juf:_UNITY_tt_face_done_kern
Jmj:_SecurityParameters_get_ServerWriteMAC_m3430427271
lPo:__ZL90GUIStyle_t3956901511_CustomAttributesCacheGenerator_GUIStyle_get_stretchHeight_m4172805773P21CustomAttributesCache
DMg:_ObjRef_GetObjectData_m270012899
k5o:__ZL68g_UnityEngine_StandardEvents_Assembly_CustomAttributesCacheGeneratorP21CustomAttributesCache
Hrh:_ArrayReadOnlyList_1_RemoveAt_m2104218585_gshared
cgd:__Z25UpdateOrbitalAndRadialTplIL27ParticleSystemCurveEvalMode1ELS0_2ELS0_4EEvRK11MinMaxCurveS3_S3_S3_S3_S3_S3_R23ParticleSystemParticlesjjRKN4math8float3x3ERKNS6_7affineXERKNS6_7_float4E
t_a:__ZN12BoneWeights48TransferI24GenerateTypeTreeTransferEEvRT_
W5h:_Array_InternalArray__IEnumerable_GetEnumerator_TisParameterModifier_t1461694466_m3675077728_gshared
fCd:__ZN35b2InitializeVelocityConstraintsTaskD2Ev
Rma:__ZL49__ManagedRegistrationHelperFunction_PreLateUpdatePv
xYo:__ZL60RawImage_t3182918964_CustomAttributesCacheGenerator_m_UVRectP21CustomAttributesCache
mxo:__ZL66Application_t1852185770_CustomAttributesCacheGenerator_wantsToQuitP21CustomAttributesCache
rLb:__Z19scripting_gc_enablev
TFh:_InternalEnumerator_1_get_Current_m2907722321_gshared
PZb:__ZZ23InitPlayerLoopCallbacksvEN41InitializationPlayerUpdateTimeRegistrator7ForwardEv
dOc:__ZN11UTF16StringC2ERKS_10MemLabelId
Dif:__ZN5physx7profile11EventBufferINS_24PxDefaultContextProviderENS_6shdfnd6MutexTINS0_26WrapperReflectionAllocatorIhEEEENS0_14ScopedLockImplIS7_EENS_24PxProfileNullEventFilterEE9stopEventEty
Hfc:__Z29StdTemplateConversionFunctionIihEbPvR14SafeBinaryRead
aGh:_InternalEnumerator_1_System_Collections_IEnumerator_get_Current_m3854084659_gshared
LFf:__Z55Register_UnityEngine_CanvasRenderer_DisableRectClippingv
dv:__ZN9Scripting11UnityEngine10Animations16ConstraintSource12CleanupProxyEv
dpk:_TimeSpan_Subtract_m1264203589_AdjustorThunk
Tyd:__ZN19OverlapPointQuery2D14InitializeAABBER6b2AABB
vBi:_Quaternion_SlerpUnclamped_m3270925602
CVh:_MethodBase__ctor_m1907868998
bYo:__ZL118U3CCaretBlinkU3Ec__Iterator0_t2589889038_CustomAttributesCacheGenerator_U3CCaretBlinkU3Ec__Iterator0_Reset_m1547565867P21CustomAttributesCache
_mb:__ZN9GfxDevice22UploadTextureCubeArrayE9TextureIDPKhjii14GraphicsFormati18TextureUploadFlags
qxh:_InternalEnumerator_1_System_Collections_IEnumerator_get_Current_m888718134_gshared
hxh:_InternalEnumerator_1_get_Current_m2894466703_gshared
Qwo:__ZL62NativeTypeAttribute_t2250406315_CustomAttributesCacheGeneratorP21CustomAttributesCache
Azi:_Object_Destroy_m3118546832
LOl:_ReadOnlyCollection_1_System_Collections_Generic_IListU3CTU3E_set_Item_m519295790_gshared
Bak:_DateTime_FromTicks_m4059645178_AdjustorThunk
eai:_Enumerable_OrderBy_TisRuntimeObject_TisInt32_t2950945753_m3230323636_gshared
QDh:_InternalEnumerator_1_System_Collections_IEnumerator_get_Current_m1470676642_gshared
rco:__ZL67ICustomAttributeProvider_t1530824137_CustomAttributesCacheGeneratorP21CustomAttributesCache
KFg:_ConfigHandler_ParseTime_m1787834288
inc:__ZN9ShaderLab7Program27CreateFromSerializedProgramERKNS_17SerializedProgramE10ShaderTypeiP16PropertyNamesSetPK6Shader
YXn:_BGSpaceShipMover__ctor_m203889058
DCj:_Assembly_Load_m3487507613
mM:__ZNSt3__27__sort4IRNS_6__lessIN4core12basic_stringIcNS2_20StringStorageDefaultIcEEEES6_EEPS6_EEjT0_SA_SA_SA_T_
Qop:dynCall_viiiifii
GSn:_GC_unregister_disappearing_link
Xqn:__ZN6il2cpp2gc19AppendOnlyGCHashMapINSt3__24pairIPK11Il2CppImageP11Il2CppClassEEP22Il2CppReflectionModule17ReflectionMapHashIS9_ENS2_8equal_toIS9_EEEC2Ev
m8:__Z20GetPersistentManagerv
Txf:_UNITY_TT_Set_Var_Design
gjh:__Z79RuntimeInvoker_Void_t1185182177_Int32_t2950945753_TMP_CharacterInfo_t3185626797PFvvEPK10MethodInfoPvPS4_
H4:__ZN21SystemInfoStringCache16StaticInitializeEPv
C$n:_JSONNode_ParseElement_m214103003
T5h:_Array_InternalArray__IEnumerable_GetEnumerator_TisMonoResource_t4103430009_m1116056983_gshared
qci:_NameObjectCollectionBase_FindFirstMatchedItem_m840305173
vhm:_Collection_1__ctor_m3380123530_gshared
k4d:__ZN5physx2Sc7BodySim18internalWakeUpBaseEf
uQl:_ReadOnlyCollection_1_System_Collections_Generic_ICollectionU3CTU3E_Remove_m1100818788_gshared
bHn:__ZNK10KeyWrapperIP12Il2CppObjectE14EqualsComparerINSt3__28equal_toIS1_EEEclERKS2_S9_
Yjc:__ZNSt3__26vectorIN9ShaderLab20SerializedSubProgram15StructParameterENS_9allocatorIS3_EEE6assignIPS3_EENS_9enable_ifIXaasr21__is_forward_iteratorIT_EE5valuesr16is_constructibleIS3_NS_15iterator_traitsISA_E9referenceEEE5valueEvE4typeESA_SA_
tIg:__ZN23GenericVirtFuncInvoker0I19TimeSpan_t881159249E6InvokeEPK10MethodInfoP12Il2CppObject
UJf:__ZN9Scripting11UnityEngine9Analytics21AnalyticsSessionState12CleanupProxyEv
SIb:__ZNK13MonoBehaviour7GetNameEv
iyf:_ft_var_load_item_variation_store
$cb:__ZN19ScriptingInvocation28AdjustArgumentsToMatchMethodEv
FBm:_IndexedSet_1_Contains_m1525966688_gshared
nAo:__ZL97Mesh_t3648964284_CustomAttributesCacheGenerator_Mesh_SetTriangles_m2205169959____calculateBounds2P21CustomAttributesCache
oTk:_Dictionary_2_System_Collections_IDictionary_Remove_m2463639949_gshared
iO:__Z15_CheckFMODError11FMOD_RESULTPKciS1_
nAn:__ZN6il2cpp6icalls8mscorlib6SystemL16ThrowInvalidCastEPK11Il2CppClassS5_
Jxm:_InvokableCall_3__ctor_m3589126527_gshared
pEl:_EqualityComparer_1_get_Default_m79107703_gshared
sdj:_TMP_TextInfo_Resize_TisTMP_LinkInfo_t1092083476_m1050620713_gshared
ygg:_HMAC_KeySetup_m661741544
JFh:_InternalEnumerator_1_get_Current_m1506120701_gshared
Rpo:__ZL77Convert_t2465617642_CustomAttributesCacheGenerator_Convert_ToChar_m3178343373P21CustomAttributesCache
sik:_Latin1Encoding__ctor_m498920120
eCf:__ZN2UI11CanvasGroup23VirtualRedirectTransferER17RemapPPtrTransfer
I$f:_U3CMouseDragOutsideRectU3Ec__Iterator1_System_Collections_IEnumerator_get_Current_m3219171155
nuj:_StreamReader_Peek_m2272511193
wNm:_WWWTranscoder_QPEncode_m4114472822
_9c:__ZN11ShapeModule5ResetEv
SEf:__Z51Register_UnityEngine_CanvasGroup_get_blocksRaycastsv
ECe:__ZN5physx20NpRigidActorTemplateINS_13PxRigidStaticEE15exportExtraDataERNS_22PxSerializationContextE
lAj:_NumberFormatter_get_IsFloatingSource_m3714711779
vxp:b119
uvc:__Z38Material_Set_Custom_PropShaderKeywordsP12Il2CppObjectP11Il2CppArray
zIl:_Collection_1_System_Collections_IList_Add_m1403891193_gshared
T0l:_OrderedSequence_2__ctor_m143831006_gshared
r8e:__ZN5physx13BigConvexData5VLoadERNS_13PxInputStreamE
Xwh:_InternalEnumerator_1_System_Collections_IEnumerator_Reset_m169899350_AdjustorThunk
FNl:_ReadOnlyCollection_1_System_Collections_IList_Add_m3258677755_gshared
Gqk:_Type_GetConstructor_m1195697116
he:_glBeginQuery
vTi:_ScrollRect_SetNormalizedPosition_m3260907438
Leo:__ZL104RegionInfo_t1090270226_CustomAttributesCacheGenerator_RegionInfo_t1090270226____DisplayName_PropertyInfoP21CustomAttributesCache
bna:__ZL48__ManagedRegistrationHelperFunction_VisibleLightPv
dep:_ConsoleLogger__ctor_m1802757519
sOe:__ZN5physx11NodeManager6resizeEj
uJd:__ZN10Effector2D25CheckEffectorColliderMaskEP10Collider2DS1_
E$b:__ZN6Camera12RenderStereoENS_10RenderFlagE8CullFlagPNS_24PerformEyeRenderFunctionE
Kgb:__ZN20LocalFileSystemPosix10ToAbsoluteEPKc
lIa:__ZN20TierGraphicsSettings8TransferI19StreamedBinaryWriteILb0EEEEvRT_
Xvp:b111
_bb:__Z23CollectSceneGameObjectsR13dynamic_arrayIiLj0EE
fOn:__ZN6il2cpp2vm13ComObjectBase16DisconnectObjectEj
SHe:__ZNK5physx7NpScene28getSceneQueryStaticTimestampEv
YFl:_GenericComparer_1__ctor_m3652072706_gshared
vn:f0
or:__ZN6Object17MainThreadCleanupEv
GHa:__Z32TransferEnumWithNameForceIntSizeI14SafeBinaryRead7HDRModeEvRT_RT0_PKc17TransferMetaFlags
$jp:_getcwd
wwd:__ZN16b2CapsuleContact6CreateEP9b2FixtureiS1_iP16b2BlockAllocator
Jwa:__ZN25ThreadsafeLinearAllocatorD2Ev
GRh:_ILGenerator_Emit_m3083135129
PNc:__ZL50GetAndClearChangedTransformsForMultilpleSystemsJobP45GetChangedTransformsForMultipleSystemsJobDatajPK23TransformAccessReadOnlyPKyj
UPe:__ZN5physx2Sq10AABBPruner11preallocateEj
_ab:__Z21SendMessageToEveryoneRK17MessageIdentifier11MessageData
Aea:__ZN21BillboardBatchManager16StaticInitializeEPv
y5j:_DateTime_AbsoluteDays_m4235097773
c6:__ZN12_GLOBAL__N_138ArchiveRedirectFileSystemStaticDestroyEPv
dco:__ZL126U3CGetEnumeratorU3Ec__Iterator0_t1202911786_CustomAttributesCacheGenerator_U3CGetEnumeratorU3Ec__Iterator0_Dispose_m2078994225P21CustomAttributesCache
MOg:__Z74RuntimeInvoker_RuntimeObject_RuntimeObject_RuntimeObject_SByte_t1669577662PFvvEPK10MethodInfoPvPS4_
nco:__ZL69Type_t_CustomAttributesCacheGenerator_Type_GetConstructor_m1195697116P21CustomAttributesCache
$xg:_DefaultControls_CreateScrollView_m3842770629
Fsd:__ZL55__ManagedRegistrationHelperFunction_PhysicsJobOptions2DPv
sTa:__ZN12CubemapArray34UpdateFileTextureUploadInstructionEP26FileAssetUploadInstructionj
rFe:__ZN5physx2Sc19ShapeInstancePairLLC2ERNS0_8ShapeSimES3_RNS0_9ActorPairENS_7PxFlagsINS_10PxPairFlag4EnumEtEE
Ufo:__ZL94EnumBuilder_t2400448213_CustomAttributesCacheGenerator_EnumBuilder_GetConstructors_m3294436155P21CustomAttributesCache
tkh:__Z55RuntimeInvoker_TableRange_t3332867892_Int32_t2950945753PFvvEPK10MethodInfoPvPS4_
sAh:_InternalEnumerator_1_MoveNext_m1020308708_gshared
HWb:__Z23CreateSparseTextureGLES9TextureIDii14GraphicsFormati
htf:_otv_Anchor_validate
Zim:_Collection_1_System_Collections_ICollection_get_SyncRoot_m4096301159_gshared
off:__ZN5physx19PxVisualDebuggerExt16createConnectionEPNS_8debugger4comm20PvdConnectionManagerEPKcNS_7PxFlagsINS_30PxVisualDebuggerConnectionFlag4EnumEjEE
vzd:__Z18AddCollisionReportP11Collision2DR13dynamic_arrayINS_15CollisionReportELj0EE
dra:__ZN9Scripting11UnityEngine12Experimental9Rendering21RenderPipelineManager9InitProxyEv
bpk:_TimeSpan_Negate_m1889505500_AdjustorThunk
gVl:_ReadOnlyCollection_1_System_Collections_ICollection_CopyTo_m2715087453_gshared
aSo:__ZL84Canvas_t3310196443_CustomAttributesCacheGenerator_Canvas_get_scaleFactor_m3314757802P21CustomAttributesCache
z7n:_U3CWarpTextU3Ec__Iterator0_MoveNext_m379835037
dMk:_Transform_1__ctor_m2810088858_gshared
ikb:__ZN16MemoryFileSystemD0Ev
Bge:__ZN5physx19NpRigidBodyTemplateINS_18PxArticulationLinkEE27setMaxDepenetrationVelocityEf
cue:__ZN5physx2Sc9ClothCore16setStretchConfigENS_22PxClothFabricPhaseType4EnumERKNS_20PxClothStretchConfigE
bpd:__Z19UpdateSingleRow2TplIL27ParticleSystemCurveEvalMode4ELS0_1EEvfRK11MinMaxCurveS3_RK23ParticleSystemParticlesPfbiii
cNf:__ZN11UnityEngine7Connect20RemoteConfigSettings7SetJSONER8JSONReadb
H9c:__ZN9SubModule8TransferI19StreamedBinaryWriteILb0EEEEvRT_
bOm:_AnalyticsEventTracker_Awake_m2780522130
cCn:__ZN6il2cpp6icalls8mscorlib6System13GlobalizationL28culture_info_entry_from_lcidEi
sff:_PxCreateFoundation
wtd:__ZNK12b2MotorJoint16GetReactionForceEf
ahn:__ZN6il2cpp2vm13MetadataCache37GetParameterDefaultValueDataFromIndexEi
gvn:_il2cpp_class_get_assemblyname
wZg:__Z50RuntimeInvoker_SByte_t1669577662_SByte_t1669577662PFvvEPK10MethodInfoPvPS4_
NAg:_Graphic_OnFillVBO_m1026749972
H9m:__ZN6il2cpp2vm5Class15GetEnumBaseTypeEP11Il2CppClass
mIm:_GUILayoutGroup__ctor_m3245996524
Qoj:_Context_set_WriteSequenceNumber_m942577065
Ne:_glVertexAttrib4fv
xmi:_X509CertificateEnumerator_Reset_m4026698923
v4f:_TMP_Text_get_text_m540743374
BOn:__ZNK6il2cpp5utils13VmStringUtils23CaseInsensitiveComparerclERKNSt3__212basic_stringIcNS3_11char_traitsIcEENS3_9allocatorIcEEEEPKc
mvg:_CanvasScaler_SetScaleFactor_m3006968999
moh:__Z78RuntimeInvoker_Boolean_t97287965_Navigation_t3049316579_Navigation_t3049316579PFvvEPK10MethodInfoPvPS4_
TTa:__ZNK9Texture2D16GetNpotTexelSizeEv
Tbj:_Dictionary_2_Do_CopyTo_TisKeyValuePair_2_t1383673463_TisKeyValuePair_2_t1383673463_m2270113118_gshared
$zj:_NumberFormatter_Init_m3576155222
Ihb:__ZL33FileEntryInfoListToFolderContentsRKN4core12basic_stringIcNS_20StringStorageDefaultIcEEEERK19dynamic_block_arrayI13FileEntryInfoLj32EERNSt3__23setIS3_NSB_4lessIS3_EENSB_9allocatorIS3_EEEE
VNi:_LayoutUtility_GetLayoutProperty_m714717302
H_m:_RequestHelper_get_Body_m3873896318
eXg:__Z71RuntimeInvoker_RuntimeObject_RuntimeObject_StreamingContext_t3711869237PFvvEPK10MethodInfoPvPS4_
y3m:__ZN23InterfaceActionInvoker1IP39UnhandledExceptionEventArgs_t2886101344E6InvokeEjP11Il2CppClassP12Il2CppObjectS1_
xpg:_EventSystem_set_sendNavigationEvents_m983981895
Eed:__Z20EvaluateSlowThreadedRK11MinMaxCurveRNS_5CacheERKN4math7_float4ES7_
YAk:_Enumerator_System_Collections_IEnumerator_get_Current_m2678986219_AdjustorThunk
TAn:__ZN6il2cpp2vm9Exception18GetSystemExceptionEv
ckm:_Collection_1_IsValidItem_m3076520886_gshared
P8j:__ZN21InterfaceFuncInvoker1ItP12Il2CppObjectE6InvokeEjP11Il2CppClassS1_S1_
f1h:_Array_InternalArray__ICollection_Contains_TisArrayEntry_t3388270535_m495540481_gshared
$lb:__ZN9GfxDevice22GetDefaultVertexBufferE26GfxDefaultVertexBufferTypej
D1h:_Array_InternalArray__ICollection_Contains_TisInt64_t3736567304_m2911357929_gshared
yMb:__Z17BeginSplashScreenb
plm:_Collection_1_Remove_m3022471627_gshared
rkp:___fseeko_unlocked
Era:__ZN9Scripting11UnityEngine12Experimental9Playables21TexturePlayableOutput12CleanupProxyEv
ABj:_Object_ToString_m1740002499
jkp:_sscanf
kUk:_Dictionary_2_System_Collections_ICollection_get_SyncRoot_m3239327917_gshared
y1d:__ZN5physx3Cct17CapsuleControllerC2ERKNS_16PxControllerDescERNS_9PxPhysicsEPNS_7PxSceneE
E3a:__ZN14SafeBinaryRead21TransferSTLStyleArrayINSt3__26vectorI17BlendShapeChannelNS1_9allocatorIS3_EEEEEEvRT_17TransferMetaFlags
Z6k:_Enumerator_System_Collections_IEnumerator_get_Current_m4138390031_gshared
A9i:_Array_Resize_TisUILineInfo_t4195266810_m3763058392_gshared
ieg:_SByte_ToString_m3584531119_AdjustorThunk
lmc:__ZN9ShaderLab16SerializedShader8TransferI19StreamedBinaryWriteILb0EEEEvRT_
nzd:__ZNK4PPtrI7Joint2DEcvPS0_Ev
Wv:__ZN7mecanim9animation18CreateAvatarMemoryEPKNS0_14AvatarConstantERNS_6memory9AllocatorE
h7j:_Convert_ToInt32_m1876369743
vhj:_ModulusRing__ctor_m2420310199
NWf:_TMP_Dropdown_OnSelectItem_m1536972123
D5j:_Convert_ToDateTime_m626620011
bBl:_DefaultComparer__ctor_m3289136477_gshared
yEk:_Enumerator_System_Collections_IDictionaryEnumerator_get_Key_m2500634048_AdjustorThunk
Lpd:__Z17UpdateSprites2TplIL27ParticleSystemCurveEvalMode2ELS0_4EEvfRK11MinMaxCurveS3_RK23ParticleSystemParticlesPf
kG:__ZN7mecanim8skeleton16SkeletonPoseCopyIN4math4trsXENS2_7affineXEEEvPKNS0_13SkeletonPoseTIT_EEPNS5_IT0_EE
tBb:__Z18Transfer_BlittableI19StreamedBinaryWriteILb0EELb0EaEvRK29SerializationCommandArgumentsR31RuntimeSerializationCommandInfo
Ohl:_List_1_Remove_m3037048099_gshared
jUb:__ZN18GfxFramebufferGLES18GetFramebufferNameERK20GfxRenderTargetSetup
vpa:__ZN9Scripting11UnityEngine9Transform9InitProxyEv
WTk:_Dictionary_2_get_Values_m4208642984_gshared
tfm:_Collection_1_IsFixedSize_m1766078928_gshared
KRn:_GC_print_block_list
Jei:_IPAddress__ctor_m921977496
mnp:_saveSetjmp
hLi:_InputField_MoveDown_m1455948167
yyc:__Z45Register_UnityEngine_Transform_get_hasChangedv
VVc:__Z30Event_Get_Custom_PropCharacterP12Il2CppObject
iga:__ZN13PlayableGraph27SchedulePlayableDestructionERK9HPlayable
ssf:_cff_get_mm_var
UZd:__ZN5physx6shdfnd5ArrayINS_12PxDebugPointENS0_19ReflectionAllocatorIS2_EEE15growAndPushBackERKS2_
Fsp:_glGetFramebufferAttachmentParameteriv__wrapper
nEg:_ChannelServices_GetCurrentChannelInfo_m3041604116
sGh:_InternalEnumerator_1__ctor_m2635640285_AdjustorThunk
lub:__Z22scripting_array_length17ScriptingArrayPtr
fvj:_SynchronizedReader_Peek_m148942882
JXm:__ZN25GenericVirtActionInvoker2IP8String_tP19Action_1_t819399007E6InvokeEPK10MethodInfoP12Il2CppObjectS1_S3_
fOd:__ZN8Collider13AwakeFromLoadE17AwakeFromLoadMode
jsm:_Predicate_1_Invoke_m2308795536_gshared
Pyd:__ZNK13b2DynamicTree5QueryI19b2WorldQueryWrapperEEvPT_RK6b2AABB
U1a:__ZN14SpriteRenderer18UpdateCachedSpriteEb
cKn:__ZN15dense_hashtableINSt3__24pairIK10KeyWrapperIPcES3_EES4_N6il2cpp5utils15PassThroughHashIS3_EEN14dense_hash_mapIS4_S3_SA_NS4_14EqualsComparerINS0_8equal_toIS3_EEEENS0_9allocatorIS6_EEE9SelectKeyESF_SH_E3endEv
jzf:_Horizontal_Sweep_Init
rcm:_Collection_1_GetEnumerator_m1675075812_gshared
dEa:__Z19GetActiveColorSpacev
S8c:__ZN17SizeBySpeedModule8TransferI18StreamedBinaryReadILb0EEEEvRT_
A6m:_BoxCollider_INTERNAL_set_center_m471190135
kuf:_UNITY_tt_face_load_kern
BWh:_MonoMethodInfo_GetDeclaringType_m2924452727
AVk:_Dictionary_2_ContainsKey_m3601783571_gshared
t5:__Z6StrCmpPKcS0_
Rai:_Array_InternalArray__ICollection_Add_TisByte_t1134296376_m2816118303_gshared
iap:__ZL91U3CDisplayTextMeshProFloatingTextU3Ec__Iterator0_t2967292235_CustomAttributesCacheGeneratorP21CustomAttributesCache
_nc:__Z21CheckGpuProgramUsable20ShaderGpuProgramType
lDc:__ZN13ProduceHelperI14Texture2DArrayLb0EE7ProduceE10MemLabelId18ObjectCreationMode
RLn:__ZN6il2cpp2os9Directory20GetFileSystemEntriesERKNSt3__212basic_stringIcNS2_11char_traitsIcEENS2_9allocatorIcEEEESA_iiPi
j$i:_Array_System_Collections_IList_Add_m1063688101
Pie:__ZN5physx6shdfnd5ArrayIPvNS0_19ReflectionAllocatorINS_2Cm5BlockIhLj128EEEEEE4copyINS0_15InlineAllocatorILj256ES7_EEEEvRKNS1_IS2_T_EE
qYo:__ZL66Navigation_t3049316579_CustomAttributesCacheGenerator_m_SelectOnUpP21CustomAttributesCache
kmf:__ZN20TextRenderingPrivate19NativeTextGenerator5SetupEv
s7b:__ZNK15SharedLightData24GetFinalShadowResolutionEv
q0k:_PatternCompiler_EmitAlternationEnd_m2444359097
bIo:__ZL91GameObject_t1113636619_CustomAttributesCacheGenerator_GameObject_get_activeSelf_m1767405923P21CustomAttributesCache
wem:_Collection_1_Insert_m162655676_gshared
wme:__ZN5physx6shdfnd8PoolBaseINS_16NpConnectorArrayENS0_19ReflectionAllocatorIS2_EEE15disposeElementsEv
_6a:__ZN12AspectRatios8TransferI18StreamedBinaryReadILb0EEEEvRT_
nff:__ZN14PhysicsManager19CreatePvdConnectionEv
M5n:_JSONObject_GetEnumerator_m3251166103
uXf:_TMP_Settings_get_fallbackFontAssets_m4226204732
upc:__ZN10GameObject14CopyPropertiesERS_
xXc:__Z44Register_UnityEngine_GUIStyle_get_fixedWidthv
$2h:_Array_InternalArray__ICollection_Remove_TisLink_t544317964_m1280781374_gshared
zLn:__ZNSt3__214__split_bufferIN6il2cpp2os10ThreadImpl10APCRequestERNS_9allocatorIS4_EEEC2EjjS7_
B1i:_BitConverter_DoubleWordsAreSwapped_m1474345095
eOl:_ReadOnlyCollection_1_System_Collections_Generic_IListU3CTU3E_get_Item_m2815941486_gshared
H6g:__Z114RuntimeInvoker_Int32_t2950945753_Vector2_t2156229523_Vector2_t2156229523_ContactFilter2D_t3805203441_RuntimeObjectPFvvEPK10MethodInfoPvPS4_
v6i:_FixedSizeArrayListWrapper_set_Capacity_m4221053039
Mkp:_rand
htp:_emscripten_glFramebufferRenderbuffer__wrapper
jMc:__ZN13MeshScripting10CreateMeshE21ScriptingObjectOfTypeI4MeshE
DCm:_ListPool_1__cctor_m3480273184_gshared
Fle:__ZNK5physx12NpConstraint9getActorsERPNS_12PxRigidActorES3_
M3g:__Z56RuntimeInvoker_Void_t1185182177_PropertyName_t3749835189PFvvEPK10MethodInfoPvPS4_
Gz:__ZN17AnimationPlayable22PrepareAnimationEventsEfR13dynamic_arrayI22AnimationClipEventInfoLj0EE
k3n:_JSONNode_get_Item_m186825768
Cqg:__ZN23InterfaceActionInvoker1IP25BaseEventData_t3903027533E6InvokeEjP11Il2CppClassP12Il2CppObjectS1_
kvb:__ZN14SafeBinaryRead21TransferSTLStyleArrayINSt3__26vectorI17AnimationCurveTplIfE13stl_allocatorIS4_L18MemLabelIdentifier1ELi16EEEEEEvRT_17TransferMetaFlags
_6i:_SynchronizedArrayListWrapper_Contains_m3809499313
fqj:_HandshakeMessage_Compare_m2214647946
Taf:__ZN5physx6shdfnd8PoolBaseIN17PxcPoolMallocData10PoolData16ENS0_19ReflectionAllocatorIS3_EEE15disposeElementsEv
ZLd:__ZN9Rigidbody23UpdateInterpolationNodeEv
bpn:__ZN15dense_hashtableINSt3__24pairIK10KeyWrapperINS1_IPK11Il2CppImageP11Il2CppClassEEEjEES9_17ReflectionMapHashIS8_EN14dense_hash_mapIS9_jSD_NS9_14EqualsComparerINS0_8equal_toIS8_EEEENS0_9allocatorISB_EEE9SelectKeyESI_SK_E12expand_arrayEjN21dense_hash_map_traits17integral_constantIbLb0EEE
uob:__ZN9GfxDevice30ResolveComputeProgramResourcesE12ObjectHandleI18ComputeProgram_TagPvER19ComputeShaderKernelR13dynamic_arrayI15ComputeShaderCBLj0EERS6_I18ComputeShaderParamLj0EEb
Mgg:_HMACSHA256__ctor_m346174875
xpi:_Color_op_Multiply_m2887457390
R9b:__Z22PrepareOptimizedPlanesPK5PlaneiPKN4math7_float4E
dxh:_InternalEnumerator_1__ctor_m1559487635_gshared
o6k:_LinkedList_1_System_Collections_ICollection_get_IsSynchronized_m345853585_gshared
U1:__ZN11UnityEngine15CloudWebService17WebFileDownloaderINS0_20WebRequestRestClientENS0_23WebRequestRestHeaderMapEE10InitializeERKN4core12basic_stringIcNS5_20StringStorageDefaultIcEEEE
yea:__ZN17UniqueIDGenerator15CreatePureIndexEv
bdi:_Stopwatch_get_Elapsed_m1649583664
sbp:__ZL183U3CDownloadAndSaveU3Ec__Iterator0_t94015540_CustomAttributesCacheGenerator_U3CDownloadAndSaveU3Ec__Iterator0_System_Collections_Generic_IEnumeratorU3CobjectU3E_get_Current_m3992611781P21CustomAttributesCache
aBc:__Z48InitializeRectTransformAnimationBindingInterfacev
K0a:__ZN16BlitStereoHelper16PrepareEyeRenderEiRK19ShaderPropertySheetRS0_bRK8Vector2fS6_14VRTextureUsage
tGe:__ZN5physx7NpScene8addActorERNS_7PxActorE
x9a:__ZNSt3__26vectorIN15ResourceManager10DependencyE13stl_allocatorIS2_L18MemLabelIdentifier52ELi16EEE6assignINS_11__wrap_iterIPS2_EEEENS_9enable_ifIXaasr21__is_forward_iteratorIT_EE5valuesr16is_constructibleIS2_NS_15iterator_traitsISC_E9referenceEEE5valueEvE4typeESC_SC_
W8m:__ZN15dense_hashtableINSt3__24pairIK10KeyWrapperIPK22Il2CppGenericParameterEP11Il2CppClassEES6_N6il2cpp5utils11PointerHashIS4_EEN14dense_hash_mapIS6_S9_SE_NS6_14EqualsComparerINS0_8equal_toIS5_EEEENS0_9allocatorISA_EEE9SelectKeyESJ_SL_E14squash_deletedEv
gOa:__ZN9ShaderLabL27GetDesiredRenderTextureDescEPK6Camera
uFh:_InternalEnumerator_1_get_Current_m1523142935_AdjustorThunk
Sud:__ZNK12b2MouseJoint17GetReactionTorqueEf
srl:_Array_InternalArray__Insert_TisMark_t3471605523_m2854535880_gshared
KLc:__ZN4Mesh24UpdateSubMeshVertexRangeEi
GEc:__ZZL23RegisterLightPropertiesR22GenericPropertyBindingEN18Wrapper_LightRange13SetFloatValueEPvf
FNo:__ZL52HumanBone_t2465339518_CustomAttributesCacheGeneratorP21CustomAttributesCache
b4n:_JSONNode_op_Implicit_m3237263780
RKg:_MethodReturnDictionary__cctor_m278392388
Elo:__ZL98SerializationInfo_t950877179_CustomAttributesCacheGenerator_SerializationInfo_GetUInt32_m776835457P21CustomAttributesCache
o1b:__ZNK9Transform18TransformDirectionERK8Vector3f
Q6e:__ZN5physx21PxsBodyTransformVault6updateEv
sib:__ZNK17ArchiveFileSystem12GetAssetGUIDERK13FileEntryData
YZo:__ZL80CanvasScaler_t2767979955_CustomAttributesCacheGenerator_m_ReferencePixelsPerUnitP21CustomAttributesCache
Usf:_otv_MarkLigPos_validate
Pmk:_Thread_GetSerializedCurrentUICulture_m3681656498
g4o:__ZL74TMP_Text_t2599618874_CustomAttributesCacheGenerator_m_enableVertexGradientP21CustomAttributesCache
pXd:__ZL29GeomMTDCallback_CapsuleConvexRN5physx6PxVec3ERfRKNS_10PxGeometryERKNS_11PxTransformES5_S8_
ZQh:_GenericTypeParameterBuilder_GetCustomAttributes_m580748276
Ndp:_TMP_TextEventHandler_set_onSpriteSelection_m4271763567
yOm:_AnalyticsTracker_get_TP_m2800669040
Lfn:__ZN15dense_hashtableINSt3__24pairIK10KeyWrapperIPK11Il2CppClassEPKcEES6_N6il2cpp5utils11PointerHashIS3_EEN14dense_hash_mapIS6_S9_SE_NS6_14EqualsComparerINS0_8equal_toIS5_EEEENS0_9allocatorISA_EEE9SelectKeyESJ_SL_E12resize_deltaEjj
x$f:_TMP_InputField_DoStateTransition_m1946589647
Ahj:_Kernel_LeftShift_m4140742987
qCj:_Assembly_GetManifestResourceInternal_m1224391897
SEa:__Z30AddDefaultStreamsToMeshBuffersR9GfxDeviceR11MeshBuffersj17ShaderChannelMaskS3_
F5:__ZL16GetInterfaceImpl18UnityInterfaceGUID
ZUf:_TMP_DefaultControls_SetLayerRecursively_m3201739960
oOn:__ZN6il2cpp6icalls8mscorlib6System15MonoCustomAttrs27GetCustomAttributesInternalEP12Il2CppObjectP20Il2CppReflectionTypeb
xc:invoke_viifi
xQc:__Z55Register_UnityEngine_Quaternion_FromToRotation_Injectedv
oyf:_UNITY_TT_Set_MM_Blend
fta:__ZN9Scripting11UnityEngine11Application9InitProxyEv
LGm:_TMPro_EventManager_ON_FONT_PROPERTY_CHANGED_m1466790487
Amm:_InternalAsyncResult_get_FromWrite_m4228047810
pWg:__Z53RuntimeInvoker_MonoEventInfo_t346866618_RuntimeObjectPFvvEPK10MethodInfoPvPS4_
lKl:_Collection_1_CopyTo_m955200729_gshared
IVd:__ZNK5physx3Cct13BoxController11getPositionEv
QMb:__ZN14PreloadManager35WaitForAllAsyncOperationsToCompleteEv
jbn:__ZN13Il2CppHashMapIP9FieldInfoiN6il2cpp5utils11PointerHashIS0_EENSt3__28equal_toIS1_EENS6_9allocatorINS6_4pairIK10KeyWrapperIS1_EiEEEEEC2EjRKS5_RKS8_
D6:__ZNSt3__26__treeINS_12__value_typeIPKc11ShaderTagIDEENS_19__map_value_compareIS3_S5_27compare_tstring_insensitiveIS3_ELb1EEENS_9allocatorIS5_EEE7destroyEPNS_11__tree_nodeIS5_PvEE
bEl:_EqualityComparer_1__ctor_m1138336971_gshared
PPd:__Z27sweepCCTBox_HeightFieldGeomRKN5physx10PxGeometryERKNS_11PxTransformERKNS_2Gu3BoxERKNS_6PxVec3EfRNS_10PxSweepHitENS_7PxFlagsINS_9PxHitFlag4EnumEtEEf
w7:__ZNK18ScriptingObjectPtr17ToScriptingStringEv
eO:__ZL31InitializeAudioScriptingClassesv
I7o:__ZL80U3CSpawnEnemyType3WaveU3Ec__Iterator9_t1553313282_CustomAttributesCacheGeneratorP21CustomAttributesCache
J0b:__Z14SortGUIByDepthP10GUIElementS0_
Ngk:_DecoderExceptionFallback_GetHashCode_m1820789965
PLo:__ZL100TextGenerator_t3211863866_CustomAttributesCacheGenerator_TextGenerator_get_characterCount_m864136654P21CustomAttributesCache
ccd:__Z19UpdateProceduralTplIL27ParticleSystemCurveEvalMode0EEvRK20DualMinMaxPolyCurvesR23ParticleSystemParticlesPfRKN4math7_float4E
oFb:__ZN18StreamedBinaryReadILb1EE21TransferSTLStyleArrayI13dynamic_arrayIhLj0EEEEvRT_17TransferMetaFlags
Fyi:_PlayerConnection_OnEnable_m4286555589
eXf:_TMP_Settings_get_warningsDisabled_m4194286636
E$g:__Z69RuntimeInvoker_UInt32_t2560061978_Int32_t2950945753_SByte_t1669577662PFvvEPK10MethodInfoPvPS4_
cH:__ZN12_GLOBAL__N_120ProcessRootMotionMixER33AnimationPlayableEvaluationOutputR35AnimationPlayableEvaluationConstantR32AnimationPlayableEvaluationInputS1_f
f5k:_UriParser__cctor_m3655686731
ZWd:__ZN5physx3Cct9SweepTest18updateTouchedGeomsEPKNS0_30InternalCBData_FindTouchedGeomERKNS0_13UserObstaclesERKNS_17PxExtendedBounds3ERKNS_19PxControllerFiltersERKNS_6PxVec3E
Foh:__Z36RuntimeInvoker_Enumerator_t463618097PFvvEPK10MethodInfoPvPS4_
gSo:__ZL88Canvas_t3310196443_CustomAttributesCacheGenerator_Canvas_get_overrideSorting_m2740418462P21CustomAttributesCache
Evi:_Material_SetColor_m355160541
LNi:_LayoutRebuilder_U3Cs_RebuildersU3Em__0_m589488547
djf:_PxCloseExtensions
znh:__Z53RuntimeInvoker_KeyValuePair_2_t71524366_RuntimeObjectPFvvEPK10MethodInfoPvPS4_
khb:__ZNK20LocalFileSystemPosix21GetAvailableDiskSpaceEPKcRy
iM:__ZNSt3__26__treeIiNS_4lessIiEENS_9allocatorIiEEE7destroyEPNS_11__tree_nodeIiPvEE
q5k:_KeyValuePair_2_get_Value_m392474074_AdjustorThunk
Mlb:__ZNK9GfxDevice14GetWorldMatrixEv
yxm:_InvokableCall_2_Invoke_m3594767000_gshared
vin:_RemoteConfigSettings_t1247263429_marshal_pinvoke
j_n:_U3CDelayU3Ec__Iterator1_Reset_m2353695391
YHi:_Transform_set_parent_m786917804
NMn:__ZN15dense_hashtableINSt3__24pairIK10KeyWrapperIPK19Il2CppGenericMethodEP10MethodInfoEES6_N6il2cpp8metadata23Il2CppGenericMethodHashEN14dense_hash_mapIS6_S9_SD_NS6_14EqualsComparerINSC_26Il2CppGenericMethodCompareEEENS0_9allocatorISA_EEE9SelectKeyESH_SJ_E13set_empty_keyERKSA_
NUi:_Slider_get_value_m739683640
Ifb:__Z19scripting_array_new17ScriptingClassPtrjj
qlh:__Z60RuntimeInvoker_PlayerLoopSystem_t105772105_Int32_t2950945753PFvvEPK10MethodInfoPvPS4_
yT:__ZN11SoundHandle13CreateChannelEb
JGl:_GenericEqualityComparer_1_Equals_m1942949784_gshared
jmk:_WaitCallback_BeginInvoke_m3012509827
Dkc:__ZNSt3__26vectorIN9ShaderLab20SerializedSubProgram16TextureParameterENS_9allocatorIS3_EEE6assignIPS3_EENS_9enable_ifIXaasr21__is_forward_iteratorIT_EE5valuesr16is_constructibleIS3_NS_15iterator_traitsISA_E9referenceEEE5valueEvE4typeESA_SA_
men:__ZN13Il2CppHashMapIN6il2cpp5utils13dynamic_arrayIPK10Il2CppTypeLj4EEEPFvvENS0_8metadata19Il2CppSignatureHashENS9_22Il2CppSignatureCompareENSt3__29allocatorINSC_4pairIK10KeyWrapperIS6_ES8_EEEEEC2EjRKSA_RKSB_
uQo:__ZL104Physics2D_t1528932956_CustomAttributesCacheGenerator_Physics2D_GetRayIntersectionAll_Internal_m643548862P21CustomAttributesCache
v6l:__ZN21InterfaceFuncInvoker0I22UILineInfo_t4195266810E6InvokeEjP11Il2CppClassP12Il2CppObject
bTg:__Z122RuntimeInvoker_Void_t1185182177_RuntimeObject_RuntimeObject_ContractionU5BU5DU26_t2277527001_Level2MapU5BU5DU26_t359320357PFvvEPK10MethodInfoPvPS4_
Drn:__ZN15dense_hashtableINSt3__24pairIK10KeyWrapperIPK22Il2CppGenericParameterEPK24MonoGenericParameterInfoEES6_N6il2cpp5utils11PointerHashIS4_EEN14dense_hash_mapIS6_SA_SF_NS6_14EqualsComparerINS0_8equal_toIS5_EEEENS0_9allocatorISB_EEE9SelectKeyESK_SM_E15set_deleted_keyERKSB_
geg:_SByte_TryParse_m2431806379
wcn:__ZNK15dense_hashtableINSt3__24pairIK10KeyWrapperIP9FieldInfoEiEES5_N6il2cpp5utils11PointerHashIS3_EEN14dense_hash_mapIS5_iSB_NS5_14EqualsComparerINS0_8equal_toIS4_EEEENS0_9allocatorIS7_EEE9SelectKeyESG_SI_E8min_sizeEjj
mso:__ZL64ObjectDisposedException_t21392786_CustomAttributesCacheGeneratorP21CustomAttributesCache
rKa:__ZN6prcoreL11inner_clearILj2EEEvPhjjj
Bxo:__ZL103Application_t1852185770_CustomAttributesCacheGenerator_Application_t1852185770____platform_PropertyInfoP21CustomAttributesCache
Rta:__ZN9Scripting5Unity11Collections8LowLevel6Unsafe24NativeContainerAttribute9InitProxyEv
Uyo:__ZL92Debug_t3317548046_CustomAttributesCacheGenerator_Debug_LogWarningFormat_m1153215311____args2P21CustomAttributesCache
Kfg:_DSACryptoServiceProvider_get_KeySize_m786836990
pfp:_FormPart_Read_m2058419040
mud:__ZN12b2WheelJoint24SolvePositionConstraintsERK12b2SolverData
Qte:__ZNK5physx2Sc9ClothCore20getNbCollisionPlanesEv
yh:_emscripten_exit_fullscreen
dCf:__ZN2UI11CanvasGroup23VirtualRedirectTransferER18StreamedBinaryReadILb0EE
GVe:__ZNK5physx23PxsBroadPhaseContextSap7getTypeEv
U8e:__ZNK5physx13GuMeshFactory17getNbHeightFieldsEv
Ptl:_Array_qsort_TisBoolean_t97287965_TisBoolean_t97287965_m214793583_gshared
C8n:_TMP_FrameRateCounter__ctor_m4136266118
q7k:_Enumerator_System_Collections_IEnumerator_Reset_m1564381721_gshared
xff:__ZN14PhysicsManager19CreateDynamicsSceneEbb14BroadphaseType16ContactPairsModeRK4AABBi
gBc:__ZZL31RegisterRectTransformPropertiesR22GenericPropertyBindingEN39Wrapper_RectTransformAnchoredPositiony113GetFloatValueEPv
uBj:_Object_MemberwiseClone_m1474068832
KKn:__ZN6il2cpp6icalls8mscorlib6System6String19InternalAllocateStrEi
T3c:__Z29Transfer_Blittable_ArrayFieldI8JSONRead11QuaternionfEvRT_R9ArrayInfoRK23StaticTransferFieldInfo
T$i:_Array_SetValue_m282347242
gQe:__ZNK5physx2Gu12OBBAABBTestsILb1EEclENS_6shdfnd3aos5Vec3VES5_
jin:__ZN6il2cpp6icalls6System6System3Net7Sockets6Socket8ShutdownEiNS4_14SocketShutdownEPi
Ovc:__Z45Register_UnityEngine_Camera_get_targetDisplayv
TGc:__ZNK24RendererAnimationBinding15GenerateBindingERKN4core12basic_stringIcNS0_20StringStorageDefaultIcEEEEbRN11UnityEngine9Animation14GenericBindingE
Gza:__ZN33RendererCullingCallbackPropertiesC2ERK6CameraRK10Matrix4x4f
ofi:_IPv6Address__ctor_m3704187391
FJa:__Z15GetFlareManagerv
Fwc:__ZN15ApplicationInfo24GetApplicationIdentifierEv
vLc:__ZN4Mesh15AppendTrianglesERNSt3__26vectorIj13stl_allocatorIjL18MemLabelIdentifier1ELi16EEEEjRK13dynamic_arrayI7SubMeshLj0EEPK14SharedMeshDatab
tWd:__ZN5physx3Cct9SweepTestD2Ev
Rua:__ZN9Behaviour8TransferI18StreamedBinaryReadILb0EEEEvRT_
_v:__ZN8Animator13GetAvatarRootEv
b_d:__ZN26IntersectAnyVsMeshCallbackILi0ELb0EED2Ev
Mip:___toread
FKb:__ZNSt3__26vectorI10vector_mapIiiNS_4lessIiEE13stl_allocatorINS_4pairIiiEEL18MemLabelIdentifier38ELi16EEES4_IS9_LS7_38ELi16EEE26__swap_out_circular_bufferERNS_14__split_bufferIS9_RSA_EE
p1f:_TMP_Settings_get_version_m3911328366
Ygj:_BigInteger_get_Rng_m3283260184
uuo:__ZL110WebProxy_t2016760542_CustomAttributesCacheGenerator_WebProxy_t2016760542____UseDefaultCredentials_PropertyInfoP21CustomAttributesCache
_K:__ZN8Animator22ScriptingStringToCRC32ERK11ICallString
Yso:__ZL55EventHandler_t1348719766_CustomAttributesCacheGeneratorP21CustomAttributesCache
eH:__ZN7mecanim9animation16EvaluateAvatarDXEPKNS0_14AvatarConstantEPKNS0_11AvatarInputEPNS0_12AvatarMemoryEPNS0_15AvatarWorkspaceEPNS0_12AvatarOutputE
IVb:__ZN4gles20DestroyRenderSurfaceEP7ApiGLESP17RenderSurfaceGLES
Fej:_Array_InternalArray__get_Item_TisKeyValuePair_2_t2530217319_m2886833132_gshared
gFb:__ZN18StreamedBinaryReadILb1EE21TransferSTLStyleArrayI13dynamic_arrayIN4math12int3_storageELj0EEEEvRT_17TransferMetaFlags
zep:_CookieJar_get_Instance_m918869625
Cma:__ZL50__ManagedRegistrationHelperFunction_UnityEventBasePv
Rxc:__Z34Transform_CUSTOM_SetAsFirstSiblingP12Il2CppObject
jFk:_Enumerator__ctor_m1280792063_AdjustorThunk
aZd:__ZN12_GLOBAL__N_141SphereMeshContactGenerationCallback_ScaleD0Ev
D9c:__ZN21RotationBySpeedModule8TransferI19StreamedBinaryWriteILb0EEEEvRT_
x$d:__ZN5physx3Cct17CapsuleController16setContactOffsetEf
tdp:_WarpTextExample_Start_m647679331
WSg:__Z63RuntimeInvoker_Void_t1185182177_RuntimeObject_SByte_t1669577662PFvvEPK10MethodInfoPvPS4_
Iyo:__ZL57SetupCoroutine_t2062820429_CustomAttributesCacheGeneratorP21CustomAttributesCache
YKi:_InputField_Delete_m3471899192
mro:__ZL79Convert_t2465617642_CustomAttributesCacheGenerator_Convert_ToUInt64_m1627266664P21CustomAttributesCache
Ajo:__ZL91UrlAttribute_t221584584_CustomAttributesCacheGenerator_UrlAttribute_IsContextOK_m1228378186P21CustomAttributesCache
AEg:_RemotingConfiguration_get_ProcessId_m2180277012
q_:__ZN11UnityEngine15CloudWebService17SessionEventQueue14ParseEventDataERKN4core12basic_stringIcNS2_20StringStorageDefaultIcEEEE
oCh:_InternalEnumerator_1__ctor_m3114520374_AdjustorThunk
O2f:_TMP_SubMesh_get_fontAsset_m1687591748
fle:__ZN12GeomQueryAnyIN5physx10PxSweepHitEE7geomHitERKNS0_2Sq17SceneQueryManagerERKNS0_15MultiQueryInputERKNS3_9ShapeDataERKNS0_10PxGeometryERKNS0_11PxTransformENS0_7PxFlagsINS0_9PxHitFlag4EnumEtEEjPS1_fbPNS0_9PxBounds3E
jLk:_Transform_1_BeginInvoke_m4058251461_gshared
Sel:_List_1_Remove_m2605758101_gshared
pno:__ZL94WindowsIdentity_t2948242406_CustomAttributesCacheGenerator_WindowsIdentity_Dispose_m3466258450P21CustomAttributesCache
cTb:__ZN13TranslateGLES4InitERK12GraphicsCaps16GfxDeviceLevelGL
xHb:__Z29Transfer_Blittable_ArrayFieldI18StreamedBinaryReadILb0EE10ColorRGBAfEvRT_R9ArrayInfoRK23StaticTransferFieldInfo
wYd:__ZN43CapsuleHeightfieldContactGenerationCallback7onEventEjPj
KNl:_ReadOnlyCollection_1_System_Collections_IList_Insert_m4244537418_gshared
yOd:__ZThn4_N12MemoryStream4readEPvj
W7m:_NativeTypeAttribute_set_CodegenOptions_m3839252515
WCl:_EqualityComparer_1_get_Default_m180770000_gshared
XUn:__GLOBAL__sub_I_Runtime_cpp_16081
eYj:_Int64_System_IConvertible_ToUInt16_m848637338_AdjustorThunk
vJf:__Z32CustomEventData_CUSTOM_AddUInt32P12Il2CppObjectP12Il2CppStringj
K4k:_Uri_get_PathAndQuery_m2396197970
fVk:_Dictionary_2_System_Collections_Generic_ICollectionU3CSystem_Collections_Generic_KeyValuePairU3CTKeyU2CTValueU3EU3E_Add_m2414635523_gshared
H8h:_Array_InternalArray__IndexOf_TisLink_t544317964_m455584088_gshared
hbm:_Enumerator_get_Current_m2282646120_AdjustorThunk
WUl:_ReadOnlyCollection_1_IndexOf_m2539022912_gshared
APg:__Z66RuntimeInvoker_Boolean_t97287965_RuntimeObject_Int64U26_t200113976PFvvEPK10MethodInfoPvPS4_
sDe:__ZN5physx6shdfnd8internal8HashBaseIPNS_13NpVolumeCacheES4_NS0_4HashIS4_EENS1_11HashSetBaseIS4_S6_NS0_9AllocatorELb0EE6GetKeyES8_Lb0EE15reserveInternalEj
eZo:__ZL66Selectable_t3250028441_CustomAttributesCacheGenerator_m_TransitionP21CustomAttributesCache
aWn:__ZN6il2cpp2os6Memory12AlignedAllocEjj
tll:_List_1_AsReadOnly_m3745969689_gshared
hoe:__ZN5physx6shdfnd8internal8HashBaseIPKNS_6PxBaseES5_NS0_4HashIS5_EENS1_11HashSetBaseIS5_S7_NS0_9AllocatorELb0EE6GetKeyES9_Lb0EE6createERKS5_Rb
z7k:_Enumerator_get_Current_m2305210644_AdjustorThunk
X0c:__ZN9JSONWrite8TransferI13dynamic_arrayIN4math12int3_storageELj0EEEEvRT_PKc17TransferMetaFlags
Iak:_DateTime_get_TimeOfDay_m82064893
lUe:__ZN5physx28solveFrictionCoulombPreBlockEPKNS_23PxcSolverConstraintDescEjRNS_16PxcSolverContextE
TVi:_Text_set_alignByGeometry_m3828822280
Vai:_Array_InternalArray__ICollection_Add_TisKeyValuePair_2_t1383673463_m1385069916_gshared
vPn:__ZN6il2cpp8metadataL7CompareEPK10Il2CppTypeS3_
jxb:__Z18Transfer_BlittableI17RemapPPtrTransferLb0E11ColorRGBA32EvRK29SerializationCommandArgumentsR31RuntimeSerializationCommandInfo
wKo:__ZL105RectTransform_t3704657025_CustomAttributesCacheGenerator_RectTransform_INTERNAL_get_anchorMax_m1239315619P21CustomAttributesCache
nbi:_HybridDictionary__ctor_m1681134385
$Cm:_CRC32__ctor_m1614943059
cAa:__ZN21ScalableBufferManager11GetInstanceEv
OFb:__Z18Transfer_BlittableI18StreamedBinaryReadILb0EELb1E10ColorRGBAfEvRK29SerializationCommandArgumentsR31RuntimeSerializationCommandInfo
kTa:__ZN12CubemapArray23VirtualRedirectTransferER17RemapPPtrTransfer
lpk:_TimeSpan_op_LessThan_m1594498345
gtc:__ZL27GetComponentsImplementationILb0ELi0EEbR10GameObjectbRK17CompareParametersRK39GetComponentsImplementation_ReturnValue
$Il:_Collection_1_set_Item_m2355850893_gshared
EJb:__ZN9Scripting36IsSystemCollectionsGenericDictionaryE17ScriptingClassPtr
gAm:_UnityEvent_1_FindMethod_Impl_m322741469_gshared
fko:__ZL92ConstructionCallDictionary_t686578562_CustomAttributesCacheGenerator_U3CU3Ef__switchU24map24P21CustomAttributesCache
t8n:_U3CDisplayTextMeshProFloatingTextU3Ec__Iterator0_System_Collections_IEnumerator_get_Current_m520746775
Rje:__ZN5physx12NpConstraint12actorDeletedEPNS_12PxRigidActorE
xSf:__Z54Register_UnityEngine_Networking_UnityWebRequest_Createv
AZo:__ZL64Slider_t3903728902_CustomAttributesCacheGenerator_m_WholeNumbersP21CustomAttributesCache
DXm:_Enumerator_get_Current_m2591725252
zba:__ZL16ReadTypeTreeImplILb0EEbR8TypeTreeRK16TypeTreeIteratorRPKhS6_i
B_k:_Interval_Contains_m110351300_AdjustorThunk
i7j:_Convert_ToInt32_m3048308591
ow:__ZN25RuntimeAnimatorControllerD2Ev
e$o:__ZL77LayoutUtility_t2745813735_CustomAttributesCacheGenerator_U3CU3Ef__amU24cache6P21CustomAttributesCache
aQi:_RectMask2D_OnCanvasHierarchyChanged_m3195492255
U2o:__ZL78TMP_Settings_t2071156274_CustomAttributesCacheGenerator_m_enableTintAllSpritesP21CustomAttributesCache
xck:_DateTimeOffset_Equals_m3030958070
B2d:__ZN5physx2Sc8ShapeSim18reinsertBroadPhaseEv
iJa:__ZNK22BuiltinResourceManager21GetResourceInstanceIDEPKN5Unity4TypeERKN4core12basic_stringIcNS4_20StringStorageDefaultIcEEEE
yHb:__ZN18StreamedBinaryReadILb0EE21TransferSTLStyleArrayI13dynamic_arrayI10ColorRGBAfLj0EEEEvRT_17TransferMetaFlags
Nuc:__Z42Register_UnityEngine_RectOffset_set_bottomv
COm:_AnalyticsTracker_BuildParameters_m43920649
eie:__ZN5physx2Sc5Scene11removeShapeERNS0_8ShapeSimEb
PSj:_DateTimeFormatInfo_GetMonthName_m2034512315
O2b:__ZN28LightProbeProxyVolumeContext8CopyFromERKS_
HVl:_ReadOnlyCollection_1_System_Collections_Generic_IListU3CTU3E_Insert_m2489506856_gshared
iza:__ZN23TransformChangeDispatch32QueueTransformChangeIfHasChangedER18TransformHierarchy
RBk:_Enumerator_System_Collections_IEnumerator_get_Current_m1145487420_gshared
sYf:_TMP_InputField_get_onSelect_m1664894426
Fwi:_Matrix4x4_MultiplyPoint_m1575665487
B_n:_U3CSpawnEnemyType1WaveU3Ec__Iterator5_System_Collections_Generic_IEnumeratorU3CobjectU3E_get_Current_m1994893278
JVb:__ZN7ApiGLES18DeleteRenderbufferERj
j6d:__ZN5physx6shdfnd5ArrayIPvNS0_15InlineAllocatorILj256ENS0_19ReflectionAllocatorINS_16NpConnectorArrayEEEEEE15growAndPushBackERKS2_
VUb:__ZL23ProgramUniformMatrix4fvPK7ApiGLESjiihPKv
WOb:__ZN7ApiGLES13CreateTextureEjj14GraphicsFormatiiiii
$fp:_Request__cctor_m1449343363
C0i:_Array_new_gap_m262136975
Txd:__Z10b2DistanceP16b2DistanceOutputP14b2SimplexCachePK15b2DistanceInput
UXe:__ZN5physx14SingleAABBTaskC2Ev
jkc:__ZN9ShaderLab20SerializedSubProgram15MatrixParameter8TransferI14SafeBinaryReadEEvRT_
e8f:_TMP_Text_SetCharArray_m3635885420
TXa:__ZN4core8hash_mapIiN28ReflectionProbeAnchorManager16CachedAnchorDataENS_4hashIiEENSt3__28equal_toIiEEEixERKi
AEf:__Z46Register_UnityEngine_Canvas_set_sortingLayerIDv
w8f:_TMP_Text_HexCharsToColor_m2075419509
P7k:_Enumerator_System_Collections_IEnumerator_get_Current_m1846615603_gshared
itc:__ZL27GetComponentsImplementationILb0ELi1EEbR10GameObjectbRK17CompareParametersRK39GetComponentsImplementation_ReturnValue
UXk:_X509Store__ctor_m275383717
AHi:_Transform_INTERNAL_get_position_m1310184257
wgc:__Z29StdTemplateConversionFunctionIatEbPvR14SafeBinaryRead
fhn:__ZN6il2cpp2vm13MetadataCache40AddThreadLocalStaticOffsetForFieldLockedEP9FieldInfoiRKNS_2os12FastAutoLockE
ydf:__ZN5physx12storeIndicesEjjPKjRNS_14PxOutputStreamEb
CBa:__ZN13RenderTexture7ReleaseEv
q1c:__Z18Transfer_BlittableI8JSONReadLb1EN4math12int3_storageEEvRK29SerializationCommandArgumentsR31RuntimeSerializationCommandInfo
u1a:__ZN10MeshFilter23VirtualRedirectTransferER14SafeBinaryRead
A7e:__ZNK5physx13NpClothFabric17getReferenceCountEv
sli:_AsnEncodedData_get_Oid_m402887164
j5a:__ZN12MeshRenderer17MainThreadCleanupEv
L9m:__ZN6il2cpp2vmL10InitLockedEP11Il2CppClassRKNS_2os12FastAutoLockE
vqb:__ZN22CreateGpuProgramOutput12CreateParamsEv
mP:__ZN10ObjectPoolIN4FMOD7ChannelENS0_8ChannelIEE7GetFreeEi
WOh:_DynamicMethod_IsDefined_m2556354904
lu:__ZL62__ManagedRegistrationHelperFunction_AnimatorOverrideControllerPv
yph:__Z96RuntimeInvoker_RuntimeObject_CustomAttributeNamedArgument_t287865710_RuntimeObject_RuntimeObjectPFvvEPK10MethodInfoPvPS4_
uzg:_FontData_get_font_m2720086288
Gge:__ZNK5physx18NpArticulationLink11getChildrenEPPNS_18PxArticulationLinkEj
Uxh:_InternalEnumerator_1_System_Collections_IEnumerator_get_Current_m548105685_gshared
VSb:__ZNK14GfxContextGLES13GetDefaultFBOEv
nkh:__Z99RuntimeInvoker_Void_t1185182177_UILineInfoU5BU5DU26_t2468919161_Int32_t2950945753_Int32_t2950945753PFvvEPK10MethodInfoPvPS4_
J2i:_Byte_System_IConvertible_ToType_m2251112646
gRc:__Z55Register_UnityEngine_MonoBehaviour_StopCoroutineManagedv
V8g:__Z81RuntimeInvoker_Char_t3634460470_RuntimeObject_Int32_t2950945753_Int16_t2552820387PFvvEPK10MethodInfoPvPS4_
n4e:__Z15atomIntegrationfPKPN5physx11PxsBodyCoreEPKPNS_12PxsRigidBodyEjPKNS_2Cm13SpatialVectorEPNS_13PxcSolverBodyEPNS_17PxcSolverBodyDataEPS9_RjSH_
Lak:_DateTime_get_Hour_m4153505178_AdjustorThunk
cMb:__ZN14GraphicsHelper5ClearE13GfxClearFlagsRK10ColorRGBAffjR17ShaderPassContext
sFm:_ZlibBaseStream_ReadZeroTerminatedString_m934210149
bJj:_Evidence_Equals_m1478353107
Z_k:_CostDelegate__ctor_m4027655829
xCe:__ZN5physx13NpRigidStatic11createShapeERKNS_10PxGeometryEPKPNS_10PxMaterialEtNS_7PxFlagsINS_11PxShapeFlag4EnumEhEE
MKc:__Z13GetImagePixelI10ColorRGBAfET_PKhii13TextureFormat15TextureWrapModeS5_ii
u4l:_List_1_System_Collections_IList_set_Item_m1842844683_gshared
MCm:_ObjectPool_1__ctor_m2535233435_gshared
pBm:_EventFunction_1__ctor_m4292798223_gshared
xwn:__ZN6il2cpp2vm6Thread49CheckCurrentThreadForInterruptAndThrowIfNecessaryEv
yPj:_Enum_ToObject_m1136033697
xEa:__ZNSt3__23mapIN9ShaderLab16FastPropertyNameEN18UnityPropertySheet11UnityTexEnvENS_4lessIS2_EENS_9allocatorINS_4pairIKS2_S4_EEEEEixERS9_
XOb:__ZNK13TranslateGLES25GetTextureTargetDimensionEj
eCj:_RankException__ctor_m3453633632
lae:__ZN5physx11NpAggregate22removeActorAndReinsertERNS_7PxActorEb
rkh:__Z96RuntimeInvoker_Void_t1185182177_Vector3U5BU5DU26_t3038522815_Int32_t2950945753_Int32_t2950945753PFvvEPK10MethodInfoPvPS4_
Oap:__ZL135U3CAnimateVertexColorsU3Ec__Iterator0_t225534713_CustomAttributesCacheGenerator_U3CAnimateVertexColorsU3Ec__Iterator0_Reset_m1037330916P21CustomAttributesCache
Ucp:_VertexShakeB_OnDisable_m1594553736
NRl:_ReadOnlyCollection_1_System_Collections_IList_Remove_m1842121503_gshared
Lbf:__ZZL19ExtractHullPolygonsRjRN5physx2Gu9ContainerERKNS0_17ConvexHullBuilderEPS2_S3_EN5Local9FloodFillES3_PKNS0_11AdjTriangleEjPb
S_j:_File_OpenRead_m2936789020
Vzo:__ZL110Quaternion_t2301928331_CustomAttributesCacheGenerator_Quaternion_LookRotation_Injected_m3680180073____upwards1P21CustomAttributesCache
n7:__ZN9Scripting12LogExceptionE21ScriptingExceptionPtriPKcb
G4g:__Z94RuntimeInvoker_Void_t1185182177_RuntimeObject_PlayableGraph_t3515989261_RuntimeObject_IntPtr_tPFvvEPK10MethodInfoPvPS4_
zj:_emscripten_glVertexAttrib4f
iwb:__ZN14SafeBinaryRead21TransferSTLStyleArrayI13dynamic_arrayIN4math12int3_storageELj0EEEEvRT_17TransferMetaFlags
m0o:__ZL65TextMeshPro_t2393593166_CustomAttributesCacheGenerator_m_rendererP21CustomAttributesCache
G3n:_JSONNode_ToString_m838049535
pHh:_InternalEnumerator_1_System_Collections_IEnumerator_Reset_m4072625129_AdjustorThunk
xnc:__ZNSt3__26vectorIN20GpuProgramParameters14ConstantBufferENS_9allocatorIS2_EEE8__appendEj
smi:_X509CertificateCollection_AddRange_m3683116910
W2o:__ZL79TMP_Settings_t2071156274_CustomAttributesCacheGenerator_m_missingGlyphCharacterP21CustomAttributesCache
dBh:_InternalEnumerator_1_Dispose_m1837758743_AdjustorThunk
Pii:_Socket_BeginReceive_m2439065097
n6m:_CustomEventData_t317522481_marshal_pinvoke_cleanup
rsm:_Predicate_1_Invoke_m2315049893_gshared
fp:FUNCTION_TABLE_vf
Spc:__Z15tessGetElementsP14TESStesselator
h4b:__ZN11HaloManager21ReleaseGeometryJobMemEP25DynamicVBOGeometryJobData
F_j:_DirectoryNotFoundException__ctor_m1689636868
mph:__Z96RuntimeInvoker_RuntimeObject_Vector2_t2156229523_Vector2_t2156229523_RuntimeObject_RuntimeObjectPFvvEPK10MethodInfoPvPS4_
Vce:__ZN5physx14NpArticulation26setMaxProjectionIterationsEj
P0d:__ZN5physx3Cct15ObstacleContext14removeObstacleEj
fSl:_ReadOnlyCollection_1_System_Collections_Generic_IListU3CTU3E_get_Item_m978644313_gshared
wKl:_Collection_1_get_Item_m2253972692_gshared
cUh:_RefEmitPermissionSet_t484390987_marshal_pinvoke_cleanup
yMh:_CustomAttributeTypedArgument_Equals_m2261980307
GB:__ZN7mecanim12statemachine24CreateStateMachineMemoryEPKNS0_20StateMachineConstantERNS_6memory9AllocatorE
Gej:_Array_InternalArray__get_Item_TisLink_t544317964_m1669566993_gshared
Hnb:__ZN9GfxDevice18SetGlobalDepthBiasEff
F2n:_JSONBool_get_AsBool_m1408334481
Bjn:__ZN6il2cpp6icalls8mscorlib6System8MonoType12get_AssemblyEP20Il2CppReflectionType
D0j:_IsolatedStorageException__ctor_m3386787868
j7c:__ZN4PPtrI12MeshRendererE8TransferI14SafeBinaryReadEEvRT_
BUh:_TypeBuilder_MakeGenericType_m2799607032
VXe:__ZN5physx20SingleAABBUpdateTaskD0Ev
U9o:__ZL113TextConsoleSimulator_t3766250034_CustomAttributesCacheGenerator_TextConsoleSimulator_RevealCharacters_m2344054670P21CustomAttributesCache
SZk:_RepeatContext_get_Start_m1076992038
pYl:_ReadOnlyCollection_1_IndexOf_m3669095250_gshared
Nj:_emscripten_glGetPointerv
saj:_Array_Sort_TisSingle_t1397266774_TisSingle_t1397266774_m1233431437_gshared
Yze:__ZNK5physx15NpActorTemplateINS_14PxRigidDynamicEE13getActorFlagsEv
ZTh:_PropertyBuilder_SetValue_m3164486317
Vcj:_Dictionary_2_Do_CopyTo_TisKeyValuePair_2_t3842366416_TisRuntimeObject_m1564656153_gshared
NG:__ZN8Animator22ApplyBuiltinRootMotionEv
Lyc:__Z14BezierExtractUfff
mMb:__Z26ApplyMaterialPassWithCacheRK18SharedMaterialDataR17ShaderPassContextP6ShaderPN9ShaderLab4PassEibPKNS6_10GrabPassesEPNS6_11SubProgramsEPK22DeviceRenderStateBlock
phf:__ZN5physx7profile8ZoneImplINS_28PxProfileNameProviderForwardEE17handleBufferFlushEPKhj
e_g:__Z55RuntimeInvoker_DateTime_t3738529785_TimeSpan_t881159249PFvvEPK10MethodInfoPvPS4_
jyo:__ZL81Camera_t4157153871_CustomAttributesCacheGenerator_Camera_RaycastTry2D_m2460696262P21CustomAttributesCache
P6o:__ZL106U3CDelayU3Ec__Iterator1_t1616925293_CustomAttributesCacheGenerator_U3CDelayU3Ec__Iterator1__ctor_m87951614P21CustomAttributesCache
iae:__ZN5physx2Sc5ActorC2ERNS0_16InteractionSceneEhNS0_14IslandNodeInfo4TypeE
W$f:_TMP_LinkInfo_SetLinkID_m3158822466_AdjustorThunk
KBh:_InternalEnumerator_1_get_Current_m1897120917_AdjustorThunk
Oyj:_MonoType_ReorderParamArrayArguments_m2458683451
JNg:_FormatterConverter_ToInt16_m4282804414
b4f:_TMP_SubMeshUI_OnTransformParentChanged_m2009301060
ttg:_StandaloneInputModule_ProcessTouchPress_m4019232747
L_j:_FileStream__ctor_m3151488352
B0i:_Array_swap_m547389985
Pue:__ZN5physx15NpActorTemplateINS_7PxClothEED2Ev
Wsk:_UInt32_ToString_m2420423038
ckl:_List_1_System_Collections_IList_Add_m634558835_gshared
iYl:_ReadOnlyCollection_1_System_Collections_IList_get_IsFixedSize_m1923250479_gshared
MSo:__ZL105CanvasRenderer_t2598313366_CustomAttributesCacheGenerator_CanvasRenderer_set_popMaterialCount_m1224846275P21CustomAttributesCache
B$j:_FileStream_get_Length_m426703983
aln:_WWW_get_text_m898164367
$Ic:__Z13RegisterClassI10TagManagerEvPKc
ste:__ZN5physx2Sc9ClothCore16setRestPositionsEPKNS_6PxVec4E
kQk:_Enumerator__ctor_m1558933899_AdjustorThunk
ito:__ZL88BigInteger_t2902905090_CustomAttributesCacheGenerator_BigInteger_op_Implicit_m3414367033P21CustomAttributesCache
O$f:_OnValidateInput_EndInvoke_m2757910316
G9e:__ZN5physx2Gu12TriangleMesh4loadERNS_13PxInputStreamE
znd:__ZL17DrawMeshParticlesILb0EL25ParticleSystemRenderSpace2EEvRK26ParticleSystemTempMeshDataRK22ParticleSystemTempDataRK23ParticleSystemParticlesRK31ParticleSystemParticlesTempDataRK26ParticleSystemRendererDataRK21ParticleSystemModulesPfPv
H8l:_List_1_Remove_m2092085040_gshared
ghc:__ZL13MotionHandleriPK27EmscriptenDeviceMotionEventPv
LN:__ZN12AudioManager5ResetEv
VPg:__Z67RuntimeInvoker_Boolean_t97287965_RuntimeObject_SByteU26_t3619038962PFvvEPK10MethodInfoPvPS4_
z2j:_SortedList__ctor_m4140760769
aRg:__Z143RuntimeInvoker_Boolean_t97287965_RuntimeObject_Int32_t2950945753_RuntimeObject_SByte_t1669577662_DoubleU26_t1739162597_ExceptionU26_t3600731591PFvvEPK10MethodInfoPvPS4_
ZRl:_ReadOnlyCollection_1_get_Count_m1336304542_gshared
m$o:__ZL111LayoutUtility_t2745813735_CustomAttributesCacheGenerator_LayoutUtility_U3CGetPreferredHeightU3Em__6_m3049688934P21CustomAttributesCache
Zja:__ZN6prcoreL17RemapGenericFloatI17TexFormatRGBAHalf15TexFormatRGHalfEEvPKNS_9InnerInfoE
WBk:_Enumerator_Reset_m576306132_gshared
bHk:_KeyCollection_System_Collections_ICollection_get_IsSynchronized_m1704597852_gshared
aMn:__ZN6il2cpp6icalls8mscorlib6System11Environment20GetWindowsFolderPathEi
pTl:_ReadOnlyCollection_1_System_Collections_Generic_IListU3CTU3E_set_Item_m2921615109_gshared
b4j:_Convert_ToBoolean_m2833752130
Wrf:_UNITY_FT_Stream_ReadFields
uA:__ZN7mecanim5human18HumanPoseBlendNodeERNS0_9HumanPoseEPS1_f
srf:_UNITY_FT_RoundFix
Jig:_FastAction__ctor_m80680614
xZ:__ZN23CloudWebServicesManager23VirtualRedirectTransferER17RemapPPtrTransfer
Ksd:__ZN9Scripting11UnityEngine19PhysicsJobOptions2D12CleanupProxyEv
RSn:_GC_is_heap_ptr
ZPd:__ZNK5physx2Gu15HeightFieldUtil12traceSegmentI24ConvexVsHeightfieldSweepLb0ELb0ELb1EEEvRKNS_6PxVec3ES6_PT_PS5_
Nxk:_ASN1_DecodeTLV_m1200977460
usi:_UnityEventBase_PrepareInvoke_m1785382128
x8e:__ZNK5physx12PxConvexMesh19getConcreteTypeNameEv
WUh:__ZN23InterfaceActionInvoker2IP12Il2CppObjectP20Delegate_t1188392813E6InvokeEjP11Il2CppClassS1_S1_S3_
l5a:__ZNK12MeshRenderer22GetTypeVirtualInternalEv
f4i:_Char_System_IConvertible_ToUInt32_m3901815580
djh:__Z72RuntimeInvoker_Void_t1185182177_Int32_t2950945753_VertexAnim_t2231884842PFvvEPK10MethodInfoPvPS4_
lRi:_Scrollbar_set_onValueChanged_m346467699
DId:__ZN13ProduceHelperI13BoxCollider2DLb0EE7ProduceE10MemLabelId18ObjectCreationMode
hwg:_ColorBlock_set_disabledColor_m2996580094
$Qd:__ZN5physx2Gu19gjkLocalPenetrationINS0_9TriangleVENS0_17ShrunkConvexHullVEEEjRKT_RKT0_RKNS_6shdfnd3aos6FloatVERNSB_5Vec3VESG_SG_RSC_PhSI_Rhb
o_g:__Z157RuntimeInvoker_Int32_t2950945753_RuntimeObject_Int32_t2950945753_Int32_t2950945753_Int32_t2950945753_SByte_t1669577662_SByte_t1669577662_Int32U26_t1369213839PFvvEPK10MethodInfoPvPS4_
qCm:_ListPool_1_Release_m957266927_gshared
Uko:__ZL105ConfigHandler_t4192437216_CustomAttributesCacheGenerator_ConfigHandler_ValidatePath_m3895556516____paths1P21CustomAttributesCache
JQ:__ZN4FMOD6System17setSoftwareFormatEi17FMOD_SOUND_FORMATii18FMOD_DSP_RESAMPLER
qve:__ZN5physx15NpActorTemplateINS_15PxParticleFluidEE22setClientBehaviorFlagsENS_7PxFlagsINS_25PxActorClientBehaviorFlag4EnumEhEE
Xbf:__ZN5physx18AdjacenciesBuilderC2Ev
z2d:__ZN5physx2Sc13ShapeIterator4initERKNS0_8ActorSimE
ePa:__ZN14SafeBinaryRead19TransferSTLStyleMapINSt3__23mapIN4core12basic_stringIcNS3_20StringStorageDefaultIcEEEES7_NS1_4lessIS7_EE13stl_allocatorINS1_4pairIKS7_S7_EEL18MemLabelIdentifier1ELi16EEEEEEvRT_17TransferMetaFlags
Vt:__ZL49__ManagedRegistrationHelperFunction_AimConstraintPv
GHf:__ZN2UI6Canvas27UpdateEventIndexesRecursiveERi
$y:__ZN7mecanim9animation18EvaluateRootMotionERKNS0_18ClipMuscleConstantERKNS0_15ClipMuscleInputEPKfS8_RNS0_12MotionOutputEb
x_:__ZN11UnityEngine15CloudWebService16SessionContainer21PrepareDataErrorEventERN4core12basic_stringIcNS2_20StringStorageDefaultIcEEEE
Kqg:_ExecuteEvents_get_pointerUpHandler_m3515704212
h5i:_ArrayList_set_Item_m2003485935
LMn:__ZNSt3__218uninitialized_copyIPNS_4pairIK10KeyWrapperIPK19Il2CppGenericMethodEP10MethodInfoEESB_EET0_T_SD_SC_
s$h:_SatelliteContractVersionAttribute__ctor_m3630863995
jro:__ZL79Convert_t2465617642_CustomAttributesCacheGenerator_Convert_ToUInt64_m3102114524P21CustomAttributesCache
Csg:_MouseButtonEventData_PressedThisFrame_m1060658845
CRf:__ZN16UploadHandlerRaw13TransmitBytesEPvjj
PBb:__Z19TransferField_ArrayI19StreamedBinaryWriteILb0EE27Converter_SimpleNativeClassI8GUIStyleEEvRK23StaticTransferFieldInfoR31RuntimeSerializationCommandInfoRT0_
qUc:__Z43Register_UnityEngine_Renderer_get_isVisiblev
Xdh:__Z100RuntimeInvoker_Void_t1185182177_TMP_MeshInfoU5BU5DU26_t469924305_Int32_t2950945753_SByte_t1669577662PFvvEPK10MethodInfoPvPS4_
eSl:_ReadOnlyCollection_1_System_Collections_Generic_IListU3CTU3E_RemoveAt_m3969985996_gshared
pKm:_SymmetricTransform_CFB_m1755507252
Mof:__ZN20TextRenderingPrivate8TextMesh23VirtualRedirectTransferER18StreamedBinaryReadILb0EE
toe:__ZN5physx14NpArticulationC2Ev
gMm:_UnityWebRequest_SetUploadHandler_m2465141380
LGa:__Z28BuildSingleStreamChannelInfoP11ChannelInfo17ShaderChannelMaskS1_
Cvp:_emscripten_glCopyTexSubImage2D__wrapper
F$a:__ZNK13ScreenManager12GetIsFocusedEv
Y7n:_U3CRevealCharactersU3Ec__Iterator0_System_Collections_Generic_IEnumeratorU3CobjectU3E_get_Current_m144739728
Dyi:_PlayerConnection_get_isConnected_m911966057
pBg:_GraphicRegistry_GetGraphicsForCanvas_m4219276355
YJo:__ZL106Transform_t3600365921_CustomAttributesCacheGenerator_Transform_INTERNAL_get_localToWorldMatrix_m1917635696P21CustomAttributesCache
s0j:__ZN23InterfaceActionInvoker3IP22ByteU5BU5D_t4116647657iiE6InvokeEjP11Il2CppClassP12Il2CppObjectS1_ii
Lzj:_NumberFormatter_FastToDecHex_m699829267
e1c:__Z35Transfer_Blittable_FixedBufferFieldI8JSONReadiEvRK29SerializationCommandArgumentsR31RuntimeSerializationCommandInfo
Emd:__ZN22ParticleSystemRenderer16UpdateCachedMeshEv
Hlo:__ZL59StreamingContext_t3711869237_CustomAttributesCacheGeneratorP21CustomAttributesCache
cin:__ZNSt3__213__vector_baseIN6il2cpp2os19SocketHandleWrapperENS_9allocatorIS3_EEED2Ev
D7n:_U3CWarpTextU3Ec__Iterator0_Reset_m493227373
uco:__ZL48_Type_t3588564251_CustomAttributesCacheGeneratorP21CustomAttributesCache
R7c:__ZN12LightsModule8TransferI24GenerateTypeTreeTransferEEvRT_
XWo:__ZL81FontUpdateTracker_t1839077620_CustomAttributesCacheGenerator_U3CU3Ef__mgU24cache0P21CustomAttributesCache
RXa:__ZN28ReflectionProbeAnchorManager18RemoveCachedAnchorERK4PPtrI9TransformE
Mc:invoke_viiffi
Neo:__ZL103RegionInfo_t1090270226_CustomAttributesCacheGenerator_RegionInfo_t1090270226____NativeName_PropertyInfoP21CustomAttributesCache
Sec:__ZN13sorted_vectorINSt3__24pairIN4core12basic_stringIcNS2_20StringStorageDefaultIcEEEEPK17MessageIdentifierEEN10vector_mapIS6_S9_NS0_4lessIS6_EENS0_9allocatorISA_EEE13value_compareESF_E10insert_oneERKSA_
LG:__ZNSt3__227__insertion_sort_incompleteIRPFbPKN8Animator11AnimatorJobES4_EPS4_EEbT0_S9_T_
h_:__ZNSt3__26__treeINS_12__value_typeIN4core12basic_stringIcNS2_20StringStorageDefaultIcEEEEjEENS_19__map_value_compareIS6_S7_NS_4lessIS6_EELb1EEE13stl_allocatorIS7_L18MemLabelIdentifier88ELi16EEE4findIS6_EENS_15__tree_iteratorIS7_PNS_11__tree_nodeIS7_PvEEiEERKT_
l$h:_ResourceSet_ReadResources_m3663669011
YEa:__ZL13MeshExtractorPv16VertexInputMasksiR11MeshBuffersR16DrawBuffersRangeRiS5_
hTa:__ZNK12CubemapArray20GetRuntimeMemorySizeEv
Vok:_TimeSpan_FromHours_m1109641064
xxe:__ZN5physx2Sc18ParticleSystemCore18setProjectionPlaneERKNS_7PxPlaneE
flc:__Z14resize_trimmedINSt3__26vectorIN9ShaderLab18SerializedPropertyENS0_9allocatorIS3_EEEEEvRT_j
Gwb:__Z18Transfer_BlittableI17RemapPPtrTransferLb0EN4math12int3_storageEEvRK29SerializationCommandArgumentsR31RuntimeSerializationCommandInfo
bxo:__ZL92StaticAccessorAttribute_t2432663902_CustomAttributesCacheGenerator_U3CNameU3Ek__BackingFieldP21CustomAttributesCache
Tod:__Z20UpdateWholeSheet2TplIL27ParticleSystemCurveEvalMode3ELS0_3EEvfRK11MinMaxCurveS3_RK23ParticleSystemParticlesPf
GFe:__ZN5physx6shdfnd8PoolBaseINS_2Sc9ActorPairENS0_19ReflectionAllocatorIS3_EEE12allocateSlabEv
sfn:__ZN6il2cpp2vm13MetadataCache38GetMethodInfoFromMethodDefinitionIndexEi
vpg:_EventSystem_set_current_m38955169
VQc:__Z39MonoBehaviour_CUSTOM_GetScriptClassNameP12Il2CppObject
EDh:_InternalEnumerator_1__ctor_m826178271_AdjustorThunk
bag:_TypeMetadata__ctor_m646635308
A_f:_TMP_InputField_Backspace_m3815535005
$_k:_CostDelegate_EndInvoke_m2797921932
r_a:__ZN10VertexData8TransferI24GenerateTypeTreeTransferEEvRT_
Sym:_UnityAction_2_Invoke_m3803176137_gshared
r4j:_Double_IsInfinity_m820013146
t6j:__ZN21InterfaceFuncInvoker1I19Decimal_t2948259380P12Il2CppObjectE6InvokeEjP11Il2CppClassS2_S2_
qMn:__ZN13Il2CppHashMapIPK19Il2CppGenericMethodP10MethodInfoN6il2cpp8metadata23Il2CppGenericMethodHashENS6_26Il2CppGenericMethodCompareENSt3__29allocatorINS9_4pairIK10KeyWrapperIS2_ES4_EEEEEC2EjRKS7_RKS8_
Rjl:_List_1_TrimExcess_m440552561_gshared
pFi:_Screen_get_dpi_m495672463
Tkk:_UTF8Encoding_InternalGetByteCount_m2120178851
MYm:_Vector3__ctor_m1719387948
SPn:_GC_default_oom_fn
p9b:__ZL10CullLightsRK22SceneCullingParametersR11CullResults
t9j:_Convert_ToUInt64_m3170916409
BB:__ZN7mecanim12statemachine20GetBlendTreeConstantERKNS0_13StateConstantEi
JGe:__ZN5physx7NpScene21setDominanceGroupPairEhhRKNS_20PxDominanceGroupPairE
UXj:_Int64_System_IConvertible_ToInt16_m4062196970_AdjustorThunk
kzj:_MonoType_GetGenericTypeDefinition_m3201894896
ywc:__Z40GetTemporaryCachePathApplicationSpecificv
hmb:__ZN9GfxDevice16EndAsyncJobFrameEv
P6g:__Z99RuntimeInvoker_Int32_t2950945753_Ray_t3785851493_RuntimeObject_Single_t1397266774_Int32_t2950945753PFvvEPK10MethodInfoPvPS4_
Opn:__ZNK15dense_hashtableINSt3__24pairIK10KeyWrapperINS1_IPK12PropertyInfoP11Il2CppClassEEEjEES9_17ReflectionMapHashIS8_EN14dense_hash_mapIS9_jSD_NS9_14EqualsComparerINS0_8equal_toIS8_EEEENS0_9allocatorISB_EEE9SelectKeyESI_SK_E10test_emptyERK30dense_hashtable_const_iteratorISB_S9_SD_SM_SI_SK_E
duf:_UNITY_tt_face_load_hhea
XQ:__ZN12AudioManager27InitialCompleteDomainReloadEv
JJn:__ZN15dense_hashtableINSt3__24pairIK10KeyWrapperIPcES3_EES4_N6il2cpp5utils15PassThroughHashIS3_EEN14dense_hash_mapIS4_S3_SA_NS4_14EqualsComparerINS0_8equal_toIS3_EEEENS0_9allocatorIS6_EEE9SelectKeyESF_SH_E16reset_thresholdsEv
Ml:___syscall3
zye:__ZNK5physx15NpActorTemplateINS_16PxParticleSystemEE7getNameEv
wAo:__ZL95MonoBehaviour_t3962482529_CustomAttributesCacheGenerator_MonoBehaviour_CancelInvoke_m3252264575P21CustomAttributesCache
F6g:__Z135RuntimeInvoker_RaycastHit2D_t2279581989_Vector2_t2156229523_Vector2_t2156229523_Single_t1397266774_Int32_t2950945753_Single_t1397266774PFvvEPK10MethodInfoPvPS4_
Pl:___syscall6
mnb:__ZN9GfxDevice15GetNextCPUFenceEv
Rl:___syscall4
w$:__ZN11UnityEngine15CloudWebService20WebRequestRestClient17GetResponseStatusEv
ALg:_ReturnMessage__ctor_m2352989078
c8d:__ZN5physx6shdfnd4sortIPvNS0_4LessIS2_EENS0_19ReflectionAllocatorINS_2Sc19ConstraintGroupNodeEEEEEvPT_jRKT0_RKT1_j
sgk:_Double_GetHashCode_m2295714610
dlb:__ZNSt3__26__treeINS_12__value_typeIN4core12basic_stringIcNS2_20StringStorageDefaultIcEEEEPN16MemoryFileSystem4NodeEEENS_19__map_value_compareIS6_SA_NS_4lessIS6_EELb1EEE13stl_allocatorISA_L18MemLabelIdentifier55ELi16EEE7destroyEPNS_11__tree_nodeISA_PvEE
Tao:__ZL70RuntimeArray_CustomAttributesCacheGenerator_Array_get_Length_m21610649P21CustomAttributesCache
c6i:_ArrayListWrapper_IndexOf_m3692065720
aoj:_TlsServerCertificateRequest__ctor_m1334974076
xrd:__ZN27PerformanceReportingManager23VirtualRedirectTransferER14SafeBinaryRead
y4f:_TMP_Text_get_fontSharedMaterial_m1617809530
jap:__ZL158U3CDisplayTextMeshProFloatingTextU3Ec__Iterator0_t2967292235_CustomAttributesCacheGenerator_U3CDisplayTextMeshProFloatingTextU3Ec__Iterator0__ctor_m4042895486P21CustomAttributesCache
l7j:_Convert_ToInt32_m1613163543
alh:__Z52RuntimeInvoker_TimeSpan_t881159249_Int32_t2950945753PFvvEPK10MethodInfoPvPS4_
eqa:__ZN9Scripting11UnityEngine9Playables8Playable12CleanupProxyEv
FRl:_ReadOnlyCollection_1_System_Collections_ICollection_CopyTo_m3127175806_gshared
em:_emscripten_glShaderBinary
kGo:__ZL80Logger_t274032455_CustomAttributesCacheGenerator_U3ClogEnabledU3Ek__BackingFieldP21CustomAttributesCache
K$:__ZN15DownloadHandler19OnFinishReceiveDataEv
ask:_UInt16_ToString_m760649087
chb:__ZNK20LocalFileSystemPosix6ExistsERK13FileEntryData
a2j:_Queue_Dequeue_m2397857002
R_g:__Z21RuntimeInvoker_Guid_tPFvvEPK10MethodInfoPvPS4_
N$g:__Z46RuntimeInvoker_CipherAlgorithmType_t1174400495PFvvEPK10MethodInfoPvPS4_
o8d:__ZN5physx35NpArticulationJointGetBodiesFromScbERNS_3Scb17ArticulationJointERPNS0_4BodyES5_
T7e:__ZNK5physx2Sc15ClothFabricCore16getTetherLengthsEPfj
gpi:_Camera_GetAllCameras_m668492922
TYc:__Z23TransferScriptingObjectI8JSONReadEvRT_18ScriptingObjectPtr17ScriptingClassPtrPK15MonoScriptCache
FVg:__Z32RuntimeInvoker_Label_t2281661643PFvvEPK10MethodInfoPvPS4_
zRo:__ZL109Physics_t2310948930_CustomAttributesCacheGenerator_Physics_RaycastAll_m3084184534____queryTriggerInteraction4P21CustomAttributesCache
ywf:_UNITY_TT_Get_HMetrics
kpk:_TimeSpan_op_Inequality_m2467851530
sEb:__ZN17AnimationCurveTplIfE8TransferI18StreamedBinaryReadILb1EEEEvRT_
GJg:__ZN28GenericInterfaceFuncInvoker1IP12Il2CppObjectP23HeaderU5BU5D_t204812840E6InvokeEPK10MethodInfoS1_S3_
Qaj:_Array_Sort_TisUIVertex_t4057497605_m3996333845_gshared
Joj:_Context_get_ReceivedConnectionEnd_m4011125537
mHj:_ToBase64Transform_get_CanReuseTransform_m702204640
HQo:__ZL73ContactFilter2D_t3805203441_CustomAttributesCacheGenerator_maxNormalAngleP21CustomAttributesCache
Jtp:_emscripten_glShaderBinary__wrapper
K3g:__Z53RuntimeInvoker_PropertyName_t3749835189_RuntimeObjectPFvvEPK10MethodInfoPvPS4_
Fdg:_SByte_System_IConvertible_ToDouble_m2381680501
V0i:_Swapper_BeginInvoke_m1688449973
ari:_Display_get_renderingWidth_m1970428952
yLe:__ZN5physx2Sc13ConstraintSim8getForceERNS_6PxVec3ES3_
nEi:__ZN30GenericInterfaceActionInvoker1IP25RectTransform_t3704657025E6InvokeEPK10MethodInfoP12Il2CppObjectS1_
lOm:_U3CTimedTriggerU3Ec__Iterator0_MoveNext_m825792986
aya:__ZN16LevelGameManager23VirtualRedirectTransferER19StreamedBinaryWriteILb0EE
R$g:__Z81RuntimeInvoker_Void_t1185182177_RuntimeObject_Int32_t2950945753_Int64_t3736567304PFvvEPK10MethodInfoPvPS4_
k_a:__Z32TransferEnumWithNameForceIntSizeI14SafeBinaryRead16GfxPrimitiveTypeEvRT_RT0_PKc17TransferMetaFlags
Cvm:_TMP_XmlTagStack_1_Pop_m1336251350_AdjustorThunk
WK:__ZNSt3__26vectorIN4core12basic_stringIcNS1_20StringStorageDefaultIcEEEE13stl_allocatorIS5_L18MemLabelIdentifier1ELi16EEE21__push_back_slow_pathIS5_EEvOT_
i7m:_Physics_RaycastAll_m2709753186
oAo:__ZL92Mesh_t3648964284_CustomAttributesCacheGenerator_Mesh_SetTriangles_m2205169959____baseVertex3P21CustomAttributesCache
lhh:__Z52RuntimeInvoker_Int32_t2950945753_HitInfo_t3229609740PFvvEPK10MethodInfoPvPS4_
Dfd:__Z25UpdateOrbitalAndRadialTplIL27ParticleSystemCurveEvalMode4ELS0_3ELS0_2EEvRK11MinMaxCurveS3_S3_S3_S3_S3_S3_R23ParticleSystemParticlesjjRKN4math8float3x3ERKNS6_7affineXERKNS6_7_float4E
Hpo:__ZL80Convert_t2465617642_CustomAttributesCacheGenerator_Convert_ToBoolean_m2807110707P21CustomAttributesCache
$Wd:__ZN5physx15PxGeometryQuery18computePenetrationERNS_6PxVec3ERfRKNS_10PxGeometryERKNS_11PxTransformES6_S9_
JBm:_IndexedSet_1_IndexOf_m241693686_gshared
gth:_InternalEnumerator_1_MoveNext_m3033431667_gshared
PLf:__ZN11UnityEngine15PlatformWrapper30GetGraphicsDriverLibraryStringEv
kdg:_RuntimeMethodHandle_Equals_m3301340296_AdjustorThunk
stk:_UInt64_System_IConvertible_ToSingle_m925613075_AdjustorThunk
gjf:__ZN5Unity12PhysicsQueryC2Ev
sRm:__ZL24UnresolvedVirtualCall_40P12Il2CppObjectS0_PK10MethodInfo
LCm:_ListPool_1__cctor_m704263611_gshared
PFb:__Z18Transfer_BlittableI18StreamedBinaryReadILb0EELb0E4AABBEvRK29SerializationCommandArgumentsR31RuntimeSerializationCommandInfo
E9a:__ZN24GenerateTypeTreeTransfer19TransferSTLStyleMapINSt3__28multimapIN4core12basic_stringIcNS3_20StringStorageDefaultIcEEEE4PPtrI6ObjectENS1_4lessIS7_EE13stl_allocatorINS1_4pairIKS7_SA_EEL18MemLabelIdentifier52ELi16EEEEEEvRT_17TransferMetaFlags
Av:__ZN16MecanimAnimation24DeleteAnimatedPropertiesERP26IAnimatedPropertyEvaluator
Ocj:_Dictionary_2_Do_ICollectionCopyTo_TisKeyValuePair_2_t2245450819_m216493345_gshared
slg:_TextContainer__cctor_m389829303
ruj:_Math_Min_m3468062251
t1m:_CanvasRenderer_SetMaterial_m824577244
W0n:_Music_Start_m75845250
D7c:__ZN11ColorModule8TransferI24GenerateTypeTreeTransferEEvRT_
k$b:__Z14DrawGUITextureRK5RectTIfEP7Texture11ColorRGBA32P8Materiali
b6n:_U3CU3Ec__Iterator0_Dispose_m4156704853
Tzo:__ZL101Quaternion_t2301928331_CustomAttributesCacheGenerator_Quaternion_LookRotation_m3197602968____upwards1P21CustomAttributesCache
e9o:__ZL84Benchmark01_t1571072624_CustomAttributesCacheGenerator_Benchmark01_Start_m4262200517P21CustomAttributesCache
mDo:__ZL84RectOffset_t1369453676_CustomAttributesCacheGenerator_RectOffset_Cleanup_m2552807639P21CustomAttributesCache
WNa:__ZNK15PlayableMethods18InvokeProcessFrameER18ScriptingObjectPtrRK9HPlayableP18ScriptingFrameDataRK9FrameData
wF:__ZN9BlobWrite8TransferI22OffsetPtrArrayTransferIKN4math7_float4EEEEvRT_PKc17TransferMetaFlags
wIi:_Transform_IsChildOf_m224006092
YMa:__ZN15TextureSettings8TransferI24GenerateTypeTreeTransferEEvRT_
P0c:__ZN9JSONWrite8TransferI4AABBEEvRT_PKc17TransferMetaFlags
ijc:__ZN15dense_hashtableINSt3__24pairIKiN4core17string_with_labelILi1EEEEEi18SInt32HashFunctionN14dense_hash_mapIiS5_S7_NS0_8equal_toIiEE13stl_allocatorIS6_L18MemLabelIdentifier1ELi16EEE9SelectKeyESA_SD_E12expand_arrayEjN21dense_hash_map_traits17integral_constantIbLb0EEE
iih:__Z58RuntimeInvoker_Void_t1185182177_ContactPoint2D_t3390240644PFvvEPK10MethodInfoPvPS4_
Bhl:_List_1_Clear_m2154023298_gshared
gAc:__Z13RegisterClassI15QualitySettingsEvPKc
eog:_AbstractEventData_get_used_m2991176710
kAh:_InternalEnumerator_1_get_Current_m3191242573_AdjustorThunk
Fch:__Z94RuntimeInvoker_Void_t1185182177_ObjectU5BU5DU26_t712384779_Int32_t2950945753_Int32_t2950945753PFvvEPK10MethodInfoPvPS4_
_4e:__ZNK18ScBeforeSolverTask7getNameEv
kt:__ZN13ConstraintJob17ConstraintJobDataD2Ev
zgd:__Z25UpdateOrbitalAndRadialTplIL27ParticleSystemCurveEvalMode2ELS0_1ELS0_2EEvRK11MinMaxCurveS3_S3_S3_S3_S3_S3_R23ParticleSystemParticlesjjRKN4math8float3x3ERKNS6_7affineXERKNS6_7_float4E
LKm:_Aes__ctor_m178909601
JTa:__ZNK9Texture2D20GetRuntimeMemorySizeEv
jL:__ZN11Marshalling39CreateNullExceptionForUnityEngineObjectE18ScriptingObjectPtr
iUe:__ZN5physx14solve1D4_BlockEPKNS_23PxcSolverConstraintDescEjRNS_16PxcSolverContextE
q4c:__ZN5Unity9rapidjson13GenericReaderINS0_4UTF8IcEES3_13JSONAllocatorE9ParseTrueILj0ENS0_19GenericStringStreamIS3_EENS0_15GenericDocumentIS3_S4_S4_EEEEvRT0_RT1_
DYm:_Vector2_op_Implicit_m4260192859
on:_emscripten_glUniform2iv
omj:_CipherSuite_get_Context_m1621551997
XWf:_DropdownItem_OnCancel_m3947700413
yXd:__ZL33GeomMTDCallback_ConvexHeightFieldRN5physx6PxVec3ERfRKNS_10PxGeometryERKNS_11PxTransformES5_S8_
pma:__ZL46__ManagedRegistrationHelperFunction_ColorGamutPv
JEh:_InternalEnumerator_1__ctor_m2503697330_gshared
$Gl:_Enumerator_Dispose_m1204547613_AdjustorThunk
Ymf:_UNITY_FT_Outline_Transform
Qrc:__Z60Register_UnityEngine_Sprites_DataUtility_Internal_GetMinSizev
Nwo:__ZL118NativeMethodAttribute_t4187428193_CustomAttributesCacheGenerator_NativeMethodAttribute_set_HasExplicitThis_m2961870915P21CustomAttributesCache
man:__ZN6il2cpp2vm5Class10GetMethodsEP11Il2CppClassPPv
EFl:_EqualityComparer_1_System_Collections_IEqualityComparer_Equals_m477570191_gshared
sSc:__Z45Register_UnityEngine_Mesh_get_bounds_Injectedv
cQf:__ZNK25UnityWebRequestJavaScript17GetUploadProgressEv
W4b:__Z30AddDefaultStreamsToMeshBuffersR9GfxDeviceR11MeshBuffersRK16DrawBuffersRange17ShaderChannelMaskS6_
znl:_List_1_GetEnumerator_m1430071802_gshared
lVb:__ZN7ApiGLES17DeleteFramebufferERN2gl6HandleILNS0_10ObjectTypeE9EEES3_
Hof:__ZN20TextRenderingPrivate8TextMesh17MainThreadCleanupEv
DXb:__ZN15UniformTFMethod13MapBoneBufferEj
nCf:__ZN2UI14CanvasRendererD2Ev
Zej:_Array_InternalArray__get_Item_TisParameterModifier_t1461694466_m29553316_gshared
g2l:_Nullable_1_GetHashCode_m1123196047_gshared
gVh:_FieldInfo_internal_from_handle_type_m3256989094
VEm:_InfTree__cctor_m3025646792
kYj:_Int64_CompareTo_m1928360444_AdjustorThunk
oZe:__ZN5physx26PxcPCMContactCapsuleConvexERKNS_2Gu13GeometryUnionES3_RKNS_11PxTransformES6_RKfRNS_10PxcNpCacheERNS0_13ContactBufferE
lpe:__ZNK5physx7NpShape16getContactOffsetEv
cLb:__Z9SetupArgviPPKc
G7j:_Convert_ToInt64_m2075031821
yDo:__ZL111ScriptableObject_t2528358522_CustomAttributesCacheGenerator_ScriptableObject_CreateScriptableObject_m3504774547P21CustomAttributesCache
Pid:__Z15GetPositionMeshIL20MeshDistributionMode0ELb0E11ColorRGBA32EvRN4math8floatNx3ES4_RNS2_4pix4ERK13dynamic_arrayIS1_Lj0EERK14StrideIteratorI8Vector3fESF_RKSB_I8Vector2fERKSB_IT1_ERKS7_I16MeshTriangleDataLj0EERKS7_I11MeshAreaLUTLj0EERKfRKiSX_RK16ShapeTextureDataR5RandNP12SkinMeshInfo
zzh:_InternalEnumerator_1__ctor_m236665673_gshared
uWm:__ZL25UnresolvedVirtualCall_312P12Il2CppObjectPK10MethodInfo
fNg:_RemotingException__ctor_m1015537352
xSm:__ZL24UnresolvedVirtualCall_99P12Il2CppObject28StreamingContext_t3711869237PK10MethodInfo
d7m:_Physics_RaycastAll_m3611981381
l7o:__ZL136U3CSpawnEnemyType1WaveU3Ec__Iterator5_t1046529208_CustomAttributesCacheGenerator_U3CSpawnEnemyType1WaveU3Ec__Iterator5__ctor_m4241182574P21CustomAttributesCache
_dm:_Collection_1_IsSynchronized_m1300921416_gshared
hOm:_AnalyticsEventTracker_OnDisable_m1553012800
ywp:_glTexParameteri__wrapper
mbe:__ZN5physx10PxsContext17addParticleSystemEPNS_15PxsParticleDataERKNS_26PxvParticleSystemParameterEb
i9d:__ZN5physx3Scb5Scene13addRigidNoSimINS0_4BodyELb1ELb1EEEvRT_RNS0_13ObjectTrackerE
bva:__ZN12ImmediatePtrI10GameObjectE8TransferI19StreamedBinaryWriteILb0EEEEvRT_
lTa:__ZN12CubemapArray23VirtualRedirectTransferER24GenerateTypeTreeTransfer
vma:__ZL49__ManagedRegistrationHelperFunction_RenderTexturePv
PHa:__ZNSt3__26vectorI4PPtrI6ShaderE13stl_allocatorIS3_L18MemLabelIdentifier53ELi16EEE8__appendEj
hHk:_KeyCollection_System_Collections_Generic_ICollectionU3CTKeyU3E_Add_m220590786_gshared
U_m:_U3CDefaultUnityWebRequestU3Ed__0_U3CU3Em__Finally1_m3779297382
QLn:__ZN6il2cpp2os9Directory6CreateERKNSt3__212basic_stringIcNS2_11char_traitsIcEENS2_9allocatorIcEEEEPi
Obp:_TMP_TextSelector_A_OnPointerEnter_m420863590
_Ha:__ZN4PPtrI6ShaderE8TransferI18StreamedBinaryReadILb0EEEEvRT_
uSd:__ZL19sweepBoxVsTrianglesjPKN5physx10PxTriangleERKNS_2Gu3BoxERKNS_6PxVec3EfRNS_10PxSweepHitENS_7PxFlagsINS_9PxHitFlag4EnumEtEEbPKj
fza:__ZN23TransformChangeDispatch32QueueTransformChangeIfHasChangedERK15TransformAccess
Hki:_TcpClient_Connect_m1569041472
UUd:__ZN9Rigidbody18AddForceAtPositionERK8Vector3fS2_i
Lib:__ZN15ArchiveReadFile5WriteEyPKvPy
zVk:_Dictionary_2_Clear_m2183488975_gshared
mCj:_Assembly_get_FullName_m293988418
AJd:__ZN22WorldContactListener2D8PreSolveEP9b2ContactPK10b2Manifold
KMf:__ZN22BaseUnityConnectClientD0Ev
Joi:_Camera_get_pixelRect_Injected_m2326986893
nof:__ZNSt3__26__treeINS_12__value_typeIN20TextRenderingPrivate7FontRefENS2_6OSFontEEENS_19__map_value_compareIS3_S5_NS_4lessIS3_EELb1EEENS_9allocatorIS5_EEE12__find_equalIS3_EERPNS_16__tree_node_baseIPvEESI_RKT_
E1n:_Scoreboard_SaveToString_m4162145868
Trd:__ZN27PerformanceReportingManager18ActiveSceneChangedEPS_P10UnitySceneS2_
Wbi:_DictionaryNodeEnumerator_get_Entry_m2309234501
B:tempValue
KEb:__ZN18StreamedBinaryReadILb1EE21TransferSTLStyleArrayI13dynamic_arrayI8Vector4fLj0EEEEvRT_17TransferMetaFlags
ugc:__Z29StdTemplateConversionFunctionIaiEbPvR14SafeBinaryRead
K$o:__ZL48CRC32_t2128839853_CustomAttributesCacheGeneratorP21CustomAttributesCache
OWn:__ZN6il2cpp8metadata24Il2CppGenericContextHash4HashEPK20Il2CppGenericContext
Szh:_InternalEnumerator_1_get_Current_m356936020_AdjustorThunk
eDm:_DeflateManager__InitializeLazyMatch_m2220834049
U$b:__ZN6Camera21RenderODSWorldTextureERK11CullResultsRK19SharedRendererSceneR17ShaderPassContextNS_10RenderFlagE
Lfm:_Collection_1_ClearItems_m3135289993_gshared
dhd:__Z25UpdateOrbitalAndRadialTplIL27ParticleSystemCurveEvalMode3ELS0_1ELS0_4EEvRK11MinMaxCurveS3_S3_S3_S3_S3_S3_R23ParticleSystemParticlesjjRKN4math8float3x3ERKNS6_7affineXERKNS6_7_float4E
Q7:__Z29scripting_class_from_fullnamePKcS0_S0_
v_j:_Directory_GetCurrentDirectory_m219218555
Bjh:__Z104RuntimeInvoker_Void_t1185182177_ProgressHandlerU5BU5DU26_t3533448590_Int32_t2950945753_Int32_t2950945753PFvvEPK10MethodInfoPvPS4_
fIi:_Transform_TransformDirection_m3784028109
jZi:_SmallXmlParser_UnexpectedEndError_m1914362401
_B:__ZN26AnimatorControllerPlayable18DeallocateBindingsEv
glo:__ZL61FormatterTypeStyle_t3400733584_CustomAttributesCacheGeneratorP21CustomAttributesCache
EXd:__ZN5physx2Gu29ConvexVsMeshContactGeneration20generateLastContactsEv
tjd:__ZNK4PPtrI12MeshRendererEptEv
Gap:__ZL137U3CAnimateVertexColorsU3Ec__Iterator0_t897284962_CustomAttributesCacheGenerator_U3CAnimateVertexColorsU3Ec__Iterator0_Dispose_m2414077547P21CustomAttributesCache
f7g:__Z85RuntimeInvoker_Boolean_t97287965_Ray_t3785851493_Single_t1397266774_Int32_t2950945753PFvvEPK10MethodInfoPvPS4_
W5d:__ZNK5physx2Gu22SupportMapRelativeImplINS0_4BoxVEE14doSupportSweepERKNS_6shdfnd3aos5Vec3VE
Xpb:__ZN14DelayedDeletorI15dense_hashtableINSt3__24pairIK9TextureIDiEES3_14GfxGenericHashIS3_EN14GfxDoubleCacheIS3_iS7_NS1_8equal_toIS3_EEN31GfxDoubleCacheConcurrencyPolicy11LocklessGetE42GfxDoubleCacheDefaultEmptyDeletedGeneratorIS3_EE9SelectKeyESA_13stl_allocatorIS5_L18MemLabelIdentifier24ELi16EEEEclEv
kWk:_Dictionary_2_CopyToCheck_m3475736769_gshared
KT:__ZN11AudioSource19CreateOpenALRolloffEfff
Ztf:_UNITY_FT_Stream_ReadAt
twe:__ZN5physx2Sc17ParticleSystemSim16getParticleStateEv
Uhp:_AudioSampleProvider_Dispose_m1993565764
$6m:_Physics_Raycast_m3336206959
e4e:__ZN5physx6shdfnd5ArrayINS_25PxsCompoundContactManagerENS0_19ReflectionAllocatorIS2_EEE8recreateEj
gok:_TimeSpan__ctor_m1896986612_AdjustorThunk
MDl:_EqualityComparer_1_System_Collections_IEqualityComparer_Equals_m1907027006_gshared
pxh:_InternalEnumerator_1_System_Collections_IEnumerator_Reset_m521819017_AdjustorThunk
xDh:_InternalEnumerator_1_get_Current_m1711665164_gshared
qpd:__Z19UpdateSingleRow2TplIL27ParticleSystemCurveEvalMode3ELS0_1EEvfRK11MinMaxCurveS3_RK23ParticleSystemParticlesPfbiii
D0c:__ZN9JSONWrite8TransferI13dynamic_arrayI5RectTIfELj0EEEEvRT_PKc17TransferMetaFlags
k4l:_List_1_System_Collections_IList_Contains_m3860993176_gshared
aXe:__ZN5physx14PxsAABBManagerC2ERNS_2Cm13EventProfilerERNS_19PxcScratchAllocatorE
qX:__ZN11AudioModule22CreateAudioClipFromWWWEP10IWWWStreamPKcbbi
oDc:__ZN9Texture2DC2E10MemLabelId18ObjectCreationMode
vOb:__Z17DebugStringToFileIA59_cEvRKT_iPKci15LogMessageFlagsiiPFvRK11CppLogEntryE
wbg:_ObjectRecord_get_IsUnsolvedObjectReference_m1163921033
esk:_UInt32_System_IConvertible_ToBoolean_m1763673183_AdjustorThunk
Xpl:_Array_InternalArray__ICollection_CopyTo_TisTextAlignmentOptions_t4036791236_m3453113315_gshared
osi:_UnityEvent_AddListener_m2276267359
Ts:__Z9SetLocalR15TransformAccessRKN4math7_float4Ey
L2g:__Z35RuntimeInvoker_RangeInt_t2094684618PFvvEPK10MethodInfoPvPS4_
tKa:__ZN6prcoreL11inner_clearILj4EEEvPhjjj
iKg:_MethodCall_get_Args_m148309537
OKg:_DictionaryEnumerator_get_Value_m2166220004
_7m:_NativeTypeAttribute__ctor_m1677513894
Dgp:_PCMReaderCallback_BeginInvoke_m3391809637
G2:__GLOBAL__sub_I_Runtime_SceneManager_0_cpp
RRg:__Z74RuntimeInvoker_Void_t1185182177_RuntimeObject_StreamingContext_t3711869237PFvvEPK10MethodInfoPvPS4_
BAj:_NumberFormatter_FormatExponential_m1436810062
hga:__ZNK8Playable6HandleEv
vJi:_SetPropertyUtility_SetColor_m2229203028
p4i:_Char_ConvertFromUtf32_m2726544766
EDk:_Enumerator_MoveNext_m481679286_gshared
T8f:_TMP_Text_ClearSubMeshObjects_m653221805
daa:__ZN14MessageHandler28MessageIDToMessageIdentifierEi
W_a:__ZNK11SpriteAtlas20GetRuntimeRenderDataEPK6Sprite
r_j:_FileSystemInfo__ctor_m3035148496
poj:_Context_get_SessionId_m1086671147
uId:__Z13RegisterClassI17CapsuleCollider2DEvPKc
VWj:_Int32_System_IConvertible_ToDecimal_m2190376994_AdjustorThunk
qIl:_KeyValuePair_2_set_Key_m2121548577_AdjustorThunk
WBm:_U3CStartU3Ec__Iterator0__ctor_m2366347741_gshared
O3g:__Z57RuntimeInvoker_PropertyName_t3749835189_Int32_t2950945753PFvvEPK10MethodInfoPvPS4_
noa:__ZL43__ManagedRegistrationHelperFunction_Vector4Pv
Yz:__ZN7mecanim14ValueArrayCopyILb0EEEvPKNS_10ValueArrayEPS1_
KIh:_DefaultComparer__ctor_m516312884_gshared
pL:__Z51Register_UnityEngine_Animator_get_hasBoundPlayablesv
xim:_Collection_1_CopyTo_m3142835220_gshared
ue:emscriptenWebGLGetUniform
Qp:FUNCTION_TABLE_iiiiiiiiiii
WHm:_GUI_CallWindowDelegate_m3309453386
h7k:_Enumerator_System_Collections_IEnumerator_Reset_m1475773051_AdjustorThunk
qsf:_cff_set_mm_blend
MUd:__ZN5physx2Gu19sweepCapsuleCapsuleERKNS0_7CapsuleES3_RKNS_6PxVec3EfRfRS4_S8_jRt
BSe:__ZN5physx2Gu29EPASupportMapPairRelativeImplINS0_9TriangleVENS0_11ConvexHullVEED0Ev
VMa:__Z32TransferEnumWithNameForceIntSizeI14SafeBinaryRead13TextureFormatEvRT_RT0_PKc17TransferMetaFlags
hbc:__ZL10CleanUpJobP20CullingGroupsJobData
Zap:__ZL192U3CAnimateVertexColorsU3Ec__Iterator0_t168300594_CustomAttributesCacheGenerator_U3CAnimateVertexColorsU3Ec__Iterator0_System_Collections_Generic_IEnumeratorU3CobjectU3E_get_Current_m3219239971P21CustomAttributesCache
U4b:__Z20IsRunningNativeTestsv
o_j:_DirectoryInfo_get_Exists_m3142069876
t1a:__ZN10MeshFilter23VirtualRedirectTransferER24GenerateTypeTreeTransfer
hAc:__Z13RegisterClassI16LightmapSettingsEvPKc
b$b:__ZN13RenderManager15BatchModeUpdateEv
o1h:_Array_InternalArray__ICollection_Contains_TisKeyValuePair_2_t4237331251_m138928983_gshared
NBk:_Enumerator_VerifyState_m1545185457_AdjustorThunk
dhi:_X509Chain_get_CertificateAuthorities_m804805415
Yfo:__ZL123GenericTypeParameterBuilder_t1988827940_CustomAttributesCacheGenerator_GenericTypeParameterBuilder_IsSubclassOf_m2266644074P21CustomAttributesCache
yQo:__ZL71ContactFilter2D_t3805203441_CustomAttributesCacheGenerator_useLayerMaskP21CustomAttributesCache
HYm:_Vector2_get_one_m738793577
SEd:__ZN10ClipperLib7Clipper15SetWindingCountERNS_5TEdgeE
qbg:_InstanceComparer_System_Collections_IHashCodeProvider_GetHashCode_m1305577427
RKc:__ZNK4Mesh14GetIndexFormatEv
TJf:__ZN9Scripting11UnityEngine9Analytics21AnalyticsSessionState9InitProxyEv
S7n:_TextConsoleSimulator_OnDisable_m2939709510
tYm:_Vector2_get_magnitude_m2752892833_AdjustorThunk
NGl:_GenericEqualityComparer_1__ctor_m4072188982_gshared
rie:__ZN5physx2Sc8ActorSim24postDominanceGroupChangeEv
cai:_OrderedEnumerable_1_CreateOrderedEnumerable_TisUInt32_t2560061978_m2809766266_gshared
j5k:_UriParser_set_DefaultPort_m4007715058
vng:_TextMeshProUGUI_GetCanvas_m3181528364
_Gn:__ZN14dense_hash_mapI10KeyWrapperIP12Il2CppObjectEN6il2cpp2gc9CachedCCWENS4_5utils11PointerHashIS1_EENS3_14EqualsComparerINSt3__28equal_toIS2_EEEENSB_9allocatorINSB_4pairIKS3_S6_EEEEE13set_empty_keyERSH_
lPm:_FieldWithTarget__ctor_m583221563
Me:_glVertexAttribIPointer
kjk:_StringBuilder_ToString_m3317489284
i5f:_TMP_Text_set_fontSizeMin_m3526936629
hXm:__ZL25UnresolvedVirtualCall_353P12Il2CppObject22UILineInfo_t4195266810PK10MethodInfo
Drc:__ZNK6Sprite10GetPaddingE20SpriteRenderDataMode
jje:__ZN5physx2Cm8PtrTable5clearERNS0_22PtrTableStorageManagerE
K6h:_Array_InternalArray__IEnumerable_GetEnumerator_TisWorkRequest_t1354518612_m2622205355_gshared
pnh:__Z77RuntimeInvoker_KeyValuePair_2_t4237331251_Int32_t2950945753_Int32_t2950945753PFvvEPK10MethodInfoPvPS4_
C3h:_Array_InternalArray__ICollection_Remove_TisUInt32_t2560061978_m733727733_gshared
Beg:_CryptographicException__ctor_m503735289
h2o:__ZL74TMP_InputField_t1099764886_CustomAttributesCacheGenerator_m_SelectionColorP21CustomAttributesCache
M0d:__ZN5physx3Cct15ObstacleContext7releaseEv
hJg:_ConstructionCall_get_CallSiteActivationAttributes_m3498917408
OTe:__ZN5physx27solveFrictionBlockWriteBackEPKNS_23PxcSolverConstraintDescEjRNS_16PxcSolverContextEPNS_25PxcThresholdStreamElementEjPi
Stj:_Stream_EndRead_m1896469262
ePg:__Z93RuntimeInvoker_Boolean_t97287965_Int32_t2950945753_SByte_t1669577662_ExceptionU26_t3600731591PFvvEPK10MethodInfoPvPS4_
k9o:__ZL107U3CStartU3Ec__Iterator0_t2216151886_CustomAttributesCacheGenerator_U3CStartU3Ec__Iterator0_Reset_m816692654P21CustomAttributesCache
D2b:__ZN14qsort_internal5QSortIP15RODataDepthPassi17ROSorterDepthPassEEvT_S4_T0_T1_
R0m:_Canvas_get_additionalShaderChannels_m2758569541
dHh:_InternalEnumerator_1__ctor_m3322594868_gshared
Iuf:_UNITY_ft_glyphslot_alloc_bitmap
Hxl:_Dictionary_2_GetObjectData_m3463318060_gshared
w9o:__ZL145U3CStartU3Ec__Iterator0_t1520811813_CustomAttributesCacheGenerator_U3CStartU3Ec__Iterator0_System_Collections_IEnumerator_get_Current_m1242096622P21CustomAttributesCache
Ojf:__ZN13PhysicsModule21SetAutoSyncTransformsEbb
POl:_ReadOnlyCollection_1_System_Collections_IList_Add_m3642938800_gshared
Arj:_RSASslSignatureDeformatter_SetHashAlgorithm_m895570787
n6:__ZL36TransformAccessArray_InitializeClassPv
ZGn:__ZN14dense_hash_mapI10KeyWrapperIP12Il2CppObjectEN6il2cpp2gc9CachedCCWENS4_5utils11PointerHashIS1_EENS3_14EqualsComparerINSt3__28equal_toIS2_EEEENSB_9allocatorINSB_4pairIKS3_S6_EEEEEC2EjRKS9_RKSE_
eBk:_Enumerator_System_Collections_IDictionaryEnumerator_get_Key_m554883757_AdjustorThunk
BVm:__ZL25UnresolvedVirtualCall_265P12Il2CppObject6Guid_tS1_PK10MethodInfo
XSl:_ReadOnlyCollection_1_System_Collections_ICollection_get_IsSynchronized_m2037898659_gshared
o4h:_Enumerable_Contains_TisRuntimeObject_m553751294_gshared
x2g:__Z87RuntimeInvoker_Color_t2555686324_Color_t2555686324_Color_t2555686324_Single_t1397266774PFvvEPK10MethodInfoPvPS4_
Odf:__ZN5physx6shdfnd10Foundation19AlignCheckAllocator8allocateEjPKcS4_i
Kll:_List_1_Reverse_m576882157_gshared
DLl:_Collection_1_System_Collections_IList_get_IsReadOnly_m2288996004_gshared
vSc:__Z47Register_UnityEngine_Mesh_RecalculateBoundsImplv
umb:__ZN9GfxDevice27UpdateComputeSkinPoseBufferEP9GfxBufferP12SkinMeshInfo
oal:_Enumerator_get_Current_m3382684163_AdjustorThunk
ruh:_InternalEnumerator_1_System_Collections_IEnumerator_Reset_m3677481164_AdjustorThunk
zTh:_OpCode_get_OperandType_m1634816806_AdjustorThunk
Tag:_ObjectWriter_QueueObject_m3487717536
ZMj:_String_LastIndexOf_m3451222878
Flp:__ZNKSt3__221__basic_string_commonILb1EE20__throw_length_errorEv
HDl:_EqualityComparer_1_System_Collections_IEqualityComparer_Equals_m245992594_gshared
Zj:_JS_SystemInfo_GetMemory
LGi:_Texture2D_GetPixelBilinear_m1950540195
_8h:_Array_InternalArray__IndexOf_TisParameterModifier_t1461694466_m1227120810_gshared
VVb:__ZN18GfxFramebufferGLES13ReadbackImageER14ImageReferenceiiiiii
qZc:__ZN5Unity9rapidjson6WriterI16TempBufferWriterNS0_4UTF8IcEES4_13JSONAllocatorE11WriteStringEPKcj
kcg:_SerializationInfo_SetType_m3923964808
yka:__ZN6prcoreL12RemapGenericI17TexFormatARGB888815TexFormatRGB565EEvPKNS_9InnerInfoE
XO:__ZN4FMOD7Channel19setReverbPropertiesEPK29FMOD_REVERB_CHANNELPROPERTIES
ePm:_StandardEventPayload_GetParameters_m2672427676
juj:_StreamReader_Dispose_m156389394
E9:__ZN13MonoBehaviour22GetScriptFullClassNameEv
skl:_List_1_AddEnumerable_m1683884858_gshared
Nvn:_il2cpp_object_get_class
fHj:_SymmetricAlgorithm_get_Padding_m1011382560
mIc:__ZN13ProduceHelperI11MonoManagerLb0EE7ProduceE10MemLabelId18ObjectCreationMode
Acp:_U3CAnimateVertexColorsU3Ec__Iterator0_System_Collections_Generic_IEnumeratorU3CobjectU3E_get_Current_m147625527
tEj:_RIPEMD160Managed_JJ_m112143231
l4e:__ZN5physx6shdfnd4sortIPNS_15PxsContactPatchENS_27SortBoundsPredicateManifoldENS0_19ReflectionAllocatorIS3_EEEEvPT_jRKT0_RKT1_j
P1b:__ZN13BatchRendererC2ER15RenderLoopStatsRK15RenderNodeQueuebb
nLh:_Comparer_1__ctor_m191896560_gshared
Uvk:_PreviousInfo_t2148130204_marshal_pinvoke_back
Tkb:__ZNK16MemoryFileSystem9EnumerateEPKcP19dynamic_block_arrayI13FileEntryInfoLj32EEbPPv19FileEnumerationFlag
mJb:__ZN13MonoBehaviour9CallAwakeEv
hKa:__ZN20SphericalHarmonicsL211AddWeightedERKS_f
LFe:__ZN5physx2Sc24ElementInteractionMarker12onDeactivateEj
mSg:__Z82RuntimeInvoker_RuntimeObject_Int64_t3736567304_Int64_t3736567304_Int64_t3736567304PFvvEPK10MethodInfoPvPS4_
aRi:__Z14bankers_roundff
Txb:__Z19TransferField_ArrayI17RemapPPtrTransfer27Converter_SimpleNativeClassI8GUIStyleEEvRK23StaticTransferFieldInfoR31RuntimeSerializationCommandInfoRT0_
C4:__ZL22StaticInitializeShaderPv
N4l:_List_1_Insert_m2426986470_gshared
GCh:_InternalEnumerator_1_get_Current_m3433165672_AdjustorThunk
h_c:__ZN9JSONWrite8TransferI10ColorRGBAfEEvRT_PKc17TransferMetaFlags
MCn:__ZNK15dense_hashtableINSt3__24pairIK10KeyWrapperIP14Il2CppIUnknownEjEES5_N6il2cpp5utils11PointerHashIS3_EEN14dense_hash_mapIS5_jSB_NS5_14EqualsComparerINS0_8equal_toIS4_EEEENS0_9allocatorIS7_EEE9SelectKeyESG_SI_E10test_emptyERK30dense_hashtable_const_iteratorIS7_S5_SB_SK_SG_SI_E
f0d:__ZN5physx3Cct26CharacterControllerManager16createControllerERKNS_16PxControllerDescE
jPf:__ZN11UnityEngine9Analytics22EventLimitResumedEventC2EjRKN4core12basic_stringIcNS2_20StringStorageDefaultIcEEEEb
CGh:_InternalEnumerator_1__ctor_m3913006324_AdjustorThunk
Z9:__Z25scripting_method_get_name18ScriptingMethodPtr
ixc:__Z35Register_UnityEngine_Resources_Loadv
Lrj:_SslCipherSuite_ComputeKeys_m661027754
kwb:__Z19TransferField_ArrayI14SafeBinaryRead16Converter_StringEvRK23StaticTransferFieldInfoR31RuntimeSerializationCommandInfoRT0_
uzi:_Object_set_name_m291480324
gCo:__ZL68UpdateCanvasRectTransform_t1832875547_CustomAttributesCacheGeneratorP21CustomAttributesCache
f4j:_Convert_ToBoolean_m481380807
pcd:__ZN14ParticleSystem17SimulateParticlesER24ParticleSystemUpdateDataR23ParticleSystemParticlesjRKfPj
kek:_Decimal_Equals_m2486655999
lSn:_GC_exit_check
vbj:_Array_swap_TisSpriteData_t3048397587_TisSpriteData_t3048397587_m1680560025_gshared
Dnd:__ZL24GenerateParticleGeometryIL24ParticleSystemRenderMode0ELb1ELb1EL25ParticleSystemRenderSpace4EEvPfRK22ParticleSystemTempDataRK26ParticleSystemRendererDataRK21ParticleSystemModulesRK23ParticleSystemParticlesRK31ParticleSystemParticlesTempData
Axm:_InvokableCall_2_Find_m4196023330_gshared
jll:_List_1_System_Collections_IList_get_IsFixedSize_m4102534819_gshared
H3g:__Z52RuntimeInvoker_Boolean_t97287965_HitInfo_t3229609740PFvvEPK10MethodInfoPvPS4_
mS:__ZNK4PPtrI9AudioClipEcvPS0_Ev
JMl:_Collection_1_set_Item_m11553568_gshared
x8:__Z20UnlockObjectCreationv
u_l:__ZN16VirtFuncInvoker2Ii19Color32_t2600501292S0_E6InvokeEjP12Il2CppObjectS0_S0_
W5b:__Z34SetupObjectBakedOcclusionInForwardbRK15SharedLightDataRK26SharedLightmapSettingsDataRK15LightmapIndicesR17ShaderPassContext
Pyk:_DSAManaged_get_Random_m923751780
r6:__ZL29TransformAccessChangeCallbackPK15TransformAccessj
hrd:__ZN10SizeModuleC2E10MemLabelId
dZm:_Vector3_set_Item_m1772472431_AdjustorThunk
uZk:_Interpreter_PopulateGroup_m4042796257
GRk:_ValueCollection_System_Collections_Generic_ICollectionU3CTValueU3E_Clear_m541602619_gshared
VPf:__ZN9Scripting11UnityEngine10Networking18CertificateHandler9InitProxyEv
pUf:__ZN9Scripting11UnityEngine12Experimental2XR13TrackableType9InitProxyEv
vqk:_Type_GetProperty_m3414567179
zBn:__ZN6il2cpp2vm13LivenessState25FieldCanContainReferencesEP9FieldInfo
kfc:__ZNSt3__26vectorINS_4pairIN4core12basic_stringIcNS2_20StringStorageDefaultIcEEEES6_EE13stl_allocatorIS7_L18MemLabelIdentifier38ELi16EEE6insertENS_11__wrap_iterIPKS7_EERSD_
ati:_RenderPipelineManager_DoRenderLoop_Internal_m3799666479
wHo:__ZL78Sprite_t280657092_CustomAttributesCacheGenerator_Sprite_get_packed_m1179604684P21CustomAttributesCache
nF:__ZN9BlobWrite8TransferI22OffsetPtrArrayTransferI9OffsetPtrIN7mecanim12statemachine18StateMachineMemoryEEEEEvRT_PKc17TransferMetaFlags
S_m:_U3CDefaultUnityWebRequestU3Ed__0__ctor_m662023811
bVn:__ZN6il2cpp2os12Cryptography23GetCryptographyProviderEv
fRm:__ZL24UnresolvedVirtualCall_27P12Il2CppObjectS0_aPK10MethodInfo
ZHc:__Z13RegisterClassI14PlayerSettingsEvPKc
O0o:__ZL107KerningTable_t2322366871_CustomAttributesCacheGenerator_KerningTable_U3CSortKerningPairsU3Em__0_m2779948081P21CustomAttributesCache
Xf:_emscripten_glStencilOpSeparate
Hlm:_Collection_1_System_Collections_IList_IndexOf_m3894953546_gshared
gFj:_RSACryptoServiceProvider_OnKeyGenerated_m863837376
knh:__Z78RuntimeInvoker_DictionaryEntry_t3123975638_Int32_t2950945753_Int16_t2552820387PFvvEPK10MethodInfoPvPS4_
Qpm:_PKCS12_get_Certificates_m26161562
$bi:_NameObjectCollectionBase_Init_m2525481323
V4b:__ZN15SkyboxGenerator28GetCubemapSkyboxVertexFormatEv
fpb:__ZN19ShaderPropertySheet24SetTextureWithExplicitIDERK23FastTexturePropertyNameP7Texture9TextureID
Qel:_List_1_Insert_m1582252370_gshared
ONn:__ZN6il2cpp2vm6String8NewUtf16EPKDsi
ydg:_SByte_System_IConvertible_ToByte_m2268214252_AdjustorThunk
xLn:__ZN6il2cpp2os10ThreadImpl12QueueUserAPCEPFvPvES2_
X4l:_List_1_get_Capacity_m3047075120_gshared
pU:__Z32TransferEnumWithNameForceIntSizeI14SafeBinaryReadN10SampleClip17CompressionFormatEEvRT_RT0_PKc17TransferMetaFlags
r3k:_RegularExpression__ctor_m119502265
yPf:__ZN22BaseUnityConnectClient10QueueEventERN11UnityEngine15CloudWebService17CloudServiceEventEPKcjb
F1d:__ZN5physx12PxControllerD2Ev
U5n:_JSONObject_Remove_m3544892468
bSl:_ReadOnlyCollection_1_System_Collections_Generic_ICollectionU3CTU3E_Clear_m522482168_gshared
ofh:__Z60RuntimeInvoker_Boolean_t97287965_PlayerLoopSystem_t105772105PFvvEPK10MethodInfoPvPS4_
oOh:_DerivedType_IsByRefImpl_m2585680005
jUm:__ZL25UnresolvedVirtualCall_193P12Il2CppObjectaaPK10MethodInfo
jJg:_ConstructionCall_InitMethodProperty_m2021094586
TPc:__Z27Texture_CUSTOM_GetDataWidthP12Il2CppObject
nUd:__ZNK5physx2Gu15HeightFieldUtil12traceSegmentI25CapsuleTraceSegmentReportLb0ELb0ELb1EEEvRKNS_6PxVec3ES6_PT_PS5_
Z9i:_Array_Sort_TisChar_t3634460470_m2306966989_gshared
Bzd:__ZN7b2World19ContactsCollideTaskEv
s$d:__ZN5physx3Cct17CapsuleController13setStepOffsetEf
fSk:_ValueCollection_System_Collections_Generic_ICollectionU3CTValueU3E_Add_m3595439229_gshared
Jbd:__Z9UpdateTplIL27ParticleSystemCurveEvalMode1EEvRK11MinMaxCurveR23ParticleSystemParticlesjjbjRK8Vector2f
nYe:__ZN5physx10PxsContext23prepareCMDiscreteUpdateEPNS_10PxBaseTaskE
RLo:__ZL95TextGenerator_t3211863866_CustomAttributesCacheGenerator_TextGenerator_get_lineCount_m916872812P21CustomAttributesCache
d_o:__ZL74CanvasScaler_t2767979955_CustomAttributesCacheGenerator_m_DefaultSpriteDPIP21CustomAttributesCache
Mie:__ZN5physx6shdfnd5ArrayIPvNS0_19ReflectionAllocatorINS_2Cm5BlockIhLj256EEEEEE4copyINS0_15InlineAllocatorILj256ES7_EEEEvRKNS1_IS2_T_EE
og:_emscripten_glGetError
grn:__ZN15dense_hashtableINSt3__24pairIK10KeyWrapperIPK14Il2CppAssemblyEPK22Il2CppMonoAssemblyNameEES6_N6il2cpp5utils11PointerHashIS4_EEN14dense_hash_mapIS6_SA_SF_NS6_14EqualsComparerINS0_8equal_toIS5_EEEENS0_9allocatorISB_EEE9SelectKeyESK_SM_E14squash_deletedEv
DWf:_TMP_Dropdown_CreateBlocker_m1312254317
ZP:__Z14FMOD_FILE_SeekPvjS_
$lm:_Collection_1_RemoveAt_m2240641437_gshared
sme:__ZN5physx6shdfnd8PoolBaseINS_11NpAggregateENS0_19ReflectionAllocatorIS2_EEE15disposeElementsEv
ARo:__ZL81Physics_t2310948930_CustomAttributesCacheGenerator_Physics_RaycastAll_m2709753186P21CustomAttributesCache
dMa:__ZN7TextureC2E10MemLabelId18ObjectCreationMode
LMi:_LayoutGroup__ctor_m2162961217
BTd:__ZThn4_N16RayRTreeCallbackILi1ELb1EE14processResultsEjPj
LGf:__ZZN2UI6Canvas15InitializeClassEvEN39FunctorImpl_1449kCanvasHierarchyChanged4CallEPviR11MessageData
J3m:_ValueType_t3640485471_marshal_pinvoke_cleanup
scc:__ZNK13RenderTexture32CalculateNeedsInvertedProjectionEv
A0d:__ZN5physx2Gu17RadixSortBuffered4SortEPKfj
wg:emscriptenWebGLGet
sca:__Z19CanReplaceComponentRN5Unity9ComponentEPKNS_4TypeEPN4core12basic_stringIcNS5_20StringStorageDefaultIcEEEE
twj:_UnmanagedMemoryStream_Flush_m1540584491
Bkm:_Collection_1_GetEnumerator_m3986802482_gshared
YUj:_GuidParser_ParseGuid2_m1914838819
OFc:__ZN12CubemapArray11InitTextureEiii13TextureFormatb
nSa:__ZN6prcoreL18BlitIntegerToFloatERK14ImageReferenceRS0_
Nbi:_ListDictionary_get_SyncRoot_m4242825143
Jkd:__ZN32CustomDataModulePropertyBindings13SetFloatValueER14ParticleSystemif
Rrc:__Z17GetSceneBuildInfoRKN4core12basic_stringIcNS_20StringStorageDefaultIcEEEEiR14SceneBuildInfo
mkl:_List_1_System_Collections_IList_get_Item_m1112579679_gshared
yWh:_MonoMethodInfo_GetCallingConvention_m3156036493
Ash:_InternalEnumerator_1_System_Collections_IEnumerator_get_Current_m55999184_gshared
J0f:_TMP_MeshInfo__ctor_m2732078488
ulh:__Z57RuntimeInvoker_RaycastHit2D_t2279581989_Int32_t2950945753PFvvEPK10MethodInfoPvPS4_
oSn:_GC_print_all_errors
Xnn:__ZN24dense_hashtable_iteratorINSt3__24pairIK10KeyWrapperIPK10Il2CppTypeEjEES6_N6il2cpp8metadata14Il2CppTypeHashEN14dense_hash_mapIS6_jSB_NS6_14EqualsComparerINSA_26Il2CppTypeEqualityComparerEEENS0_9allocatorIS8_EEE9SelectKeyESF_SH_E30advance_past_empty_and_deletedEv
GLm:_DownloadHandlerBuffer_GetData_m752341367
fyk:_BitConverterLE_GetULongBytes_m1393773100
RGn:__ZN6il2cpp2os6Socket15SetSocketOptionENS0_17SocketOptionLevelENS0_16SocketOptionNameEi
sAg:_Graphic_get_depth_m815589653
u5d:__ZN27ConvexVsMeshOverlapCallbackC2ERKN5physx2Gu10ConvexMeshERKNS0_11PxMeshScaleERKNS0_2Cm23FastVertex2ShapeScalingERKNS0_11PxTransformESE_bRKNS1_3BoxE
DMc:__Z18SetIParticleSystemP15IParticleSystem
ywg:_ContentSizeFitter_get_horizontalFit_m2773126143
iNi:_LayoutGroup_SetLayoutInputForAxis_m2458344630
WF:__ZN7mecanim5human13HumanFixTwistEPKNS0_5HumanEPNS_8skeleton13SkeletonPoseTIN4math4trsXEEES9_iiRKf
HLf:__ZN11UnityEngine15PlatformWrapper12GetBuildTagsEv
J5b:__ZL24AssignProjectorQueuesJobP30AssignProjectorQueuesJobHeader
DTm:__ZL25UnresolvedVirtualCall_159P12Il2CppObjectfffPK10MethodInfo
G5k:_KeyValuePair_2_get_Key_m1218836954_gshared
dZh:_ParameterModifier_t1461694466_marshal_pinvoke
Onc:__ZNSt3__26vectorIN9ShaderLab20SerializedSubProgram15StructParameterENS_9allocatorIS3_EEE21__push_back_slow_pathIS3_EEvOT_
iWj:_Int16_System_IConvertible_ToUInt32_m3410279543
Bnc:__ZN9ShaderLab20SerializedSubProgram14SetConstBufferEPKci
Xap:__ZL79U3CAnimateVertexColorsU3Ec__Iterator0_t168300594_CustomAttributesCacheGeneratorP21CustomAttributesCache
Uad:__ZN11ShapeModule9ResetSeedERK27ParticleSystemReadOnlyState
Zln:__ZN6il2cpp2os4File5CloseEPNS0_10FileHandleEPi
hen:__ZNSt3__27__sort5IRN6il2cpp5utils11collections13ArrayValueMapIPK10Il2CppType17Il2CppInteropData26InteropDataToTypeConverterNS1_8metadata14Il2CppTypeLessENSA_26Il2CppTypeEqualityComparerEE12SortComparerEPS8_EEjT0_SH_SH_SH_SH_T_
UGi:_Touch_get_fingerId_m859576425_AdjustorThunk
ujf:__ZN13PhysicsModule17SetRigidBodyStateER9RigidbodyRKN8IPhysics14RigidBodyStateE
Gmk:_Thread_GetDomain_m1615404259
Heh:__Z48RuntimeInvoker_Boolean_t97287965_Link_t544317964PFvvEPK10MethodInfoPvPS4_
QUg:__Z32RuntimeInvoker_Int16_t2552820387PFvvEPK10MethodInfoPvPS4_
Gpf:_cf2_getStdVW
j3l:_List_1_System_Collections_ICollection_CopyTo_m2688165607_gshared
Mdh:__Z53RuntimeInvoker_UIVertex_t4057497605_Int32_t2950945753PFvvEPK10MethodInfoPvPS4_
Krk:_UInt16_CompareTo_m2664746316_AdjustorThunk
cSk:_ValueCollection_GetEnumerator_m616748621_gshared
qlb:__ZN9GfxDevice13SetActiveTierE12GraphicsTier
pPe:__ZN5physx2Sq12BucketPruner11shiftOriginERKNS_6PxVec3E
V2c:__Z29Transfer_Blittable_ArrayFieldI8JSONReadjEvRT_R9ArrayInfoRK23StaticTransferFieldInfo
L8d:__ZN5physx6shdfnd5ArrayIPNS_2Sc16ArticulationCoreENS0_19ReflectionAllocatorIS4_EEE15growAndPushBackERKS4_
x7g:__Z54RuntimeInvoker_Vector2_t2156229523_Vector2_t2156229523PFvvEPK10MethodInfoPvPS4_
Ifm:_Collection_1_System_Collections_IList_set_Item_m3711172521_gshared
rSn:_GC_check_finalizer_nested
j5o:__ZL77U3CPrivateImplementationDetailsU3E_t3057255366_CustomAttributesCacheGeneratorP21CustomAttributesCache
ch:__setLetterbox
bTi:_ScrollRect_OnScroll_m3861066534
M2e:__ZN5physx19normalizePartitionsERNS_6shdfnd5ArrayIjNS0_19ReflectionAllocatorIjEEEEPNS_23PxcSolverConstraintDescEPKNS_13PxcSolverBodyEjjS5_
P1h:_Array_InternalArray__ICollection_Contains_TisResourceCacheItem_t51292791_m2991582559_gshared
fHo:__ZL72FormerlySerializedAsAttribute_t2859083114_CustomAttributesCacheGeneratorP21CustomAttributesCache
QIi:_OnValidateInput_Invoke_m1009124904
xYd:__ZN18ContactCapsuleMesh20processTriangleCacheILj16EEEbRN5physx2Gu13TriangleCacheIXT_EEE
g0k:_PatternCompiler_EmitFastRepeat_m3012952683
I3a:__ZNSt3__26vectorI17BlendShapeChannelNS_9allocatorIS1_EEE6assignINS_11__wrap_iterIPS1_EEEENS_9enable_ifIXaasr21__is_forward_iteratorIT_EE5valuesr16is_constructibleIS1_NS_15iterator_traitsISA_E9referenceEEE5valueEvE4typeESA_SA_
MWi:_StrongName__ctor_m3939359439
wOb:__Z12SetGfxDeviceP9GfxDevice
qhc:__ZN11TimeManager11GetRealtimeEv
vDo:__ZL91RectOffset_t1369453676_CustomAttributesCacheGenerator_RectOffset_get_horizontal_m2663785949P21CustomAttributesCache
YXf:_TMP_InputField_get_isFocused_m859964129
qzi:_Object_GetHashCode_m1944636947
r4d:__ZN5physx2Sc16InteractionScene25removeFromActiveActorListERNS0_5ActorE
Nhn:__ZN6il2cpp6icalls6System6System3Net7Sockets6Socket4BindEiP19Il2CppSocketAddressPi
tQ:__ZN29AudioEffectInternalDefinitionC2EP26UnityAudioEffectDefinitionb
eYl:_ReadOnlyCollection_1_System_Collections_IList_Remove_m2434650390_gshared
bsk:_UInt16_ToString_m3056878594_AdjustorThunk
YH:__ZN4PPtrI6AvatarE8TransferI18StreamedBinaryReadILb0EEEEvRT_
M0o:__ZL76KerningTable_t2322366871_CustomAttributesCacheGenerator_U3CU3Ef__amU24cache0P21CustomAttributesCache
Xyl:_Dictionary_2_System_Collections_Generic_ICollectionU3CSystem_Collections_Generic_KeyValuePairU3CTKeyU2CTValueU3EU3E_Contains_m2803718146_gshared
z5c:__ZNK11MinMaxCurve20FindMinMaxIntegratedEv
pMd:__ZN5physx3Ext21InertiaTensorComputer6rotateERKNS_7PxMat33E
bDk:_Enumerator_System_Collections_IDictionaryEnumerator_get_Value_m2179213088_gshared
bbp:__ZL95VertexZoom_t550798657_CustomAttributesCacheGenerator_VertexZoom_AnimateVertexColors_m3033224630P21CustomAttributesCache
tun:__ZNSt3__2plIcNS_11char_traitsIcEENS_9allocatorIcEEEENS_12basic_stringIT_T0_T1_EERKS9_PKS6_
PGi:_Time_get_unscaledDeltaTime_m4270080131
gNf:__ZN18UnityConnectClient27OnPlayerSessionStateChangedEjyy
xXg:__Z110RuntimeInvoker_Void_t1185182177_RuntimeObject_StreamingContext_t3711869237_Int32_t2950945753_Int32_t2950945753PFvvEPK10MethodInfoPvPS4_
TRa:_stbir_resize
$7h:_Array_IndexOf_TisCustomAttributeTypedArgument_t2723150157_m3158556463_gshared
cDl:_EqualityComparer_1_System_Collections_IEqualityComparer_GetHashCode_m360549782_gshared
QPj:_Environment_GetOSVersionString_m407782784
Mgk:_DecoderExceptionFallback_Equals_m1082173956
eFl:_EqualityComparer_1_System_Collections_IEqualityComparer_GetHashCode_m345188086_gshared
Ngo:__ZL69Assembly_t_CustomAttributesCacheGenerator_Assembly_GetName_m981771927P21CustomAttributesCache
Uma:__ZL59__ManagedRegistrationHelperFunction_AsyncGPUReadbackRequestPv
Ipn:__ZN15dense_hashtableINSt3__24pairIK10KeyWrapperINS1_IPK12PropertyInfoP11Il2CppClassEEEjEES9_17ReflectionMapHashIS8_EN14dense_hash_mapIS9_jSD_NS9_14EqualsComparerINS0_8equal_toIS8_EEEENS0_9allocatorISB_EEE9SelectKeyESI_SK_E5clearEv
gAo:__ZL93Mesh_t3648964284_CustomAttributesCacheGenerator_Mesh_GetAllocArrayFromChannelImpl_m3084065604P21CustomAttributesCache
B1a:__ZN4PPtrI4MeshE8TransferI14SafeBinaryReadEEvRT_
Ewd:__ZN24b2ChainAndCapsuleContact6CreateEP9b2FixtureiS1_iP16b2BlockAllocator
gjb:__Z37ReadDirectoryInfo_UnityWebAndUnityRawR12FileAccessorRKN20ArchiveStorageHeader6HeaderERNS1_13DirectoryInfoE
E6:__ZNSt3__26__treeINS_12__value_typeIPKciEENS_19__map_value_compareIS3_S4_15compare_tstringIS3_ELb1EEENS_9allocatorIS4_EEE7destroyEPNS_11__tree_nodeIS4_PvEE
pum:_TMP_ObjectPool_1__ctor_m3382945102_gshared
o9n:__ZL77UInt16_t2177724958_CustomAttributesCacheGenerator_UInt16_TryParse_m4139137016P21CustomAttributesCache
brl:_Array_InternalArray__Insert_TisIntPtr_t_m189626842_gshared
mfi:_IPEndPoint_Equals_m306328693
yth:_InternalEnumerator_1_System_Collections_IEnumerator_get_Current_m2062365953_AdjustorThunk
$jo:__ZL52LeaseState_t747101024_CustomAttributesCacheGeneratorP21CustomAttributesCache
Ttk:_Locale_GetText_m3374010885
Mbp:_TMP_TextSelector_A_Awake_m1759976820
tLl:_Collection_1_System_Collections_IEnumerable_GetEnumerator_m1598238343_gshared
Uhg:_RijndaelManaged_CreateEncryptor_m263736311
lmk:_WaitCallback__ctor_m1893321019
lin:__ZN6il2cpp6icalls6System6System3Net7SocketsL19check_thread_statusEv
A2b:__ZN20DynamicPropertySheet14SetValueQueuedEN9ShaderLab16FastPropertyNameEN19ShaderPropertySheet12PropertyTypeEjNS2_8SetFlagsE
h_n:_U3CDelayU3Ec__Iterator1_System_Collections_IEnumerator_get_Current_m4036500312
Vri:_InvokableCallList_ClearPersistent_m1904264973
bhd:__Z25UpdateOrbitalAndRadialTplIL27ParticleSystemCurveEvalMode3ELS0_1ELS0_2EEvRK11MinMaxCurveS3_S3_S3_S3_S3_S3_R23ParticleSystemParticlesjjRKN4math8float3x3ERKNS6_7affineXERKNS6_7_float4E
wKb:__ZN25PathNamePersistentManagerD2Ev
Z9a:__ZN17PersistentManager48IntegrateObjectAndUnlockIntegrationMutexInternalEi
k$f:_TMP_InputField_GenerateCaret_m2588630787
$ul:_Array_Resize_TisTMP_CharacterInfo_t3185626797_m1065941732_gshared
IFo:__ZL85NativeDisableUnsafePtrRestrictionAttribute_t2582701661_CustomAttributesCacheGeneratorP21CustomAttributesCache
Via:__ZZ29InitializeSortingGroupManagerPvEN44PostLateUpdateSortingGroupsUpdateRegistrator7ForwardEv
NTo:__ZL55EventTrigger_t1076084509_CustomAttributesCacheGeneratorP21CustomAttributesCache
WJj:_SecurityElement_SearchForChildByTag_m900466299
hr:__ZN6Object12SetHideFlagsENS_9HideFlagsE
M6k:_Enumerator_VerifyState_m4044446453_gshared
K3n:_JSONNode_get_Keys_m4169455915
Mvd:__ZN9b2Fixture11SynchronizeEP12b2BroadPhaseRK11b2TransformS4_
MOd:__ZN9Rigidbody23VirtualRedirectTransferER14SafeBinaryRead
g8j:_Convert_ToSingle_m3227075028
itp:_emscripten_glGetFramebufferAttachmentParameteriv__wrapper
Ibc:__ZN13RendererScene15InitializeUmbraEv
_Nk:__ZN21InterfaceFuncInvoker2I26KeyValuePair_2_t2401056908P12Il2CppObjectiE6InvokeEjP11Il2CppClassS2_S2_i
uIa:__Z28CalculateGlobalMatrixInverse23TransformAccessReadOnly
Qxi:_MonoBehaviour__ctor_m1579109191
nPo:__ZL59GUITargetAttribute_t25796337_CustomAttributesCacheGeneratorP21CustomAttributesCache
jjd:__ZN23ParticleSystemParticles17SetUsesCustomDataEi
AGl:_GenericEqualityComparer_1_Equals_m3457564127_gshared
Hej:_Array_InternalArray__get_Item_TisSlot_t3975888750_m905303097_gshared
Bha:__ZN17CallbackArrayBaseIPFvPK9IndexListPK16RendererCullDataEPFvPKvS2_S5_EE8RegisterES7_SB_S9_
$vh:_InternalEnumerator_1_System_Collections_IEnumerator_Reset_m2386791007_AdjustorThunk
Igk:_DecoderExceptionFallback__ctor_m4044614564
Txh:_InternalEnumerator_1_System_Collections_IEnumerator_Reset_m3011999097_AdjustorThunk
Hwe:__ZNK5physx15PxsParticleData15getWorldBoundsVEv
Pwn:__ZN6il2cpp2vm6Thread17FullMemoryBarrierEv
ywj:_LocalDataStoreSlot__cctor_m644942532
zVm:__ZL25UnresolvedVirtualCall_263P12Il2CppObject20DateTime_t3738529785S1_PK10MethodInfo
QZd:__ZN12_GLOBAL__N_124HfTrianglesEntityReport27onEventEjPj
YOo:__ZL80GUISkin_t1244372282_CustomAttributesCacheGenerator_m_verticalScrollbarDownButtonP21CustomAttributesCache
fYh:_MonoProperty_CachePropertyInfo_m2968057423
fze:__ZN5physx22NpParticleBaseTemplateINS_16PxParticleSystemENS_16NpParticleSystemEE17setStaticFrictionEf
bQf:__ZNK25UnityWebRequestJavaScript18GetDownloadedBytesEv
pCi:_Ray_GetPoint_m1852405345_AdjustorThunk
Ieo:__ZL53RegionInfo_t1090270226_CustomAttributesCacheGeneratorP21CustomAttributesCache
iSo:__ZL85Canvas_t3310196443_CustomAttributesCacheGenerator_Canvas_get_sortingOrder_m1860900812P21CustomAttributesCache
HOl:_ReadOnlyCollection_1_System_Collections_Generic_IListU3CTU3E_Insert_m3798411681_gshared
Lhe:__ZN5physx17PxsContactManager16resetCachedStateEv
nQf:__ZN12HeaderHelper14SetUnvalidatedERKN4core12basic_stringIcNS0_20StringStorageDefaultIcEEEES6_b
BO:__ZN4FMOD6SoundI7releaseEv
EBe:__ZN5physx20NpRigidActorTemplateINS_14PxRigidDynamicEE15setActorSimFlagEb
H1a:__ZN14SpriteRenderer13AwakeFromLoadE17AwakeFromLoadMode
oep:_Cookie_Matches_m1552752637
hrf:_cff_parse_num
Kjb:__ZN10MemoryFile9SetLengthEy
o3c:__ZN8JSONRead21TransferSTLStyleArrayI13dynamic_arrayI11ColorRGBA32Lj0EEEEvRT_17TransferMetaFlags
$J:__ZZN26AnimatorOverrideController15InitializeClassEvEN42FunctorImpl_85kDidModifyAnimatorController4CallEPviR11MessageData
yud:__ZNK15b2RevoluteJoint10GetAnchorBEv
d0d:__ZNK5physx3Cct26CharacterControllerManager16getNbControllersEv
RJb:__Z28scripting_class_is_interface17ScriptingClassPtr
ti:_glTexStorage2D
WRj:_CultureInfo_ConstructInternalLocaleFromName_m4012802696
HOa:__ZNK9ShaderLab10SubProgram14EnsureCompiledEv
BSh:_MethodBuilder_GetGenericArguments_m1765425737
dbk:_DateTime_CompareTo_m3687348273
MDo:__ZL99Material_t340375123_CustomAttributesCacheGenerator_Material_CreateWithShader_m1270998153____shader1P21CustomAttributesCache
ZHl:_KeyValuePair_2_get_Key_m2288232422_AdjustorThunk
dck:_DateTime_ToUniversalTime_m1945318289_AdjustorThunk
Hif:__ZN5physx7profile10DataBufferINS_6shdfnd6MutexTINS0_26WrapperReflectionAllocatorIhEEEENS0_14ScopedLockImplIS6_EEE17handleBufferFlushEPKhj
zOj:_Enum_t4135868527_marshal_pinvoke
W6j:_Convert_ToInt16_m1336719169
P9:__Z18BuildScriptClassId17ScriptingClassPtr
O$m:_TextGenerator_Init_m1168488231
lAk:_RSAManaged_Finalize_m3915335854
er:__ZNK16LevelGameManager7GetNameEv
MZh:_TypeDelegator_GetElementType_m4265261164
shb:__ZL31DeleteLastPathNameComponentImplRKN4core12basic_stringIcNS_20StringStorageDefaultIcEEEEPKc
_ck:_DBNull_System_IConvertible_ToUInt64_m4072736670
jKf:__ZN18UnityConnectClient15GetCloudServiceEv
Dvb:__Z29Transfer_Blittable_ArrayFieldI14SafeBinaryRead5RectTIiEEvRT_R9ArrayInfoRK23StaticTransferFieldInfo
x5e:__ZN5physx20PxsConstraintProjectEPKNS_13PxsConstraintEbf
ope:__ZN5physx7NpShape7setFlagENS_11PxShapeFlag4EnumEb
Hyh:_InternalEnumerator_1_get_Current_m2698009637_gshared
Khn:__ZN6il2cpp2os19SocketHandleWrapperD2Ev
cml:_List_1_System_Collections_IList_Insert_m2850345481_gshared
fzi:_U3CAddAndCreateU3Ec__AnonStorey1__ctor_m1186055370
iwd:__ZN15b2CircleContact6CreateEP9b2FixtureiS1_iP16b2BlockAllocator
LJb:__ZL28SerializationCommandGroupForRK31TransferFunctionScriptingTraits17ScriptingClassPtr17ScriptingFieldPtrRK20CoreScriptingClasses
nxa:__ZN10TagManager32RegisterDefaultTagsAndLayerMasksEv
Znk:_WaitHandle_Dispose_m738127030
fEh:_InternalEnumerator_1__ctor_m1515092833_gshared
m7l:_List_1_System_Collections_IList_get_IsReadOnly_m1729002068_gshared
jZg:__Z50RuntimeInvoker_Double_t594665363_Int32_t2950945753PFvvEPK10MethodInfoPvPS4_
psm:_Predicate_1_EndInvoke_m1490920825_gshared
Vro:__ZL78LoaderOptimization_t1484956347_CustomAttributesCacheGenerator_DisallowBindingsP21CustomAttributesCache
hci:__KeysEnumerator__ctor_m1664513423
u1e:__ZN5physx2Sc35ParticleElementRbElementInteraction12onDeactivateEj
u8g:__Z104RuntimeInvoker_Void_t1185182177_Color_t2555686324_Single_t1397266774_SByte_t1669577662_SByte_t1669577662PFvvEPK10MethodInfoPvPS4_
L6l:_List_1_Remove_m3853969205_gshared
Gal:_Enumerator_System_Collections_IEnumerator_get_Current_m1540440674_gshared
jIm:_GUIUtility_Internal_GetPixelsPerPoint_m290411053
qfl:_List_1_System_Collections_ICollection_get_IsSynchronized_m1235563358_gshared
SKj:_Single_System_IConvertible_ToInt16_m809233024_AdjustorThunk
Zwo:__ZL64FreeFunctionAttribute_t2020741617_CustomAttributesCacheGeneratorP21CustomAttributesCache
EJf:__Z56Register_UnityEngine_Analytics_CustomEventData_AddUInt32v
Sjp:_fmodf
m6k:_LinkedList_1_System_Collections_IEnumerable_GetEnumerator_m854819135_gshared
uKd:__Z75Register_UnityEngine_Physics2D_GetRayIntersectionNonAlloc_Internal_Injectedv
bTb:__ZN4gles8InitCapsEP7ApiGLESP12GraphicsCapsR16GfxDeviceLevelGL
jSa:__ZN6prcore14BlitImageFloatERK14ImageReferenceRS0_NS0_8BlitModeE
Ych:__Z91RuntimeInvoker_Void_t1185182177_RuntimeObject_RuntimeObject_Int32_t2950945753_RuntimeObjectPFvvEPK10MethodInfoPvPS4_
PJa:__Z24CalculateVertexLightDataRK15SharedLightDataR14GfxVertexLight
bj:_glEnable
upn:__ZN15dense_hashtableINSt3__24pairIK10KeyWrapperINS1_IPK12PropertyInfoP11Il2CppClassEEEjEES9_17ReflectionMapHashIS8_EN14dense_hash_mapIS9_jSD_NS9_14EqualsComparerINS0_8equal_toIS8_EEEENS0_9allocatorISB_EEE9SelectKeyESI_SK_E15insert_noresizeERKSB_
Ura:__ZN9Scripting11UnityEngine33ExcludeFromObjectFactoryAttribute12CleanupProxyEv
DOa:__ZNK9ShaderLab7Program28BeginReadUnsupportedVariantsEv
_ua:__ZN12CachedWriter11Align4WriteEv
W1n:_SeedMenu__ctor_m833782546
C8a:__ZNSt3__26vectorIN30RuntimeInitializeOnLoadManager9ClassInfoE13stl_allocatorIS2_L18MemLabelIdentifier13ELi16EEE7reserveEj
_Ke:__ZN5physx2Sq8AABBTreeC2Ev
N$k:_PatternCompiler_EmitCategory_m851169746
t_c:__Z35Transfer_Blittable_FixedBufferFieldI9JSONWriteiEvRK29SerializationCommandArgumentsR31RuntimeSerializationCommandInfo
n5m:_HumanBone_t2465339518_marshal_pinvoke_cleanup
qkd:__ZN11TrailModuleD2Ev
Nwk:_BigInteger_op_Subtraction_m1575155386
SB:__ZN26AnimatorControllerPlayable17ProcessRootMotionEP35AnimationPlayableEvaluationConstantP32AnimationPlayableEvaluationInputP33AnimationPlayableEvaluationOutput
Skj:_RSAManaged_ImportParameters_m1117427048
Zko:__ZL54SoapServices_t133988723_CustomAttributesCacheGeneratorP21CustomAttributesCache
Zvj:_UnexceptionalStreamReader_Peek_m1842169584
tjg:_KerningPair_get_firstGlyph_m2782169529
DOm:_AnalyticsTracker_SendEvent_m2955089255
nLf:__ZN11UnityEngine7Connect15DeviceInfoEvent16CollectExtraInfoEv
ROn:__ZN6il2cpp2os11Environment22SetEnvironmentVariableERKNSt3__212basic_stringIcNS2_11char_traitsIcEENS2_9allocatorIcEEEESA_
zbm:_Queue_1_System_Collections_IEnumerable_GetEnumerator_m3464578225_gshared
q_m:_TypeInferenceRuleAttribute__ctor_m2736695831
y8e:__ZN5physx2Gu10ConvexMeshD2Ev
Seg:_CryptographicException__ctor_m1422015889
Zqn:__ZN6il2cpp2gc19AppendOnlyGCHashMapIPK10Il2CppTypeP20Il2CppReflectionTypeNS_8metadata14Il2CppTypeHashENS7_26Il2CppTypeEqualityComparerEEC2Ev
MZm:_Vector4_Equals_m1779210055_AdjustorThunk
fTi:_ScrollRect_OnBeginDrag_m1222709073
bLa:__ZN17LightBakingOutput8TransferI19StreamedBinaryWriteILb0EEEEvRT_
blp:_atoi
fZb:__ZN20ArchiveStorageReader10InitializeER15FileSystemEntryyb
clp:_atol
kPn:__ZThn8_N6il2cpp2vm13CachedCCWBaseINS0_13ManagedObjectEE6AddRefEv
rQo:__ZL101Physics2D_t1528932956_CustomAttributesCacheGenerator_Physics2D_GetRayIntersectionNonAlloc_m2525277886P21CustomAttributesCache
qzf:_New_Profile
cPl:_ReadOnlyCollection_1_GetEnumerator_m3690861713_gshared
lZo:__ZL88Selectable_t3250028441_CustomAttributesCacheGenerator_U3CisPointerDownU3Ek__BackingFieldP21CustomAttributesCache
qGg:_RemotingServices_GetRealProxy_m2081098851
syk:_BlockProcessor_Core_m189015002
jcn:__ZN15dense_hashtableINSt3__24pairIK10KeyWrapperIPKcEP11Il2CppClassEES5_N6il2cpp5utils11StringUtils12StringHasherIS4_EEN14dense_hash_mapIS5_S8_SE_NS5_14EqualsComparerINSB_13VmStringUtils21CaseSensitiveComparerEEENS0_9allocatorIS9_EEE9SelectKeyESJ_SL_EC2EjRKSE_RKSJ_RKSN_
qtp:_emscripten_glScissor__wrapper
qSf:__Z47UnityWebRequest_CUSTOM_InternalSetRequestHeaderP12Il2CppObjectP12Il2CppStringS2_
Up:FUNCTION_TABLE_viifi
Xp:FUNCTION_TABLE_viiff
Wdp:_TMP_TextEventHandler_SendOnLineSelection_m205961813
F2d:__ZNK5physx2Sc8ShapeSim10getBodySimEv
nSm:__ZL24UnresolvedVirtualCall_89P12Il2CppObjectS0_28StreamingContext_t3711869237S0_PK10MethodInfo
B0f:_U3CGetBaseMaterialU3Ec__AnonStorey0_U3CU3Em__0_m4018174143
V4m:_AnimatorControllerPlayable_SetHandle_m2260644454_AdjustorThunk
mYi:_X501__cctor_m1166912714
jbj:_Array_swap_TisChar_t3634460470_TisChar_t3634460470_m1601747483_gshared
Zwk:_PrimalityTests_Test_m2932837908
dPi:_MaskUtilities_GetRectMasksForClip_m532898711
Uu:__ZN9Scripting11UnityEngine14AnimationState9InitProxyEv
Jyd:__ZNSt3__26__sortIRN18Overlap2DQueryBase29ColliderHitsByDepthComparitorEPP10Collider2DEEvT0_S7_T_
yoi:_Bounds_ToString_m4208690781
cxn:__ZN15dense_hashtableINSt3__24pairIK10KeyWrapperINS1_IP11Il2CppClassjEEES4_EES6_N6il2cpp8metadata14ArrayClassHashEN14dense_hash_mapIS6_S4_SB_NS6_14EqualsComparerINSA_17ArrayClassCompareEEENS0_9allocatorIS8_EEE9SelectKeyESF_SH_E5clearEv
gbh:__Z57RuntimeInvoker_Void_t1185182177_VertexGradient_t345148380PFvvEPK10MethodInfoPvPS4_
_Tg:__Z88RuntimeInvoker_RuntimeObject_RuntimeObject_RuntimeObject_Int32_t2950945753_RuntimeObjectPFvvEPK10MethodInfoPvPS4_
Ibn:__ZNSt3__218uninitialized_copyIPNS_4pairIK10KeyWrapperIPK11Il2CppClassEPKcEESB_EET0_T_SD_SC_
dtn:__ZN6il2cpp2vm14TypeNameParser5ParseEb
Ywj:_Math_Sqrt_m1297338011
Duj:_StreamWriter_Initialize_m3490883444
Jqk:_Type_GetGenericArguments_m3500465462
ihn:__ZN15dense_hashtableINSt3__24pairIK10KeyWrapperIP9FieldInfoEiEES5_N6il2cpp5utils11PointerHashIS3_EEN14dense_hash_mapIS5_iSB_NS5_14EqualsComparerINS0_8equal_toIS4_EEEENS0_9allocatorIS7_EEE9SelectKeyESG_SI_E12resize_deltaEjj
Qie:__ZN5physx6shdfnd5ArrayIPvNS0_19ReflectionAllocatorINS_2Cm5BlockIhLj128EEEEEE15growAndPushBackERKS2_
QOf:__ZN23UnityPurchasingSettingsC2Ev
P4a:__ZNK9Transform13GetWorldScaleEv
q_n:_TileController_SpawnBackgroundSpaceShip_m3367612859
hWh:_Module_IsDefined_m2423524910
bOh:_DerivedType_create_unmanaged_type_m747846525
eOo:__ZL60EventType_t3528516131_CustomAttributesCacheGenerator_repaintP21CustomAttributesCache
dCa:__ZN17GPUFenceInternals7ReleaseEv
dZo:__ZL66Selectable_t3250028441_CustomAttributesCacheGenerator_m_NavigationP21CustomAttributesCache
h_h:_ResolveEventHandler__ctor_m1911137231
S7d:__ZN5physx2Sc11Interaction10onActivateEj
WTd:__ZNK5physx2Gu29EPASupportMapPairRelativeImplINS0_4BoxVENS0_11ConvexHullVEE6getDirEv
Wpe:__ZN5physx14NpShapeManager15setupSceneQueryERNS_2Sq17SceneQueryManagerERKNS_12PxRigidActorERKNS_7NpShapeE
tcc:__ZL10RenderFaceR9GfxDeviceR18MaterialStateCacheP13RenderTextureiif
_7h:_Array_IndexOf_TisCustomAttributeNamedArgument_t287865710_m2817957199_gshared
o2o:__ZL76TMP_InputField_t1099764886_CustomAttributesCacheGenerator_m_OnFocusSelectAllP21CustomAttributesCache
jRl:_ReadOnlyCollection_1_System_Collections_IList_RemoveAt_m1980090087_gshared
dpm:_ExtendedKeyUsageExtension_ToString_m2116504780
edb:__ZNK5Unity9Component38MarkGameObjectAndComponentDependenciesER27GarbageCollectorThreadState
s5e:__ZN22ScAfterIntegrationTask11runInternalEv
vZj:_BinaryReader_Read_m3708759962
Bae:__ZNK5physx2Sc9ClothCore23getExternalAccelerationEv
uV:__ZNK7Texture21GetShadowSamplingModeEv
oaa:__ZNK11TypeManager15ClassNameToRTTIEPKcb
SSd:__ZN5physx2Gu13coarseCullingERKNS_6PxVec3ES3_ffRKNS_10PxTriangleE
yma:__ZL57__ManagedRegistrationHelperFunction_DefaultExecutionOrderPv
U$a:__ZN13ScreenManager21OnWindowRegainedFocusEv
EGb:__Z18Transfer_BlittableI18StreamedBinaryReadILb0EELb1EdEvRK29SerializationCommandArgumentsR31RuntimeSerializationCommandInfo
ISb:__ZN9GfxDevice26CreateDefaultVertexBuffersEv
Lup:_emscripten_glVertexAttrib2fv__wrapper
hTf:__ZN13RuntimeStaticINSt3__26vectorIPN5physx15PxVehicleWheelsENS0_9allocatorIS4_EEEELb0EE13StaticDestroyEPv
hvj:_SynchronizedReader_ReadToEnd_m2160105378
W1e:__ZN5physx2Sc5Scene29processNarrowPhaseTouchEventsEv
VUa:__ZN4crnd12symbol_codec32decode_receive_static_data_modelERNS_25static_huffman_data_modelE
ODc:__ZN18ScriptingArguments8AddFloatEf
w4f:_TMP_Text_get_isRightToLeftText_m3326972673
dHi:_TouchScreenKeyboard_Open_m3325559252
vCg:_Image_set_fillOrigin_m469806249
v0n:_LoadScreenDelay_Update_m3356487317
bLf:__ZN11UnityEngine15PlatformWrapper16GetVRRenderScaleEv
Ece:__ZN5physx6shdfnd5ArrayIPvNS0_15InlineAllocatorILj256ENS0_19ReflectionAllocatorINS_18NpArticulationLinkEEEEEE15growAndPushBackERKS2_
LVk:_Dictionary_2_GetEnumerator_m2532220708_gshared
t$c:__Z18Transfer_BlittableI9JSONWriteLb0EaEvRK29SerializationCommandArgumentsR31RuntimeSerializationCommandInfo
Aol:_Array_InternalArray__ICollection_Add_TisXML_TagAttribute_t1174424309_m1755316534_gshared
SZ:__ZN11UnityEngine15CloudWebService14DataDispatcher34OnSessionContainerArchivedAndReadyERNS0_16SessionContainerE
yyi:_ConnectionChangeEvent__ctor_m764126802
ntd:__ZN7b2World11CreateJointEPK10b2JointDef
Ehj:_Kernel_Multiply_m193213393
Qcd:__ZN23ParticleSystemParticles20SetUsesTriggerEventsEb
Wxj:_IntComparer__ctor_m2901422390
S0d:__ZNK5physx3Cct15ObstacleContext11getObstacleEj
i_h:_ResolveEventHandler_Invoke_m1337322179
imo:__ZL50HMACMD5_t2742219965_CustomAttributesCacheGeneratorP21CustomAttributesCache
jCh:_InternalEnumerator_1_Dispose_m1901715479_AdjustorThunk
tKh:_Comparer_1__ctor_m1078828713_gshared
CAb:__Z18Transfer_BlittableI19StreamedBinaryWriteILb0EELb0E8Vector3fEvRK29SerializationCommandArgumentsR31RuntimeSerializationCommandInfo
y9k:_Enumerator_VerifyState_m2621680056_gshared
l4k:_UriParser_InternalRegister_m3643767086
NLo:__ZL106TextGenerator_t3211863866_CustomAttributesCacheGenerator_TextGenerator_INTERNAL_get_rectExtents_m183810018P21CustomAttributesCache
Tic:__ZN14SafeBinaryRead19TransferSTLStyleMapINSt3__23mapIN4core12basic_stringIcNS3_20StringStorageDefaultIcEEEEiNS1_4lessIS7_EENS1_9allocatorINS1_4pairIKS7_iEEEEEEEEvRT_17TransferMetaFlags
QSj:_DateTimeFormatInfo_get_RawAbbreviatedDayNames_m1257850285
dFj:_RSACryptoServiceProvider_EncryptValue_m944137256
Zon:__ZN15dense_hashtableINSt3__24pairIK10KeyWrapperINS1_IPK11Il2CppImageP11Il2CppClassEEEjEES9_17ReflectionMapHashIS8_EN14dense_hash_mapIS9_jSD_NS9_14EqualsComparerINS0_8equal_toIS8_EEEENS0_9allocatorISB_EEE9SelectKeyESI_SK_ED2Ev
Yvf:_gray_move_to
mDk:_Enumerator_Dispose_m2768348159_AdjustorThunk
Wck:_DBNull_System_IConvertible_ToSingle_m13713620
L4i:_Char_ToLowerInvariant_m1926695830
N_o:__ZL127U3CDelayedSetDirtyU3Ec__Iterator0_t3170500204_CustomAttributesCacheGenerator_U3CDelayedSetDirtyU3Ec__Iterator0_Reset_m160466733P21CustomAttributesCache
tXf:_TMP_FontAsset_HasCharacter_Internal_m2112188792
VZf:_TMP_InputField_GetCaretPositionFromStringIndex_m2732968711
Pdm:__ZN23InterfaceActionInvoker2Ii25RejectHandler_t1435172309E6InvokeEjP11Il2CppClassP12Il2CppObjectiS0_
hpi:_CameraCallback__ctor_m899467377
fRl:_ReadOnlyCollection_1_System_Collections_IList_Contains_m1327645028_gshared
ICg:_Image_GetDrawingDimensions_m3060965396
vMm:_UnityWebRequest_Dispose_m3261105905
jMo:__ZL69FontTextureRebuildCallback_t2467502454_CustomAttributesCacheGeneratorP21CustomAttributesCache
crk:_TypeLoadException__ctor_m1154572625
ROc:__Z30RegisterValidateMethodCallbackiPF18ScriptingMethodPtrS_17ScriptingClassPtrP6ObjectEPKc
pQa:__ZNSt3__27__sort4IRPFbRKNS_4pairIN9ShaderLab16FastPropertyNameE10ColorRGBAfEES7_EPS5_EEjT0_SC_SC_SC_T_
EFo:__ZL100NativeContainerSupportsDeallocateOnJobCompletionAttribute_t1480492758_CustomAttributesCacheGeneratorP21CustomAttributesCache
Y9n:__ZL75Decimal_t2948259380_CustomAttributesCacheGenerator_Decimal__ctor_m593929528P21CustomAttributesCache
Poj:_Context_get_WriteSequenceNumber_m1115956887
_Zi:_Activator_CreateInstanceInternal_m1337209899
edj:_Dictionary_2_Do_ICollectionCopyTo_TisKeyValuePair_2_t2401056908_m1169495264_gshared
KAm:_UnityEvent_2_GetDelegate_m1261532026_gshared
Zdd:__Z25GetTransformationMatricesPN4math8float3x3ES1_bbRK10Matrix4x4fS4_
xwg:_ContentSizeFitter__ctor_m2349275633
_to:__ZL56TypeConverter_t2249118273_CustomAttributesCacheGeneratorP21CustomAttributesCache
O9c:__ZN4PPtrI14ParticleSystemE8TransferI19StreamedBinaryWriteILb0EEEEvRT_
yOe:__ZN5physx13IslandManager6resizeEj
XIl:_Collection_1_RemoveAt_m3506636491_gshared
nFa:__Z26TransformVerticesInnerLoopILb1ELb0ELb0EEvPhRK10Matrix4x4fRK10Matrix3x3fjPKhiS8_ii25GfxTransformVerticesFlagsj
M3c:__ZN8JSONRead8TransferI9BoundsIntEEvRT_PKc17TransferMetaFlagsb
eKn:__ZN24dense_hashtable_iteratorINSt3__24pairIK10KeyWrapperIPcES3_EES4_N6il2cpp5utils15PassThroughHashIS3_EEN14dense_hash_mapIS4_S3_SA_NS4_14EqualsComparerINS0_8equal_toIS3_EEEENS0_9allocatorIS6_EEE9SelectKeyESF_SH_E30advance_past_empty_and_deletedEv
Hb:invoke_viidi
Spd:__Z17UpdateSprites2TplIL27ParticleSystemCurveEvalMode0ELS0_2EEvfRK11MinMaxCurveS3_RK23ParticleSystemParticlesPf
b8f:_TMP_Text_ReplaceClosingStyleTag_m619073692
w7d:__ZN5physx6shdfnd8PoolBaseINS_2Cm5BlockIPvLj16EEENS0_19ReflectionAllocatorIS5_EEE17releaseEmptySlabsEv
jAg:_Graphic_OnRectTransformDimensionsChange_m3695755375
Adg:_SByte_System_IConvertible_ToChar_m1489191771_AdjustorThunk
rO:__ZN9AudioClip7CleanupEv
THc:__Z13RegisterClassI18DelayedCallManagerEvPKc
B1l:_Nullable_1_get_Value_m3112951896_AdjustorThunk
HIh:_DefaultComparer__ctor_m983978887_gshared
CNj:_String_Concat_m1809518182
r_k:_Interval_t1802865632_marshal_pinvoke_cleanup
v3o:__ZL147U3CDoSpriteAnimationInternalU3Ec__Iterator0_t827549206_CustomAttributesCacheGenerator_U3CDoSpriteAnimationInternalU3Ec__Iterator0_Reset_m2666372053P21CustomAttributesCache
oyn:__ZNK15dense_hashtableINSt3__24pairIK10KeyWrapperIP11Il2CppClassES4_EES5_N6il2cpp8metadata16SZArrayClassHashEN14dense_hash_mapIS5_S4_SA_NS5_14EqualsComparerINS9_19SZArrayClassCompareEEENS0_9allocatorIS7_EEE9SelectKeyESE_SG_E12test_deletedEj
e7j:_Convert_ToInt16_m1223489986
FAg:_Graphic_GraphicUpdateComplete_m1502194795
C1d:__ZL20updateMassAndInertiabRN5physx11PxRigidBodyEPKfjPKNS_6PxVec3Eb
n2c:__Z18Transfer_BlittableI8JSONReadLb0EdEvRK29SerializationCommandArgumentsR31RuntimeSerializationCommandInfo
Bgf:__ZN5physx24NpPtrTableStorageManagerC2Ev
oMg:_SoapTypeAttribute_get_IsInteropXmlElement_m3413949955
HHg:_SynchronizationAttribute_EnterContext_m1660729920
xEf:__Z44Register_UnityEngine_Canvas_set_sortingOrderv
G0m:_Canvas_get_referencePixelsPerUnit_m3420541976
lRl:_ReadOnlyCollection_1_System_Collections_ICollection_get_SyncRoot_m2522539235_gshared
uHm:_Event_get_current_m2393892120
lQm:_VertexHelper_Clear_m627349662
sBl:_DefaultComparer_Equals_m3688244916_gshared
Nfj:_Array_InternalArray__get_Item_TisWorkRequest_t1354518612_m2694410850_gshared
Nlb:__ZNK9GfxDevice13GetViewMatrixEv
uwj:_UnmanagedMemoryStream_Dispose_m2681886347
$Hg:_Lease_get_CurrentState_m2210872233
pHe:__ZN5physx7NpScene15flushSimulationEb
iuh:_InternalEnumerator_1_System_Collections_IEnumerator_get_Current_m1295084274_gshared
moe:__ZN5physx6shdfnd8PoolBaseINS_10NpMaterialENS0_19ReflectionAllocatorIS2_EEE12allocateSlabEv
rba:__ZN8TypeTree8BlobReadERPKhS1_ib
NHo:__ZL87Display_t1387065949_CustomAttributesCacheGenerator_Display_GetSystemExtImpl_m2808197389P21CustomAttributesCache
t0i:_Array_Reverse_m3714848183
Fyg:_Dropdown_ClearOptions_m4085591601
Kvg:_CanvasUpdateRegistry_InternalRegisterCanvasElementForGraphicRebuild_m3522560454
ddl:_List_1_set_Capacity_m2639563982_gshared
E5k:_KeyValuePair_2__ctor_m880186442_gshared
_bf:__ZN5physx18ReducedVertexCloudC2EPKNS_6PxVec3Ej
kab:__ZN18LoadSceneOperation23GetAllowSceneActivationEv
Abl:_List_1_System_Collections_IList_get_Item_m121323183_gshared
M6o:__ZL110U3CSpawnU3Ec__Iterator0_t2937824069_CustomAttributesCacheGenerator_U3CSpawnU3Ec__Iterator0_Dispose_m2610293601P21CustomAttributesCache
S0m:_Canvas_set_additionalShaderChannels_m4180310117
iAa:__ZN6CameraD0Ev
mem:_Collection_1_System_Collections_IList_get_IsReadOnly_m2319019412_gshared
Jha:__ZN31CanvasBatchIntermediateRenderer16StaticInitializeEPv
xLl:_Collection_1_System_Collections_IList_IndexOf_m837396833_gshared
iB:__ZN7mecanim12AndValueMaskILb0EEEvPKNS_14ValueArrayMaskEPS1_
q8a:__ZN14SafeBinaryRead21TransferSTLStyleArrayINSt3__26vectorIi13stl_allocatorIiL18MemLabelIdentifier13ELi16EEEEEEvRT_17TransferMetaFlags
o8h:_Array_InternalArray__IndexOf_TisProgressHandler_t926933139_m2009823052_gshared
Gvh:_InternalEnumerator_1__ctor_m962177456_AdjustorThunk
Jnf:_raccess_guess_apple_double
uap:__ZL86TMP_TextEventHandler_t1869054637_CustomAttributesCacheGenerator_m_OnCharacterSelectionP21CustomAttributesCache
BUb:__ZL18ProgramUniform1uivPK7ApiGLESjiihPKv
t5g:__Z65RuntimeInvoker_Boolean_t97287965_RuntimeObject_Single_t1397266774PFvvEPK10MethodInfoPvPS4_
X9i:_Array_Sort_TisByte_t1134296376_m343015505_gshared
eld:__ZN27ShapeModulePropertyBindings13GetFloatValueERK14ParticleSystemi
XFc:__ZN14Texture2DArray13RebuildMipMapEv
hbn:__ZN13Il2CppHashSetIPK17Il2CppGenericInstN6il2cpp8metadata21Il2CppGenericInstHashENS4_24Il2CppGenericInstCompareENSt3__29allocatorI10KeyWrapperIS2_EEEEC2EjRKS5_RKS6_
Btb:__Z18Transfer_BlittableI14SafeBinaryReadLb1EaEvRK29SerializationCommandArgumentsR31RuntimeSerializationCommandInfo
pKn:__ZN6il2cpp2gc16GarbageCollector14RemoveWeakLinkEPPv
Cnc:__ZN9ShaderLab20SerializedSubProgram14AddVectorParamEPKcii15ShaderParamTypei
Q7h:_Array_IndexOf_TisResolveHandler_t4124874245_m3487245119_gshared
L3l:_List_1_GetEnumerator_m563931292_gshared
d2m:_Collision2D_t2842956331_marshal_pinvoke
tGf:__ZN2UI14CanvasRenderer12CleanupClassEv
Age:__ZNK5physx19NpRigidBodyTemplateINS_18PxArticulationLinkEE27getMinCCDAdvanceCoefficientEv
v3j:_Enumerator__ctor_m3362421874
SKo:__ZL94AudioSampleProvider_t3950279772_CustomAttributesCacheGenerator_U3CtrackIndexU3Ek__BackingFieldP21CustomAttributesCache
ZSl:_ReadOnlyCollection_1_System_Collections_IList_get_IsFixedSize_m1447922362_gshared
tzh:_InternalEnumerator_1_get_Current_m3515899965_gshared
OFn:__ZN6il2cpp2vm6Object3BoxEP11Il2CppClassPv
gXm:__ZL25UnresolvedVirtualCall_352P12Il2CppObjecti22UILineInfo_t4195266810PK10MethodInfo
Kwn:__ZN6il2cpp2vm6Thread7SetNameEP12Il2CppThreadP12Il2CppString
kr:__ZN6Object23VirtualRedirectTransferER19StreamedBinaryWriteILb1EE
l$:__ZN11UnityEngine15CloudWebService10RestClientINS0_23WebRequestRestHeaderMapEE16SetRequestHeaderERKN4core12basic_stringIcNS4_20StringStorageDefaultIcEEEESA_
v8a:__ZN30RuntimeInitializeOnLoadManager15ClassMethodInfo8TransferI14SafeBinaryReadEEvRT_
bJg:_ConstructionCall_InitDictionary_m2824447813
Vae:__ZNK5physx2Sc10ClothShape8isActiveEv
gcd:__ZN23ParticleSystemParticles14element_assignEjj
tZh:_TargetException__ctor_m3701535709
Ofh:__Z86RuntimeInvoker_Int32_t2950945753_Vector3_t3722313464_Vector3_t3722313464_RuntimeObjectPFvvEPK10MethodInfoPvPS4_
mY:__ZL22InitializeModule_Audiov
cPe:__ZN5physx2Sq11PruningPoolD0Ev
Fkb:__ZN16MemoryFileSystem8IsLockedERK13FileEntryData
XWe:__ZN3MBP15removeBoxPrunerEj
Yzn:__ZN6il2cpp6icalls8mscorlib6System2IO6MonoIO5WriteEiP11Il2CppArrayiiPi
Sml:_List_1_set_Item_m1753836470_gshared
$bh:__Z80RuntimeInvoker_Int32_t2950945753_RuntimeObject_Vector3_t3722313464_RuntimeObjectPFvvEPK10MethodInfoPvPS4_
ind:__ZN14ParticleSystem23OnGeometryJobsScheduledEj
swi:_Mathf_InverseLerp_m4155825980
uVg:__Z92RuntimeInvoker_RuntimeObject_RuntimeObject_RuntimeObject_SByte_t1669577662_SByte_t1669577662PFvvEPK10MethodInfoPvPS4_
Sl:_emscripten_glBindRenderbuffer
V0l:_OrderedSequence_2_CreateContext_m3695051966_gshared
Dqd:__ZZN14ParticleSystem15InitializeClassEvEN29FunctorImpl_228kDidModifyMesh4CallEPviR11MessageData
fkl:_List_1_System_Collections_IList_Insert_m1011775503_gshared
gSn:_GC_dirty_init
zCh:_InternalEnumerator_1_System_Collections_IEnumerator_Reset_m1463497855_AdjustorThunk
vEn:__ZN6il2cpp2vm5Image33GetCachedMemoryMappedResourceFileEP24Il2CppReflectionAssembly
Wul:_Array_Resize_TisSpriteData_t3048397587_m3669483764_gshared
XDf:__ZNK2UI6Canvas16GetTargetDisplayEv
Tdh:__Z69RuntimeInvoker_Void_t1185182177_Int32_t2950945753_Vector2_t2156229523PFvvEPK10MethodInfoPvPS4_
BJf:__Z63Register_UnityEngine_Analytics_CustomEventData_Internal_Destroyv
$Rl:_ReadOnlyCollection_1__ctor_m2610384050_gshared
agd:__Z25UpdateOrbitalAndRadialTplIL27ParticleSystemCurveEvalMode1ELS0_2ELS0_2EEvRK11MinMaxCurveS3_S3_S3_S3_S3_S3_R23ParticleSystemParticlesjjRKN4math8float3x3ERKNS6_7affineXERKNS6_7_float4E
mZd:__ZL15SweepBoxCapsulePKN5physx3Cct9SweepTestEPKNS0_11SweptVolumeEPKNS0_11TouchedGeomERKNS_14PxExtendedVec3ERKNS_6PxVec3ERNS0_12SweptContactE
a0c:__ZN9JSONWrite8TransferI4PPtrI9Texture2DEEEvRT_PKc17TransferMetaFlags
kZf:_TMP_InputField_set_richText_m1744201547
gJb:__ZN13MonoBehaviour17RemoveFromManagerEv
bZm:_Vector3_get_Item_m668685504_AdjustorThunk
Jfp:_Request_GetHeaders_m2390976500
B6e:__ZN5physx2Sc19ParticlePacketShapeD2Ev
oOg:_ClrTypeMetadata_get_RequiresTypes_m1619438370
VWa:__ZL11DecodeValuePPKcS0_
cIm:_GUIUtility_get_pixelsPerPoint_m2369948084
HJj:_WindowsIdentity_System_Runtime_Serialization_IDeserializationCallback_OnDeserialization_m3428853631
Z2:__ZN13MemoryManagerC2Ev
D5n:_JSONNumber_set_AsLong_m3543961811
H4a:__ZN12SkinMeshInfo10DeallocateEPS_
Ybn:__ZNK15dense_hashtableINSt3__24pairIK10KeyWrapperIPKcEP11Il2CppClassEES5_N6il2cpp5utils11StringUtils12StringHasherIS4_EEN14dense_hash_mapIS5_S8_SE_NS5_14EqualsComparerINSB_13VmStringUtils21CaseSensitiveComparerEEENS0_9allocatorIS9_EEE9SelectKeyESJ_SL_E8min_sizeEjj
ESi:_ScrollRect_SetDirty_m214267968
B8h:_Array_InternalArray__IndexOf_TisKeyValuePair_2_t727985506_m1773917996_gshared
Qfh:__Z109RuntimeInvoker_Int32_t2950945753_RuntimeObject_ProgressHandler_t926933139_Int32_t2950945753_Int32_t2950945753PFvvEPK10MethodInfoPvPS4_
mZo:__ZL87Selectable_t3250028441_CustomAttributesCacheGenerator_U3ChasSelectionU3Ek__BackingFieldP21CustomAttributesCache
Zjb:__ZN20ArchiveStorageReader28AcquireAndPrefillUnusedBlockEjPNS_11CacheResultE
X1i:_Boolean_System_IConvertible_ToDateTime_m603510836
SFc:__Z12NHxRoughnessIA4_tEvP9Texture2DPT_iiii
oZl:__ZN28GenericInterfaceFuncInvoker2IibbE6InvokeEPK10MethodInfoP12Il2CppObjectbb
Sxk:_ASN1_get_Value_m1857007406
UY:__Z6simd4iiiii
Seb:__ZN9Transform5ResetEv
afk:_DelegateSerializationHolder__ctor_m23226427
j7j:_Decimal_op_Explicit_m1842265407
nAb:__Z22TransferField_NonArrayI24GenerateTypeTreeTransfer16Converter_StringEvRK23StaticTransferFieldInfoR31RuntimeSerializationCommandInfoRT0_
Oma:__ZL47__ManagedRegistrationHelperFunction_FixedUpdatePv
Aqd:__ZN29ParticleSystemPropertyBinding49InitializeParticleSystemAnimationBindingInterfaceEv
Mrf:_UNITY_FT_CMap_New
uvh:_InternalEnumerator_1_get_Current_m4241643334_AdjustorThunk
EWf:_TMP_Dropdown_DestroyBlocker_m2367277104
Lth:_InternalEnumerator_1_MoveNext_m154749640_AdjustorThunk
rjm:_Collection_1_set_Item_m2389175716_gshared
DLb:__Z17MainLoopKeepalivePv
nae:__ZN5physx7NpScene16addActorInternalERNS_7PxActorE
RRi:_Selectable_FindSelectableOnDown_m1591762582
wZo:__ZL62Slider_t3903728902_CustomAttributesCacheGenerator_m_HandleRectP21CustomAttributesCache
sdn:__ZN15dense_hashtableI10KeyWrapperIPK17Il2CppGenericInstES4_N6il2cpp8metadata21Il2CppGenericInstHashEN14dense_hash_setIS4_S7_NS4_14EqualsComparerINS6_24Il2CppGenericInstCompareEEENSt3__29allocatorIS4_EEE8IdentityESB_SE_E12expand_arrayEjN21dense_hash_map_traits17integral_constantIbLb0EEE
UBh:_InternalEnumerator_1_get_Current_m1588647567_AdjustorThunk
ACj:_Assembly_UnprotectedGetName_m600830855
HRh:_ILGenerator_Emit_m2239205197
Eio:__ZL51GCHandle_t3351438187_CustomAttributesCacheGeneratorP21CustomAttributesCache
jWe:__ZN5physx17MBPUpdateWorkTaskD2Ev
O_m:_U3CSendWebRequestU3Ed__0_System_Collections_Generic_IEnumeratorU3CSystem_ObjectU3E_get_Current_m3237948241
kJi:_InputField_get_caretBlinkRate_m3620074524
Acb:__ZN11PreloadData39ShouldIgnoreInGarbageDependencyTrackingEv
v2b:__Z19SetupLODFadeKeywordR17ShaderPassContexti
Wnd:__ZL19ParticleGeomFlipUVsffRKN4math5_int4EPS1_
zFj:_RSAPKCS1SignatureFormatter_CreateSignature_m3191980616
wOa:__ZN10builtintex16GetDefaultTexEnvE16TextureDimensionb
JWb:__ZL25CheckCopyTextureArgumentsRK7ApiGLESP11GLESTextureS3_
Nkd:__ZN24UVModulePropertyBindings13AddPropertiesER10vector_mapIi22ParticleModulePropertyNSt3__24lessIiEENS2_9allocatorINS2_4pairIiS1_EEEEE
vkl:_List_1_AsReadOnly_m2400800347_gshared
Xxp:_glDeleteShader__wrapper
Vga:__ZNK15PlayableMethods18InvokeOnGraphStartER18ScriptingObjectPtrRK9HPlayable
Lzb:__Z29Transfer_Blittable_ArrayFieldI24GenerateTypeTreeTransferyEvRT_R9ArrayInfoRK23StaticTransferFieldInfo
N3m:_ValueType_Equals_m1524437845
Rxo:__ZL71RuntimePlatform_t4159857903_CustomAttributesCacheGenerator_OSXWebPlayerP21CustomAttributesCache
R2n:_JSONLazyCreator_Add_m786737145
lP:__ZN4FMOD7SystemI9playSoundE17FMOD_CHANNELINDEXPNS_5SoundEbPPNS_7ChannelE
V9g:__Z123RuntimeInvoker_RuntimeObject_Ray_t3785851493_RuntimeObject_Single_t1397266774_Int32_t2950945753_RuntimeObject_RuntimeObjectPFvvEPK10MethodInfoPvPS4_
nYj:_Int64_GetHashCode_m703091690
Vna:__ZL60__ManagedRegistrationHelperFunction_ReflectionProbeBlendInfoPv
Hre:__ZNK5physx7NpCloth16getStretchConfigENS_22PxClothFabricPhaseType4EnumE
Srm:_X509CrlEntry_get_RevocationDate_m606796547
HHm:_Event_get_commandName_m4275147343
hB:__ZN27AnimationLayerMixerPlayable17LayerMixerProcessEP35AnimationPlayableEvaluationConstantP32AnimationPlayableEvaluationInputP33AnimationPlayableEvaluationOutputM17AnimationPlayableFvS1_S3_S5_EMS_FvS1_S3_S5_ESA_MS_FvS5_S1_S3_S5_ifE
r6j:_Decimal_op_Implicit_m4256234411
dub:__Z24TransferPPtrToMonoObjecti17ScriptingClassPtrP23DataToCreateNullWrapper24TransferInstructionFlags
R1l:_Nullable_1_Equals_m3352611811_gshared
ON:__ZN12AudioManager23VirtualRedirectTransferER18StreamedBinaryReadILb0EE
eSg:__Z60RuntimeInvoker_RuntimeObject_RuntimeObject_Int16_t2552820387PFvvEPK10MethodInfoPvPS4_
_Lo:__ZL90TextMesh_t1536577757_CustomAttributesCacheGenerator_TextMesh_INTERNAL_set_color_m292262424P21CustomAttributesCache
r3a:__ZN10VertexData13SwapEndianessEv
buj:_StreamReader__ctor_m3941437302
_kd:__ZN27ColorModulePropertyBindings13GetFloatValueERK14ParticleSystemi
hyc:__Z57Register_UnityEngine_Transform_INTERNAL_get_localRotationv
Nei:_IPv6Address_get_Address_m1389170741
uZl:__ZN28GenericInterfaceFuncInvoker2IihhE6InvokeEPK10MethodInfoP12Il2CppObjecthh
i8a:__ZN30RuntimeInitializeOnLoadManager23VirtualRedirectTransferER17RemapPPtrTransfer
Mpp:dynCall_viif
_Cj:_AssemblyName_get_Flags_m1616840602
$Eh:_InternalEnumerator_1_MoveNext_m1590908934_AdjustorThunk
fAc:__Z13RegisterClassIN5Unity9ComponentEEvPKc
v4b:__ZN29MotionVectorRenderLoopScratchD2Ev
Wkg:_TextContainer_get_anchorPosition_m1331723421
u5e:__ZN5physx2Sc24ConstraintProjectionTree11projectPoseERNS0_19ConstraintGroupNodeE
rxb:__ZL26Transfer_SimpleNativeClassI17RemapPPtrTransfer8GradientLb0EEvRK29SerializationCommandArgumentsR31RuntimeSerializationCommandInfo
hzo:__ZL49Shader_t4151988712_CustomAttributesCacheGeneratorP21CustomAttributesCache
Gqi:__ZN23InterfaceActionInvoker3IiP8String_tP24ObjectU5BU5D_t2843939325E6InvokeEjP11Il2CppClassP12Il2CppObjectiS1_S3_
UC:__ZN17AnimationPlayable26DisconnectNoTopologyChangeEPS_i
Eke:__ZNK5physx12NpBatchQuery14getOwnerClientEv
c8l:_List_1_System_Collections_IList_Contains_m2131605266_gshared
qlo:__ZL61ISurrogateSelector_t3040401154_CustomAttributesCacheGeneratorP21CustomAttributesCache
kfe:__ZN5physx2Sc21ArticulationJointCore28setSwingLimitContactDistanceEf
g_n:_U3CDelayU3Ec__Iterator1_System_Collections_Generic_IEnumeratorU3CobjectU3E_get_Current_m2215550623
cge:__ZNK5physx20NpRigidActorTemplateINS_18PxArticulationLinkEE14getConstraintsEPPNS_12PxConstraintEjj
tqp:dynCall_viifffi
L9l:_List_1_ToArray_m1990123684_gshared
yng:_TextMeshProUGUI_LoadFontAsset_m2596902304
g0:__ZN13UploadHandlerD2Ev
ML:__GLOBAL__sub_I_Modules_AssetBundle_Public_1_cpp
Mnp:dynCall_viiiiiffi
md:_emscripten_glBlendFuncSeparate
Yjm:_Collection_1_RemoveAt_m2321540662_gshared
Qlm:_Collection_1_Add_m809543251_gshared
x7:__Z20scripting_string_newPKc
w3k:_Parser_IsSingleline_m326238187
h8i:_CollectionBase_get_Count_m1708965601
ngg:_HMAC__ctor_m97939284
jUl:_ReadOnlyCollection_1_System_Collections_IList_get_Item_m1005238747_gshared
CDn:__ZNK24NamespaceAndNamePairHashclERKNSt3__24pairIPKcS3_EE
M3m:_ValueType_DefaultEquals_m2927252100
_Zc:__ZN9JSONWrite12AppendToNodeEPN5Unity9rapidjson12GenericValueINS1_4UTF8IcEE13JSONAllocatorEEPKcRS6_
Zxk:_ASN1_ToString_m1340204511
TWk:_X509ChainElementEnumerator_get_Current_m1301774989
yvd:__ZN16PhysicsManager2D20GetRigidBodyVelocityERK11Rigidbody2D
JQk:_Enumerator_System_Collections_IEnumerator_Reset_m85524874_gshared
VXk:_X509Store_get_Certificates_m2149701265
zpb:__ZN20GfxAsyncReadbackDataD2Ev
Cge:__ZNK5physx19NpRigidBodyTemplateINS_18PxArticulationLinkEE27getMaxDepenetrationVelocityEv
nqk:_Type_GetField_m2961003358
eVl:_ReadOnlyCollection_1_System_Collections_Generic_IListU3CTU3E_set_Item_m711370667_gshared
CVo:__ZL144StandaloneInputModule_t2760469101_CustomAttributesCacheGenerator_StandaloneInputModule_t2760469101____allowActivationOnMobileDevice_PropertyInfoP21CustomAttributesCache
usa:__ZN9Scripting11UnityEngine13ComputeBuffer12CleanupProxyEv
t9e:__ZThn8_N5physx2Gu11HeightFieldD1Ev
pjk:_StringBuilder_set_Chars_m3548656617
x7o:__ZL136U3CSpawnEnemyType2WaveU3Ec__Iterator7_t1142910207_CustomAttributesCacheGenerator_U3CSpawnEnemyType2WaveU3Ec__Iterator7__ctor_m3083523513P21CustomAttributesCache
Rln:__ZN6il2cpp2os4File17GetFileAttributesERKNSt3__212basic_stringIcNS2_11char_traitsIcEENS2_9allocatorIcEEEEPi
SBe:__ZN5physx19NpRigidBodyTemplateINS_14PxRigidDynamicEED0Ev
see:__ZNK5physx19PxArticulationJoint19getConcreteTypeNameEv
Ogh:__Z59RuntimeInvoker_Int32_t2950945753_X509ChainStatus_t133602714PFvvEPK10MethodInfoPvPS4_
FG:__ZNSt3__26__sortIRPFbPKN8Animator11AnimatorJobES4_EPS4_EEvT0_S9_T_
jV:__ZN17AudioCustomFilterD2Ev
HYc:__ZN11IMGUIModule26SetDeveloperConsoleVisibleEb
cjj:_ARC4Managed_GenerateKey_m1607343060
Phh:__Z56RuntimeInvoker_Void_t1185182177_MonoResource_t4103430009PFvvEPK10MethodInfoPvPS4_
leb:__ZN9Transform16ResetReplacementEv
$Pn:_GC_unpromote_black_lists
HL:__ZN9Scripting11UnityEngine2XR5Tango9GridIndex9InitProxyEv
QBk:_Enumerator__ctor_m2149651767_AdjustorThunk
FVb:__ZN18GfxFramebufferGLES18ReleaseFramebufferEP17RenderSurfaceBaseP14GfxContextGLES
kgp:_StreamedWWWForm_AddBinaryData_m4178032300
d1c:__Z18Transfer_BlittableI8JSONReadLb1EiEvRK29SerializationCommandArgumentsR31RuntimeSerializationCommandInfo
KPh:_EnumBuilder_GetEvent_m4074915332
K0:__ZN19CloudServiceHandler34HandleSaveFileWebRequestPlayerLoopEv
dto:__ZL82BigInteger_t2902905090_CustomAttributesCacheGenerator_BigInteger__ctor_m2474659844P21CustomAttributesCache
GC:__ZN7mecanim21ValueArrayReverseCopyEPKNS_18ValueArrayConstantEPKNS_10ValueArrayES2_PS3_PKi
HTf:__ZL47__ManagedRegistrationHelperFunction_XRNodeStatePv
CU:__Z31GetParentSampleClipFromInstancePN11SoundHandle8InstanceE
lnm:_InternalAsyncResult_get_BytesRead_m3975435112
NAc:__ZNK28RectTransformPropertyBinding13GetFloatValueERKN11UnityEngine9Animation10BoundCurveE
ZUd:__ZN5physx11PxHitBufferINS_12PxOverlapHitEE14processTouchesEPKS1_j
Qcc:__ZN6Camera22StandaloneCustomRenderENS_10RenderFlagEP6ShaderRKN4core12basic_stringIcNS3_20StringStorageDefaultIcEEEEPNS_21PerformRenderFunctionE
F8h:_Array_InternalArray__IndexOf_TisKeyValuePair_2_t2401056908_m4118889689_gshared
u9a:__ZNSt3__26vectorI4PPtrI6ObjectE13stl_allocatorIS3_L18MemLabelIdentifier52ELi16EEE6assignINS_11__wrap_iterIPS3_EEEENS_9enable_ifIXaasr21__is_forward_iteratorIT_EE5valuesr16is_constructibleIS3_NS_15iterator_traitsISD_E9referenceEEE5valueEvE4typeESD_SD_
mMl:_Collection_1_System_Collections_ICollection_get_IsSynchronized_m500240145_gshared
Huo:__ZL68X509CertificateCollection_t3399372417_CustomAttributesCacheGeneratorP21CustomAttributesCache
YCe:__ZL22addOrRemoveRigidObjectILb0ELb0ELb0ELb1EN5physx3Scb11RigidStaticEEvRNS0_2Sc5SceneERT3_b
fXn:__ZN6il2cpp2os16ThreadLocalValue8GetValueEPPv
Ogi:_X509Certificate2_get_PublicKey_m370665820
Ibl:_List_1_AddRange_m1014931738_gshared
_fn:__ZN6il2cpp2vm13MetadataCache14GetGenericInstEPKPK10Il2CppTypej
wjm:_Collection_1_IsSynchronized_m2790814605_gshared
UV:__ZN13AudioListener17ReadExtensionNameEi
Pd:_glUniform1uiv
Rto:__ZL59LinkedListNode_1_t3023898186_CustomAttributesCacheGeneratorP21CustomAttributesCache
YMf:__ZN11UnityEngine7Connect20RemoteConfigSettings35CallConfigUpdatedOnMainThreadStaticEPS1_
I5d:__ZNK5physx2Gu19SupportMapLocalImplINS0_11ConvexHullVEE18doWarmStartSupportEiRNS_6shdfnd3aos5Vec3VE
fim:_Collection_1_System_Collections_Generic_ICollectionU3CTU3E_get_IsReadOnly_m1419845799_gshared
pOm:_U3CTimedTriggerU3Ec__Iterator0_System_Collections_Generic_IEnumeratorU3CobjectU3E_get_Current_m3822291412
I7d:__ZN5physx6shdfnd4sortIPvNS0_4LessIS2_EENS0_19ReflectionAllocatorINS_2Cm5BlockIS2_Lj8EEEEEEEvPT_jRKT0_RKT1_j
$W:__ZN9AudioClip15InitializeClassEv
Vne:__ZNK5physx9NpPhysics11getNbShapesEv
Kq:setThrew
nsj:_SslClientStream_OnLocalPrivateKeySelection_m1934775249
KFc:__ZL21BuildEmptyCubeTexturePKci11ColorRGBA3217TextureColorSpace
yTj:_GregorianCalendar_GetYear_m854131864
z3i:_Byte_ToString_m721125428
Wic:__ZN14SafeBinaryRead21TransferSTLStyleArrayINSt3__26vectorIN9ShaderLab20SerializedSubProgramENS1_9allocatorIS4_EEEEEEvRT_17TransferMetaFlags
d9h:_Array_InternalArray__IndexOf_TisX509ChainStatus_t133602714_m48896230_gshared
uhb:__ZN19dynamic_block_arrayI13FileEntryInfoLj32EE4growEj
m1c:__Z15Transfer_StringI8JSONReadLb1EEvRK29SerializationCommandArgumentsR31RuntimeSerializationCommandInfo
Hab:__ZN16LightmapSettings15AppendLightmapsEiRK13dynamic_arrayI12LightmapDataLj0EE
pja:__ZN6prcoreL17RemapGenericFloatI17TexFormatRGBFloat15TexFormatRGHalfEEvPKNS_9InnerInfoE
qMj:_String_IndexOf_m3406607758
auf:_sfnt_load_face
Umf:_UNITY_FT_Render_Glyph_Internal
IAn:__ZNSt3__212basic_stringIDsNS_11char_traitsIDsEENS_9allocatorIDsEEE21__grow_by_and_replaceEjjjjjjPKDs
asf:_UNITY_ft_service_list_lookup
kxb:__Z18Transfer_BlittableI17RemapPPtrTransferLb1E11ColorRGBA32EvRK29SerializationCommandArgumentsR31RuntimeSerializationCommandInfo
HWc:__ZN5IMGUI21SelectReceivingWindowER8GUIStateb
Tlh:__Z41RuntimeInvoker_KeyValuePair_2_t2245450819PFvvEPK10MethodInfoPvPS4_
n8f:_TMP_Text_GetPreferredValues_m3747234872
Dgg:_HMAC_Initialize_m3157696427
BUd:__ZN5physx2Gu20intersectTriangleBoxERKNS_6PxVec3ES3_S3_S3_S3_
rdj:_TMP_TextInfo_Resize_TisTMP_CharacterInfo_t3185626797_m2208767479_gshared
rVf:_TMP_InputField_CaretBlink_m3970334312
kXf:_TMP_FontAsset_OnDisable_m158826008
Qme:__ZN5physx10NpMaterial8setFlagsENS_7PxFlagsINS_14PxMaterialFlag4EnumEtEE
d6l:_List_1_System_Collections_ICollection_CopyTo_m3643417403_gshared
g4:__ZN13BaseAllocator13TryDeallocateEPv
uCb:__Z29Transfer_Blittable_ArrayFieldI19StreamedBinaryWriteILb0EEfEvRT_R9ArrayInfoRK23StaticTransferFieldInfo
KCm:_ListPool_1_Release_m1363449253_gshared
$Xk:_X509SubjectKeyIdentifierExtension__ctor_m2055934916
MYc:__ZN9Scripting19UnityEngineInternal5Input17NativeInputSystem9InitProxyEv
O9k:_Enumerator_Dispose_m2531396701_AdjustorThunk
XLl:_Collection_1_set_Item_m480139225_gshared
nkb:__ZN16MemoryFileSystem5WriteER13FileEntryDatayPvPy
Rzd:__ZNK21b2ClearBodyForcesTask13GetRangeCountEv
Tip:_sprintf
ZYl:__ZN23GenericVirtFuncInvoker2Ii26ProgressHandler_t926933139S0_E6InvokeEPK10MethodInfoP12Il2CppObjectS0_S0_
ioc:__ZN9Scripting25CreateNullExceptionObjectE18ScriptingObjectPtr
gAk:_PrivateKeyInfo_DecodeRSA_m2889346634
YU:__ZN13AudioListener17RemoveFromManagerEv
ie:_glAttachShader
Iwg:_ContentSizeFitter_SetLayoutHorizontal_m2833273874
fso:__ZL65MissingMethodException_t1274661534_CustomAttributesCacheGeneratorP21CustomAttributesCache
VOl:_ReadOnlyCollection_1_System_Collections_IList_RemoveAt_m134366701_gshared
CYg:__Z53RuntimeInvoker_Int32_t2950945753_Int32U26_t1369213839PFvvEPK10MethodInfoPvPS4_
jhf:__ZN5physx6shdfnd8internal8HashBaseINS0_4PairIKtPKcEEtNS0_4HashItEENS1_11HashMapBaseItS6_S9_NS_7profile26WrapperReflectionAllocatorIS6_EEE6GetKeyESD_Lb1EE6createERS4_Rb
Lza:__ZNK6Camera19GetProjectionMatrixEv
c5a:__ZNSt3__26vectorIPK9Transform13stl_allocatorIS3_L18MemLabelIdentifier1ELi16EEE21__push_back_slow_pathIRKS3_EEvOT_
S6e:__ZNK5physx2Cm12DelegateTaskINS_2Sc5SceneEXadL_ZNS3_18clothPreprocessingEPNS_10PxBaseTaskEEEE7getNameEv
iIe:__ZNK5physx7NpScene24getWakeCounterResetValueEv
hBe:__ZN5physx20NpRigidActorTemplateINS_14PxRigidDynamicEE17resolveReferencesERNS_24PxDeserializationContextE
mpd:__Z19UpdateSingleRow2TplIL27ParticleSystemCurveEvalMode2ELS0_4EEvfRK11MinMaxCurveS3_RK23ParticleSystemParticlesPfbiii
MJi:_InputField_SetToCustomIfContentTypeIsNot_m2813459946
Vim:_Collection_1_System_Collections_IList_IndexOf_m1439404860_gshared
QOg:__Z49RuntimeInvoker_DateTime_t3738529785_RuntimeObjectPFvvEPK10MethodInfoPvPS4_
WCd:__ZN21b2FindNewContactsTask15AddContactPairsERK16b2ContactManagerP14b2FixtureProxyS4_R13dynamic_arrayINS_17b2DeferredContactELj0EE
HEm:_InflateCodes_InflateFast_m1137157281
Xxo:__ZL70RuntimePlatform_t4159857903_CustomAttributesCacheGenerator_FlashPlayerP21CustomAttributesCache
rVj:_Guid_GetHashCode_m3042133858_AdjustorThunk
Utm:_FastAction_1_Add_m1141480866_gshared
BZe:__ZN5physx2Gu32PCMConvexVsMeshContactGeneration20generateLastContactsEv
oua:__Z38PreallocateObjectFromPersistentManagerib
mHm:_Event_t2956885303_marshal_pinvoke_cleanup
NRo:__ZL57SphereCollider_t2077223608_CustomAttributesCacheGeneratorP21CustomAttributesCache
uIh:_ArraySegment_1_get_Count_m130702878_AdjustorThunk
_me:__ZThn12_N5physx10NpMaterialD0Ev
EZk:_Interpreter_Backtrack_m2828876822
E2l:_Predicate_1__ctor_m2153443937_gshared
QTa:__ZNK9Texture2D20GetUnscaledTextureIDEv
Dgo:__ZL103TypeBuilder_t1073948154_CustomAttributesCacheGenerator_TypeBuilder_DefineDefaultConstructor_m2168449784P21CustomAttributesCache
uXm:__ZL25UnresolvedVirtualCall_366P12Il2CppObject26KeyValuePair_2_t2530217319PK10MethodInfo
Qdg:_SByte_System_IConvertible_ToType_m4075253447
tDl:_EqualityComparer_1_get_Default_m1339714829_gshared
_cf:__ZN5physx6shdfnd4sortIjNS_19SortBoundsPredicateENS0_19ReflectionAllocatorIjEEEEvPT_jRKT0_RKT1_j
p6k:_LinkedList_1_System_Collections_ICollection_get_SyncRoot_m260305035_gshared
upe:__ZN5physx7NpShape14onRefCountZeroEv
bIi:_Transform_INTERNAL_get_worldToLocalMatrix_m2730237241
wcd:__ZNK14ParticleSystem7GetLoopEv
fLj:_Single_System_IConvertible_ToUInt64_m3299129161
bLi:_InputField_IsValidChar_m1928072643
ycf:__ZL15TestContainmentRKN5physx6PxVec3EPKfjPKNS_2Gu15HullPolygonDataE
oih:__Z51RuntimeInvoker_Void_t1185182177_HitInfo_t3229609740PFvvEPK10MethodInfoPvPS4_
VTa:__ZNK9Texture2D26CanReuploadDataToGfxDeviceEv
vzh:_InternalEnumerator_1_Dispose_m1971295898_AdjustorThunk
rno:__ZL63CodeAccessPermission_t2681295399_CustomAttributesCacheGeneratorP21CustomAttributesCache
ebb:__Z29ClearRepeatingLogMessageStatev
fAh:_InternalEnumerator_1_get_Current_m3191242573_gshared
n3i:_Byte_Equals_m1161982810_AdjustorThunk
PLk:_Transform_1_BeginInvoke_m290848834_gshared
_gh:__Z57RuntimeInvoker_Int32_t2950945753_TMP_WordInfo_t3331066303PFvvEPK10MethodInfoPvPS4_
mhh:__Z53RuntimeInvoker_Int32_t2950945753_UICharInfo_t75501106PFvvEPK10MethodInfoPvPS4_
B9e:__ZN5physx2Gu11HeightField12loadFromDescERKNS_17PxHeightFieldDescEb
aHc:__ZN15QualitySettings12CleanupClassEv
Oea:__ZN21EnlightenSceneMappingaSERKS_
rxa:__ZN14SafeBinaryRead21TransferSTLStyleArrayI13dynamic_arrayI17SortingLayerEntryLj0EEEEvRT_17TransferMetaFlags
oLd:__ZL48__ManagedRegistrationHelperFunction_MeshColliderPv
m9l:_List_1_GrowIfNeeded_m278824317_gshared
b1l:_U3CSortU3Ec__Iterator21_Dispose_m448183640_gshared
xYb:__ZN7ApiGLESD2Ev
LEm:_InflateBlocks_Free_m789816840
Qya:__ZN9Transform47ClearTransformHierarchyAndApplyToSerializedDataEv
eLm:_CertificateHandler_t2739891000_marshal_pinvoke
oFe:__ZN5physx6shdfnd8PoolBaseINS_2Gu30LargePersistentContactManifoldENS0_19ReflectionAllocatorIS3_EEE12allocateSlabEv
B2c:__ZN8JSONRead21TransferSTLStyleArrayINSt3__26vectorI8MonoPPtr13stl_allocatorIS3_L18MemLabelIdentifier1ELi16EEEEEEvRT_17TransferMetaFlags
x5:__ZNSt3__26__treeI19RepeatingLogMessageNS_4lessIS1_EE13stl_allocatorIS1_L18MemLabelIdentifier74ELi16EEE25__emplace_unique_key_argsIS1_JRKS1_EEENS_4pairINS_15__tree_iteratorIS1_PNS_11__tree_nodeIS1_PvEEiEEbEERKT_DpOT0_
TTk:_Dictionary_2_Remove_m789637624_gshared
oLi:_InputField_IsSelectionVisible_m3622592134
oAa:__ZN6Camera23VirtualRedirectTransferER19StreamedBinaryWriteILb0EE
hqp:dynCall_fidi
Umn:__ZN15dense_hashtableINSt3__24pairIK10KeyWrapperINS1_IPK9FieldInfoP11Il2CppClassEEEjEES9_17ReflectionMapHashIS8_EN14dense_hash_mapIS9_jSD_NS9_14EqualsComparerINS0_8equal_toIS8_EEEENS0_9allocatorISB_EEE9SelectKeyESI_SK_E12resize_deltaEjj
oCd:__ZNK35b2SolveDiscreteIslandVelocitiesTask13GetRangeCountEv
Qkl:_List_1_TrimExcess_m3433550210_gshared
uKe:__ZN5physx6shdfnd5ArrayIPNS_2Sc8BodyCoreENS0_19ReflectionAllocatorIS4_EEE6resizeEjRKS4_
Vcn:__ZNK15dense_hashtableINSt3__24pairIK10KeyWrapperIPK19Il2CppGenericMethodEPK26Il2CppGenericMethodIndicesEES6_N6il2cpp8metadata23Il2CppGenericMethodHashEN14dense_hash_mapIS6_SA_SE_NS6_14EqualsComparerINSD_26Il2CppGenericMethodCompareEEENS0_9allocatorISB_EEE9SelectKeyESI_SK_E8min_sizeEjj
g0d:__ZN5physx3Cct26CharacterControllerManager16createControllerERNS_9PxPhysicsEPNS_7PxSceneERKNS_16PxControllerDescE
nIm:_GUILayoutEntry__ctor_m2229197035
b1:__ZN11UnityEngine15CloudWebService14RestDownloaderD2Ev
WVn:__ZN6il2cpp6icalls6System6System14ComponentModel14Win32Exception15W32ErrorMessageEi
ePh:_EnumBuilder_get_Assembly_m1175292766
Qfc:__Z29StdTemplateConversionFunctionIjhEbPvR14SafeBinaryRead
d4f:_TMP_SubMeshUI_GetPaddingForMaterial_m3359882614
xDa:__ZN15dense_hashtableINSt3__24pairIKN9ShaderLab7Program23ShaderKeywordSetAndHashEPKNS2_10SubProgramEEES4_NS3_24ShaderKeywordHashFunctorEN14dense_hash_mapIS4_S8_SA_NS0_8equal_toIS4_EE13stl_allocatorIS9_L18MemLabelIdentifier67ELi16EEE9SelectKeyESD_SG_E15insert_noresizeERKS9_
pbj:_Array_swap_TisCustomAttributeNamedArgument_t287865710_TisCustomAttributeNamedArgument_t287865710_m881919420_gshared
bMa:__ZN13RenderTexture12SetDimensionE16TextureDimension
$rj:_SslClientStream_set_ClientCertSelectionDelegate_m1261530976
w3o:__ZL78TMP_SpriteAsset_t484820633_CustomAttributesCacheGenerator_fallbackSpriteAssetsP21CustomAttributesCache
Lqa:__ZN9Scripting11UnityEngine16GradientColorKey9InitProxyEv
UZj:_BinaryWriter_Write_m2685067618
$e:_SDL_FreeRW
BNe:__ZN5physx6shdfnd8PoolBaseINS_2Cm5BlockIhLj128EEENS0_19ReflectionAllocatorIS4_EEE15disposeElementsEv
fUo:__ZL109ExecuteEvents_t3484638744_CustomAttributesCacheGenerator_ExecuteEvents_U3Cs_HandlerListPoolU3Em__0_m391641698P21CustomAttributesCache
Xih:__Z79RuntimeInvoker_Void_t1185182177_Int32_t2950945753_ParameterModifier_t1461694466PFvvEPK10MethodInfoPvPS4_
yFf:__Z34CanvasRenderer_Get_Custom_PropCullP12Il2CppObject
TBo:__ZL61AIUpdatePostScript_t1991765663_CustomAttributesCacheGeneratorP21CustomAttributesCache
Fxe:__ZN5physx3Scb14ParticleSystem14setRestOffsetsEjRKNS_16PxStrideIteratorIKjEERKNS2_IKfEE
CT:__ZN20SoundChannelInstance8getDelayE14FMOD_DELAYTYPEPjS1_
LUn:__ZNSt3__26__treeINS_12__value_typeIPvxEENS_19__map_value_compareIS2_S3_NS_4lessIS2_EELb1EEENS_9allocatorIS3_EEE12__find_equalIS2_EERPNS_16__tree_node_baseIS2_EESF_RKT_
ODa:__ZNSt3__26vectorIN20GpuProgramParameters15StructParameterENS_9allocatorIS2_EEEC2ERKS5_
Rrh:_ArrayReadOnlyList_1_Contains_m232667507_gshared
p7j:_Convert_ToInt32_m2128774575
OYg:__Z77RuntimeInvoker_Boolean_t97287965_IntPtr_t_Int32_t2950945753_SByte_t1669577662PFvvEPK10MethodInfoPvPS4_
sAi:_PlayableHandle_GetPlayableType_m432385838_AdjustorThunk
i7n:_ShaderPropAnimator_Start_m2331709270
Ilf:__ZNSt3__26vectorIN20TextRenderingPrivate8FontImpl13CharacterInfoE13stl_allocatorIS3_L18MemLabelIdentifier1ELi16EEE8__appendEj
v:tempBigInt
Srl:_Array_InternalArray__Insert_TisKeyframe_t4206410242_m1558638568_gshared
Mpo:__ZL77Convert_t2465617642_CustomAttributesCacheGenerator_Convert_ToByte_m3567528984P21CustomAttributesCache
hf:_emscripten_glVertexAttrib1fv
Cjc:__ZNSt3__26vectorIN9ShaderLab20SerializedSubProgram12UAVParameterENS_9allocatorIS3_EEE7reserveEj
iRf:__ZN29UnityWebRequestAsyncOperationD0Ev
Aki:_TcpClient_set_SendBufferSize_m3098002341
Tgj:_BigInteger__ctor_m2644482640
f4o:__ZL63TMP_Text_t2599618874_CustomAttributesCacheGenerator_m_fontColorP21CustomAttributesCache
Amp:__ZSt11__terminatePFvvE
iJe:__ZN5physx13NpVolumeCacheC2EPNS_2Sq17SceneQueryManagerEjj
Q_n:_U3CSpawnHazardsU3Ec__Iterator4_System_Collections_Generic_IEnumeratorU3CobjectU3E_get_Current_m1604446665
E8d:__ZThn24_N5physx2Sc20ArticulationJointSimD1Ev
bQ:__ZN12AudioManager14systemCallbackEP11FMOD_SYSTEM24FMOD_SYSTEM_CALLBACKTYPEPvS3_
bGo:__ZL57PlayableOutput_t3179894105_CustomAttributesCacheGeneratorP21CustomAttributesCache
m9h:_Array_InternalArray__IndexOf_TisMaterialReference_t1952344632_m3677304639_gshared
iWl:_ReadOnlyCollection_1_System_Collections_Generic_ICollectionU3CTU3E_Clear_m3451551308_gshared
xug:_BaseMeshEffect_OnEnable_m3291426649
_Ek:_Enumerator__ctor_m87788968_AdjustorThunk
kpi:_ClassLibraryInitializer_Init_m988673678
f1i:_AssemblyLoadEventHandler_BeginInvoke_m1281107466
Gxe:__ZN5physx2Sc18ParticleSystemCore14setRestOffsetsEjRKNS_16PxStrideIteratorIKjEERKNS2_IKfEE
QRn:_clear_marks_for_block
JYd:__ZN5physx2Gu16testPolyDataAxisERKNS0_8CapsuleVERKNS0_13PolygonalDataEPNS0_12SupportLocalERKNS_6shdfnd3aos6FloatVERSB_RNSA_5Vec3VE
n2h:_Array_InternalArray__ICollection_Contains_TisColor_t2555686324_m266224315_gshared
xJa:__ZN16ReflectionProbes16UpdateSampleDataEv
ned:__Z9UpdateTplIL27ParticleSystemCurveEvalMode1EEvRK11MinMaxCurveR23ParticleSystemParticlesjjPKN4math8floatNx3E
vbe:__ZN5physx2Sc17ParticleSystemSimD0Ev
O3h:_Array_InternalArray__ICollection_Remove_TisTMP_MeshInfo_t2771747634_m2836324316_gshared
Dma:__ZL46__ManagedRegistrationHelperFunction_UnityEventPv
pVk:_Dictionary_2_set_Item_m3394774875_gshared
u7k:_Enumerator_System_Collections_IEnumerator_get_Current_m2237476582_AdjustorThunk
DSj:_CultureInfo_GetCultureInfo_m56098747
zHn:__ZN15dense_hashtableINSt3__24pairIK10KeyWrapperIP12Il2CppObjectEN6il2cpp2gc9CachedCCWEEES5_NS7_5utils11PointerHashIS3_EEN14dense_hash_mapIS5_S9_SD_NS5_14EqualsComparerINS0_8equal_toIS4_EEEENS0_9allocatorISA_EEE9SelectKeyESI_SK_E3endEv
lRa:__ZN14Texture2DArray5ResetEv
D9b:__Z20AddActiveLocalLightsR11CullResultsR27LocalLightCullingParametersPPK15SharedLightDataPK8Vector4fRK9IndexListPfRSA_R12ActiveLightsSG_P5RectTIfEP13TargetEyeMask
Pdo:__ZL80Hashtable_t1853889766_CustomAttributesCacheGenerator_Hashtable__ctor_m1763145853P21CustomAttributesCache
c6j:_Convert_ToDecimal_m1284148187
TJl:_Collection_1__ctor_m3489157029_gshared
hln:__ZN6il2cpp2vm7Runtime4InitEPKcS3_
kMh:_Enumerator_get_Current_m1675434384_gshared
Xla:__ZL52__ManagedRegistrationHelperFunction_AndroidJNIHelperPv
Cpf:_cf2_getNormalizedVector
ewa:__ZN5RectTIfE8TransferI18StreamedBinaryReadILb0EEEEvRT_
Ff:_JS_Sound_Play
uIk:_KeyCollection_GetEnumerator_m1862005650_gshared
mjo:__ZL56_MethodBuilder_t600455149_CustomAttributesCacheGeneratorP21CustomAttributesCache
fXl:_ReadOnlyCollection_1_System_Collections_IList_set_Item_m1538987737_gshared
DJh:_DefaultComparer_Compare_m1920986590_gshared
Tqj:_RecordProtocol_ProcessChangeCipherSpec_m15839975
tic:__ZN9ShaderLab16SerializedShader8TransferI14SafeBinaryReadEEvRT_
$9a:__ZN5Mutex7TryLockEv
Wlg:_TextMeshPro_ForceMeshUpdate_m19192154
ELo:__ZL103AudioSource_t3935305588_CustomAttributesCacheGenerator_AudioSource_ReadExtensionPropertyValue_m72717540P21CustomAttributesCache
wJg:_ConstructionCallDictionary_SetMethodProperty_m3145285304
OXo:__ZL70InputField_t3762917431_CustomAttributesCacheGenerator_m_SelectionColorP21CustomAttributesCache
Svb:__ZN15SerializeTraitsI13dynamic_arrayIsLj0EEE19ResizeSTLStyleArrayERS1_i
A5a:__ZN11TimeManagerD2Ev
Gth:_InternalEnumerator_1_System_Collections_IEnumerator_get_Current_m1503522504_gshared
YF:__ZN7mecanim8skeleton13SkeletonAlignEPKNS0_8SkeletonERKN4math7_float4ES7_i
MGc:__ZN19ShaderPropertySheet16SetVectorIndexedEN9ShaderLab16FastPropertyNameEifRK8Vector4fNS_8SetFlagsE
Fpk:_Type_get_IsAbstract_m1120089130
jZm:_Vector3_get_normalized_m2454957984_AdjustorThunk
ss:__ZN14SafeBinaryRead21TransferSTLStyleArrayIN4core12basic_stringIcNS1_20StringStorageDefaultIcEEEEEEvRT_17TransferMetaFlags
HLm:_DownloadHandlerBuffer_InternalGetData_m3771716959
b5k:_UriFormatException__ctor_m1115096473
Xxh:_InternalEnumerator_1_Dispose_m2818366163_AdjustorThunk
Mdi:_Dns_GetHostEntry_m3727355895
F5h:_Array_InternalArray__IEnumerable_GetEnumerator_TisSlot_t384495010_m460993382_gshared
bxn:__ZN15dense_hashtableINSt3__24pairIK10KeyWrapperINS1_IP11Il2CppClassjEEES4_EES6_N6il2cpp8metadata14ArrayClassHashEN14dense_hash_mapIS6_S4_SB_NS6_14EqualsComparerINSA_17ArrayClassCompareEEENS0_9allocatorIS8_EEE9SelectKeyESF_SH_E9copy_fromERKSK_j
sgc:__Z29StdTemplateConversionFunctionIayEbPvR14SafeBinaryRead
DCe:__ZNK5physx20NpRigidActorTemplateINS_13PxRigidStaticEE14getConstraintsEPPNS_12PxConstraintEjj
JRd:__ZN25MeshMTDGenerationCallbackD0Ev
uph:__Z55RuntimeInvoker_Boolean_t97287965_Nullable_1_t2603721331PFvvEPK10MethodInfoPvPS4_
XJm:_GUIUtility_IsExitGUIException_m3644066650
kyo:__ZL77Camera_t4157153871_CustomAttributesCacheGenerator_Camera_get_main_m3643453163P21CustomAttributesCache
C1:__ZN11UnityEngine15CloudWebService14DataDispatcher4StopEv
j6k:_LinkedList_1_System_Collections_Generic_ICollectionU3CTU3E_Add_m2568132950_gshared
kWj:_Int16_System_IConvertible_ToUInt64_m134975563
Ejc:__ZNSt3__26vectorIN9ShaderLab20SerializedSubProgram12UAVParameterENS_9allocatorIS3_EEE8__appendEj
Zho:__ZL68TargetInvocationException_t4266643902_CustomAttributesCacheGeneratorP21CustomAttributesCache
zqn:__ZNK15dense_hashtableINSt3__24pairIK10KeyWrapperINS1_IPK9EventInfoP11Il2CppClassEEEjEES9_17ReflectionMapHashIS8_EN14dense_hash_mapIS9_jSD_NS9_14EqualsComparerINS0_8equal_toIS8_EEEENS0_9allocatorISB_EEE9SelectKeyESI_SK_E12test_deletedERK24dense_hashtable_iteratorISB_S9_SD_SM_SI_SK_E
IWc:__ZN5IMGUI9GUIWindow5OnGUIER8GUIState
Ihp:_AudioConfigurationChangeHandler_EndInvoke_m4175380841
dGn:__ZN6il2cpp2gcL16find_first_unsetEj
_Rn:_GC_maybe_gc
OKj:_Single_System_IConvertible_ToDecimal_m325860800_AdjustorThunk
Npl:_Array_InternalArray__ICollection_CopyTo_TisSingle_t1397266774_m455540885_gshared
Dla:__ZN17ScriptingGCHandle7AcquireE18ScriptingObjectPtr25ScriptingGCHandleWeakness
rIk:_KeyCollection_System_Collections_ICollection_get_IsSynchronized_m829086683_gshared
e$g:__Z74RuntimeInvoker_RuntimeObject_RuntimeObject_Int64_t3736567304_RuntimeObjectPFvvEPK10MethodInfoPvPS4_
Dhe:__ZN5physx12NpConstraint8comShiftEPNS_12PxRigidActorE
mbl:_List_1__cctor_m4073949629_gshared
uQk:_Enumerator__ctor_m1734342590_gshared
pbn:__ZN14dense_hash_mapI10KeyWrapperIPK11Il2CppClassEPKcN6il2cpp5utils11PointerHashIS1_EENS4_14EqualsComparerINSt3__28equal_toIS3_EEEENSC_9allocatorINSC_4pairIKS4_S6_EEEEE13set_empty_keyERSI_
Gop:dynCall_iifiii
hEb:__ZN18StreamedBinaryReadILb1EE8TransferI13dynamic_arrayIjLj0EEEEvRT_PKc17TransferMetaFlags
gHl:_HashSet_1__ctor_m620629637_gshared
JRa:__Z21HasAlphaTextureFormat13TextureFormat
_X:__ZN12AudioManager6UpdateEv
DRa:__ZN14ImageReference9BlitImageERKS_NS_8BlitModeE
qQl:_ReadOnlyCollection_1__ctor_m1345363288_gshared
Ow:__ZN8Animator12AddToManagerEv
fxj:_MissingFieldException__ctor_m3742452630
tLc:__Z26ApplyBlendShapesToVerticesR12SkinMeshInfoRKN4math5_int4EPNS1_8floatNx3ES6_
p2:__GLOBAL__sub_I_Runtime_Core_Callbacks_0_cpp
ubh:__Z119RuntimeInvoker_Boolean_t97287965_StringU26_t181565287_Int32_t2950945753_Int32U5BU5DU26_t4279986940_Int32U26_t1369213839PFvvEPK10MethodInfoPvPS4_
CQd:__ZNK5physx2Gu16SupportLocalImplINS0_11ConvexHullVEE9doSupportERKNS_6shdfnd3aos5Vec3VERNS5_6FloatVESA_
aKb:__ZN23CachedSerializationDataD2Ev
Pbc:__ZNK25CameraStackRenderingState31CalculateStereoCameraTargetTypeEv
LVd:__ZNK5physx3Cct13BoxController8getActorEv
XIa:__ZN14RenderSettings23VirtualRedirectTransferER14SafeBinaryRead
lGh:_InternalEnumerator_1_get_Current_m114240259_gshared
$xd:__ZNK13b2CircleShape5CloneEP16b2BlockAllocator
FLn:__ZN6il2cpp2os10ThreadImpl15CurrentThreadIdEv
wej:_Array_InternalArray__get_Item_TisLink_t3209266973_m1574224299_gshared
FAi:_PlayerConnectionInternal_UnityEngine_IPlayerEditorConnectionNative_SendMessage_m389985885
lUc:__Z36Renderer_Set_Custom_PropSortingOrderP12Il2CppObjecti
X1j:_Queue_CopyTo_m737385843
XHa:__ZN17GlobalGameManager8TransferI17RemapPPtrTransferEEvRT_
f6o:__ZL73FieldWithTarget_t3058750293_CustomAttributesCacheGenerator_m_StaticStringP21CustomAttributesCache
saf:__ZN5physx6shdfnd8internal8HashBaseIPNS_2Gu12TriangleMeshES5_NS0_4HashIS5_EENS1_11HashSetBaseIS5_S7_NS0_9AllocatorELb1EE6GetKeyES9_Lb1EE5eraseERKS5_
_Gj:_SymmetricAlgorithm_get_Key_m3241860519
fMi:_U3CMouseDragOutsideRectU3Ec__Iterator1_Reset_m2233410497
j2:__GLOBAL__sub_I_Runtime_Camera_5_cpp
xId:__ZN10Collider2DC2E10MemLabelId18ObjectCreationMode
koj:_ClientSessionInfo_get_HostName_m2118440995
TGa:__ZN16LevelGameManager8TransferI18StreamedBinaryReadILb0EEEEvRT_
Pxf:_UNITY_tt_face_load_fpgm
Jya:__Z17IsObjectAvailablei
R5a:__ZN12InputManagerD0Ev
TMa:__Z32TransferEnumWithNameForceIntSizeI14SafeBinaryRead17TextureFilterModeEvRT_RT0_PKc17TransferMetaFlags
uVn:__ZN6il2cpp6icalls8mscorlib6System11Diagnostics10StackTrace9get_traceEP15Il2CppExceptionib
Nlk:_ExecutionContext_Capture_m681135907
Ryl:_Dictionary_2_System_Collections_IDictionary_Add_m4011968134_gshared
n7o:__ZL173U3CSpawnEnemyType1WaveU3Ec__Iterator5_t1046529208_CustomAttributesCacheGenerator_U3CSpawnEnemyType1WaveU3Ec__Iterator5_System_Collections_IEnumerator_get_Current_m1620577442P21CustomAttributesCache
dom:_TlsException__ctor_m818940807
$he:__ZN5physx2Sc9RigidCore20removeShapeFromSceneERNS0_9ShapeCoreEb
_Fb:__Z18Transfer_BlittableI18StreamedBinaryReadILb0EELb1EtEvRK29SerializationCommandArgumentsR31RuntimeSerializationCommandInfo
Kvh:_InternalEnumerator_1_System_Collections_IEnumerator_get_Current_m2889979481_AdjustorThunk
ulp:_posix_memalign
Wcf:__ZN5physx11RTreeCooker18buildFromTrianglesERNS_2Gu5RTreeEPKNS_6PxVec3EjPKtPKjjRNS_6shdfnd5ArrayIjNSB_19ReflectionAllocatorIjEEEEPNS0_13RemapCallbackEfNS_17PxMeshCookingHint4EnumE
kce:__ZN5physx6shdfnd5ArrayIPvNS0_15InlineAllocatorILj256ENS0_19ReflectionAllocatorINS_14NpArticulationEEEEEE15growAndPushBackERKS2_
DCi:_Rect_get_position_m2115952571
xzn:__ZN6il2cpp6icalls8mscorlib6System9ThreadingL13cache_cultureEP12Il2CppThreadP12Il2CppObjecti
K6k:_Enumerator__ctor_m81985385_AdjustorThunk
OKm:_AesManaged_GenerateKey_m2004209814
rUl:_ReadOnlyCollection_1_get_Item_m4005849861_gshared
EUi:_Slider_get_direction_m3871593184
Wxk:_ASN1_GetBytes_m3305539297
F9l:_List_1_Remove_m2092116835_gshared
sGo:__ZL86Logger_t274032455_CustomAttributesCacheGenerator_Logger_LogFormat_m3030796110____args2P21CustomAttributesCache
pqo:__ZL77Convert_t2465617642_CustomAttributesCacheGenerator_Convert_ToSByte_m717245755P21CustomAttributesCache
hJh:_DefaultComparer__ctor_m2039558311_gshared
A9:__ZNK15MonoScriptCache7ReleaseEv
avl:_Array_Resize_TisTMP_LinkInfo_t1092083476_m3599428600_gshared
g$e:__ZN5physx9PxTaskMgrC2EPNS_15PxCpuDispatcherEPNS_15PxGpuDispatcherEPNS_15PxSpuDispatcherE
a5i:_CLSCompliantAttribute__ctor_m581760440
Tg:_glBindTexture
Kjp:_snprintf
fZj:_InvalidCastException__ctor_m2551002860
mpl:_Array_InternalArray__ICollection_CopyTo_TisKeyValuePair_2_t2401056908_m4025041902_gshared
eIl:_KeyValuePair_2__ctor_m844205450_gshared
HGm:_TMP_WordInfo_GetWord_m3252148633
Kup:_emscripten_glVertexAttrib1fv__wrapper
Uri:_InvokableCallList_RemoveListener_m1769379719
lGc:__ZN16LevelGameManagerC2E10MemLabelId18ObjectCreationMode
Q5l:_List_1_Reverse_m3290386475_gshared
NTl:_ReadOnlyCollection_1_get_Item_m3393001889_gshared
vWf:_TMP_Dropdown_OnSubmit_m278619292
Sxi:_MonoBehaviour_Internal_IsInvokingAll_m2820042090
gtp:_emscripten_glGetProgramInfoLog__wrapper
Fv:__ZN25AnimatedPropertyEvaluator29BindCurveToScriptingObjectPtrERKN13AnimationClip10FloatCurveEj18ScriptingObjectPtrb
S$a:__ZN13ScreenManager20SetScreenOrientationE17ScreenOrientation
$Ao:__ZL66PlayerCleanupCachedData_t1855064291_CustomAttributesCacheGeneratorP21CustomAttributesCache
e8n:_U3CRevealWordsU3Ec__Iterator1_Reset_m1198161461
Fem:_Collection_1_SetItem_m1090516645_gshared
DVo:__ZL52InputMode_t3382566315_CustomAttributesCacheGeneratorP21CustomAttributesCache
MIj:_String_Equals_m1744302937
_qi:_Display__ctor_m501911701
zRl:_ReadOnlyCollection_1_System_Collections_Generic_IListU3CTU3E_Insert_m1020890112_gshared
V8i:_Hashtable__cctor_m4112166779
ryg:_Dropdown_get_onValueChanged_m2462066659
Gxg:_DefaultControls_SetDefaultTextValues_m1943359795
flh:__Z62RuntimeInvoker_TMP_CharacterInfo_t3185626797_Int32_t2950945753PFvvEPK10MethodInfoPvPS4_
j4b:__Z19SetupMotionMatricesR6CameraR18RPDataMotionVector
H5m:__ZL7log2_64y
e4f:_TMP_SubMeshUI_UpdateMeshPadding_m567989066
xH:__ZN26AnimatorControllerPlayable18PrepareForPlaybackERN7mecanim6memory9AllocatorE
LH:__ZN8Animator11AnimatorJob11AddPlayableEP17AnimationPlayablef
BBg:_GridLayoutGroup_get_cellSize_m2967185053
nRe:__ZN5physx19PxsMaterialCombiner24combineIsotropicFrictionERKNS_15PxsMaterialDataES3_
Fpm:_PKCS12_Decrypt_m1280162536
qWk:_Dictionary_2_Add_m1679778769_gshared
Tvh:_InternalEnumerator_1_get_Current_m3081223448_gshared
AHm:_Event_get_isMouse_m1058251071
hml:_List_1_System_Collections_IList_get_IsFixedSize_m1972491420_gshared
hGa:__ZN10VertexDataC2ERKS_17ShaderChannelMask10MemLabelId
M$c:__ZL22Transfer_ManagedObjectI9JSONWriteLb1EEvRK29SerializationCommandArgumentsR31RuntimeSerializationCommandInfo
JSf:__Z66Register_UnityEngine_Networking_UnityWebRequest_get_isNetworkErrorv
ygm:_Collection_1_IndexOf_m3762683187_gshared
Dsf:_otv_JSTF_validate
RDa:__ZN22CreateGpuProgramOutputC2Ev
Tdm:_Collection_1_get_Count_m4004951847_gshared
$hj:_BigInteger_op_LessThanOrEqual_m3925173639
N$l:_Func_2_BeginInvoke_m3038845896_gshared
hsi:_PersistentCallGroup_Initialize_m4253175514
W1i:_Boolean_System_IConvertible_ToChar_m4279513009_AdjustorThunk
O8i:_Hashtable__ctor_m1763145853
Gbo:__ZL66RuntimeArray_CustomAttributesCacheGenerator_Array_Sort_m3145621264P21CustomAttributesCache
VLi:_InputField_get_layoutPriority_m2945430764
Szj:_NumberFormatter_ScaleOrder_m3813786990
yJj:_StrongName_get_Name_m1932850490
BWo:__ZL60OptionData_t3270282352_CustomAttributesCacheGenerator_m_TextP21CustomAttributesCache
t8g:__Z43RuntimeInvoker_VerticalWrapMode_t2936607737PFvvEPK10MethodInfoPvPS4_
a6k:_Enumerator_System_Collections_IEnumerator_Reset_m2550940120_gshared
uDl:_EqualityComparer_1__ctor_m2241711498_gshared
Z1k:_AnchorInfo_get_Offset_m2045445765
Mqh:__ZN25GenericVirtActionInvoker2IP12Il2CppObjectS1_E6InvokeEPK10MethodInfoS1_S1_S1_
hAk:_PrivateKeyInfo_DecodeDSA_m771724585
Bql:_Array_InternalArray__Insert_TisProgressHandler_t926933139_m28642970_gshared
$7n:_U3CRevealCharactersU3Ec__Iterator0_Reset_m322011311
Upo:__ZL81Convert_t2465617642_CustomAttributesCacheGenerator_Convert_ToDateTime_m1031474510P21CustomAttributesCache
dbf:__ZN5physx7Cooking16cookTriangleMeshERKNS_18PxTriangleMeshDescERNS_14PxOutputStreamE
x_k:_Interval_get_Size_m4163671410_AdjustorThunk
GTo:__ZL53EventHandle_t600343995_CustomAttributesCacheGeneratorP21CustomAttributesCache
ief:__ZN14CompletionTask4InitEPN5physx7PxSceneE
X6i:_SynchronizedArrayListWrapper_get_SyncRoot_m3862302789
w9d:__ZN5physx2Sc7ElementD0Ev
vsk:_UInt32_System_IConvertible_ToSByte_m1061556466
Bdf:__ZN5physx6shdfnd10Foundation7releaseEv
HFg:_WellKnownClientTypeEntry__ctor_m2471908952
X9m:__ZN6il2cpp2vm5Class4InitEP11Il2CppClass
gd:invoke_vidi
gBj:_NumberFormatter_FormatRoundtrip_m19342689
CDg:_RemotingServices_CreateClientProxyForContextBound_m783705199
t9g:__Z30RuntimeInvoker_Axis_t809944411PFvvEPK10MethodInfoPvPS4_
pMc:__ZNK15GUIEventManager15GetEventAtIndexEi
zmm:_InternalAsyncResult_get_ProceedAfterHandshake_m2508379800
wHf:__ZN2UI14CanvasRenderer17SyncDirtyElementsER8JobFence
WFb:__Z18Transfer_BlittableI18StreamedBinaryReadILb0EELb0ExEvRK29SerializationCommandArgumentsR31RuntimeSerializationCommandInfo
C8j:_Convert_ToUInt16_m2952781888
pDk:_Enumerator_System_Collections_IEnumerator_get_Current_m3816090481_gshared
ANn:__ZN6il2cpp5utils11StringUtils15StringDuplicateEPKc
QBl:_DefaultComparer_Equals_m2480133610_gshared
hDa:__ZNK9ShaderLab21ShaderRasterStateDesc16ToGfxRasterStateEPK19ShaderPropertySheetS3_R14GfxRasterState
Ocm:_Collection_1_System_Collections_IList_IndexOf_m2231213796_gshared
Waj:_Array_Sort_TisVector3_t3722313464_m1915176437_gshared
rXn:__ZN6il2cpp2os9EventImplC2Ebb
Bid:__Z12RangedRandomR5RandNRKiS2_
j6f:_TMP_Text_set_maxVisibleCharacters_m1275491376
eTi:_ScrollRect_OnInitializePotentialDrag_m3139711961
oil:_List_1_System_Collections_IList_get_IsFixedSize_m3566150119_gshared
NJ:__ZN4PPtrI13MonoBehaviourE8TransferI19StreamedBinaryWriteILb0EEEEvRT_
_4l:_List_1_get_Item_m2113769949_gshared
XOi:_MaskableGraphic_OnTransformParentChanged_m329502413
ICa:__ZN12FlareManager12RemoveCameraER6Camera
qFi:_ScriptableObject_t2528358522_marshal_pinvoke
S5:__Z20IsMatrixBuiltinParamPKcPi
Yqn:__ZN6il2cpp2gc19AppendOnlyGCHashMapINSt3__24pairIPK10MethodInfoP11Il2CppClassEEP11Il2CppArray17ReflectionMapHashIS9_ENS2_8equal_toIS9_EEEC2Ev
kgi:_SslStream_BeginWrite_m831482228
uIj:_String_memcpy4_m979367827
kKj:_SecurityFrame_t1422462475_marshal_pinvoke
son:__ZN15dense_hashtableINSt3__24pairIK10KeyWrapperINS1_IPK10MethodInfoP11Il2CppClassEEEjEES9_17ReflectionMapHashIS8_EN14dense_hash_mapIS9_jSD_NS9_14EqualsComparerINS0_8equal_toIS8_EEEENS0_9allocatorISB_EEE9SelectKeyESI_SK_E16reset_thresholdsEv
Qjk:_UnicodeEncoding_GetBytesInternal_m1902824297
oGc:__ZN8Renderer19PostInitializeClassEv
L7h:_Array_FindIndex_TisRuntimeObject_m2504082708_gshared
sHf:__ZNSt3__26__treeINS_12__value_typeINS_4pairIKiS3_EEN2UI14DepthSortLayerEEENS_19__map_value_compareIS4_S7_NS_4lessIS4_EELb1EEE13stl_allocatorIS7_L18MemLabelIdentifier1ELi16EEE25__emplace_unique_key_argsIS4_JRKNS_21piecewise_construct_tENS_5tupleIJOS4_EEENSK_IJEEEEEENS2_INS_15__tree_iteratorIS7_PNS_11__tree_nodeIS7_PvEEiEEbEERKT_DpOT0_
qol:_Array_InternalArray__ICollection_Add_TisSpriteData_t3048397587_m2279685385_gshared
xrm:_X509Chain_FindCertificateRoot_m1937726457
cgn:__ZN6il2cpp2vm13MetadataCache23GetMethodGenericContextEPK10MethodInfo
Ztj:_StreamAsyncResult_get_AsyncWaitHandle_m3390046559
hLf:__ZN11UnityEngine15PlatformWrapper21GetVRPlayAreaGeometryER13dynamic_arrayI8Vector3fLj0EE
ATn:__ZN6il2cpp6icalls8mscorlib6System8Delegate23CreateDelegate_internalEP20Il2CppReflectionTypeP12Il2CppObjectP22Il2CppReflectionMethodb
qEk:_Enumerator_System_Collections_IEnumerator_get_Current_m921113401_AdjustorThunk
G8i:_DictionaryEntry_get_Value_m618120527_AdjustorThunk
tJb:__ZN18DelayedCallManager18CancelCallDelayed2E4PPtrI6ObjectEPF15CallObjectStatePS1_PvES7_
Mwa:__ZN25ThreadsafeLinearAllocator10ReallocateEPvji
Ssb:__Z18Transfer_BlittableI14SafeBinaryReadLb1E11QuaternionfEvRK29SerializationCommandArgumentsR31RuntimeSerializationCommandInfo
Gfe:__ZNK5physx18PxArticulationLink8isKindOfEPKc
Ria:__ZN18SpriteAtlasManagerD0Ev
fz:__ZN7mecanim9animation10SampleClipERKNS0_12ConstantClipEjPf
EXl:_ReadOnlyCollection_1_System_Collections_ICollection_get_IsSynchronized_m1150914347_gshared
rlg:_TextContainer_OnRectTransformDimensionsChange_m2148637261
_Bk:_Enumerator_System_Collections_IDictionaryEnumerator_get_Key_m1314958700_gshared
Deh:__Z57RuntimeInvoker_Boolean_t97287965_KeyValuePair_2_t71524366PFvvEPK10MethodInfoPvPS4_
$Za:__ZN10Matrix4x4f8TransferI14SafeBinaryReadEEvRT_
Bn:FUNCTION_TABLE_vifiiiiiiiiiiiiiiiiii
Peg:_CryptographicUnexpectedOperationException__ctor_m2381988196
Brn:__ZN14dense_hash_mapI10KeyWrapperIPK22Il2CppGenericParameterEPK24MonoGenericParameterInfoN6il2cpp5utils11PointerHashIS2_EENS4_14EqualsComparerINSt3__28equal_toIS3_EEEENSD_9allocatorINSD_4pairIKS4_S7_EEEEE15set_deleted_keyERSJ_
uH:__ZN14AvatarPlayback8StopTimeEv
wyh:_InternalEnumerator_1_System_Collections_IEnumerator_get_Current_m4213507601_gshared
eda:__Z6AppendRKN4core12basic_stringIcNS_20StringStorageDefaultIcEEEEPKc
_1j:_Queue_Clone_m178259971
rep:_Cookie_ToString_m3245013858
Rcb:__ZL14OnWorldStoppedv
O5h:_Array_InternalArray__IEnumerable_GetEnumerator_TisCustomAttributeNamedArgument_t287865710_m523021714_gshared
$Fn:__ZN6il2cpp2vm6Object12NullableInitEPhP12Il2CppObjectP11Il2CppClass
rMl:__ZN21InterfaceFuncInvoker1I19Vector4_t3319028937iE6InvokeEjP11Il2CppClassP12Il2CppObjecti
Qoa:__ZN9Scripting11UnityEngine16TrackedReference12CleanupProxyEv
uci:__KeysEnumerator_MoveNext_m4289758929
uof:__ZN20TextRenderingPrivate19NativeTextGeneratorC2ERK11UTF16StringPNS_8FontImplE11ColorRGBA32ifRK8Vector2fbifiibffbbP13dynamic_arrayIN2UI8UIVertexELj0EE
j1j:_HashKeys_get_SyncRoot_m3757723936
PJm:_GUIUtility_RemoveCapture_m1294193818
tSb:__ZN7ApiGLES18ClearBufferSubDataEjN2gl12BufferTargetEll
Lvc:__Z37Camera_Get_Custom_PropAllCamerasCountv
MSa:__ZN14Texture2DArray8TransferI18StreamedBinaryReadILb0EEEEvRT_
w8l:_List_1_CopyTo_m2746988508_gshared
aje:__ZN5physx15NpActorTemplateINS_18PxArticulationLinkEED2Ev
vXc:__Z38Register_UnityEngine_GUIStyle_get_namev
WQb:__ZN13GfxDeviceGLES13AfterDrawCallEv
rzf:_Split_Cubic
pb:invoke_fiiii
ELi:_InputField_OnSubmit_m3583210804
cKk:_ShimEnumerator_get_Value_m1878724567_gshared
ROo:__ZL72GUISkin_t1244372282_CustomAttributesCacheGenerator_m_horizontalScrollbarP21CustomAttributesCache
JQe:__ZN5physx2Sc32DefaultClothInterCollisionFilterEPvS1_
f4k:_Uri_CheckHostName_m2213216182
agp:_Request_U3CSendU3Em__0_m3036197640
Wji:_SocketAsyncResult_t2080034863_marshal_pinvoke
gjm:_Collection_1_CopyTo_m819221634_gshared
mjj:_HMAC_set_Key_m3535779141
uke:__ZN5physx2Sc16ArticulationCore26setMaxProjectionIterationsEj
nZf:_TMP_InputField_get_asteriskChar_m1201011147
k_d:__ZN26IntersectAnyVsMeshCallbackILi1ELb0EED2Ev
$Fh:_InternalEnumerator_1_System_Collections_IEnumerator_Reset_m729791527_AdjustorThunk
a6i:_ArrayListWrapper_Contains_m2641184447
FJj:_WindowsIdentity__ctor_m3086466707
czf:_ft_black_render
jnh:__Z92RuntimeInvoker_RuntimeObject_Int32_t2950945753_Int16_t2552820387_RuntimeObject_RuntimeObjectPFvvEPK10MethodInfoPvPS4_
eYg:__Z177RuntimeInvoker_Int32_t2950945753_RuntimeObject_Int32_t2950945753_Int32_t2950945753_RuntimeObject_Int32_t2950945753_EncoderFallbackBufferU26_t2343550713_CharU5BU5DU26_t3299466565PFvvEPK10MethodInfoPvPS4_
pqp:dynCall_viiifi
gVb:__ZN18GfxFramebufferGLES20ActiveContextChangedEPP17RenderSurfaceBaseS2_
l5i:_ArrayList_get_IsFixedSize_m24366329
Zdi:_FileWebRequest_System_Runtime_Serialization_ISerializable_GetObjectData_m1504466482
Bpb:__Z19PluginsRenderMarkeri
aIh:_InternalEnumerator_1__ctor_m2307827786_AdjustorThunk
xK:__ZN10HumanTrait18InitializeBoneNameEv
Ljc:__ZNSt3__26vectorIN9ShaderLab20SerializedSubProgram15StructParameterENS_9allocatorIS3_EEE6assignINS_11__wrap_iterIPS3_EEEENS_9enable_ifIXaasr21__is_forward_iteratorIT_EE5valuesr16is_constructibleIS3_NS_15iterator_traitsISC_E9referenceEEE5valueEvE4typeESC_SC_
kRa:__ZN14Texture2DArray21AwakeFromLoadThreadedEv
R9o:__ZL143U3CStartU3Ec__Iterator0_t3341539328_CustomAttributesCacheGenerator_U3CStartU3Ec__Iterator0_System_Collections_IEnumerator_get_Current_m22834162P21CustomAttributesCache
WGb:__Z29Transfer_Blittable_ArrayFieldI18StreamedBinaryReadILb0EEyEvRT_R9ArrayInfoRK23StaticTransferFieldInfo
WGi:_Touch_get_position_m3109777936_AdjustorThunk
AEn:__ZNSt3__214__split_bufferIN6il2cpp2vm5Image20EmbeddedResourceDataERNS_9allocatorIS4_EEEC2EjjS7_
ANo:__ZL66SkeletonBone_t4134054672_CustomAttributesCacheGenerator_parentNameP21CustomAttributesCache
qse:__ZNK5physx7NpCloth25getNbSelfCollisionIndicesEv
Jwk:_Kernel_multiByteDivide_m4249920547
$ug:_CanvasScaler_set_screenMatchMode_m2975492035
c1l:_U3CSortU3Ec__Iterator21_Reset_m1241298888_gshared
oJf:__Z69Register_UnityEngine_Analytics_UnityAnalyticsHandler_Internal_Destroyv
UYn:_EnemyBossScript_Update_m512555062
byo:__ZL62RuntimePlatform_t4159857903_CustomAttributesCacheGenerator_PSMP21CustomAttributesCache
Uhi:_X509Certificate2Collection_Add_m3151757943
Qbp:_TMP_TextSelector_B__ctor_m619334773
lag:_ObjectWriter_WriteArray_m1738497250
wLh:_Comparer_1__cctor_m951016718_gshared
$kf:__ZN9Scripting11UnityEngine13CharacterInfo9InitProxyEv
yyd:__ZNSt3__227__insertion_sort_incompleteIR15DepthComparitorP8DepthHitEEbT0_S5_T_
V7i:_CaseInsensitiveHashCodeProvider_get_DefaultInvariant_m4264275163
G8e:__ZNK5physx2Gu10ConvexMesh17getReferenceCountEv
$wn:__ZN15dense_hashtableINSt3__24pairIK10KeyWrapperINS1_IP11Il2CppClassjEEES4_EES6_N6il2cpp8metadata14ArrayClassHashEN14dense_hash_mapIS6_S4_SB_NS6_14EqualsComparerINSA_17ArrayClassCompareEEENS0_9allocatorIS8_EEE9SelectKeyESF_SH_E4swapERSK_
vYg:__Z195RuntimeInvoker_Int32_t2950945753_RuntimeObject_Int32_t2950945753_Int32_t2950945753_Int32_t2950945753_RuntimeObject_DecoderFallbackBufferU26_t3866396827_ByteU5BU5DU26_t4057885439_SByte_t1669577662PFvvEPK10MethodInfoPvPS4_
GIe:__ZN5physx2Sc5Scene22setNbContactDataBlocksEj
$Y:__ZN5physx14PxLightCpuTask12addReferenceEv
CFa:__ZNK15InstancingProps35FillInstanceBufferDispatchConstantsIN10Instancing14RenderLoopArgsEEEvPPvjjRK19ShaderPropertySheetRKT_
Ifh:__Z86RuntimeInvoker_Int32_t2950945753_Color32_t2600501292_Color32_t2600501292_RuntimeObjectPFvvEPK10MethodInfoPvPS4_
nZa:__ZN21EnlightenSceneMapping8TransferI19StreamedBinaryWriteILb0EEEEvRT_
vHn:__ZN6il2cpp2gc16GarbageCollector19InitializeFinalizerEv
IC:__ZN7mecanim8skeleton18CreateSkeletonMaskEjPKNS0_19SkeletonMaskElementERNS_6memory9AllocatorE
YXl:_ReadOnlyCollection_1_System_Collections_Generic_ICollectionU3CTU3E_get_IsReadOnly_m2508509261_gshared
fYc:__ZN10GUIManager10DoGUIEventER10InputEventb
Lyb:__Z35Transfer_Blittable_FixedBufferFieldI24GenerateTypeTreeTransferxEvRK29SerializationCommandArgumentsR31RuntimeSerializationCommandInfo
rtf:_otv_LangSys_validate
GDi:_RectOffset_get_right_m2294081512
Tyj:_MonoType_getFullName_m837685882
Q1f:_TMP_Settings_GetSettings_m2819480199
YUh:__ZN25GenericVirtActionInvoker1IP20Delegate_t1188392813E6InvokeEPK10MethodInfoP12Il2CppObjectS1_
ysl:_Array_InternalArray__set_Item_TisLink_t544317964_m1234244240_gshared
Vxf:_UNITY_TT_Init_Glyph_Loading
OPl:_ReadOnlyCollection_1_System_Collections_Generic_ICollectionU3CTU3E_Clear_m1624648842_gshared
DKc:__Z20CalculateSqrDistanceRK8Vector3fRK4AABB
yyg:_OptionData_get_text_m2997376818
jGk:_Enumerator__ctor_m324536319_gshared
mef:__ZN14PhysicsManager15ProcessContactsEv
nej:_Array_InternalArray__get_Item_TisProgressHandler_t926933139_m2560246503_gshared
ucg:_SerializationInfo_GetBoolean_m1756153320
lTd:__ZN21BoxTraceSegmentReport7onEventEjPj
nfe:__ZN5physx2Sc21ArticulationJointCore13setSwingLimitEff
SR:__Z32AudioMixerDuckingProcessCallbackP21UnityAudioEffectStatePfS1_jii
kYd:__ZL20HullProjectionCB_BoxRKN5physx2Gu13PolygonalDataERKNS_6PxVec3ERKNS_2Cm8Matrix34ERKNS7_23FastVertex2ShapeScalingERfSE_
mxi:_Mesh_get_uv2_m3615020997
qRl:_ReadOnlyCollection_1_Contains_m2979956790_gshared
Mfi:__ZN21InterfaceFuncInvoker4IP26X509Certificate_t713131622P8String_tP37X509CertificateCollection_t3399372417S1_P24StringU5BU5D_t1281789340E6InvokeEjP11Il2CppClassP12Il2CppObjectS3_S5_S1_S7_
DKe:__ZN5physx17PxcNpMemBlockPool19releaseUnusedBlocksEv
iDl:_EqualityComparer_1_System_Collections_IEqualityComparer_Equals_m4172006498_gshared
gXe:__ZN5physx14PxsAABBManager21selfCollideAggregatesEPKNS_19AggregateSortedDataE
b8n:_U3CRevealWordsU3Ec__Iterator1_System_Collections_Generic_IEnumeratorU3CobjectU3E_get_Current_m1535463873
TN:__ZN12AudioManager8TransferI24GenerateTypeTreeTransferEEvRT_
gul:_Array_qsort_TisOrderBlock_t1585977831_m3322202512_gshared
ewi:_Mathf_Round_m4098141538
ykd:__ZN16CustomDataModuleD0Ev
uBc:__ZZL31RegisterRectTransformPropertiesR22GenericPropertyBindingEN28Wrapper_RectTransformPivotx013GetFloatValueEPv
o0a:__ZN9Texture3D19UnloadFromGfxDeviceEb
szn:__ZN6il2cpp6icalls8mscorlib6System9Threading6Thread20Thread_free_internalEP12Il2CppThreadi
rml:_List_1_AddRange_m2456636986_gshared
eNb:__ZNK11PreloadData18GetInstanceIDArrayER13dynamic_arrayIiLj0EE
d0k:_PatternCompiler_EmitRepeat_m697083858
Uwb:__Z18Transfer_BlittableI17RemapPPtrTransferLb0EsEvRK29SerializationCommandArgumentsR31RuntimeSerializationCommandInfo
nhm:_Collection_1_get_Item_m4103760396_gshared
tci:__KeysEnumerator_get_Current_m2996478063
X$f:_TMP_LinkInfo_GetLinkText_m1788600626
Fop:dynCall_iifff
FKd:__ZN19ControllerHitReportD2Ev
xaa:__Z32scripting_class_get_assemblyname17ScriptingClassPtr
Xxd:__ZN9b2Simplex9ReadCacheEPK14b2SimplexCachePK15b2DistanceProxyRK11b2TransformS5_S8_
j$o:__ZL109LayoutUtility_t2745813735_CustomAttributesCacheGenerator_LayoutUtility_U3CGetFlexibleWidthU3Em__3_m1091238571P21CustomAttributesCache
QMk:__ZN21InterfaceFuncInvoker2IxxP12Il2CppObjectE6InvokeEjP11Il2CppClassS1_xS1_
c8g:__Z99RuntimeInvoker_Boolean_t97287965_Int32_t2950945753_PointerEventDataU26_t867828220_SByte_t1669577662PFvvEPK10MethodInfoPvPS4_
yKd:__Z50Register_UnityEngine_Rigidbody2D_AddForce_Injectedv
uTe:__ZN5physx26PxcFrictionPatchStreamPairC2ERNS_17PxcNpMemBlockPoolE
cxh:_InternalEnumerator_1_get_Current_m2128158355_AdjustorThunk
Xmb:__ZN9GfxDevice21RegisterNativeTextureE9TextureIDi16TextureDimension
oAg:_GraphicRegistry__ctor_m1851575309
kih:__Z52RuntimeInvoker_Void_t1185182177_Keyframe_t4206410242PFvvEPK10MethodInfoPvPS4_
CAf:__Z13RegisterClassIN20TextRenderingPrivate8TextMeshEEvPKc
DUn:__ZN6il2cpp6icalls8mscorlib6System10Reflection4Emit11TypeBuilder20create_generic_classEP27Il2CppReflectionTypeBuilder
rVb:__ZNK16UniformCacheGLES6SubmitEjRK13dynamic_arrayIN20GpuProgramParameters14ValueParameterELj0EERKS0_IiLj0EE
G4h:_PlayableHandle_IsPlayableOfType_TisAnimationLayerMixerPlayable_t3631223897_m201603007_gshared
Goo:__ZL50Monitor_t2197244473_CustomAttributesCacheGeneratorP21CustomAttributesCache
ukn:__ZNSt3__26vectorIPK10MethodInfoNS_9allocatorIS3_EEE26__swap_out_circular_bufferERNS_14__split_bufferIS3_RS5_EE
I9o:__ZL112U3CWarpTextU3Ec__Iterator0_t116130919_CustomAttributesCacheGenerator_U3CWarpTextU3Ec__Iterator0__ctor_m204851405P21CustomAttributesCache
MIn:__ZN6il2cpp2os10SocketImpl6CreateENS0_13AddressFamilyENS0_10SocketTypeENS0_12ProtocolTypeE
k$n:_Scoreboard_get_Score_m459727822
sij:_PrimalityTest_EndInvoke_m1035389364
vW:__Z60Register_UnityEngine_AudioListener_GetNumExtensionPropertiesv
Mj:_emscripten_glUniformMatrix4fv
qxn:__ZN15dense_hashtableINSt3__24pairIK10KeyWrapperINS1_IP11Il2CppClassjEEES4_EES6_N6il2cpp8metadata14ArrayClassHashEN14dense_hash_mapIS6_S4_SB_NS6_14EqualsComparerINSA_17ArrayClassCompareEEENS0_9allocatorIS8_EEE9SelectKeyESF_SH_E13set_empty_keyERKS8_
Ddb:__ZN12ScriptMapperD2Ev
p0n:_LaserBeamCollision_OnCollisionEnter2D_m3419821879
AQk:_Enumerator_Dispose_m3040896940_AdjustorThunk
EOd:__ZN9Rigidbody13AwakeFromLoadE17AwakeFromLoadMode
qxi:_Mesh_get_colors32_m1253190811
e6c:__ZN9SubModule8TransferI14SafeBinaryReadEEvRT_
JQn:_GC_stopped_mark
dUf:__ZL59__ManagedRegistrationHelperFunction_SubsystemDescriptorBasePv
Pmi:_AnimationCurve_Finalize_m2397002729
H5c:__ZN14ParticleSystem15AddCustomLightsERK27LocalLightCullingParametersRK11CullResultsR12ActiveLightsRi9LightType
Wke:__ZNK5physx14NpSceneQueries10multiQueryINS_12PxOverlapHitEEEbRKNS_15MultiQueryInputERNS_13PxHitCallbackIT_EENS_7PxFlagsINS_9PxHitFlag4EnumEtEEPKNS_12PxQueryCacheERKNS_17PxQueryFilterDataEPNS_21PxQueryFilterCallbackEPNS_20BatchQueryFilterDataE
Qph:__Z50RuntimeInvoker_RuntimeObject_ColorTween_t809614380PFvvEPK10MethodInfoPvPS4_
IHh:_InternalEnumerator_1__ctor_m945079686_AdjustorThunk
Pbg:_SerializationCallbacks__cctor_m1674315180
Mkc:__Z32TransferEnumWithNameForceIntSizeI14SafeBinaryRead7FogModeEvRT_RT0_PKc17TransferMetaFlags
Bfn:__ZNK15dense_hashtableI10KeyWrapperIPK19Il2CppGenericMethodES4_N6il2cpp8metadata23Il2CppGenericMethodHashEN14dense_hash_setIS4_S7_NS4_14EqualsComparerINS6_26Il2CppGenericMethodCompareEEENSt3__29allocatorIS4_EEE8IdentityESB_SE_E23find_position_with_hashERKS4_j
yCa:__ZNSt3__26vectorIN12FlareManager10FlareEntryENS_9allocatorIS2_EEE21__push_back_slow_pathIS2_EEvOT_
zmc:__ZN9ShaderLab20SerializedSubProgram16TextureParameter8TransferI19StreamedBinaryWriteILb0EEEEvRT_
Mb:invoke_fiiiiiiiifiiiif
xmd:__ZN14ParticleSystem23RendererBecameInvisibleEv
Ova:__ZNK7Hash12812PackToUInt32Ev
WHk:_KeyCollection__ctor_m1035147995_gshared
kpo:__ZL77AppDomain_t1571427825_CustomAttributesCacheGenerator_type_resolve_in_progressP21CustomAttributesCache
XAf:__ZZN20TextRenderingPrivate8TextMesh15InitializeClassEvEN31FunctorImpl_299kDidAddComponent4CallEPviR11MessageData
pca:__ZNSt3__227__insertion_sort_incompleteIRNS_6__lessI14ObjectLoadDataS2_EEPS2_EEbT0_S6_T_
K1:__ZN11UnityEngine15CloudWebService16SessionContainer8AddEventEPNS0_14CloudEventInfoE
arb:__Z4TrimRKN4core12basic_stringIcNS_20StringStorageDefaultIcEEEES5_
yVl:_ReadOnlyCollection_1_CopyTo_m209634623_gshared
lii:_SPKey_Equals_m4205549017
Ycj:_Dictionary_2_Do_ICollectionCopyTo_TisKeyValuePair_2_t3842366416_m1399105608_gshared
