kd:_glClearStencil
uol:_UInt16_System_IConvertible_ToChar_m2096055221_AdjustorThunk
hAj:_MaskableGraphic_OnCanvasHierarchyChanged_m1780820310
cLj:_Array_TrueForAll_TisRuntimeObject_m1084992726_gshared
$Rd:__ZN5physx2Gu19gjkLocalPenetrationINS0_8CapsuleVENS0_17ShrunkConvexHullVEEEjRKT_RKT0_RKNS_6shdfnd3aos6FloatVERNSB_5Vec3VESG_SG_RSC_PhSI_Rhb
qie:__ZN5physx2Sc27ConstraintProjectionManager29removeFromPendingGroupUpdatesERNS0_13ConstraintSimE
HGo:__ZN6il2cpp2vm5Array13GetByteLengthEP11Il2CppArray
usm:_Array_InternalArray__set_Item_TisDateTime_t3738529785_m1331437427_gshared
FHn:_KeyBuilder_get_Rng_m3373220441
yAa:__Z30GetIntermediateRendererManagerv
cVa:__Z21SourceMipLevelForBlitiiii
CGa:__ZN31CanvasBatchIntermediateRenderer15AddAsRenderNodeER15RenderNodeQueueRK20DeprecatedSourceData
myk:_Dictionary_2_Do_ICollectionCopyTo_TisInt32_t2950945753_m2590022749_gshared
Fll:_TimeSpan_get_Hours_m550761902
cnc:__ZN9ShaderLab9SubShader15FindNamedPassesERKN4core12basic_stringIcNS1_20StringStorageDefaultIcEEEER13dynamic_arrayIPNS_4PassELj0EE
gFg:__ZL63PlayableOutputHandle_t4208053793_CustomAttributesCacheGeneratorP21CustomAttributesCache
B0:__ZN11UnityEngine15CloudWebService26CloudServiceEventWithParam12ToJsonStringER9JSONWrite
pwc:__Z59Register_UnityEngine_PlayerConnectionInternal_DisconnectAllv
sLn:_AnalyticsEventTracker_SendEvent_m1365958832
sMe:__ZNK5physx2Sc5Scene24getContactModifyCallbackEv
Nt:__ZN11UnityEngine9Animation28GenericAnimationBindingCacheD2Ev
zPe:__ZN5physx2Sq10AABBPruner10addObjectsEPjPKNS_9PxBounds3EPKNS0_13PrunerPayloadEj
Ron:_X509Store_LoadCrl_m1881903843
Hwk:_Array_Sort_TisUICharInfo_t75501106_TisUICharInfo_t75501106_m722747892_gshared
auo:_il2cpp_runtime_unhandled_exception_policy_set
jc:invoke_viiiifiiiiif
Xcc:__Z18RestoreRenderStateR20CameraRenderOldStateR17ShaderPassContext
lDb:__Z18Transfer_BlittableI18StreamedBinaryReadILb1EELb1E5RectTIfEEvRK29SerializationCommandArgumentsR31RuntimeSerializationCommandInfo
_yb:__Z18Transfer_BlittableI24GenerateTypeTreeTransferLb0E11ColorRGBA32EvRK29SerializationCommandArgumentsR31RuntimeSerializationCommandInfo
Tgj:_Material_GetVector_m2472259403
dIb:__Z25scripting_class_from_name17ScriptingImagePtrPKcS1_
pCn:_InflateManager_Initialize_m107944087
lrm:_Array_InternalArray__Insert_TisSingle_t1397266774_m3161726127_gshared
Wsn:_TMP_XmlTagStack_1_Add_m479786267_AdjustorThunk
Kqo:__ZN14dense_hash_mapI10KeyWrapperINSt3__24pairIPK12PropertyInfoP11Il2CppClassEEEj17ReflectionMapHashIS8_ENS9_14EqualsComparerINS1_8equal_toIS8_EEEENS1_9allocatorINS2_IKS9_jEEEEE15set_deleted_keyERSH_
XJb:__Z29scripting_class_enum_basetype17ScriptingClassPtr
P2d:__ZN5physx6shdfnd8PoolBaseINS_2Sc10NPhaseCore16ClothListElementENS0_19ReflectionAllocatorIS4_EEE17releaseEmptySlabsEv
Eef:__Z20GetPhysicsModuleSpecv
TWc:__ZN6IDList10BeginOnGUIEv
LKj:_Array_InternalArray__ICollection_Remove_TisColor_t2555686324_m1658001816_gshared
wvd:__ZN16PhysicsManager2D7RaycastERK3RayfiR12RaycastHit2D
x6e:__ZN5physx2Sc14ConstraintCore10breakApartEv
xma:__ZL43__ManagedRegistrationHelperFunction_TexturePv
k3f:_TMP_SubMesh_UpdateMeshPadding_m2529023756
nPj:_Array_InternalArray__IndexOf_TisKeyValuePair_2_t625878672_m2693022864_gshared
CNi:_InternalEnumerator_1_get_Current_m1477715453_gshared
L2i:_TMP_ExampleScript_01_Update_m1912934944
Ogb:__ZNK20LocalFileSystemPosix6ParentERK13FileEntryDataRN4core12basic_stringIcNS3_20StringStorageDefaultIcEEEE
Eyg:__ZL118TouchScreenKeyboard_t731888065_CustomAttributesCacheGenerator_TouchScreenKeyboard_Open_m3609399077____textPlaceholder6P21CustomAttributesCache
gdf:__ZN5physx7Cooking20loadTriangleMeshDescERKNS_18PxTriangleMeshDescERNS_19TriangleMeshBuilderE
Lhn:_Collection_1_System_Collections_IList_Remove_m1476284619_gshared
p9l:_List_1_Find_m279961672_gshared
D5k:_SHA1CryptoServiceProvider__ctor_m4195188793
Dqo:__ZN15dense_hashtableINSt3__24pairIK10KeyWrapperINS1_IPK9EventInfoP11Il2CppClassEEEjEES9_17ReflectionMapHashIS8_EN14dense_hash_mapIS9_jSD_NS9_14EqualsComparerINS0_8equal_toIS8_EEEENS0_9allocatorISB_EEE9SelectKeyESI_SK_E15set_deleted_keyERKSB_
Lpa:__ZN9Scripting11UnityEngine9Profiling8Recorder12CleanupProxyEv
Ish:_Graphic_get_defaultGraphicMaterial_m3107284931
lHb:__ZN18StreamedBinaryReadILb0EE21TransferSTLStyleArrayI13dynamic_arrayI11ColorRGBA32Lj0EEEEvRT_17TransferMetaFlags
zrh:_Dropdown_Hide_m504034854
K8j:_NumberFormatter_NumberToString_m264078176
sqa:__ZN9Scripting11UnityEngine20ManagedStreamHelpers9InitProxyEv
kPn:_Vector2_get_up_m2647420593
MTb:__ZN7ApiGLES17CopyBufferSubDataEjjlll
Opm:_Array_InternalArray__ICollection_CopyTo_TisUInt64_t4134040092_m691431926_gshared
eWi:_IPAddress_ToString_m1181734207
K2o:_KeyEnumerator_get_Current_m485720715
_zf:__Z48Register_UnityEngine_TextMesh_INTERNAL_get_colorv
fhl:_StringBuilder_Append_m1965104174
ZYc:__ZN5Unity9rapidjson15GenericDocumentINS0_4UTF8IcEE13JSONAllocatorS4_E11ParseStreamILj1ES3_NS0_25GenericInsituStringStreamIS3_EEEERS5_RT1_
Rhm:_EqualityComparer_1__cctor_m3766928733_gshared
mok:_DateTime__ctor_m2956360140
FX:__ZN11AudioModule26SetDefaultMicrophoneDriverEPv
QSj:_Kernel_modInverse_m652700340
LRg:__ZL57CanvasRenderer_t2598313366_CustomAttributesCacheGeneratorP21CustomAttributesCache
$Xc:__ZN5IMGUI18RepaintModalWindowER8GUIState
wDa:__ZNK15dense_hashtableINSt3__24pairIKN9ShaderLab7Program23ShaderKeywordSetAndHashEPKNS2_10SubProgramEEES4_NS3_24ShaderKeywordHashFunctorEN14dense_hash_mapIS4_S8_SA_NS0_8equal_toIS4_EE13stl_allocatorIS9_L18MemLabelIdentifier67ELi16EEE9SelectKeyESD_SG_E23find_position_with_hashERS5_j
hTk:_CompareInfo_Finalize_m404687489
YZa:__Z23SetSpriteMeshIndexCountP14SharedMeshDataj
bjl:_UTF8Decoder_GetChars_m1236346907
kXf:_TMP_FontAsset_HasCharacters_m3087390417
TKo:__ZN6il2cpp8metadata13GenericMethod9GetMethodEPK19Il2CppGenericMethod
vs:__ZNSt3__26vectorIN4core12basic_stringIcNS1_20StringStorageDefaultIcEEEENS_9allocatorIS5_EEE7reserveEj
_ak:_Default_SelectProperty_m1220817815
Oni:_RemotingConfiguration_IsRemotelyActivatedClientType_m4117048589
ytj:_Transform_TransformPoint_m226827784
oEo:__ZNSt3__26__treeINS_12__value_typeIjN6il2cpp2os17SocketHandleEntryEEENS_19__map_value_compareIjS5_NS_4lessIjEELb1EEENS_9allocatorIS5_EEE25__emplace_unique_key_argsIjJNS_4pairIKjS4_EEEEENSE_INS_15__tree_iteratorIS5_PNS_11__tree_nodeIS5_PvEEiEEbEERKT_DpOT0_
LPb:__ZN13GfxDeviceGLES11SetViewportERK5RectTIiE
spd:__Z19UpdateSingleRow2TplIL27ParticleSystemCurveEvalMode3ELS0_2EEvfRK11MinMaxCurveS3_RK23ParticleSystemParticlesPfbiii
ceh:_TextMeshPro_set_sortingOrder_m8809902
gTc:__Z24Time_Get_Custom_PropTimev
bae:__ZN5physx3Scb5Scene14addRigidStaticERNS0_11RigidStaticEb
Ee:_emscripten_glDepthRange
qjn:_SslStreamBase_BeginNegotiateHandshake_m4180435790
Hkf:__ZN9Scripting11UnityEngine10UILineInfo12CleanupProxyEv
mXd:__ZN5physx2Gu24contactConvexHeightfieldERKNS0_13GeometryUnionES3_RKNS_11PxTransformES6_RKfRNS0_5CacheERNS0_13ContactBufferE
u7d:__ZN5physx6shdfnd5ArrayIPvNS0_19ReflectionAllocatorINS_2Cm5BlockIS2_Lj8EEEEEE15growAndPushBackERKS2_
ofc:__ZNSt3__26vectorINS_4pairIN4core12basic_stringIcNS2_20StringStorageDefaultIcEEEES6_EE13stl_allocatorIS7_L18MemLabelIdentifier38ELi16EEE12__move_rangeEPS7_SC_SC_
Djc:__Z14resize_trimmedINSt3__26vectorIN9ShaderLab20SerializedSubProgram12UAVParameterENS0_9allocatorIS4_EEEEEvRT_j
dZc:__ZN5Unity9rapidjson13GenericReaderINS0_4UTF8IcEES3_13JSONAllocatorE11ParseObjectILj1ENS0_25GenericInsituStringStreamIS3_EENS0_15GenericDocumentIS3_S4_S4_EEEEvRT0_RT1_
rLc:__Z10DestripifyPKjjRNSt3__26vectorIj13stl_allocatorIjL18MemLabelIdentifier1ELi16EEEE
$lh:_StandaloneInputModule_GetRawMoveVector_m2737091079
Nsn:_TMP_XmlTagStack_1_Pop_m3298593939_AdjustorThunk
oYg:__ZL62Selectable_t3250028441_CustomAttributesCacheGenerator_m_ColorsP21CustomAttributesCache
$jk:_Convert_ToDateTime_m2616935982
YRb:__ZThn10632_N13GfxDeviceGLES22SetScissorRectPlatformERK5RectTIiE
Zjn:_SslStreamBase_EndWrite_m4073224031
rca:__ZNSt3__218__insertion_sort_3IRNS_6__lessI14ObjectLoadDataS2_EEPS2_EEvT0_S6_T_
Tma:__ZL50__ManagedRegistrationHelperFunction_PostLateUpdatePv
FUa:__ZN4crndL20crnd_default_reallocEPvjPjbS0_
DXe:__ZN5physx24PxsComputeAABBLocalSpaceERKNS_18PxcAABBDataDynamicERNS_9PxBounds3E
CHj:_Array_get_swapper_TisProgressHandler_t926933139_m2329401730_gshared
e$a:__ZN18SpriteAtlasManager19AddRequestingSpriteE4PPtrI6SpriteE
rJc:__Z20IsValidRealtimeLightRK15SharedLightData9LightTypej
j4j:_UnmanagedMemoryStream_Write_m930787521
acc:__ZN23ScriptableRenderContextC2Ev
muh:_GridLayoutGroup_get_spacing_m2409263614
E4l:_List_1_CheckIndex_m581273900_gshared
txf:_UNITY_FT_Stream_GetChar
pGn:_GUIStyle_get_fixedWidth_m2576616348
MDb:__Z18Transfer_BlittableI18StreamedBinaryReadILb1EELb1EdEvRK29SerializationCommandArgumentsR31RuntimeSerializationCommandInfo
U8j:_NumberFormatter_NumberToString_m655666043
bLk:_Byte_System_IConvertible_ToUInt64_m371883985_AdjustorThunk
y3i:_TMPro_InstructionOverlay__ctor_m2020557448
bQe:__ZN5physx6shdfnd8internal8HashBaseINS0_4PairIKNS_2Sq13PrunerPayloadEjEES5_NS0_4HashIS5_EENS1_11HashMapBaseIS5_jS9_NS0_9AllocatorEE6GetKeyESB_Lb1EE5eraseERS6_
cKb:__Z26BuildSerializationCacheFor17ScriptingClassPtrRb
Jbh:_FloatTween_TweenValue_m554509216
HVb:__ZN7ApiGLES15BlitFramebufferEN2gl6HandleILNS0_10ObjectTypeE9EEENS0_15FramebufferReadES3_S3_iiiiiiiiNS0_15FramebufferTypeE
V7e:__ZN5physx13GuMeshFactory16createConvexMeshERNS_13PxInputStreamE
Zgf:__ZN5physx6shdfnd8internal8HashBaseINS0_4PairIKPKcjEES5_NS0_4HashIS5_EENS1_11HashMapBaseIS5_jS9_NS_7profile26WrapperReflectionAllocatorIjEEE6GetKeyESD_Lb1EE6createERS6_Rb
BWh:__Z112RuntimeInvoker_RuntimeObject_RuntimeObject_RuntimeObject_RuntimeObject_RuntimeObject_RuntimeObject_RuntimeObjectPFvvEPK10MethodInfoPvPS4_
RMi:_InternalEnumerator_1_System_Collections_IEnumerator_get_Current_m3553395619_AdjustorThunk
AEg:__ZL60ReadOnlyAttribute_t3518714744_CustomAttributesCacheGeneratorP21CustomAttributesCache
Tjm:_EqualityComparer_1__cctor_m818408565_gshared
Joh:_ColorBlock_set_highlightedColor_m2089444414_AdjustorThunk
_Ul:_Enumerator_MoveNext_m880141662_AdjustorThunk
O_j:_Context_EndSwitchingSecurityParameters_m4148956166
Esf:_otv_PairPos_validate
iVi:_EndPoint_Create_m1199447448
aA:__ZN7mecanim9animation14CopyHumanPosesEPKNS0_18AnimationNodeStateEPS1_RKNS_6bitsetILj83EEE
Kio:__ZN6il2cpp6icalls8mscorlib6SystemL8IsStaticEPK12PropertyInfo
hLb:__Z9InitInputv
F_f:_TMP_InputField_FindtPrevWordBegin_m2238803771
dza:__ZN17TransformInternal36OnScaleChangedCalculateTransformTypeE15TransformAccess
T7e:__ZNK5physx13GuMeshFactory15getConvexMeshesEPPNS_12PxConvexMeshEjj
gmo:__ZN6il2cpp2gc19AppendOnlyGCHashMapINSt3__24pairIPK10MethodInfoP11Il2CppClassEEP22Il2CppReflectionMethod17ReflectionMapHashIS9_ENS2_8equal_toIS9_EEE3AddERKS9_SB_
Nkb:__ZN16MemoryFileSystem6DeleteER13FileEntryDatab
fRh:__Z81RuntimeInvoker_Void_t1185182177_RuntimeObject_Int64_t3736567304_Int32_t2950945753PFvvEPK10MethodInfoPvPS4_
Q5l:_List_1_set_Item_m1979164443_gshared
ERj:_Array_InternalArray__ICollection_Add_TisLink_t3209266973_m77922316_gshared
NRa:__ZL21BlitScaleStbImageImplRK14ImageReferenceRS_NS_10ColorSpaceE
yme:__ZN5physx10NpMaterial17setStaticFrictionEf
ied:__Z9UpdateTplIL27ParticleSystemCurveEvalMode0EEvRK11MinMaxCurveS3_S3_R23ParticleSystemParticlesjjRKN4math8float3x3ERKNS6_7_float4E
uHe:__ZNK5physx7NpScene18getStaticStructureEv
su:__ZL48__ManagedRegistrationHelperFunction_SkeletonBonePv
$fh:_TextMeshProUGUI_OnEnable_m1040268881
SGe:__ZNK5physx7NpScene19getFilterShaderDataEv
$uj:_InputField_get_keyboardType_m1248105267
Qub:__Z29Transfer_Blittable_ArrayFieldI14SafeBinaryReadyEvRT_R9ArrayInfoRK23StaticTransferFieldInfo
uS:__ZN20SoundChannelInstance15setChannelGroupEPN4FMOD12ChannelGroupE
txm:_Match__ctor_m2425511580
Axl:_KeyPairPersistence_Remove_m1876145547
zhe:__ZN5physx2Sc19ShapeInstancePairLL26onPoseChangedWhileSleepingEv
Iad:__ZN12LightsModule13AwakeFromLoadEP14ParticleSystemRK27ParticleSystemReadOnlyState
L$f:_TMP_LinkInfo_GetLinkText_m1788600626_AdjustorThunk
KRe:__ZN5physx22PxcSweepCapsuleCapsuleERKNS_11PxsCCDShapeES2_PKNS_12PxsRigidBodyES5_RKNS_11PxTransformES8_S8_S8_fRNS_6PxVec3ESA_RNS_10PxcNpCacheERNS_18PxcNpThreadContextEf
Xc:invoke_vifffii
g6h:__Z89RuntimeInvoker_Void_t1185182177_Single_t1397266774_Single_t1397266774_Color32_t2600501292PFvvEPK10MethodInfoPvPS4_
jcl:_String_IndexOf_m3406607758
E$d:__ZNK5physx3Cct17CapsuleController21getHalfHeightInternalEv
fjb:__ZNK25MultiBlocksMemoryFileData5CloneEv
GQo:_GC_add_ext_descriptor
xko:__ZNK15dense_hashtableINSt3__24pairIK10KeyWrapperINS1_IPK14Il2CppAssemblyP11Il2CppClassEEEjEES9_17ReflectionMapHashIS8_EN14dense_hash_mapIS9_jSD_NS9_14EqualsComparerINS0_8equal_toIS8_EEEENS0_9allocatorISB_EEE9SelectKeyESI_SK_E23find_position_with_hashERSA_j
_zk:_LayoutGroup_SetProperty_TisSingle_t1397266774_m793506911_gshared
lti:_CryptoConfig_CreateFromName_m1538277313
Bkp:_glInvalidateFramebuffer__wrapper
Izi:_InternalEnumerator_1_get_Current_m3073360606_gshared
_4d:__ZL30GeomOverlapCallback_CapsuleBoxRKN5physx10PxGeometryERKNS_11PxTransformES2_S5_PNS_2Gu12TriggerCacheE
sXi:_SslStream_BeginAuthenticateAsClient_m1917750745
Dbp:dynCall_iiiiiiiiiiii
Yq:__ZN9Scripting11UnityEngine2AI18NavMeshBuildSource9InitProxyEv
y8f:_TMP_Text_DrawUnderlineMesh_m1146477450
ZJf:__ZN18UnityConnectClient16IsServiceEnabledEv
KXl:_Enumerator_System_Collections_IEnumerator_Reset_m3951708793_gshared
ysa:__ZN9Scripting11UnityEngine10ColorGamut9InitProxyEv
llb:__ZN22VertexDeclarationCacheD0Ev
gFj:_Selectable_set_interactable_m3105888815
RGa:__ZL26KeywordSetToStringDontSortRKNSt3__26vectorIN4core12basic_stringIcNS1_20StringStorageDefaultIcEEEENS_9allocatorIS5_EEEERS5_
mja:__ZN6prcoreL17RemapGenericFloatI16TexFormatRGFloat17TexFormatRGBAHalfEEvPKNS_9InnerInfoE
vU:__ZN12AudioManager22CreateFMODSoundFromWWWEP10IWWWStream15FMOD_SOUND_TYPE17FMOD_SOUND_FORMATjjbbP10SampleClip
LGc:__ZNK32RendererMaterialAnimationBinding15GenerateBindingERKN4core12basic_stringIcNS0_20StringStorageDefaultIcEEEEbRN11UnityEngine9Animation14GenericBindingE
LCh:_TargetException__ctor_m4172127019
Lhd:__Z25UpdateOrbitalAndRadialTplIL27ParticleSystemCurveEvalMode0ELS0_2ELS0_0EEvRK11MinMaxCurveS3_S3_S3_S3_S3_S3_R23ParticleSystemParticlesjjRKN4math8float3x3ERKNS6_7affineXERKNS6_7_float4E
B0m:_List_1_CheckCollection_m274117203_gshared
RSg:__ZL70EventSystem_t1003666588_CustomAttributesCacheGenerator_m_FirstSelectedP21CustomAttributesCache
mVl:_LinkedList_1_Clear_m2711926805_gshared
Eaa:__ZN8Remapper23GetOrGenerateInstanceIDERK26SerializedObjectIdentifier
Krk:_Decimal_System_IConvertible_ToByte_m1059182322
ypb:__ZN11TextureData17GetImageReferenceEii
S9h:__Z82RuntimeInvoker_Int32_t2950945753_Int16_t2552820387_Int16_t2552820387_RuntimeObjectPFvvEPK10MethodInfoPvPS4_
xih:_EventSystem_ToString_m3779610692
s0j:_RecordProtocol_BeginReceiveRecord_m295321170
o_a:__ZN6Sprite8TransferI24GenerateTypeTreeTransferEEvRT_
rEn:_TMPro_EventManager_ON_TEXTMESHPRO_UGUI_PROPERTY_CHANGED_m531824844
yyc:__Z48Register_UnityEngine_Transform_SetAsFirstSiblingv
tFi:_InternalEnumerator_1_System_Collections_IEnumerator_get_Current_m694606607_gshared
aCk:_Resources_Load_TisRuntimeObject_m3577225874_gshared
t_a:__ZN7SubMesh8TransferI24GenerateTypeTreeTransferEEvRT_
Qee:__ZNK5physx19NpArticulationJoint28getTwistLimitContactDistanceEv
sxn:_UnityEvent_1_FindMethod_Impl_m2511430237_gshared
Y5n:_NativeTypeAttribute__ctor_m133676646
Vwc:__Z48Register_UnityEngine_Application_get_absoluteURLv
oWd:__ZN5physx3Cct10Controller6setPosERKNS_14PxExtendedVec3E
JGm:_Collection_1_System_Collections_IList_Contains_m296643274_gshared
TXd:__ZN5physx2GuL14testFaceNormalERKNS0_13PolygonalDataES3_PNS0_12SupportLocalES5_RKNS_6shdfnd3aos15PsMatTransformVESA_RKNS7_6FloatVERSB_RjRNS7_5Vec3VENS0_13FeatureStatusERSI_
T$k:_DirectoryInfo__ctor_m126519516
bzh:_MethodBase_GetMethodFromIntPtr_m3014201362
VIi:_InternalEnumerator_1_System_Collections_IEnumerator_get_Current_m2011757623_gshared
TKi:_InternalEnumerator_1_get_Current_m2315302778_AdjustorThunk
Z0k:_FileInfo_InternalRefresh_m2894054257
Vxc:__ZN9Transform23SetSiblingIndexInternalEib
k0c:__ZN9JSONWrite8TransferI13dynamic_arrayIaLj0EEEEvRT_PKc17TransferMetaFlags
e5d:__ZL32GeomOverlapCallback_ConvexConvexRKN5physx10PxGeometryERKNS_11PxTransformES2_S5_PNS_2Gu12TriggerCacheE
lcm:_Dictionary_2_Resize_m1924695631_gshared
xhk:_Enumerator_MoveNext_m635366482
GEk:_X509Extension_Equals_m1222951829
qy:__ZN7mecanim5human12HumanPoseSubERNS0_9HumanPoseERKS1_S4_
bQj:_Array_InternalArray__IndexOf_TisTextAlignmentOptions_t4036791236_m4075827900_gshared
ptb:__Z18Transfer_BlittableI14SafeBinaryReadLb0E10Matrix4x4fEvRK29SerializationCommandArgumentsR31RuntimeSerializationCommandInfo
tJb:__Z24GetFixedBehaviourManagerv
zho:__ZN6il2cpp2vm10ThreadPool4WaitEP17Il2CppAsyncResultPPv
$Dk:_PKCS12_Encrypt_m2617413749
Bon:_X509Crl_VerifySignature_m1377612461
UFk:_Activator_CreateInstance_m94526014
J6o:_vfprintf
BYc:__ZN10GUIManager12AddGUIScriptER8ListNodeI13MonoBehaviourE
goa:__ZL53__ManagedRegistrationHelperFunction_StackTraceUtilityPv
Nhk:_Stack_Clear_m2010200235
opf:_cf2_getVStore
mkh:_PointerEventData_set_pointerPressRaycast_m1363193059
_1b:__ZN20DynamicPropertySheetD0Ev
L8l:_List_1_get_Item_m718437397_gshared
nFh:_SafeHandle_Dispose_m4229010569
sfc:__ZN14SafeBinaryRead17RegisterConverterEPKcS1_PFbPvRS_E
Ywg:__ZL77RuntimePlatform_t4159857903_CustomAttributesCacheGenerator_OSXDashboardPlayerP21CustomAttributesCache
X2:__ZN35RegisterRuntimeInitializeAndCleanup8RegisterEPFvPvES2_iS0_
Zdk:_FieldBuilder_SetValue_m828035213
IYm:__ZN28GenericInterfaceFuncInvoker0IfE6InvokeEPK10MethodInfoP12Il2CppObject
ORe:__ZN5physx25PxcSweepConvexHeightfieldERKNS_11PxsCCDShapeES2_PKNS_12PxsRigidBodyES5_RKNS_11PxTransformES8_S8_S8_fRNS_6PxVec3ESA_RNS_10PxcNpCacheERNS_18PxcNpThreadContextEf
wTc:__Z21Object_CUSTOM_DestroyP12Il2CppObjectf
J_b:__ZN8Material26ResetAllCachedMaterialDataEP6Shader
cVh:__Z63RuntimeInvoker_Void_t1185182177_RuntimeObject_Int16_t2552820387PFvvEPK10MethodInfoPvPS4_
Fxf:_UNITY_TT_Get_MM_Var
Iqi:_ObjectManager_AddFixup_m2154325362
fQi:_Comparer_1__cctor_m3761458313_gshared
Pqk:_DateTimeOffset_CompareTo_m1350732322_AdjustorThunk
ba:invoke_diddi
RCf:__ZNK2UI6Canvas13GetRenderModeEv
ddj:_PersistentCall__ctor_m1217622171
dOj:_Array_compare_TisCustomAttributeTypedArgument_t2723150157_m1384644047_gshared
r8o:_unlink
kzl:_StrongName_get_TokenAlgorithm_m1794722022
Asb:__Z18Transfer_BlittableI14SafeBinaryReadLb0EiEvRK29SerializationCommandArgumentsR31RuntimeSerializationCommandInfo
cfo:__ZN6il2cpp2vm13MetadataCache30GetPropertyDefinitionFromIndexEi
NHn:_SymmetricTransform_Transform_m1683494363
zze:__ZN5physx14NpRigidDynamic7releaseEv
aNf:__ZN22BaseUnityConnectClient17InitializeSessionERKN4core12basic_stringIcNS0_20StringStorageDefaultIcEEEES6_N19CloudServiceHandler13InitModeFlagsE
xdg:__ZL56KeyCollection_t4251528776_CustomAttributesCacheGeneratorP21CustomAttributesCache
h0h:__Z74RuntimeInvoker_RuntimeObject_Int32_t2950945753_RuntimeObject_RuntimeObjectPFvvEPK10MethodInfoPvPS4_
bOe:__ZN5physx6shdfnd8PoolBaseINS_21PxsBodyTransformVault13PxsBody2WorldENS0_19ReflectionAllocatorIS3_EEE15disposeElementsEv
B6m:_List_1_get_Item_m200663048_gshared
z0f:_TMP_MeshInfo__ctor_m3699236577_AdjustorThunk
gPc:__ZN13MonoBehaviour34StopCoroutineFromEnumeratorManagedE18ScriptingObjectPtr
O_f:_TMP_InputField_Append_m3961630412
Bu:__ZN9Scripting11UnityEngine9HumanBone12CleanupProxyEv
uUd:__ZN5physx2Gu30computeCapsule_TriangleMeshMTDERKNS_22PxTriangleMeshGeometryERKNS_11PxTransformERNS0_8CapsuleVEffbRNS_10PxSweepHitE
Ird:__ZN11UnityEngine9Analytics18SceneLoadTimeEvent12SetSceneLoadERKN4core12basic_stringIcNS2_20StringStorageDefaultIcEEEEiyyyy
U8a:__ZN30RuntimeInitializeOnLoadManager8TransferI18StreamedBinaryReadILb0EEEEvRT_
Ijk:_DateTimeOffset__ctor_m2084804982
L0n:_CanvasRenderer_GetMaterial_m3822557591
ZWo:_EnemyScript_OnCollisionEnter2D_m1977666951
$tf:_UNITY_tt_face_load_pclt
stc:__ZL34GetComponentsImplementationRecurseILb1ELi0ELi2EEbR10GameObjectbRK17CompareParametersRK39GetComponentsImplementation_ReturnValue
Oyk:_Dictionary_2_Do_ICollectionCopyTo_TisRuntimeObject_m2206321454_gshared
EJn:_UnityWebRequest_set_downloadHandler_m970510352
aEd:__ZN10ClipperLib7Clipper24InsertLocalMinimaIntoAELEx
rgj:_Material_GetTexture_m3545614349
oFe:__ZThn8_N5physx2Sc19ShapeInstancePairLL10onActivateEj
MLh:__Z64RuntimeInvoker_RuntimeObject_Int32_t2950945753_Int16_t2552820387PFvvEPK10MethodInfoPvPS4_
N9c:__ZN16CustomDataModule8TransferI19StreamedBinaryWriteILb0EEEEvRT_
Nim:_EqualityComparer_1__cctor_m4244842342_gshared
t1b:__ZNK6Camera18WorldToScreenPointERK8Vector3fPb
VXe:__ZN5physx2Cm12DelegateTaskINS_10PxsContextEXadL_ZNS2_28mergeCMDiscreteUpdateResultsEPNS_10PxBaseTaskEEEE11runInternalEv
Gqj:_SendMouseEvents_DoSendMouseEvents_m2140870850
NHf:__ZN14UnityAnalyticsD0Ev
Dcf:__ZN5physx19TriangleMeshBuilder10importMeshERKNS_18PxTriangleMeshDescERKNS_15PxCookingParamsEb
cAm:_PatternCompiler_EmitJump_m3915926156
gPb:__Z18IsCompressedFormat14GraphicsFormat
aPc:__ZNK13MonoBehaviour6GetDSPEv
QAh:_MonoMethod_GetBaseDefinition_m2844667474
Xll:__Z33il2cpp_codegen_check_add_overflowxx
I8:__ZNSt3__227__insertion_sort_incompleteIRPFbRKN18AwakeFromLoadQueue4ItemES4_EPS2_EEbT0_S9_T_
exg:__ZL73RuntimePlatform_t4159857903_CustomAttributesCacheGenerator_MetroPlayerARMP21CustomAttributesCache
c$k:_InvalidOperationException__ctor_m1685032583
cdo:__ZN14dense_hash_mapI10KeyWrapperIN6il2cpp5utils13dynamic_arrayIPK10Il2CppTypeLj4EEEEPFvvENS1_8metadata19Il2CppSignatureHashENS8_14EqualsComparerINSB_22Il2CppSignatureCompareEEENSt3__29allocatorINSG_4pairIKS8_SA_EEEEE15set_deleted_keyERSJ_
Eml:_TimeSpan_op_Subtraction_m3592306516
sEn:_TMPro_EventManager_ON_COMPUTE_DT_EVENT_m4224094755
xyo:__ZN6il2cpp2vm9Exception25RaiseOutOfMemoryExceptionERKNS_5utils10StringViewIDsEEP19Il2CppSequencePoint
kji:__Z94RuntimeInvoker_RuntimeObject_Single_t1397266774_Single_t1397266774_RuntimeObject_RuntimeObjectPFvvEPK10MethodInfoPvPS4_
Qkm:_EqualityComparer_1_System_Collections_IEqualityComparer_GetHashCode_m1517903420_gshared
Ase:__ZN5physx6shdfnd5ArrayINS_18PxClothFabricPhaseENS0_19ReflectionAllocatorIS2_EEE8recreateEj
XYa:__ZN26EnlightenSystemInformation8TransferI14SafeBinaryReadEEvRT_
aad:__ZN13InitialModule5ResetEv
KQm:_ReadOnlyCollection_1_System_Collections_IList_Add_m3968477706_gshared
I9a:__ZN24GenerateTypeTreeTransfer8TransferINSt3__26vectorIN15ResourceManager10DependencyE13stl_allocatorIS4_L18MemLabelIdentifier52ELi16EEEEEEvRT_PKc17TransferMetaFlags
R3i:_VertexJitter_ON_TEXT_CHANGED_m106761234
Z2h:__Z119RuntimeInvoker_Void_t1185182177_RuntimeObject_Single_t1397266774_Single_t1397266774_SByte_t1669577662_Int32_t2950945753PFvvEPK10MethodInfoPvPS4_
YBa:__ZN27PerObjectLightCullingOutputD2Ev
bIe:__ZN5physx2Sq17SceneQueryManager11shiftOriginERKNS_6PxVec3E
l5a:__ZN12MeshRendererD0Ev
GV:__ZN12AudioManager35GetCurrentSpatializerDefinitionNameEv
kSd:__ZN5physx2Gu16sweepBoxTriangleERKNS_10PxTriangleERKNS_9PxBounds3ERKNS_6PxVec3ES9_RS7_SA_Rf
voa:__ZN9Scripting11UnityEngine14WaitForSeconds9InitProxyEv
pi:_utime
ndf:__ZN5physx10writeChunkEaaaaRNS_14PxOutputStreamE
tCm:_BalancingGroup_Compile_m2575117193
Lho:__ZN6il2cpp6icalls8mscorlib6System8MonoType18IsGenericParameterEPK10Il2CppType
Uro:__ZNSt3__26vectorIN6il2cpp2vm17TypeNameParseInfoENS_9allocatorIS3_EEE8allocateEj
Gu:__ZN9Scripting11UnityEngine22AnimatorTransitionInfo9InitProxyEv
NHh:_Context_NotifyDynamicSinks_m1841702879
izm:_Mark_get_Index_m3048692661_AdjustorThunk
Rn:FUNCTION_TABLE_viiiiif
zqm:_Array_InternalArray__Insert_TisRejectHandler_t1435172309_m1864675154_gshared
nPi:_DefaultComparer_Compare_m3931992727_gshared
Ao:FUNCTION_TABLE_viiiiii
tNi:_InternalEnumerator_1_System_Collections_IEnumerator_get_Current_m1847780851_AdjustorThunk
DGn:_GUILayoutUtility_get_spaceStyle_m3392862907
WYk:_Int32_System_IConvertible_ToType_m3009233912_AdjustorThunk
Jjk:_DateTimeOffset__ctor_m74032857
u6j:_MonoType_IsPrimitiveImpl_m2401722705
qje:__ZN5physx2Sc9RigidCore13onShapeChangeERNS0_9ShapeCoreENS_7PxFlagsINS0_21ShapeChangeNotifyFlag4EnumEjEENS4_INS_11PxShapeFlag4EnumEhEE
VEk:_SmallXmlParser_Error_m3899025466
IH:__ZN7mecanim9animation22DestroyAvatarWorkspaceEPNS0_15AvatarWorkspaceERNS_6memory9AllocatorE
RGh:_ConfigHandler_ParseElement_m3124222564
xnl:_Type_type_is_assignable_from_m76737532
AVc:__ZN9Scripting11UnityEngine14GUILayoutGroup12CleanupProxyEv
Zwe:__ZN5physx6shdfnd5ArrayIPvNS0_15InlineAllocatorILj256ENS0_19ReflectionAllocatorINS_2Sc19ParticlePacketShapeEEEEEE15growAndPushBackERKS2_
sUe:__ZN5physx17solveContactBlockEPKNS_23PxcSolverConstraintDescEjRNS_16PxcSolverContextE
wdf:__ZN5physx6shdfnd10FoundationD2Ev
XQa:__ZN14PlayableOutput17SetSourcePlayableEP8Playable
M8a:__ZNSt3__26vectorIN4core12basic_stringIcNS1_20StringStorageDefaultIcEEEE13stl_allocatorIS5_L18MemLabelIdentifier13ELi16EEE8__appendEj
T5d:__ZN5physx9NpFactory21releaseConnectorArrayEPNS_16NpConnectorArrayE
jH:__ZN7mecanim9animation29MotionOutputGetDeltaTransformEPKNS0_12MotionOutputE
Hrd:__ZN27PerformanceReportingManager21OnSceneTimingCallbackERK15SceneLoadTimingRKN4core12basic_stringIcNS3_20StringStorageDefaultIcEEEE
wxc:__Z43Transform_CUSTOM_INTERNAL_get_localRotationP12Il2CppObjectP11Quaternionf
zOe:__ZN5physx2Sc10NPhaseCoreD2Ev
c7d:__ZN5physx2Sc7BodySim18onConstraintDetachEv
bRo:__ZN6il2cpp6icalls8mscorlib6System10Reflection4Emit13ModuleBuilder13RegisterTokenEP29Il2CppReflectionModuleBuilderP12Il2CppObjecti
Kfh:_TextMeshProUGUI_set_maskOffset_m1831053298
qZi:_X509Certificate2_GetValueAsString_m1348462142
fko:__ZN6il2cpp2os4File9SetLengthEPNS0_10FileHandleExPi
vEc:__ZZL23RegisterLightPropertiesR22GenericPropertyBindingEN20Wrapper_LightColorr013SetFloatValueEPvf
vGg:__ZL63SpriteBone_t303320096_CustomAttributesCacheGenerator_m_ParentIdP21CustomAttributesCache
y4j:_Math_Max_m4189907297
Ui:_emscripten_glGetTexParameteriv
tma:__ZL49__ManagedRegistrationHelperFunction_ComputeBufferPv
YGe:__ZN5physx7NpScene8simulateEfPNS_10PxBaseTaskEPvjb
Uhp:_glGenTextures__wrapper
DNd:__ZN5physx2Gu13GeometryUnion3setERKNS_10PxGeometryE
_jc:__ZN9ShaderLab20SerializedSubProgram14ConstantBufferaSERKS1_
uGd:__ZN9Polygon2D8TransferI18StreamedBinaryReadILb0EEEEvRT_
Khd:__Z25UpdateOrbitalAndRadialTplIL27ParticleSystemCurveEvalMode0ELS0_1ELS0_4EEvRK11MinMaxCurveS3_S3_S3_S3_S3_S3_R23ParticleSystemParticlesjjRKN4math8float3x3ERKNS6_7affineXERKNS6_7_float4E
gMg:__ZL74SharedBetweenAnimatorsAttribute_t2857104338_CustomAttributesCacheGeneratorP21CustomAttributesCache
TNa:__ZN8PlayableD0Ev
mh:emscriptenWebGLGetBufferBinding
VN:__ZN12AudioManager8TransferI19StreamedBinaryWriteILb0EEEEvRT_
x0n:_CanvasGroup_IsRaycastLocationValid_m2128397950
JFj:_Slider_UpdateCachedReferences_m3259451627
tTh:__Z50RuntimeInvoker_Double_t594665363_Double_t594665363PFvvEPK10MethodInfoPvPS4_
pwo:__ZN15dense_hashtableINSt3__24pairIK10KeyWrapperINS1_IP11Il2CppClassjEEES4_EES6_N6il2cpp8metadata14ArrayClassHashEN14dense_hash_mapIS6_S4_SB_NS6_14EqualsComparerINSA_17ArrayClassCompareEEENS0_9allocatorIS8_EEE9SelectKeyESF_SH_E6insertERKS8_
ojk:_DateTimeOffset__ctor_m1464148220
Wrh:_U3CShowU3Ec__AnonStorey1_U3CU3Em__0_m2340880019
dNf:__ZN22BaseUnityConnectClient38PrepareConfigRequestOnMainThreadStaticEPS_
ege:__ZN5physx18NpArticulationLink10clearForceENS_11PxForceMode4EnumE
lel:_ASCIIEncoding_GetString_m58523364
nUd:__ZN5physx2Gu30distanceSegmentTriangleSquaredERKNS_6PxVec3ES3_S3_S3_S3_PfS4_S4_
uln:_TlsStream_Flush_m3793197834
Afb:__ZN22LocalFileSystemHandler9MakeLocalER13FileEntryDatab
uMo:__ZN6il2cpp2vm8Profiler10AllocationEP12Il2CppObjectP11Il2CppClass
TDm:_Uri_IsHexEncoding_m3290929897
hWg:__ZL61Graphic_t1660335611_CustomAttributesCacheGenerator_m_MaterialP21CustomAttributesCache
Dia:__Z13FormatOrderedPKcz
fzi:_InternalEnumerator_1_System_Collections_IEnumerator_get_Current_m3925261124_AdjustorThunk
mjo:__ZN6il2cpp2vm8basepathEPKc
vLi:_InternalEnumerator_1_get_Current_m1506120701_AdjustorThunk
uFj:_Selectable_IsPressed_m907486548
clf:__ZN14SafeBinaryRead21TransferSTLStyleArrayI10vector_mapINSt3__24pairIttEEfN20TextRenderingPrivate8FontImpl14KerningCompareENS2_9allocatorINS3_IS4_fEEEEEEEvRT_17TransferMetaFlags
BZj:_TlsServerFinished__ctor_m1445633918
W8j:_NumberFormatter_FastIntegerToString_m390846811
lzj:__ZN21InterfaceFuncInvoker0IfE6InvokeEjP11Il2CppClassP12Il2CppObject
j4a:__ZN14CompressedMesh10GetQualityE15MeshCompression
R8b:__ZN25DeferredRenderLoopScratchD0Ev
SA:__ZN27AnimationLayerMixerPlayable14SetInputWeightEif
TZh:__Z83RuntimeInvoker_Void_t1185182177_RuntimeObject_Single_t1397266774_Single_t1397266774PFvvEPK10MethodInfoPvPS4_
Rjh:_PhysicsRaycaster_Raycast_m776323695
wdh:_TextContainer_GetAnchorPosition_m4045774284
my:__ZN7mecanim9animation17EvaluateHumanPoseERKNS0_18ClipMuscleConstantERKNS0_15ClipMuscleInputEPKfRKNS0_12MotionOutputERNS_5human9HumanPoseE
Arm:_Array_InternalArray__Insert_TisTMP_LinkInfo_t1092083476_m719690151_gshared
$so:_il2cpp_class_get_parent
aRf:__ZN21DownloadHandlerBufferD0Ev
jjc:__ZN15dense_hashtableINSt3__24pairIKiN4core17string_with_labelILi1EEEEEi18SInt32HashFunctionN14dense_hash_mapIiS5_S7_NS0_8equal_toIiEE13stl_allocatorIS6_L18MemLabelIdentifier1ELi16EEE9SelectKeyESA_SD_E9copy_fromERKSG_j
xbk:_CustomAttributeNamedArgument_GetHashCode_m2317130892
d9a:__ZN15ResourceManagerD0Ev
JDa:__ZN22CreateGpuProgramOutputD2Ev
E0d:__ZNK5physx3Cct15ObstacleContext14getNbObstaclesEv
Nyk:_Dictionary_2_Do_ICollectionCopyTo_TisInt64_t3736567304_m855156891_gshared
Lpd:__Z17UpdateSprites2TplIL27ParticleSystemCurveEvalMode2ELS0_3EEvfRK11MinMaxCurveS3_RK23ParticleSystemParticlesPf
oaf:__ZN5physx6shdfnd8PoolBaseINS_11NpAggregateENS0_19ReflectionAllocatorIS2_EEE12allocateSlabEv
Zgd:__Z25UpdateOrbitalAndRadialTplIL27ParticleSystemCurveEvalMode3ELS0_4ELS0_0EEvRK11MinMaxCurveS3_S3_S3_S3_S3_S3_R23ParticleSystemParticlesjjRKN4math8float3x3ERKNS6_7affineXERKNS6_7_float4E
F5k:_SHA1CryptoServiceProvider_Finalize_m1793183797
_7i:_AnimationCurve_get_keys_m1672862131
Lmm:_HashSet_1_System_Collections_Generic_ICollectionU3CTU3E_CopyTo_m408073502_gshared
Txe:__ZN5physx7NpScene26removeFromParticleBaseListERNS_14PxParticleBaseE
$Bn:_InflateBlocks_Process_m2809097491
ite:__ZN5physx2Sc9ClothCore23setSelfCollisionIndicesEPKjj
Pfb:__ZN12HandlerChain4OpenER13FileEntryData14FilePermission16FileAutoBehavior
Fom:_Array_InternalArray__ICollection_Add_TisPlayerLoopSystem_t105772105_m1930641144_gshared
Gdi:__Z72RuntimeInvoker_Void_t1185182177_Int32_t2950945753_RaycastHit_t1056001966PFvvEPK10MethodInfoPvPS4_
kmo:__ZN15dense_hashtableINSt3__24pairIK10KeyWrapperINS1_IPK10MethodInfoP11Il2CppClassEEEjEES9_17ReflectionMapHashIS8_EN14dense_hash_mapIS9_jSD_NS9_14EqualsComparerINS0_8equal_toIS8_EEEENS0_9allocatorISB_EEE9SelectKeyESI_SK_E6insertERKSB_
IM:__ZL55__ManagedRegistrationHelperFunction_AudioPlayableOutputPv
Trd:__ZN27PerformanceReportingManager29OnSceneLoadedAfterAwakeStaticEPS_iR18AwakeFromLoadQueueN19RuntimeSceneManager11LoadingModeE
ZXo:_GameController_SpawnBackgroundSpaceShip_m1444121968
KHk:_Array_SetValue_m394135409
OWm:__ZN28GenericInterfaceFuncInvoker2IiffE6InvokeEPK10MethodInfoP12Il2CppObjectff
Mba:__ZN14FileCacherReadD2Ev
Zbb:__ZN13RendererScene23UpdatePreviousFrameDataEii
pjj:_MonoBehaviour_StopCoroutine_m615723318
_sc:__Z50Register_UnityEngine_CullingGroup_FinalizerFailurev
_$l:_List_1_get_Item_m280817263_gshared
aoc:__ZN12ShaderErrors11ShaderErrorC2EOS0_
t9o:__ZNKSt3__221__basic_string_commonILb1EE20__throw_out_of_rangeEv
rRe:__ZN5physx10PxsCCDPair12updateShapesEv
Ego:_UpdatedEventHandler_Invoke_m1320302085
Lfh:_TextMeshProUGUI_UpdateMask_m1876478509
AAn:_Adler_Adler32_m2918808405
iU:__ZN9AudioClip23VirtualRedirectTransferER18StreamedBinaryReadILb0EE
EI:__ZN26AnimatorOverrideController23VirtualRedirectTransferER24GenerateTypeTreeTransfer
$5m:_List_1_AddEnumerable_m2724989594_gshared
Ite:__ZN5physx2Sc9ClothCore22removeCollisionCapsuleEj
R1h:__Z82RuntimeInvoker_Vector2_t2156229523_Vector2_t2156229523_RuntimeObject_RuntimeObjectPFvvEPK10MethodInfoPvPS4_
tRc:__Z70Register_UnityEngine_Playables_PlayableHandle_GetPlayableType_Injectedv
JNl:_Enumerator_get_Current_m2708222222_AdjustorThunk
k8d:__ZN5physx16PxsIslandManager25setArticulationLinkHandleEjPvRKNS_20PxsIslandManagerHookIjLj4294967295EEE
tk:_glCopyTexSubImage2D
qdd:__ZNK21RotationBySpeedModule6UpdateERK27ParticleSystemReadOnlyStateRK19ParticleSystemStateR23ParticleSystemParticlesRKN4math7_float4Ejj
NMm:_ReadOnlyCollection_1_System_Collections_IList_Insert_m1104620799_gshared
DOn:_UnitySynchronizationContext_ExecuteTasks_m1310741010
l4k:_RIPEMD160Managed_CompressFinal_m497690796
OKb:__ZN18ScreenManagerWebGL13SetShowCursorEb
LYb:__ZN13DrawImmediateC2ER9GfxDevice
hGa:__ZN18VertexChannelsInfoC2ERA12_K11ChannelInfo
cmk:_Convert_ToInt64_m2849840611
CDf:__ZN2UI13CanvasManager14GetRenderOrderEPKNS_6CanvasE
$he:__ZN5physx6shdfnd5ArrayIPNS_3Scb5ShapeENS0_15InlineAllocatorILj16ENS0_19ReflectionAllocatorIS4_EEEEE15growAndPushBackERKS4_
ltb:__Z18Transfer_BlittableI14SafeBinaryReadLb0E5RectTIfEEvRK29SerializationCommandArgumentsR31RuntimeSerializationCommandInfo
_8j:_NumberFormatter_NumberToString_m2562899600
Msf:_otv_u_C_x_Ox
XKd:__ZL44__ManagedRegistrationHelperFunction_ColliderPv
opb:__ZN18AsyncUploadManager19AsyncResourceUploadER9GfxDeviceii9TextureID
Iip:_emscripten_glGenVertexArrays__wrapper
Rrl:_Version_Clone_m1749041863
nSa:__ZN6prcoreL21CreateRemapAnyBlitterE13TextureFormatS0_
oWj:_RSAManaged_ExportParameters_m1754454264
bNc:__ZN17AnimationCurveTplIfE16StripInvalidKeysEv
qKk:_Boolean_Equals_m535526264_AdjustorThunk
MDf:__ZNK2UI6Canvas17GetSortingLayerIDEv
rOc:__ZL12HashLen0to16PKcj
Cyd:__ZN14Raycast2DQuery8RunQueryEb
qYa:__ZN8Renderer24SetupNewRendererForSceneEv
snl:_Type_internal_from_name_m1721940673
juo:_il2cpp_type_get_class_or_element_class
xRk:_Environment_get_TickCount_m2088073110
wki:_RemotingServices_GetMethodBaseFromName_m3194612939
G4f:_TMP_Text_set_tintAllSprites_m2515828743
O1c:__Z35Transfer_Blittable_FixedBufferFieldI8JSONReadtEvRK29SerializationCommandArgumentsR31RuntimeSerializationCommandInfo
P0e:__ZN5physx2Sc8ClothSim16addCollisionMeshEPKNS0_8ShapeSimE
QJc:__ZN14PlayableOutput6HandleEv
CZa:__ZNK6Sprite22GetTypeVirtualInternalEv
Kra:__ZN9Scripting11UnityEngine12Experimental9Playables22MaterialEffectPlayable9InitProxyEv
uo:FUNCTION_TABLE_iiiiiiiiiiiiii
vUh:__Z60RuntimeInvoker_RuntimeObject_Int16_t2552820387_RuntimeObjectPFvvEPK10MethodInfoPvPS4_
R5e:__ZN5physx6shdfnd5ArrayIPKNS_10PxsCCDBodyENS0_19ReflectionAllocatorIS4_EEE8recreateEj
Vhe:__ZN5physx6shdfnd4sortINS_2Cm19PreallocatingRegionENS0_4LessIS3_EENS0_19ReflectionAllocatorIS3_EEEEvPT_jRKT0_RKT1_j
Rgk:_SyncQueue_ToArray_m1004054973
Dtf:_UNITY_tt_get_cmap_info
K1j:_SslClientStream_RaiseServerCertificateValidation_m3477149273
$zb:__Z29Transfer_Blittable_ArrayFieldI24GenerateTypeTreeTransfer5RectTIiEEvRT_R9ArrayInfoRK23StaticTransferFieldInfo
GIa:__ZN16ReflectionProbes8ScheduleEN18ReflectionProbeJob7JobTypeEP15ReflectionProbei
FZj:_ClientSessionInfo_KeepAlive_m1020179566
Z1o:_JSONNode_op_Implicit_m15872920
UWi:__ZN28GenericInterfaceFuncInvoker5IP26X509Certificate_t713131622P12Il2CppObjectP8String_tP37X509CertificateCollection_t3399372417S1_P24StringU5BU5D_t1281789340E6InvokeEPK10MethodInfoS3_S3_S5_S7_S1_S9_
Uca:__ZN16MessageForwarder13HandleMessageEPviR11MessageData
ohb:__Z18IsDirectoryCreatedRKN4core12basic_stringIcNS_20StringStorageDefaultIcEEEE
g8k:_String_FormatHelper_m3913915042
IBf:__ZN2UI13CanvasManagerD2Ev
Hqd:__ZZN14ParticleSystem15InitializeClassEvEN52PreLateUpdateParticleSystemBeginUpdateAllRegistrator7ForwardEv
Q9n:__ZN15dense_hashtableINSt3__24pairIK10KeyWrapperIPKcEP11Il2CppClassEES5_N6il2cpp5utils11StringUtils12StringHasherIS4_EEN14dense_hash_mapIS5_S8_SE_NS5_14EqualsComparerINSB_13VmStringUtils21CaseSensitiveComparerEEENS0_9allocatorIS9_EEE9SelectKeyESJ_SL_E15set_deleted_keyERKS9_
vbk:_CustomAttributeData_GetHashCode_m3727773664
unf:_UNITY_FT_GlyphLoader_Done
eia:__ZNSt3__23mapIiN11TypeManager18TypeCallbackStructENS_4lessIiEENS_9allocatorINS_4pairIKiS2_EEEEEixERS7_
EKc:__ZN9Polygon2D16CheckConsistencyEv
Krb:__ZNK17InstancingBatcher15RenderInstancesERK19ShaderPropertySheetRKNS_22RenderInstancesConfigsERK11MeshBuffersRK16DrawBuffersRange16VertexInputMasks
Htk:_StackTrace_get_FrameCount_m344690939
usn:_TMP_XmlTagStack_1_Push_m1847519558_gshared
N1k:_FileStream_BeginRead_m2419864669
x4i:_VertexZoom_Awake_m1446594597
$Ue:__ZN5physx18ComputeSortedListsEPNS_2Cm10BitMapBaseINS_6shdfnd9AllocatorEEEjjPKjPPNS_8SapBox1DES7_PjSB_jRKNS_2Gu4AxesESB_RjSB_SG_RbSH_
JHj:_Array_get_swapper_TisRuntimeObject_m1378919517_gshared
Duf:_tt_cmap14_char_var_index
R1n:_Physics2D_Raycast_m1700114981
Zvj:_Selectable_OnPointerDown_m1086067264
Iyf:_psh_globals_new
orh:_Dropdown_SetupTemplate_m628218778
hjl:_Thread_GetCompressedStack_m2923422412
Phj:_Matrix4x4_MultiplyPoint3x4_m4145063176
b1i:_X509BasicConstraintsExtension_ToString_m1809935297
ulb:__ZN9GfxDevice20SetMaxBufferedFramesEi
xof:__ZNK20TextRenderingPrivate8TextMesh22GetTypeVirtualInternalEv
Izn:_TweenRunner_1_StartTween_m1055628540_gshared
ium:_Array_qsort_TisUIVertex_t4057497605_TisUIVertex_t4057497605_m678708019_gshared
htd:__ZN10Collider2D19WakeAllBodyContactsEv
Gzk:_GameObject_GetComponents_TisRuntimeObject_m1246177135_gshared
N4j:_MethodAccessException__ctor_m3542088436
Ngc:__Z23ConvertIntegerToTypePtrIsEbPvR14SafeBinaryRead
ev:__ZN9Scripting11UnityEngine10Animations26AnimatorControllerPlayable9InitProxyEv
Wud:__ZN12b2MouseJoint11ShiftOriginERK6b2Vec2
ide:__ZNK5physx14NpArticulation17releaseDriveCacheERNS_24PxArticulationDriveCacheE
W8n:__ZN6il2cpp2vm5Class12HasAttributeEP11Il2CppClassS3_
mNf:__ZN11UnityEngine7Connect13ConfigHandler13ConfigChangedERKN4core12basic_stringIcNS2_20StringStorageDefaultIcEEEEb
Uch:_MaterialReferenceManager_TryGetSpriteAssetInternal_m3148505359
aim:_EqualityComparer_1_System_Collections_IEqualityComparer_GetHashCode_m2230215241_gshared
Qyg:__ZL91Quaternion_t2301928331_CustomAttributesCacheGenerator_Quaternion_FromToRotation_m3769621427P21CustomAttributesCache
oZg:__ZL60ContentSizeFitter_t3850442145_CustomAttributesCacheGeneratorP21CustomAttributesCache
bRk:_Hashtable_Contains_m2145146412
KAh:_MonoGenericCMethod__ctor_m1374831274
wla:__ZN6prcoreL29inner_stretch_rgb565_bilinearEPKNS_9InnerInfoE
jte:__ZNK5physx2Sc9ClothCore25getSelfCollisionStiffnessEv
Fbd:__Z13UpdateSizeTplIL27ParticleSystemCurveEvalMode3EEvRK11MinMaxCurveR23ParticleSystemParticlesbjj
UFo:__ZN6il2cpp2vm12GenericClass12SetupMethodsEP11Il2CppClass
tFa:__Z26TransformVerticesInnerLoopILb0ELb0ELb1EEvPhRK10Matrix4x4fRK10Matrix3x3fjPKhiS8_ii25GfxTransformVerticesFlagsj
TCn:_ZlibBaseStream__ReadAndValidateGzipHeader_m3819338223
lYk:_Int32_FindCurrency_m3541026887
Gym:_Interval_CompareTo_m3282557545
Qjp:_pthread_cond_wait__wrapper
Y7b:__ZNK14RenderSettings19GetFlatAmbientColorEv
OEa:__ZN8DrawUtil24DrawMeshRawFromNodeQueueERK15RenderNodeQueuej16VertexInputMasksi
W7a:__ZN18StreamedBinaryReadILb0EE21TransferSTLStyleArrayI10vector_mapIPKN5Unity4TypeE7Hash128NSt3__24lessIS6_EENS8_9allocatorINS8_4pairIS6_S7_EEEEEEEvRT_17TransferMetaFlags
PC:__ZNK27StateMachineBehaviourPlayer15IsSenderEnabledEv
Nmo:__ZN6il2cpp2gc19AppendOnlyGCHashMapINSt3__24pairIPK11Il2CppImageP11Il2CppClassEEP22Il2CppReflectionModule17ReflectionMapHashIS9_ENS2_8equal_toIS9_EEE11TryGetValueERKS9_PSB_
ypn:_RijndaelManagedTransform_TransformBlock_m1610137419
tzl:_Enumerator_System_Collections_IDictionaryEnumerator_get_Entry_m1355283127_gshared
qyc:__Z40Register_UnityEngine_Transform_SetParentv
j5i:_TMP_TextEventHandler_Awake_m3560580738
ERa:__ZN14Texture2DArray17UploadToGfxDeviceEv
WEn:_Event_set_displayIndex_m1342258734
SP:__Z14FMODMemoryFreePvjPKc
Hkh:_PointerEventData_ToString_m238029461
Dra:__ZN9Scripting11UnityEngine12Experimental10PlayerLoop11FixedUpdate12CleanupProxyEv
OXk:_Int16_System_IConvertible_ToType_m3672347013
SQn:_NetFxCoreExtensions_GetMethodInfo_m444570327
Bij:_Mesh_SetNormals_m2521889643
i1f:_TMP_Settings_get_missingGlyphCharacter_m3560139616
Bvf:_tt_cmap0_validate
Vpf:_cf2_glyphpath_moveTo
XWo:_EnemyScript_Start_m2844579575
UKe:__ZN5physx3Scb4Body9syncStateEv
DGd:__ZNK13BoxCollider2D22GetTypeVirtualInternalEv
gQc:__Z51Register_UnityEngine_Texture_get_texelSize_Injectedv
vrj:_StackTraceUtility_SetProjectFolder_m830524047
she:__ZN5physx12PxsRigidBody23updatePoseDependenciesVERNS_10PxsContextE
nz:__ZN7mecanim23TransformValueArrayLoopEiiiRKN4math4trsXES3_RNS_10ValueArrayEf
UZj:_ClientSessionInfo_Finalize_m2165787049
aYc:__ZN5IMGUI14GUIWindowStateD2Ev
RYj:_ClientContext_Clear_m1774063253
_Lc:__ZN4Mesh17SetIndicesComplexEPKvjj16GfxPrimitiveTypeij
Lod:__Z20UpdateWholeSheet2TplIL27ParticleSystemCurveEvalMode1ELS0_0EEvfRK11MinMaxCurveS3_RK23ParticleSystemParticlesPf
P5f:_TMP_Text_get_mappingUvLineOffset_m762916951
xpk:_DateTime_AddSeconds_m332574389_AdjustorThunk
UKk:_Byte_System_IConvertible_ToSByte_m1869482168
Rrh:_U3CDelayedDestroyDropdownListU3Ec__Iterator0_MoveNext_m213723240
NMb:__Z21PlayerStartFirstSceneb
oG:__ZN7mecanim5human10RetargetToEPKNS0_5HumanEPKNS0_9HumanPoseES6_RKN4math4trsXEPS4_PNS_8skeleton13SkeletonPoseTIS8_EESF_
gz:__ZN7mecanim9animation8SeekClipERKNS0_12StreamedClipERNS0_18StreamedClipMemoryEf
u7i:_Request_Send_m3316085126
Jej:_GameObject_Internal_AddComponentWithType_m3797731663
dn:_emscripten_glIsTexture
y6h:__Z93RuntimeInvoker_Single_t1397266774_Vector3_t3722313464_Vector3_t3722313464_Vector3_t3722313464PFvvEPK10MethodInfoPvPS4_
Kl:_emscripten_glHint
fIn:_Check_SourceAndPredicate_m2332465641
IPg:__ZL74ContactFilter2D_t3805203441_CustomAttributesCacheGenerator_useOutsideDepthP21CustomAttributesCache
rxf:_ft_var_readpackeddeltas
R4i:_U3CWarpTextU3Ec__Iterator0_MoveNext_m859178164
hDb:__Z35Transfer_Blittable_FixedBufferFieldI18StreamedBinaryReadILb1EEtEvRK29SerializationCommandArgumentsR31RuntimeSerializationCommandInfo
Cpl:_UInt32_System_IConvertible_ToInt64_m2261037378
gn:_SDL_UpperBlit
f1l:_List_1_System_Collections_IList_Add_m49923158_gshared
BIa:__Z35GetTextureDecodeValuesWithIntensity16TextureUsageMode17TextureColorSpace10ColorSpacef
aBm:_Parser_ParseRepetitionBounds_m1246581246
IJj:_Array_InternalArray__ICollection_Remove_TisChar_t3634460470_m4143749387_gshared
ZYb:__ZN15dense_hashtableINSt3__24pairIK9TextureIDiEES2_14GfxGenericHashIS2_EN14GfxDoubleCacheIS2_iS6_NS0_8equal_toIS2_EEN31GfxDoubleCacheConcurrencyPolicy11LocklessGetE42GfxDoubleCacheDefaultEmptyDeletedGeneratorIS2_EE9SelectKeyES9_13stl_allocatorIS4_L18MemLabelIdentifier24ELi16EEE14squash_deletedEv
yAc:__Z13RegisterClassI14Texture2DArrayEvPKc
WYf:_TMP_InputField_get_readOnly_m494535143
WWe:__ZN5physx14PxsAABBManager21processAggregatePairsEPKNS_19AggregateSortedDataE
Sud:__ZNK12b2MouseJoint10GetAnchorAEv
ZCb:__Z18Transfer_BlittableI18StreamedBinaryReadILb1EELb0E9BoundsIntEvRK29SerializationCommandArgumentsR31RuntimeSerializationCommandInfo
$Sk:_GregorianCalendar__ctor_m979779718
j1j:_SslClientStream__ctor_m2402546929
CJb:__ZN14SafeBinaryRead20OverrideRootTypeNameEPKc
nTi:_DictionaryNodeEnumerator_get_Entry_m2309234501
Qba:__ZN14FileCacherRead16UnlockCacheBlockEj
UUf:_TMP_Text_set_extraPadding_m286773043
dJ:__ZN26AnimatorOverrideController8TransferI24GenerateTypeTreeTransferEEvRT_
_5:__ZN10InstancingL21OnGraphicsCapsChangedEv
oDg:__ZL101SystemInfo_t3561985952_CustomAttributesCacheGenerator_SystemInfo_GetOperatingSystemFamily_m1440411909P21CustomAttributesCache
nll:_WaitHandle_get_Handle_m3260446580
qZl:_Enumerator_VerifyState_m1745883925_AdjustorThunk
wd:_emscripten_glUniform1f
Puo:__ZN6il2cpp2vm6Thread28GetThreadStaticDataForThreadEiP12Il2CppThread
a7c:__ZN14SafeBinaryRead21TransferSTLStyleArrayI13dynamic_arrayIN8UVModule10SpriteDataELj0EEEEvRT_17TransferMetaFlags
fof:__Z20ParseImageParametersR11UTF16StringRiRN20TextRenderingPrivate16TextFormatChangeE
dZg:__ZL55CanvasScaler_t2767979955_CustomAttributesCacheGeneratorP21CustomAttributesCache
grl:_UIntPtr_ToString_m984583492_AdjustorThunk
Bd:_emscripten_glUniform1i
wyb:__Z18Transfer_BlittableI24GenerateTypeTreeTransferLb1EN4math12int3_storageEEvRK29SerializationCommandArgumentsR31RuntimeSerializationCommandInfo
A4e:__ZN5physx2Sc19ShapeInstancePairLL23postIslandGenSecondPassEv
rMd:__ZN14PhysicsManager23VirtualRedirectTransferER19StreamedBinaryWriteILb0EE
Jfh:_TextMeshProUGUI_get_maskOffset_m421670010
q_:__ZN11UnityEngine15CloudWebService16SessionContainer20RestoreSessionHeaderERKN4core12basic_stringIcNS2_20StringStorageDefaultIcEEEES8_RNS0_13SessionHeaderE
iQe:__ZN5physx2Sq16BucketPrunerCore12updateObjectERKNS_9PxBounds3ERKNS0_13PrunerPayloadE
N3e:__ZN5physx18PxsDynamicsContext23atomIntegrationParallelEfPKPNS_11PxsBodyCoreEPKPNS_12PxsRigidBodyEjPKNS_2Cm13SpatialVectorEPNS_13PxcSolverBodyEPNS_17PxcSolverBodyDataEPSA_RjSI_RNS_10PxBaseTaskE
$v:__ZN11UnityEngine9Animation27CreateAvatarBindingConstantER9TransformPKN7mecanim9animation14AvatarConstantERNS3_6memory9AllocatorE
KQh:__Z151RuntimeInvoker_RuntimeObject_Int32_t2950945753_RuntimeObject_ObjectU5BU5DU26_t712384779_RuntimeObject_RuntimeObject_RuntimeObject_ObjectU26_t2146539884PFvvEPK10MethodInfoPvPS4_
ZHf:__ZN8JSONRead19TransferSTLStyleMapINSt3__23mapIN4core12basic_stringIcNS3_20StringStorageDefaultIcEEEEN11UnityEngine9Analytics16LimitEventConfigENS1_4lessIS7_EE13stl_allocatorINS1_4pairIKS7_SA_EEL18MemLabelIdentifier6ELi16EEEEEEvRT_17TransferMetaFlags
rPc:__ZN9BlobWriteC2ER13dynamic_arrayIhLj16EE24TransferInstructionFlags19BuildTargetPlatform
Y9:__ZN14MessageHandler3GetEv
Shg:__ZL70ReliabilityContractAttribute_t502331440_CustomAttributesCacheGeneratorP21CustomAttributesCache
sej:_SupportedRenderingFeatures_FallbackMixedLightingModeByRef_m3859171964
Qd:_emscripten_glAttachShader
Cqc:__Z16tesedgeIntersectP10TESSvertexS0_S0_S0_S0_
_3:__Z40DebugStringToFilePostprocessedStacktraceRK21DebugStringToFileData
rlc:__ZNSt3__26vectorIN4core12basic_stringIcNS1_20StringStorageDefaultIcEEEENS_9allocatorIS5_EEE6assignIPS5_EENS_9enable_ifIXaasr21__is_forward_iteratorIT_EE5valuesr16is_constructibleIS5_NS_15iterator_traitsISC_E9referenceEEE5valueEvE4typeESC_SC_
o_d:__ZN5physx2Gu19GetRaycastFuncTableEv
TJn:_UploadHandler_Dispose_m3057340132
a4i:_VertexShakeA_Start_m1684282329
EXa:__ZThn32_N8Renderer15AddAsRenderNodeER15RenderNodeQueueRK20DeprecatedSourceData
vVb:__ZN13dynamic_arrayIN18GlslGpuProgramGLES9GLProgramELj0EE6insertEPS1_jRKS1_
Pmk:_Convert_ToString_m2142825503
Usb:__Z18Transfer_BlittableI14SafeBinaryReadLb0E11QuaternionfEvRK29SerializationCommandArgumentsR31RuntimeSerializationCommandInfo
AGd:__ZN13BoxCollider2D16CheckConsistencyEv
s4e:__ZN5physx17EdgeChangeManager23cleanupBrokenEdgeEventsEPKNS_4EdgeE
qGb:__Z18Transfer_BlittableI18StreamedBinaryReadILb0EELb1E12PropertyNameEvRK29SerializationCommandArgumentsR31RuntimeSerializationCommandInfo
I3:_tlsf_walk_heap
zQh:__Z49RuntimeInvoker_Void_t1185182177_OpCode_t123070264PFvvEPK10MethodInfoPvPS4_
g3d:__ZN5physx2Sc35ParticleElementRbElementInteraction7destroyEbj
Cjo:__ZN6il2cpp2vm7Runtime6InvokeEPK10MethodInfoPvPS5_PP15Il2CppException
oMg:__ZL59AnimatorClipInfo_t3156717155_CustomAttributesCacheGeneratorP21CustomAttributesCache
tnk:_Convert_ToUInt32_m3592050311
Ab:invoke_vif
uzk:_Component_GetComponents_TisRuntimeObject_m2416546752_gshared
Bb:invoke_vid
Wzf:__Z38Register_UnityEngine_TextMesh_get_fontv
Db:invoke_vii
X0b:__ZNK12ImageFilters8DoRenderER17ShaderPassContextP13RenderTextureS3_RKNSt3__26vectorI11ImageFilterNS4_9allocatorIS6_EEEE
lJe:__ZN5physx13NpVolumeCacheD2Ev
g7f:_TMP_Text_SetVertexColorGradient_m1499765483
Iwa:__ZN12TLSAllocatorI14StackAllocatorE16ThreadInitializeEP13BaseAllocator
ZRh:__Z82RuntimeInvoker_Boolean_t97287965_SByte_t1669577662_RuntimeObject_SByte_t1669577662PFvvEPK10MethodInfoPvPS4_
vWi:_IPEndPoint_Serialize_m504081642
Flb:__ZN9GfxDevice32UpdateStereoViewProjectionMatrixE21MonoOrStereoscopicEye
n1e:__ZThn8_N5physx2Sc35ParticleElementRbElementInteraction12onDeactivateEj
I0:__Z29GetCloudWebServicesModuleSpecv
NEf:__Z41CanvasRenderer_CUSTOM_DisableRectClippingP12Il2CppObject
Z5j:_MonoType_GetConstructorImpl_m441167626
G4o:_U3CStartU3Ec__Iterator0_Reset_m816692654
eTe:__ZN5physx16PxsThreadContextC2EPNS_10PxsContextE
vma:__ZL45__ManagedRegistrationHelperFunction_CoroutinePv
Qen:_Collection_1_IsFixedSize_m3709118201_gshared
Sjb:__ZN25SingleBlockMemoryFileDataD0Ev
ZL:__ZNSt3__26vectorI14ConstantStringNS_9allocatorIS1_EEE6assignINS_11__wrap_iterIPS1_EEEENS_9enable_ifIXaasr21__is_forward_iteratorIT_EE5valuesr16is_constructibleIS1_NS_15iterator_traitsISA_E9referenceEEE5valueEvE4typeESA_SA_
pWd:__ZN5physx3Cct10Controller4moveERNS0_11SweptVolumeERKNS_6PxVec3EffRKNS_19PxControllerFiltersEPKNS_17PxObstacleContextEb
l_:__ZN11UnityEngine15CloudWebService16SessionContainer21ConvertFromFolderTimeERKN4core12basic_stringIcNS2_20StringStorageDefaultIcEEEEPjPt
Wab:__Z15UnloadGameScenev
Eub:__ZNSt3__26vectorI8GUIStyle13stl_allocatorIS1_L18MemLabelIdentifier1ELi16EEE7reserveEj
Exo:__ZN6il2cpp6icalls8mscorlib6System9Threading6Thread27GetSerializedCurrentCultureEP12Il2CppThread
p_j:_Context_set_ReadSequenceNumber_m2154909392
tpn:_RijndaelTransform_SubByte_m3037693507
uom:_Array_InternalArray__ICollection_Add_TisTMP_LinkInfo_t1092083476_m2596765647_gshared
yCc:__Z31CalculateHierarchyTransformType23TransformAccessReadOnly
sP:__ZN4FMOD8ChannelI11setPositionEjj
zfj:_Input_INTERNAL_CALL_GetTouch_m3481893561
JOo:_GC_set_fl_marks
S9d:__ZN5physx6shdfnd8PoolBaseINS_2Sc12SimStateDataENS0_19ReflectionAllocatorIS3_EEE17releaseEmptySlabsEv
Quh:_Image__ctor_m2551076292
Ilb:__ZN9GfxDevice17SetStereoViewportE15StereoscopicEyeRK5RectTIiE
YAn:_Tree_DistanceCode_m3077210417
Wha:__ZN17BaseObjectManager13StaticDestroyEPv
B2:__GLOBAL__sub_I_Runtime_Graphics_Mesh_1_cpp
och:_KerningTable_RemoveKerningPair_m3737762598
Pzd:__ZN27b2UpdateTriggerContactsTask8FinalizeEv
QQd:__ZN5physx2Gu22closestPtPointTriangleEPNS_6shdfnd3aos5Vec3VES4_S4_Rj
aV:__ZN12AudioManager14UpdateListenerERK8Vector3fS2_S2_S2_
Pje:__ZN5physx2Cm8PtrTableC2Ev
WPn:_Vector3_get_forward_m3100859705
uN:__ZN4FMOD6Reverb13setPropertiesEPK22FMOD_REVERB_PROPERTIES
J2b:__ZN9DepthPass13PrepareSubsetEjRK10RenderNodeifRK17ShaderReplaceData
oWe:__ZN5physx16PxsBroadPhaseMBP6updateEjjRKNS_23PxcBroadPhaseUpdateDataEPNS_10PxBaseTaskE
Dne:__ZN5physx9NpPhysics18createRigidDynamicERKNS_11PxTransformE
G4d:__ZN5physx6shdfnd5ArrayIPvNS0_19ReflectionAllocatorINS_2Sc18TriggerInteractionEEEE15growAndPushBackERKS2_
F5f:_TMP_Text_get_isOrthographic_m424304365
hkc:__ZN9ShaderLab20SerializedSubProgram16TextureParameter8TransferI14SafeBinaryReadEEvRT_
rtf:_otv_BaseCoord_validate
jMc:__Z35SetMeshComponentFromArrayFromScriptR4Mesh30InternalScriptingShaderChannel34InternalScriptingVertexChannelTypei17ScriptingArrayPtri
Otc:__Z18ExtractTagThrowingR11ICallString
ZRj:_Array_InternalArray__ICollection_Add_TisCustomAttributeNamedArgument_t287865710_m4157175270_gshared
rTd:__ZN5physx2Gu17intersectRayAABB2ERKNS_6shdfnd3aos5Vec3VES5_S5_S5_RKNS2_6FloatVERS6_S9_
os:__ZN4core20StringStorageDefaultIcE6assignEPKcj
Iql:_UInt64_System_IConvertible_ToUInt64_m2135047981_AdjustorThunk
Hoe:__ZNK5physx7NpShape17getSphereGeometryERNS_16PxSphereGeometryE
hTj:_BigInteger_ModPow_m3776562770
WZd:__ZL18intersectAnyVsMeshILi1EEbPKN5physx2Gu6SphereEPKNS1_7CapsuleEPKNS1_3BoxERKNS1_13RTreeMidphaseERKNS0_11PxTransformERKNS0_11PxMeshScaleEP14LimitedResults
S5f:_TMP_Text_set_renderMode_m3516136471
iMf:__ZNSt3__26__treeINS_12__value_typeIN4core12basic_stringIcNS2_20StringStorageDefaultIcEEEE14CallbackArray3IRKS6_R8JSONReadbEEENS_19__map_value_compareIS6_SD_NS_4lessIS6_EELb1EEE13stl_allocatorISD_L18MemLabelIdentifier6ELi16EEE25__emplace_unique_key_argsIS6_JNS_4pairIS6_SC_EEEEENSN_INS_15__tree_iteratorISD_PNS_11__tree_nodeISD_PvEEiEEbEERKT_DpOT0_
YEc:__ZN15SharedLightDataC2E10MemLabelId
nNk:_ArrayList_IndexOf_m305368842
_7d:__ZN5physx6shdfnd5ArrayIPvNS0_15InlineAllocatorILj256ENS0_19ReflectionAllocatorINS_2Cm5BlockIhLj128EEEEEEEE15growAndPushBackERKS2_
Jcc:__ZN6Camera6SetFarEf
fpi:_FormatterConverter_ToBoolean_m1680758923
gdp:dynCall_viiiiiiii
HYo:_U3CSpawnEnemyType2WaveU3Ec__Iterator7_Reset_m444857884
LJj:_Array_InternalArray__ICollection_Remove_TisKeyValuePair_2_t1383673463_m2503620538_gshared
gla:__ZN6prcoreL12RemapGenericI17TexFormatABGR888817TexFormatARGB8888EEvPKNS_9InnerInfoE
fxa:__ZN11GameManager17MainThreadCleanupEv
Vfd:__Z25UpdateOrbitalAndRadialTplIL27ParticleSystemCurveEvalMode1ELS0_4ELS0_2EEvRK11MinMaxCurveS3_S3_S3_S3_S3_S3_R23ParticleSystemParticlesjjRKN4math8float3x3ERKNS6_7affineXERKNS6_7_float4E
uEf:__Z50Register_UnityEngine_UISystemProfilerApi_EndSamplev
M9o:__ZNKSt3__212basic_stringIcNS_11char_traitsIcEENS_9allocatorIcEEE4findEcj
y_f:_TMP_InputField_PageDownCharacterPosition_m1882261777
K1n:_Physics2D_Raycast_m2082490717
hDd:__ZN10Collider2D12AddToManagerEv
Rad:__ZN14ParticleSystem10ResetSeedsEv
hqi:_SerializationCallbacks_GetSerializationCallbacks_m2939476649
ire:__ZNK5physx7NpCloth24getParticleAccelerationsEPNS_6PxVec4E
dwf:_UNITY_tt_slot_init
r_b:__ZZ23InitPlayerLoopCallbacksvEN41PostLateUpdateUpdateResolutionRegistrator7ForwardEv
fIb:__Z25scripting_array_class_get17ScriptingClassPtrj
VT:__ZNK10SampleClip22GetTypeVirtualInternalEv
Amb:__ZN9GfxDevice20DestroyRenderSurfaceER12ObjectHandleI17RenderSurface_TagP17RenderSurfaceBaseE
Hhk:_Stack__ctor_m2602729586
ixc:__Z35Resources_CUSTOM_GetBuiltinResourceP12Il2CppObjectP12Il2CppString
DIk:_Array_slow_swapper_m4116724811
Bbc:__ZN12_GLOBAL__N_15qAsinEff
xCi:_InternalEnumerator_1_System_Collections_IEnumerator_get_Current_m2629988057_AdjustorThunk
Jwa:__ZN12TLSAllocatorI14StackAllocatorE13ThreadCleanupEv
Drj:_SystemInfo_GetOperatingSystem_m2857477099
z0a:__ZN14SafeBinaryRead21TransferSTLStyleArrayI13dynamic_arrayI8Vector4fLj0EEEEvRT_17TransferMetaFlags
Brl:_ValueType_InternalEquals_m1384040357
lMo:__ZThn4_N6il2cpp2vm13ComObjectBase16MarshalInterfaceEP13Il2CppIStreamRK10Il2CppGuidPvjS7_j
Zhc:__Z27FindActiveTransformWithPathPKc
FSm:_ReadOnlyCollection_1_System_Collections_IList_Remove_m4169110229_gshared
gpl:_UInt16_ToString_m3020002356
ZEe:__ZN5physx16PxsIslandManager14setEdgeRigidCMERKNS_20PxsIslandManagerHookIjLj4294967295EEEPNS_17PxsContactManagerE
Qyj:_LayoutRebuilder_LayoutComplete_m68578143
R5k:_SHA1Internal_Initialize_m499810128
N8e:__ZN5physx2Gu11HeightField7releaseEv
Q4b:__ZNK6Camera7GetNearEv
eek:_GenericTypeParameterBuilder_GetConstructorImpl_m863833310
AEl:_Enumerator_get_Current_m3687673883_AdjustorThunk
bDf:__ZN2UI13CanvasManager8SortListEv
cVb:__ZN7ApiGLES11UnmapBufferEjN2gl12BufferTargetE
CMo:__ZN6il2cpp5utilsL24Utf32CharToSurrogatePairEjRA2_Ds
sUa:__Z25GetNextAllowedTextureSizeib13TextureFormat
YKb:__ZN20LocalFileSystemWebGL4CopyER13FileEntryDataS1_
r1:__ZN19CloudServiceHandler6RetainEv
RXo:_GameController_SpawnPowerUpWaves_m3905404505
TNm:_ReadOnlyCollection_1_System_Collections_IList_IndexOf_m198887188_gshared
PBk:_Component_GetComponent_TisRuntimeObject_m2906321015_gshared
$Vc:__Z36Event_CUSTOM_Internal_SetNativeEventPv
Thl:_UTF32Encoding_GetBytes_m3180303867
Q0e:__ZN5physx2Sc8ClothSim23addCollisionHeightfieldEPKNS0_8ShapeSimE
W7l:_List_1_System_Collections_IList_Add_m1651178974_gshared
_cb:__Z34scripting_liveness_calculation_endPv
zLk:_Char_GetDataTablePointers_m754571594
TIo:__ZN6il2cpp2os6ThreadC2Ev
FEl:_KeyCollection_System_Collections_Generic_ICollectionU3CTKeyU3E_Remove_m4129843823_gshared
wFc:__ZN28ReflectionProbeAnchorManager7CleanupEv
H2m:_List_1_set_Capacity_m725662605_gshared
brk:_DateTimeOffset_get_UtcDateTime_m1021718282_AdjustorThunk
OCn:_ZlibBaseStream_Close_m3571334171
By:__ZN21AnimationClipPlayable22ProcessAnimationNoClipEPK35AnimationPlayableEvaluationConstantPK32AnimationPlayableEvaluationInputP33AnimationPlayableEvaluationOutput
KSi:_HybridDictionary_get_Count_m1166314536
sAn:_CRC32_get_Crc32Result_m2869070385
pln:_TlsStream_Write_m1412844442
q1c:__Z18Transfer_BlittableI8JSONReadLb0E8Vector3fEvRK29SerializationCommandArgumentsR31RuntimeSerializationCommandInfo
Chj:_Matrix4x4__ctor_m53065545_AdjustorThunk
quo:__ZN6il2cpp2vm6Thread6DetachEP12Il2CppThread
Sln:_GeneralNames_get_DNSNames_m3788548987
Xyf:_Render_Single_Pass
Oma:__ZL56__ManagedRegistrationHelperFunction_TextureMixerPlayablePv
nw:__ZN7mecanim8skeleton30SkeletonBuildReverseIndexArrayEPiPKiPKNS0_8SkeletonES6_
whd:__Z22UpdateOrbitalOffsetTplIL27ParticleSystemCurveEvalMode0ELS0_0EEvRK11MinMaxCurveS3_S3_S3_S3_S3_S3_R23ParticleSystemParticlesjjRKN4math8float3x3ERKNS6_7affineXERKNS6_7_float4E
wWc:__Z19GetGUIBlendMaterialv
B4j:_Math_Round_m3018379666
IJo:__ZN6il2cpp2os10ThreadImpl5SleepEjb
JPi:_Comparer_1__cctor_m269133611_gshared
IQc:__Z53Register_UnityEngine_Quaternion_LookRotation_Injectedv
CVe:__ZN5physx14SapPairManager12shrinkMemoryEv
oBn:_DeflateManager_Initialize_m2148547130
ZMf:__ZN22BaseUnityConnectClient12IsNewSessionEv
GNg:__ZL82LayoutCache_t78309876_CustomAttributesCacheGenerator_LayoutCache__ctor_m3885940174P21CustomAttributesCache
Ycf:__ZN5physx6shdfnd8internal7median3IjKNS_19SortBoundsPredicateEEEvPT_iiRT0_
xLj:_PlayableHandle_IsPlayableOfType_TisRuntimeObject_m503495943_AdjustorThunk
iip:_glBindSampler__wrapper
zZb:__ZNSt3__26vectorIN20ArchiveStorageHeader12StorageBlockE13stl_allocatorIS2_L18MemLabelIdentifier55ELi16EEE8__appendEj
xg:_emscripten_set_mouseup_callback
Uic:__Z14resize_trimmedINSt3__26vectorIN9ShaderLab14SerializedPassENS0_9allocatorIS3_EEEEEvRT_j
shj:_Mathf_Clamp_m3350697880
kSh:__Z165RuntimeInvoker_Void_t1185182177_UInt32U26_t3735378166_Int32_t2950945753_UInt32U26_t3735378166_Int32_t2950945753_Int32_t2950945753_Int32_t2950945753_Int32_t2950945753PFvvEPK10MethodInfoPvPS4_
d5l:_List_1_System_Collections_IList_Remove_m3140917266_gshared
Y4h:__Z73RuntimeInvoker_Color32_t2600501292_Color32_t2600501292_Single_t1397266774PFvvEPK10MethodInfoPvPS4_
LHe:__ZN5physx7NpScene22removeBroadPhaseRegionEj
Z4d:__ZL34GeomOverlapCallback_CapsuleCapsuleRKN5physx10PxGeometryERKNS_11PxTransformES2_S5_PNS_2Gu12TriggerCacheE
RKb:__ZNK18ScreenManagerWebGL8GetWidthEv
TGe:__ZNK5physx7NpScene23getFilterShaderDataSizeEv
iIl:_Transform_1_Invoke_m1211838035_gshared
Rll:_TimeSpan_get_TotalHours_m306507525_AdjustorThunk
ST:__ZN10SampleClipD2Ev
Pqn:_Predicate_1_Invoke_m2389850270_gshared
scb:__Z13GetGISettingsv
Kqc:__ZN19SpriteMeshGenerator7contourERNSt3__26vectorINS_6vertexENS0_9allocatorIS2_EEEERiRf
b1:__ZN11UnityEngine15CloudWebService20WebRequestRestClientC2Ev
Erf:_cff_cmap_unicode_init
Bzf:__Z31Font_CUSTOM_Internal_CreateFontP12Il2CppObjectP12Il2CppString
bma:__ZL60__ManagedRegistrationHelperFunction_AssemblyIsEditorAssemblyPv
tdn:_Collection_1_IsValidItem_m3080586124_gshared
zoh:_ClipperRegistry_Register_m2407166513
l8o:_readlink
foo:__ZN15dense_hashtableINSt3__24pairIK10KeyWrapperINS1_IPK9EventInfoP11Il2CppClassEEEjEES9_17ReflectionMapHashIS8_EN14dense_hash_mapIS9_jSD_NS9_14EqualsComparerINS0_8equal_toIS8_EEEENS0_9allocatorISB_EEE9SelectKeyESI_SK_E12resize_deltaEjj
Pzh:_MonoCMethod_Invoke_m2700167622
Rfk:_KeyMarker__cctor_m2590194914
tcd:__ZN14ParticleSystem38UpdateModulesPostSimulationIncrementalER24ParticleSystemUpdateDataR23ParticleSystemParticlesjRKf
USo:__ZN6il2cpp8metadata14Il2CppTypeHash4HashEPK10Il2CppType
XTo:__ZN6il2cpp2os13SemaphoreImplC2Eii
U3l:_List_1_get_Item_m3345800295_gshared
Omk:_Convert_ToString_m1282703378
t2a:__ZNK6Sprite9GetBoundsE8Vector2fbb
LBa:__ZNK19RenderEventsContext21CleanupCommandBuffersEv
w$n:_TextGenerator_PopulateWithErrors_m1222498386
DSb:__ZN11ContextGLES6CreateEi
wZd:__ZN5physx6shdfnd5ArrayINS_10PxTriangleENS0_19ReflectionAllocatorIS2_EEE15growAndPushBackERKS2_
ipj:_RectTransform_INTERNAL_set_anchoredPosition_m939517950
Ham:_List_1_set_Capacity_m3382070520_gshared
Dsk:_Decimal_CompareTo_m3502307243_AdjustorThunk
fHb:__Z19TransferField_ArrayI18StreamedBinaryReadILb0EE27Converter_SimpleNativeClassI17AnimationCurveTplIfEEEvRK23StaticTransferFieldInfoR31RuntimeSerializationCommandInfoRT0_
bxa:__ZN14StackAllocator16FrameMaintenanceEb
ZYd:__ZL11SweepBoxBoxPKN5physx3Cct9SweepTestEPKNS0_11SweptVolumeEPKNS0_11TouchedGeomERKNS_14PxExtendedVec3ERKNS_6PxVec3ERNS0_12SweptContactE
XWa:__Z18ReadStringFromFilePN4core17string_with_labelILi1EEERKNS_12basic_stringIcNS_20StringStorageDefaultIcEEEE
j0c:__ZN9JSONWrite8TransferI13dynamic_arrayIjLj0EEEEvRT_PKc17TransferMetaFlags
Bca:__ZNK10GameObject20QueryComponentByTypeEPKN5Unity4TypeE
Wrk:_Decimal_System_IConvertible_ToInt32_m1488426794_AdjustorThunk
d5j:_MonoCustomAttrs_IsUserCattrProvider_m2878058089
Irj:_TextAsset_ToString_m2170047097
PWg:__ZL71InputField_t3762917431_CustomAttributesCacheGenerator_m_HideMobileInputP21CustomAttributesCache
JKn:_UploadHandler_Finalize_m3322774190
bTa:__ZN11TextureData5ResetEv
nuc:__Z53Register_UnityEngine_GameObject_get_activeInHierarchyv
r7k:_ToBase64Transform_InternalTransformFinalBlock_m360524956
OFk:_ActivationContext_Dispose_m2038725770
H7:__ZL30InitializeCoreScriptingClassesv
gIa:__ZN15SerializeTraitsI12fixed_bitsetILi28EjEE8TransferI18StreamedBinaryReadILb0EEEEvRS1_RT_
uh:_glBlitFramebuffer
xPe:__ZN5physx2Sq10AABBPrunerC2Eb
emo:__ZN6il2cpp2vm10Reflection15GetMethodObjectEPK10MethodInfoP11Il2CppClass
twb:__Z35Transfer_Blittable_SingleValueFieldI14SafeBinaryReadhEvRT_R17GeneralMonoObjectRK23StaticTransferFieldInfo
pOc:__ZN4core8hash_setINS_4pairIKy9PlaneDataLb0EEENS_9hash_pairIN32PlaneColliderCache_dense_hashmap17UInt64HashFunctorES2_S3_EENS_10equal_pairINSt3__28equal_toIyEES2_S3_EEE4growEv
DFf:__Z47Register_UnityEngine_CanvasRenderer_GetMaterialv
qOc:__ZN4core8hash_setINS_4pairIKy9PlaneDataLb0EEENS_9hash_pairIN32PlaneColliderCache_dense_hashmap17UInt64HashFunctorES2_S3_EENS_10equal_pairINSt3__28equal_toIyEES2_S3_EEE4growEi
$7c:__ZN24GenerateTypeTreeTransfer8TransferI13dynamic_arrayIN8UVModule10SpriteDataELj0EEEEvRT_PKc17TransferMetaFlags
tpm:_Array_InternalArray__ICollection_CopyTo_TisInt64_t3736567304_m2845057751_gshared
jTa:__ZNK12CubemapArray22GetTypeVirtualInternalEv
Xo:FUNCTION_TABLE_vif
Yo:FUNCTION_TABLE_vid
_o:FUNCTION_TABLE_vii
jdb:__Z40scripting_liveness_calculation_from_root18ScriptingObjectPtrPv
NLg:__ZL102UnityWebRequest_t463507806_CustomAttributesCacheGenerator_UnityWebRequest_get_isModifiable_m4181352937P21CustomAttributesCache
Qjd:__ZN13InitialModuleD2Ev
Kbm:_Dictionary_2_System_Collections_IDictionary_get_Item_m2163779460_gshared
CNa:__ZN7Texture23VirtualRedirectTransferER24GenerateTypeTreeTransfer
zmf:_UNITY_FT_Set_Transform
L1a:__ZN14SpriteRenderer16CheckConsistencyEv
Nhp:_glDeleteFramebuffers__wrapper
GOh:__Z220RuntimeInvoker_Boolean_t97287965_RuntimeObject_Int32U26_t1369213839_Int32_t2950945753_Int32_t2950945753_Int32_t2950945753_RuntimeObject_SByte_t1669577662_Int32_t2950945753_ContractionU26_t961830454_ContextU26_t3937453398PFvvEPK10MethodInfoPvPS4_
Opf:_cff_blend_build_vector
QUf:_TMP_DefaultControls_CreateScrollbar_m4251525859
XBh:_GetterAdapter_Invoke_m3767885970
Lbm:_Dictionary_2_System_Collections_IDictionary_set_Item_m977858099_gshared
RTn:__ZL25UnresolvedVirtualCall_156P12Il2CppObject17Color_t2555686324faaPK10MethodInfo
Mdl:_String_CreateString_m2818852475
GHc:__Z22GenerateBoxTilingShapeP22GenerateTilingAreaInfo
ZYa:__ZN28EnlightenRendererInformation8TransferI14SafeBinaryReadEEvRT_
$0n:_CanvasRenderer_get_hasMoved_m2236392341
tke:__ZN5physx12NpBatchQuery13getUserMemoryEv
Tjj:_MessageEvent__ctor_m1231650089
jfb:__ZNK15Lz4Decompressor16DecompressMemoryEPKvPjPvS2_
yuf:_UNITY_tt_face_build_cmaps
Joc:__ZN4core8hash_mapINS_12basic_stringIcNS_20StringStorageDefaultIcEEEE10vector_setI4PPtrI11SpriteAtlasENSt3__24lessIS8_EE13stl_allocatorIS8_L18MemLabelIdentifier81ELi16EEENS_4hashIS4_EENS9_8equal_toIS4_EEEixERKS4_
NHd:__ZN11Rigidbody2D8TransferI24GenerateTypeTreeTransferEEvRT_
nQa:__Z35UnityPropertySheet_MakeSortedColorsRKNSt3__23mapIN9ShaderLab16FastPropertyNameE10ColorRGBAfNS_4lessIS2_EENS_9allocatorINS_4pairIKS2_S3_EEEEEER10vector_mapIS2_S3_S5_NS6_INS7_IS2_S3_EEEEE
Vtf:_UNITY_tt_face_load_os2
qGd:__ZN17PolygonCollider2D8TransferI24GenerateTypeTreeTransferEEvRT_
oqm:_Array_InternalArray__ICollection_CopyTo_TisUICharInfo_t75501106_m4268526610_gshared
O7d:__ZN5physx6shdfnd8PoolBaseINS_2Sc19ConstraintGroupNodeENS0_19ReflectionAllocatorIS3_EEE17releaseEmptySlabsEv
Ovb:__Z29Transfer_Blittable_ArrayFieldI14SafeBinaryRead8Vector4fEvRT_R9ArrayInfoRK23StaticTransferFieldInfo
CHo:__GLOBAL__sub_I_BoehmGC_cpp
AI:__ZNK26AnimatorOverrideController22GetTypeVirtualInternalEv
xff:__ZNSt3__27__sort4IRNS_6__lessI24InterpolationDepthHandleS2_EEPS2_EEjT0_S6_S6_S6_T_
Vil:_UTF8Encoding_GetMaxCharCount_m3762459613
kwh:_ModuleBuilder_RegisterToken_m4166846047
geh:_TextMeshPro_get_transform_m2127581678
i_b:__ZZ23InitPlayerLoopCallbacksvEN51PostLateUpdateUpdateCustomRenderTexturesRegistrator7ForwardEv
ZAj:_RawImage_OnPopulateMesh_m1115858855
Afo:__ZN6il2cpp2vm13MetadataCache25GetStringLiteralFromIndexEi
nGk:_Hashtable_ToPrime_m33531354
_y:__ZN7mecanim9animation12EvaluateClipEPKNS0_4ClipEPKNS0_9ClipInputEPNS0_10ClipMemoryEPNS0_10ClipOutputE
nHm:_Collection_1_IsSynchronized_m1117613618_gshared
iQf:__ZN20UnityWebRequestProtoI24UnityWebRequestTransport16AtomicRefCounter14RedirectHelper14ResponseHelper15DownloadHandler13UploadHandler18CertificateHandler12HeaderHelper14AsyncOperationE19Task_FinishRedirectEPv
P0d:__ZN5physx3Cct9SweepTest15onObstacleAddedEjPKNS_17PxObstacleContextERKNS_6PxVec3ES7_f
lol:_TypeInitializationException__ctor_m3546444694
xxc:__ZNK9Transform16GetLocalRotationEv
d0:__ZN11UnityEngine15CloudWebService23WebRequestUploadHandler17ConsumeUploadDataEj
V2k:_MemoryStream_set_Position_m3169779190
Dbc:__ZN13RenderManager29SetCurrentCameraAndStackStateEP6CameraP25CameraStackRenderingState
wjh:_ExecuteEvents_get_scrollHandler_m2659345019
Cxa:__ZNSt3__26__treeINS_12__value_typeIjN4core12basic_stringIcNS2_20StringStorageDefaultIcEEEEEENS_19__map_value_compareIjS7_NS_4lessIjEELb1EEE13stl_allocatorIS7_L18MemLabelIdentifier7ELi16EEE7destroyEPNS_11__tree_nodeIS7_PvEE
xwo:__ZN15dense_hashtableINSt3__24pairIK10KeyWrapperINS1_IP11Il2CppClassjEEES4_EES6_N6il2cpp8metadata14ArrayClassHashEN14dense_hash_mapIS6_S4_SB_NS6_14EqualsComparerINSA_17ArrayClassCompareEEENS0_9allocatorIS8_EEE9SelectKeyESF_SH_E12resize_deltaEjj
Ji:_JS_WebRequest_Release
yDg:__ZL85Time_t2420636075_CustomAttributesCacheGenerator_Time_t2420636075____time_PropertyInfoP21CustomAttributesCache
IRi:_Enumerator_System_Collections_IEnumerator_Reset_m2031362704_AdjustorThunk
N_:__ZN11UnityEngine15CloudWebService14DataErrorEventD0Ev
_9m:_Collection_1_ConvertItem_m525844156_gshared
Uzo:__ZN6il2cpp6icalls8mscorlib6System4Type20internal_from_handleEi
lvg:__ZL72RequiredByNativeCodeAttribute_t4130846357_CustomAttributesCacheGeneratorP21CustomAttributesCache
eKk:_Boolean_System_IConvertible_ToUInt16_m3465173538_AdjustorThunk
cad:__ZN14EmissionModule5ResetEv
r8l:_List_1_CheckMatch_m2532733861_gshared
rHh:_Context__ctor_m254302079
gRe:__ZN5physx13PxsCCDContext12postCCDSweepEPNS_10PxBaseTaskE
Ira:__ZN9Scripting11UnityEngine12Experimental9Playables20TextureMixerPlayable9InitProxyEv
dWa:__ZN19ShaderPropertySheet16SetArrayPropertyEN9ShaderLab16FastPropertyNameENS_12PropertyTypeEPKvj
TCj:_Selectable_FindSelectable_m2348614027
rRf:__ZN16UploadHandlerRaw17ConsumeUploadDataEj
Yrh:_DropdownItem_OnPointerEnter_m1492957598
Edf:__ZN5physx6shdfnd10Foundation19AlignCheckAllocator28deregisterAllocationListenerERNS_20PxAllocationListenerE
Msa:__ZN9Scripting11UnityEngine9BoundsInt9InitProxyEv
RWc:__ZN8GUIState8EndOnGUIEv
oLf:__ZN11UnityEngine15PlatformWrapper16GetApplicationIdEv
Lxo:__ZN6il2cpp6icalls8mscorlib6System2IO6MonoIO16get_ConsoleErrorEv
kwf:_UNITY_TT_Get_VMetrics
vTe:__ZN5physx33solveContactCoulombBlockWriteBackEPKNS_23PxcSolverConstraintDescEjRNS_16PxcSolverContextEPNS_25PxcThresholdStreamElementEjPi
COk:_SimpleEnumerator__cctor_m2844299657
l4j:_LocalDataStoreSlot__ctor_m4104083971
YSm:_ReadOnlyCollection_1_System_Collections_Generic_IListU3CTU3E_RemoveAt_m3849058645_gshared
eYn:_AudioSource_ReadExtensionName_m725112169
Snn:_X509CertificateEnumerator_System_Collections_IEnumerator_Reset_m2039524926
i$e:__ZN5physx9PxTaskMgr17submitUnnamedTaskERNS_6PxTaskENS_10PxTaskType4EnumE
yVh:__Z128RuntimeInvoker_Void_t1185182177_RuntimeObject_BooleanU26_t4125257963_SByte_t1669577662_Int32U26_t1369213839_Int32U26_t1369213839PFvvEPK10MethodInfoPvPS4_
$Na:__ZN7Texture21GetMasterTextureLimitEv
i6a:__ZN13dynamic_arrayI9InputAxisLj0EE18resize_initializedEj12ResizePolicy
vdc:__Z12CanAddScriptR10GameObject17ScriptingClassPtrPS1_S2_
EWm:_Comparison_1_BeginInvoke_m3263247262_gshared
B6:__ZN9ShaderLabL25StaticInitializeShaderLabEPv
$Oe:__ZNK5physx2Sq12BucketPruner5sweepERKNS0_9ShapeDataERKNS_6PxVec3ERfRNS0_14PrunerCallbackE
U:Math_max
yZg:__ZL64HorizontalLayoutGroup_t2586782146_CustomAttributesCacheGeneratorP21CustomAttributesCache
sKn:_UnityWebRequest_SerializeFormSections_m557418047
Yso:_il2cpp_class_get_methods
eUl:_Dictionary_2_make_pair_m891994456_gshared
E4c:__GLOBAL__sub_I_artifacts_WebGL_codegenerator_0_cpp_3493
Pqj:_HitInfo_SendMessage_m1343099429_AdjustorThunk
zyb:__Z18Transfer_BlittableI24GenerateTypeTreeTransferLb0EN4math12int2_storageEEvRK29SerializationCommandArgumentsR31RuntimeSerializationCommandInfo
mIn:_AesManaged_GenerateKey_m2004209814
uSf:__Z64Register_UnityEngine_Networking_UnityWebRequest_get_isModifiablev
ebl:_Single_CompareTo_m2785801815_AdjustorThunk
$Io:__ZN6il2cpp2os6Thread16GetCurrentThreadEv
GMf:__ZN11UnityEngine7Connect20RemoteConfigSettings10UnregisterEv
Trm:_Array_InternalArray__Insert_TisUILineInfo_t4195266810_m3191124053_gshared
ypc:__ZN10GameObject13ComponentPair15SetComponentPtrEPN5Unity9ComponentE
$fp:_glBlitFramebuffer__wrapper
Lif:__ZN5physx6shdfnd8internal8HashBaseINS0_4PairIKPKNS0_14NamedAllocatorEPKcEES6_NS0_4HashIS6_EENS1_11HashMapBaseIS6_S9_SC_NS0_20NonTrackingAllocatorEE6GetKeyESE_Lb1EE15reserveInternalEj
Ixa:__ZN10TagManager8TransferI19StreamedBinaryWriteILb0EEEEvRT_
Fcb:__ZN11PreloadData23VirtualRedirectTransferER18StreamedBinaryReadILb0EE
Izl:_Enumerator_VerifyCurrent_m2516497577_AdjustorThunk
lHl:_ShimEnumerator_Reset_m1479883403_gshared
hta:__ZN9Scripting11UnityEngine24AssemblyIsEditorAssembly12CleanupProxyEv
HLk:_Char_System_IConvertible_ToDateTime_m3564102661
zM:__ZN13RuntimeStaticINSt3__26vectorI12WebCamDeviceNS0_9allocatorIS2_EEEELb0EE13StaticDestroyEPv
AZa:__ZN6Sprite17MainThreadCleanupEv
mgp:_glBlendFuncSeparate__wrapper
sR:__ZN10AudioMixer14UpdateMuteSoloEv
XCa:__ZN12BaseRenderer25FlattenSharedMaterialDataILb0EEEbRKS_R22PerThreadPageAllocatorR10RenderNode
Xme:__ZN5physx6shdfnd5ArrayINS_3Scb13MaterialEventENS0_19ReflectionAllocatorIS3_EEE15growAndPushBackERKS3_
_ya:__ZN9Transform35SetLocalPositionWithoutNotificationERKN4math7_float3Ey
yzg:__ZL101MonoBehaviour_t3962482529_CustomAttributesCacheGenerator_MonoBehaviour_StartCoroutine_Auto_m594129169P21CustomAttributesCache
Kj:_JS_Eval_ClearTimeout
Mrg:__ZL64ThreadStaticAttribute_t3840787420_CustomAttributesCacheGeneratorP21CustomAttributesCache
arb:__ZN7ApiGLES16SetPatchVerticesEi
PCm:_CharacterClass_Compile_m3296067317
D9d:__ZN5physx2Sc5Scene11onBodySleepEPNS0_7BodySimE
DIo:__ZN6il2cpp2gc16GarbageCollector16InvokeFinalizersEv
TKk:_Byte_System_IConvertible_ToInt64_m285584218_AdjustorThunk
eoj:_Rect_get_size_m477575021_AdjustorThunk
p7n:__ZN6il2cpp2vm5Class20FromGenericParameterEPK22Il2CppGenericParameter
$Oj:_Array_IndexOf_TisVector3_t3722313464_m4284163268_gshared
ZWd:__ZL28GeomMTDCallback_PlaneCapsuleRN5physx6PxVec3ERfRKNS_10PxGeometryERKNS_11PxTransformES5_S8_
MSl:_Dictionary_2_ContainsKeyValuePair_m2384174870_gshared
pha:__ZN15GlobalCallbacksC2Ev
ivd:__ZN7b2World10CreateBodyEPK9b2BodyDef
yRi:_Comparer_1_System_Collections_IComparer_Compare_m2016223770_gshared
Kfl:_Encoding_GetBytes_m3823106599
uUh:__Z74RuntimeInvoker_DateTime_t3738529785_DateTime_t3738529785_Int32_t2950945753PFvvEPK10MethodInfoPvPS4_
lof:_UNITY_FT_New_Memory_Face
fKf:__ZN22BaseUnityConnectClient18QueueAppStartEventERN11UnityEngine15CloudWebService26CloudServiceEventWithParamE
Jhn:_Collection_1_System_Collections_IList_IndexOf_m3271188411_gshared
WIn:_DownloadHandler_GetText_m600283602
M$o:_Seed_GetSpecialCharacter_m1465474016
Tlf:__ZN20TextRenderingPrivate21TextMeshGeneratorImpl5FlushEv
G2k:_MonoIO_GetFileStat_m678141354
ksf:_UNITY_FT_Load_Sfnt_Table
XLm:_ReadOnlyCollection_1_System_Collections_Generic_ICollectionU3CTU3E_Remove_m1363008147_gshared
lVf:__Z15CastclassSealedP12Il2CppObjectP11Il2CppClass
sne:__ZN5physx9NpPhysics16createConvexMeshERNS_13PxInputStreamE
ssk:_Decimal_IsZero_m4250358244_AdjustorThunk
Y3j:_UnmanagedMemoryStream_get_CanRead_m3770815400
jcc:__ZN16ReflectionProbes40UpdateRealtimeReflectionProbesTimeslicedEv
QZa:__ZN14SafeBinaryRead21TransferSTLStyleArrayI13dynamic_arrayI8Vector2fLj0EEEEvRT_17TransferMetaFlags
Gqm:_Array_InternalArray__Insert_TisKeyValuePair_2_t1383673463_m1372785123_gshared
Kik:_Decimal_u64_m3374804932
Q8d:__ZN5physx2Sq17SceneQueryManager8addShapeERKNS_7NpShapeERKNS_12PxRigidActorEbPNS_9PxBounds3E
Eol:_UInt16_System_IConvertible_ToInt32_m1950778303_AdjustorThunk
i8a:__ZNK30RuntimeInitializeOnLoadManager22GetTypeVirtualInternalEv
gOj:__ZN21InterfaceFuncInvoker2IiffE6InvokeEjP11Il2CppClassP12Il2CppObjectff
wco:__ZN15dense_hashtableINSt3__24pairIK10KeyWrapperIN6il2cpp5utils13dynamic_arrayIPK10Il2CppTypeLj4EEEEPFvvEEESA_NS3_8metadata19Il2CppSignatureHashEN14dense_hash_mapISA_SD_SG_NSA_14EqualsComparerINSF_22Il2CppSignatureCompareEEENS0_9allocatorISE_EEE9SelectKeyESK_SM_E12resize_deltaEjj
dGc:__ZN16ReflectionProbes15InitializeClassEv
X_:__ZN13dynamic_arrayIN11UnityEngine15CloudWebService14DataErrorEvent15FileErrorDetailELj0EE18resize_initializedEj12ResizePolicy
IQm:_ReadOnlyCollection_1_System_Collections_ICollection_CopyTo_m2527663815_gshared
LWl:_Enumerator_VerifyState_m1375238439_AdjustorThunk
tBo:__ZN6il2cpp2vm5Image9GetCorlibEv
_Pn:_Vector3_get_left_m2428419009
dGo:__ZN6il2cpp2vm11MethodStack17GetStackFramesRawEv
cTe:__ZNK5physx2Gu29EPASupportMapPairRelativeImplINS0_8CapsuleVES2_E9doSupportERKNS_6shdfnd3aos5Vec3VERS6_S9_S9_
jjh:_ExecuteEvents_Execute_m113814934
Lda:__ZN13RuntimeStaticINSt3__23mapIN4core12basic_stringIcNS2_20StringStorageDefaultIcEEEES6_NS0_4lessIS6_EE13stl_allocatorINS0_4pairIKS6_S6_EEL18MemLabelIdentifier13ELi16EEEELb0EE13StaticDestroyEPv
qbj:_Coroutine_ReleaseCoroutine_m947702340
Ocf:__ZN5physx10SubSortSAH5sort4EPjjRNS_6shdfnd5ArrayINS_11RTreeNodeNQENS2_19ReflectionAllocatorIS4_EEEERjjPS4_
mAl:_Enumerator_System_Collections_IEnumerator_get_Current_m2979767597_AdjustorThunk
Yvn:__ZN30GenericInterfaceActionInvoker1I17Color_t2555686324E6InvokeEPK10MethodInfoP12Il2CppObjectS0_
Svi:_MD5CryptoServiceProvider_ProcessFinalBlock_m2241588515
bEj:_ScrollRect_GetBounds_m449872505
Ik:_glIsVertexArray
khd:__Z25UpdateOrbitalAndRadialTplIL27ParticleSystemCurveEvalMode3ELS0_2ELS0_1EEvRK11MinMaxCurveS3_S3_S3_S3_S3_S3_R23ParticleSystemParticlesjjRKN4math8float3x3ERKNS6_7affineXERKNS6_7_float4E
bYk:_Int16_Parse_m2276856944
EBf:__ZL42__ManagedRegistrationHelperFunction_CanvasPv
ha:invoke_fff
a8o:_mbsinit
OKj:_Array_InternalArray__ICollection_Remove_TisContactPoint2D_t3390240644_m284878234_gshared
Oep:b14
Fif:__ZN5physx2Sc7PhysicsC2ERKNS_17PxTolerancesScaleERKNS_14PxvOffsetTableE
bQc:__Z34RenderTexture_Get_Custom_PropWidthP12Il2CppObject
vff:__ZNSt3__26__sortIRNS_6__lessI24InterpolationDepthHandleS2_EEPS2_EEvT0_S6_T_
vCf:__ZN2UI6Canvas17MainThreadCleanupEv
$ka:__ZN6prcoreL12RemapGenericI17TexFormatARGB155517TexFormatRGBA8888EEvPKNS_9InnerInfoE
i9n:__ZN13Il2CppHashMapIPK19Il2CppGenericMethodPK26Il2CppGenericMethodIndicesN6il2cpp8metadata23Il2CppGenericMethodHashENS7_26Il2CppGenericMethodCompareENSt3__29allocatorINSA_4pairIK10KeyWrapperIS2_ES5_EEEEEC2EjRKS8_RKS9_
Uxh:_TypeBuilder_HasElementTypeImpl_m1871001960
jal:_SecurityFrame__ctor_m2140076703_AdjustorThunk
nvm:_Array_Resize_TisVector2_t2156229523_m3382835435_gshared
ehm:_DefaultComparer_Equals_m2458578172_gshared
urb:__ZN7ApiGLES13CreateProgramEv
gKa:__ZN11HaloManager7AddHaloEv
h7i:__ZN23InterfaceActionInvoker1IP11Exception_tE6InvokeEjP11Il2CppClassP12Il2CppObjectS1_
kvj:_InputField_set_caretPositionInternal_m3823580651
lBl:_Enumerator_VerifyState_m4003066746_gshared
EUa:__ZN4crnd12crn_unpackerD2Ev
PM:__ZN9Scripting11UnityEngine12Experimental5Audio19AudioSampleProvider9InitProxyEv
Zk:_emscripten_glTexImage2D
gQi:_Comparer_1_System_Collections_IComparer_Compare_m2537217645_gshared
WEa:__ZN16MeshVertexFormat20GetVertexDeclarationER9GfxDevice16VertexInputMasksPKS_
w7:__ZN18ScriptingArguments9AddStringEPKc
SPo:_setup_header
HMk:_Char_ToString_m3588025615
bTe:__ZNK5physx2Gu29EPASupportMapPairRelativeImplINS0_8CapsuleVES2_E18doWarmStartSupportEiiRNS_6shdfnd3aos5Vec3VES7_S7_
Hwl:_CryptoConvert_ToCapiKeyBlob_m3371450375
XRa:__ZL23stbir__resize_arbitraryPvPKviiiS_iiiffffPfiij14stbir_datatype12stbir_filterS4_10stbir_edgeS5_16stbir_colorspace
Oad:__ZN23ParticleSystemParticles13array_reserveEj
JAn:_DeflateManager_pqdownheap_m900267611
Jqc:__ZN19SpriteMeshGenerator4maskC2EP11ColorRGBA32iihj
Tyb:__Z18Transfer_BlittableI24GenerateTypeTreeTransferLb1E8Vector4fEvRK29SerializationCommandArgumentsR31RuntimeSerializationCommandInfo
Sep:b18
il:_pthread_detach
Lgo:__ZN6il2cpp2vm19SocketPollingThread7RunLoopEv
Esh:_FontUpdateTracker_UntrackText_m1981515690
v4g:__ZL64AnalyticsEventTracker_t2285229262_CustomAttributesCacheGeneratorP21CustomAttributesCache
iOe:__ZN5physx11EdgeManager6resizeEj
Tid:__Z16EmitterStoreDataRKN4math8float3x3ERKNS_7affineXER23ParticleSystemParticlesRK19ParticleSystemStatejRNS_8floatNx3ESC_RKNS_4pix4ER5RandNfffbb
VJc:__ZN15DirectorManager20ScheduleGraphDestroyERK14HPlayableGraph
WHb:__ZNSt3__213__stable_sortIRN10vector_mapI17ScriptingClassPtrPKN5Unity4TypeENS_4lessIS2_EENS_9allocatorINS_4pairIS2_S6_EEEEE13value_compareENS_11__wrap_iterIPSB_EEEEvT0_SJ_T_NS_15iterator_traitsISJ_E15difference_typeEPNSM_10value_typeEi
zhi:__Z92RuntimeInvoker_RuntimeObject_Int32_t2950945753_Int64_t3736567304_RuntimeObject_RuntimeObjectPFvvEPK10MethodInfoPvPS4_
f3m:_List_1_AddEnumerable_m1284696147_gshared
hWi:_IPAddress_Equals_m1823478787
bIh:_Context_CreateNewContext_m3053563976
Udh:_TextContainer_get_rectTransform_m3829128540
GBn:_ZlibBaseStream__ctor_m2328519018
Slc:__ZN9ShaderLab25SerializedTextureProperty8TransferI24GenerateTypeTreeTransferEEvRT_
GHl:_ShimEnumerator_Reset_m227785477_gshared
Yoo:__ZN6il2cpp2gc19AppendOnlyGCHashMapINSt3__24pairIPK14Il2CppAssemblyP11Il2CppClassEEP24Il2CppReflectionAssembly17ReflectionMapHashIS9_ENS2_8equal_toIS9_EEEC2Ev
FBb:__Z18Transfer_BlittableI19StreamedBinaryWriteILb0EELb0EdEvRK29SerializationCommandArgumentsR31RuntimeSerializationCommandInfo
bBe:__ZN5physx2Sc5Scene12removeStaticERNS0_10StaticCoreERNS_6shdfnd11InlineArrayIPKNS0_9ShapeCoreELj64ENS4_19ReflectionAllocatorIS8_EEEEb
r2:__GLOBAL__sub_I_Runtime_Camera_RenderLoops_2_cpp
ewa:__ZN11NamedObject8TransferI18StreamedBinaryReadILb0EEEEvRT_
Xao:__ZNK15dense_hashtableINSt3__24pairIK10KeyWrapperIPK19Il2CppGenericMethodEPK26Il2CppGenericMethodIndicesEES6_N6il2cpp8metadata23Il2CppGenericMethodHashEN14dense_hash_mapIS6_SA_SE_NS6_14EqualsComparerINSD_26Il2CppGenericMethodCompareEEENS0_9allocatorISB_EEE9SelectKeyESI_SK_E5beginEv
Vcj:_InvokableCall_remove_Delegate_m1376110510
aRk:_Hashtable_Clear_m3112193608
Dil:_UTF8Encoding_InternalGetByteCount_m771565606
o2c:__Z18Transfer_BlittableI8JSONReadLb1EyEvRK29SerializationCommandArgumentsR31RuntimeSerializationCommandInfo
$6l:_List_1_System_Collections_IList_Remove_m3654336679_gshared
yHg:__ZL51GUILayer_t2783472903_CustomAttributesCacheGeneratorP21CustomAttributesCache
YEa:__ZN9GfxDevice20GetVertexDeclarationERK18VertexChannelsInfoNS_30VertexDeclarationMRUCacheIndexE
Fl:_emscripten_glMatrixMode
kAj:_MaskableGraphic_UnityEngine_UI_IClippable_get_gameObject_m1739855597
Iw:__ZN8Animator23VirtualRedirectTransferER18StreamedBinaryReadILb0EE
QWk:_Guid__ctor_m3562600567_AdjustorThunk
E1:__ZN19CloudServiceHandler19StopEventDispatcherEv
I8e:__ZN5physx13GuMeshFactory17createHeightFieldERNS_13PxInputStreamE
kEe:__ZN5physx2Sc10NPhaseCore25createShapeInstancePairLLERNS0_8ShapeSimES3_NS_7PxFlagsINS_10PxPairFlag4EnumEtEE
e1f:_TMP_Settings_get_enableKerning_m2305860424
Aok:_DateTime_System_IConvertible_ToInt16_m3239820399
f_:__ZN11UnityEngine15CloudWebService14DataDispatcher16PrepareDataBlockERNS0_16SessionContainerE
kYb:__ZN18GfxFramebufferGLES5ClearE13GfxClearFlagsRK10ColorRGBAffib
pFe:__ZThn8_N5physx2Sc19ShapeInstancePairLL12onDeactivateEj
PNj:_Array_compare_TisProgressHandler_t926933139_m465927472_gshared
yqi:_ObjectManager_DoFixups_m3038765937
d2f:_TMP_SpriteAsset_SearchForSpriteByUnicodeInternal_m1359718671
vGb:__ZL26Transfer_SimpleNativeClassI18StreamedBinaryReadILb0EE10RectOffsetLb0EEvRK29SerializationCommandArgumentsR31RuntimeSerializationCommandInfo
kFi:_InternalEnumerator_1_get_Current_m2316281569_gshared
t2b:__ZL12DepthPassJobPN21GfxDeviceAsyncCommand10ArgScratchEPKNS_3ArgE
jkc:__ZNSt3__26vectorIN9ShaderLab20SerializedSubProgram16TextureParameterENS_9allocatorIS3_EEE6assignINS_11__wrap_iterIPS3_EEEENS_9enable_ifIXaasr21__is_forward_iteratorIT_EE5valuesr16is_constructibleIS3_NS_15iterator_traitsISC_E9referenceEEE5valueEvE4typeESC_SC_
hjj:_MonoBehaviour_IsInvoking_m3285132449
CZc:__ZN5Unity9rapidjson6WriterI16TempBufferWriterNS0_4UTF8IcEES4_13JSONAllocatorE11WriteDoubleEd
scm:_Dictionary_2_TryGetValue_m3741534516_gshared
SLd:__ZN9Rigidbody16ApplyConstraintsEv
lkl:_Thread_SetCachedCurrentUICulture_m1729523031
Gpb:__ZN14GfxDeviceStats16CopyAllDrawStatsERKS_
m6c:__ZN11MinMaxCurve5ResetE23ParticleSystemCurveModef
Nn:FUNCTION_TABLE_iiiiiiiiiiii
Nad:__ZNK14ParticleSystem27CalculateMaxActiveParticlesEv
bsi:_SByte_System_IConvertible_ToDateTime_m1659899958
Twe:__ZN5physx2Sc17ParticleSystemSim8setFlagsEj
bHa:__ZN16GraphicsSettingsD0Ev
r4:__Z12FormatBufferPciPKcz
wMf:__ZNSt3__26__treeINS_12__value_typeIN4core12basic_stringIcNS2_20StringStorageDefaultIcEEEE14CallbackArray3IRKS6_R8JSONReadbEEENS_19__map_value_compareIS6_SD_NS_4lessIS6_EELb1EEE13stl_allocatorISD_L18MemLabelIdentifier6ELi16EEE7destroyEPNS_11__tree_nodeISD_PvEE
n:cttz_i8
Cpf:_UNITY_FT_GlyphLoader_Add
Hbf:__ZN5physx2Gu15EdgeListBuilder18CreateEdgesToFacesEjPKjPKt
hZd:__ZN5physx11PxMeshQuery5sweepERKNS_6PxVec3EfRKNS_10PxGeometryERKNS_11PxTransformEjPKNS_10PxTriangleERNS_10PxSweepHitENS_7PxFlagsINS_9PxHitFlag4EnumEtEEPKjfb
vOi:_DefaultComparer_Compare_m1878901918_gshared
EPf:__ZN9Scripting11UnityEngine10Networking29UnityWebRequestAsyncOperation9InitProxyEv
AYn:_AudioListener_INTERNAL_CALL_ReadExtensionPropertyName_m330480156
Mgk:_SyncQueue_Clone_m4021562953
Cm:_emscripten_glViewport
sHc:__Z21GenerateTilingAreaJobP22GenerateTilingAreaInfoj
sMo:__ZN6il2cpp6icalls8mscorlib6System15MonoCustomAttrs17IsDefinedInternalEP12Il2CppObjectP20Il2CppReflectionType
HQe:__ZN5physx6shdfnd5ArrayIPhNS0_19ReflectionAllocatorIS2_EEE8recreateEj
o3n:_SkeletonBone_t4134054672_marshal_pinvoke_back
Isa:__ZN9Scripting11UnityEngine10CacheIndex9InitProxyEv
Ozo:__Z18RegisterAllClassesv
Zqf:_cff_parse_font_bbox
HMd:__ZThn28_N14PhysicsManagerD0Ev
C$e:__ZN5physx2Sc27ConstraintProjectionManagerC2Ev
p_d:__Z14raycast_sphereRKN5physx10PxGeometryERKNS_11PxTransformERKNS_6PxVec3ES8_fNS_7PxFlagsINS_9PxHitFlag4EnumEtEEjPNS_12PxRaycastHitEbPFbRSD_PvESG_
y6a:__ZN14PlayerSettings23VirtualRedirectTransferER18StreamedBinaryReadILb0EE
bOh:__Z85RuntimeInvoker_Void_t1185182177_Int32_t2950945753_Int32_t2950945753_Int32_t2950945753PFvvEPK10MethodInfoPvPS4_
Wtk:_Double_System_IConvertible_ToDateTime_m2414543049_AdjustorThunk
NKf:__ZN11UnityEngine15PlatformWrapper16GetVRFieldOfViewEv
QSh:__Z235RuntimeInvoker_Int32_t2950945753_RuntimeObject_Int32_t2950945753_RuntimeObject_Int32_t2950945753_UInt32U26_t3735378166_UInt32U26_t3735378166_RuntimeObject_DecoderFallbackBufferU26_t3866396827_ByteU5BU5DU26_t4057885439_SByte_t1669577662PFvvEPK10MethodInfoPvPS4_
cVo:__ZN6il2cpp2os5Event5ResetEv
muf:_tt_name_ascii_from_other
C3j:_TextWriter_Write_m2252948084
DNn:_ToggleGroup__ctor_m3308114662
fcm:_Dictionary_2_CopyToCheck_m4199563090_gshared
wDo:__ZN6il2cpp8metadata15GenericMetadata17InflateParametersEPK13ParameterInfohPK20Il2CppGenericContextb
g5k:_RSAParameters_t1728406613_marshal_pinvoke_back
Lwk:_Array_Sort_TisUILineInfo_t4195266810_m3737783007_gshared
h0f:_TMP_MaterialManager_GetFallbackMaterial_m1227931643
Xz:__ZNK17AnimationPlayable27GetNextCompatibleDescendantEj
mof:__ZN13dynamic_arrayIN4core17string_with_labelILi35EEELj0EE6insertEPS2_jRKS2_
yOg:__ZL64GUIUtility_t1868551600_CustomAttributesCacheGenerator_s_SkinModeP21CustomAttributesCache
EKm:_ReadOnlyCollection_1_System_Collections_IList_set_Item_m4251477320_gshared
kBd:__ZN34b2SolveDiscreteIslandBodySleepTask7TaskJobEPS_j
nWm:_Comparison_1_BeginInvoke_m829878058_gshared
itf:_otv_LigatureSubst_validate
BYh:__Z50RuntimeInvoker_Ray_t3785851493_Vector3_t3722313464PFvvEPK10MethodInfoPvPS4_
ELb:__Z25SetNeedToPerformRenderingb
z8c:__ZN12LightsModule8TransferI17RemapPPtrTransferEEvRT_
$Hf:__ZN8JSONRead12TransferPairINSt3__24pairIN4core12basic_stringIcNS3_20StringStorageDefaultIcEEEEN11UnityEngine9Analytics16LimitEventConfigEEEEEvRT_17TransferMetaFlagsPKN5Unity9rapidjson12GenericValueINSG_4UTF8IcEE13JSONAllocatorEE
iya:__ZN10GameObjectD2Ev
H2b:__ZN14qsort_internal30FindAndMovePivotToLastPositionIP15RODataDepthPassi17ROSorterDepthPassEEvT_S4_T0_T1_
Lld:__ZN29InitialModulePropertyBindings13GetFloatValueERK14ParticleSystemi
lSc:__Z27Mesh_CUSTOM_MarkDynamicImplP12Il2CppObject
iul:_BigInteger__ctor_m3991350270
c5j:_MonoCustomAttrs__cctor_m4000462365
dSe:__ZN5physxL27PxcSweepAnyShapeHeightfieldERKNS_11PxsCCDShapeES2_PKNS_12PxsRigidBodyES5_RKNS_11PxTransformES8_fRNS_6PxVec3ESA_RNS_10PxcNpCacheERNS_18PxcNpThreadContextE
hbc:__ZN12CullingGroup10SendEventsEPK17CullingGroupEventj
c9j:_CustomInfo__ctor_m426096741
Kkh:_PointerInputModule__ctor_m3728889932
FXa:__ZThn32_NK8Renderer8GetLayerEv
YPj:_Array_InternalArray__IndexOf_TisUInt64_t4134040092_m1206929132_gshared
iNe:__ZN5physx3Scb5SceneD2Ev
OYl:_Enumerator_System_Collections_IEnumerator_Reset_m2915500989_gshared
crf:_cff_parse_vsindex
Lro:__ZNSt3__26vectorIiNS_9allocatorIiEEEC2ERKS3_
mYk:_Int32_ValidDigit_m1059003769
SIn:_DownloadHandler_Dispose_m2747726581
Jkp:_emscripten_glTexParameterfv__wrapper
kpj:_RectTransform_INTERNAL_get_sizeDelta_m2173368204
_xj:_LayoutGroup_get_rectTransform_m442863741
$sb:__Z18Transfer_BlittableI14SafeBinaryReadLb1E9BoundsIntEvRK29SerializationCommandArgumentsR31RuntimeSerializationCommandInfo
CBc:__ZN2UI13RectTransform17GetLocalPositionZEv
Yfp:b63
Pto:_il2cpp_method_get_param_count
nda:__ZNK5Unity4Type21FindAllDerivedClassesER13dynamic_arrayIPKS0_Lj0EENS0_17TypeFilterOptionsE
Rwc:__ZN10systeminfo19ISOToSystemLanguageERN4core12basic_stringIcNS0_20StringStorageDefaultIcEEEE
Rno:__ZNK15dense_hashtableINSt3__24pairIK10KeyWrapperINS1_IPK12PropertyInfoP11Il2CppClassEEEjEES9_17ReflectionMapHashIS8_EN14dense_hash_mapIS9_jSD_NS9_14EqualsComparerINS0_8equal_toIS8_EEEENS0_9allocatorISB_EEE9SelectKeyESI_SK_E3endEv
tAi:_InternalEnumerator_1_System_Collections_IEnumerator_get_Current_m16058121_gshared
PHd:__ZN11Rigidbody2D8TransferI19StreamedBinaryWriteILb0EEEEvRT_
LLd:__Z16GetDynamicsScenev
SOf:__ZN22BaseUnityConnectClient14AppRunningTickEj
iyf:_ps_dimension_done
gAf:__Z46Register_UnityEngine_TextGenerator_Dispose_cppv
hVk:_GregorianCalendar_GetYear_m854131864
Dhd:__Z25UpdateOrbitalAndRadialTplIL27ParticleSystemCurveEvalMode0ELS0_4ELS0_2EEvRK11MinMaxCurveS3_S3_S3_S3_S3_S3_R23ParticleSystemParticlesjjRKN4math8float3x3ERKNS6_7affineXERKNS6_7_float4E
Nwo:__ZN6il2cpp6icalls8mscorlib6System7Runtime15InteropServices7Marshal17GetLastWin32ErrorEv
EYa:__ZN16LightmapSettings8TransferI14SafeBinaryReadEEvRT_
ySb:__ZN17BufferManagerGLES13ReleaseBufferEP14DataBufferGLES
PXj:_CipherSuite_Write_m1172814058
W5d:__ZN5physx6shdfnd5ArrayIPvNS0_19ReflectionAllocatorINS_16NpConnectorArrayEEEE15growAndPushBackERKS2_
d3j:_SynchronizedWriter_Write_m301917713
f5:__ZN9profiling6MarkerC2EPKc13ProfilerGroupNS0_5FlagsE
sDe:__ZN5physx2Sc5Scene15prepareSimulateEv
l2c:__Z18Transfer_BlittableI8JSONReadLb1EjEvRK29SerializationCommandArgumentsR31RuntimeSerializationCommandInfo
A7d:__ZN5physx6shdfnd5ArrayIPNS_2Sc11InteractionENS0_19ReflectionAllocatorIS4_EEE8recreateEj
ack:_ConstructorBuilder_get_IsCompilerContext_m3364441562
Wbj:_Debug_LogWarning_m3752629331
KAc:__Z13RegisterClassIN2UI13RectTransformEEvPKc
osa:__ZN9Scripting11UnityEngine7Texture9InitProxyEv
iVm:_ReadOnlyCollection_1_System_Collections_Generic_IListU3CTU3E_RemoveAt_m4037795630_gshared
XPh:__Z117RuntimeInvoker_Void_t1185182177_RuntimeObject_Int32_t2950945753_Int32_t2950945753_Int32_t2950945753_Int32_t2950945753PFvvEPK10MethodInfoPvPS4_
US:__Z30GetAudioSpatializerDefinitionsR13dynamic_arrayIP29AudioEffectInternalDefinitionLj0EE31UnityAudioEffectDefinitionFlags
vnh:_U3COnFinishSubmitU3Ec__Iterator0_Reset_m3632769946
Hq:stackSave
F0:__ZN5Unity9rapidjson15GenericDocumentINS0_4UTF8IcEE13JSONAllocatorNS0_12CrtAllocatorEE6StringEPKcjb
Dyf:_ps_dimension_end
mSc:__Z41Register_UnityEngine_Mesh_Internal_Createv
S1a:__ZN14SpriteRenderer23VirtualRedirectTransferER24GenerateTypeTreeTransfer
k0k:_Path_GetServerAndShare_m2640882202
Nyd:__ZNSt3__27__sort3IRN18Overlap2DQueryBase29ColliderHitsByDepthComparitorEPP10Collider2DEEjT0_S7_S7_T_
s8n:__ZN6il2cpp2vm5Class14GetNestedTypesEP11Il2CppClassPPv
Aef:__Z63Register_UnityEngine_Physics_INTERNAL_CALL_Internal_RaycastTestv
DEm:_Uri_get_Fragment_m575158891
cik:_Console_Open_m3077673205
Vrn:_TMP_ObjectPool_1_Release_m423123894_gshared
Znn:_X509StoreManager_get_CurrentUser_m4040993045
Qcc:__ZN6Camera9SetAspectEf
C4i:_VertexZoom_ON_TEXT_CHANGED_m3073044939
BXi:_SslStream_Dispose_m3651067425
Da:invoke_viiffiii
O8c:__ZN8UVModule8TransferI18StreamedBinaryReadILb0EEEEvRT_
jmp:_emscripten_glBindVertexArray__wrapper
cXl:_Enumerator_VerifyState_m2933667029_gshared
yGo:__ZN6il2cpp6icalls8mscorlib6System4Enum19get_underlying_typeEP20Il2CppReflectionType
xDm:_Parser_IsECMAScript_m674158805
yYj:_CipherSuiteCollection_get_Item_m3790183696
hza:__ZN9Transform37InitializeTransformHierarchyRecursiveER18TransformHierarchyRii
Frb:__ZN26SinglePassStereoSupportExt23SetupStereoMatrixParamsE21MonoOrStereoscopicEye24BuiltinShaderMatrixParamRK10Matrix4x4f
Ofm:_DefaultComparer_Equals_m3770904334_gshared
nob:__ZN9GfxDevice23CreateAsyncReadbackDataEv
Mqd:__ZN14ParticleSystem22UpdateAllTransformDataEv
X7o:_fscanf
SPf:__ZNK25UnityWebRequestJavaScript16GetUploadedBytesEv
RV:__Z46AudioListener_CUSTOM_GetNumExtensionPropertiesP12Il2CppObject
bio:__ZN6il2cpp6icalls8mscorlib6SystemL16CheckMemberMatchI9FieldInfoNS_5utils10functional6FilterINSt3__212basic_stringIcNS8_11char_traitsIcEENS8_9allocatorIcEEEENS5_13VmStringUtils23CaseInsensitiveComparerEEEEEbPKT_PK11Il2CppClassSN_iRKT0_
Kko:__ZN30dense_hashtable_const_iteratorINSt3__24pairIK10KeyWrapperINS1_IPK14Il2CppAssemblyP11Il2CppClassEEEjEES9_17ReflectionMapHashIS8_EN14dense_hash_mapIS9_jSD_NS9_14EqualsComparerINS0_8equal_toIS8_EEEENS0_9allocatorISB_EEE9SelectKeyESI_SK_EppEv
ald:__ZN27ColorModulePropertyBindings13AddPropertiesER10vector_mapIi22ParticleModulePropertyNSt3__24lessIiEENS2_9allocatorINS2_4pairIiS1_EEEEE
B1j:_SslClientStream_Finalize_m1251363641
GYh:__Z84RuntimeInvoker_RuntimeObject_RayU26_t3515555043_Single_t1397266774_Int32_t2950945753PFvvEPK10MethodInfoPvPS4_
pcd:__ZN13InitialModule18SetInheritedParamsERK23SubEmitterInheritValues
LPj:_Array_InternalArray__IndexOf_TisMonoResource_t4103430009_m1351751258_gshared
Px:__ZN17AnimationPlayable34CollectAnimatorControllerPlayablesER13dynamic_arrayIP26AnimatorControllerPlayableLj0EE
xCe:__ZN5physx2Sc9StaticSim21postActor2WorldChangeEv
eSk:_FieldAccessException__ctor_m3583219052
Ynd:__ZL16ParticleGeomInitILb0EEvRK31ParticleSystemParticlesTempDatajRN4math8floatNx3ERK23ParticleSystemParticlesS5_S5_RKNS3_7_float4EPKfSB_SD_SB_RKNS3_5_int4EbSB_
Rrk:_Decimal_System_IConvertible_ToDouble_m3125524987
tqn:__ZN28GenericInterfaceFuncInvoker1Ib19Color32_t2600501292E6InvokeEPK10MethodInfoP12Il2CppObjectS0_
hyc:__Z57Register_UnityEngine_Transform_INTERNAL_set_localPositionv
nRb:__ZN13GfxDeviceGLES26SetRandomWriteTargetBufferEi15ComputeBufferID
RPo:_GC_split_block
hvm:_Array_Resize_TisUICharInfo_t75501106_m3903846016_gshared
YZb:__ZZ23InitPlayerLoopCallbacksvEN49EarlyUpdateResetFrameStatsAfterPresentRegistrator7ForwardEv
Bie:__ZN5physx6shdfnd4sortIPvNS0_4LessIS2_EENS0_19ReflectionAllocatorINS_2Cm5BlockIhLj256EEEEEEEvPT_jRKT0_RKT1_j
x8o:_poll
URm:_ReadOnlyCollection_1_System_Collections_IEnumerable_GetEnumerator_m1671097018_gshared
Vql:_UInt64_ToString_m1529093114_AdjustorThunk
qFh:_TypeLibImportClassAttribute__ctor_m2302178978
don:_X509Store_LoadCertificate_m1587806288
Ytl:_Escape_t3294788190_marshal_pinvoke
mgj:_Material__ctor_m1662457592
xhm:_EqualityComparer_1__cctor_m2335367819_gshared
uwj:_InputField_OnUpdateSelected_m1118869681
w9e:__ZN5physx20InternalTriangleMesh7releaseEv
KQe:__ZN5physx6shdfnd5ArrayINS_16PxsCCDBlockArrayINS_13PxsCCDOverlapELi128EE9BlockInfoENS0_19ReflectionAllocatorIS5_EEE15growAndPushBackERKS5_
P8d:__ZNK5physx7NpShape8getFlagsEv
NUa:__ZN4crnd12crn_unpacker11unpack_dxt1EPPhjjj
tL:__ZL55__ManagedRegistrationHelperFunction_CoordinateFramePairPv
zoc:__ZNK11ICallString6ToUTF8Ev
v7n:__ZN15dense_hashtableINSt3__24pairIK10KeyWrapperIPK22Il2CppGenericParameterEP11Il2CppClassEES6_N6il2cpp5utils11PointerHashIS4_EEN14dense_hash_mapIS6_S9_SE_NS6_14EqualsComparerINS0_8equal_toIS5_EEEENS0_9allocatorISA_EEE9SelectKeyESJ_SL_E15insert_noresizeERKSA_
oLl:_Transform_1_Invoke_m2468053724_gshared
gZ:__ZL60__ManagedRegistrationHelperFunction_ClothSkinningCoefficientPv
I2b:__ZNSt3__211__sift_downIR17ROSorterDepthPassP15RODataDepthPassEEvT0_S5_T_NS_15iterator_traitsIS5_E15difference_typeES5_
kse:__ZNK5physx7NpCloth16getContactOffsetEv
KGk:_ArgumentException__ctor_m3200406061
dF:__ZN8Animator17ApplyOnAnimatorIKEiRNS_11AnimatorJobE
$ba:__ZN12FileAccessor4ReadEyyPvPy
Wfo:__ZNSt3__26vectorIN6il2cpp2os11PollRequestENS_9allocatorIS3_EEE26__swap_out_circular_bufferERNS_14__split_bufferIS3_RS5_EE
D4m:_List_1_set_Capacity_m2777925136_gshared
oNc:__Z21GetSceneHierarchyPathPK6Object
FJm:_ReadOnlyCollection_1_System_Collections_Generic_ICollectionU3CTU3E_Remove_m1581675040_gshared
scc:__ZN13RenderTexture9SetHeightEi
edh:_ShaderUtilities_GetFontExtent_m2484659839
Faa:__ZN17PersistentManager25PreallocateObjectThreadedEiNS_9LockFlagsE
iy:__ZN7mecanim9animation17ClearMotionOutputEPNS0_18AnimationNodeStateE
BYj:_CipherSuiteCollection_get_IsFixedSize_m3127823890
h3i:_TMP_TextSelector_A_OnPointerExit_m1409227044
BNi:_InternalEnumerator_1_System_Collections_IEnumerator_get_Current_m3537550566_gshared
iCj:_Scrollbar_UpdateVisuals_m2492252165
Pmn:_PKCS12_get_Keys_m2165478388
Sxo:__ZN6il2cpp6icalls8mscorlib6System2IO6MonoIO17GetFileAttributesEP12Il2CppStringPi
hvi:_HMACMD5__ctor_m3008609295
yqk:_DateTime_ToString_m2992030064_AdjustorThunk
evf:_tt_cmap8_char_index
fqc:__Z14tessMeshDeleteP8TESSmeshP12TESShalfEdge
v9m:_Collection_1_System_Collections_ICollection_CopyTo_m388022681_gshared
V7:__Z24scripting_class_get_name17ScriptingClassPtr
GYi:_Oid__ctor_m911618594
J3i:_U3CAnimateVertexColorsU3Ec__Iterator0_Dispose_m2414077547
hea:__ZN13RuntimeStaticI15GUIEventManagerLb0EE13StaticDestroyEPv
r7i:_Response_AddHeader_m2396573179
S5j:_ShortComparer_Compare_m1881262465
Rub:__Z29Transfer_Blittable_ArrayFieldI14SafeBinaryReadjEvRT_R9ArrayInfoRK23StaticTransferFieldInfo
XEf:__ZN2UI14CanvasRenderer11GetMaterialEi
We:_emscripten_set_keydown_callback
ifl:_EncoderReplacementFallback__ctor_m1483565116
_xm:_Interpreter_IsWordChar_m2858055765
e6c:__ZN18ColorBySpeedModule8TransferI14SafeBinaryReadEEvRT_
jsa:__ZN9Scripting11UnityEngine29CustomRenderTextureUpdateZone12CleanupProxyEv
hca:__ZN12FileAccessorC2Ev
sde:__ZN5physx2Sc15ArticulationSim12applyImpulseERNS0_8BodyCoreERKNS_9PxcFsDataERKNS_6PxVec3ES9_
RXa:__ZNK8Renderer29FlattenPerMaterialCustomPropsER22PerThreadPageAllocatorR10RenderNode
ded:__Z15UpdateRandomTplIL27ParticleSystemCurveEvalMode0EEvRK11MinMaxCurveS3_S3_R5RandNR23ParticleSystemParticlesjjRKN4math8float3x3ERKNS8_7_float4E
NJl:_Transform_1_Invoke_m1062341206_gshared
qC:__ZThn152_NK26AnimatorControllerPlayable25GetStateMachineBehavioursEv
Qyn:_EventFunction_1_Invoke_m2429482587_gshared
Lih:_EventTrigger_OnDeselect_m1919608102
Pqd:__ZN14ParticleSystem16AssignRayBudgetsEv
qId:__ZN23ColliderTilingExtensionC2Ev
E4:__ZN14StackAllocator10ReallocateEPvji
X5a:__ZNK12InputManager22GetTypeVirtualInternalEv
Akd:__ZN16CustomDataModuleD2Ev
uyd:__ZNSt3__27__sort3IR22InverseDepthComparitorP8DepthHitEEjT0_S5_S5_T_
mYl:_Enumerator_MoveNext_m1177880931_AdjustorThunk
Nce:__ZNK5physx14NpArticulation26getInternalDriveIterationsEv
RAd:__ZN14qsort_internal18QSortSingleJobDataIPN25b2SynchronizeFixturesTask14b2DeferredMoveEiPFbRKS2_S5_EE7SortJobEPS8_
Eqj:_SendMouseEvents_SetMouseMoved_m2822596724
xRj:_Array_InternalArray__ICollection_Add_TisResolveHandler_t4124874245_m584706233_gshared
vsn:_TMP_XmlTagStack_1_Push_m1847519558_AdjustorThunk
Yck:_DerivedType_get_FullName_m1025358827
nti:_CryptoConfig_MapNameToOID_m2044758263
foa:__ZL50__ManagedRegistrationHelperFunction_SetupCoroutinePv
jt:__ZN13ConstraintJob23ConstraintComponentDataC2ERKS0_
Y5c:__ZN14VelocityModule8TransferI14SafeBinaryReadEEvRT_
TWg:__ZL70InputField_t3762917431_CustomAttributesCacheGenerator_m_OnValueChangedP21CustomAttributesCache
fKb:__Z39WriteQueueForTransferSignatureIntoCacheRK31TransferFunctionScriptingTraitsRK24TransferRequestSignature17ScriptingClassPtrR23CachedSerializationDataRb
vgl:_Encoding_get_UTF8UnmarkedUnsafe_m320312322
wkl:_Thread_Thread_free_internal_m333849022
__c:__Z35Transfer_Blittable_FixedBufferFieldI9JSONWritexEvRK29SerializationCommandArgumentsR31RuntimeSerializationCommandInfo
_ym:_CostDelegate_BeginInvoke_m2828452701
bKf:__ZN22BaseUnityConnectClient30OnEnteringStatePausedOrStoppedEv
uEd:__ZN10ClipperLib7Clipper18SwapPositionsInAELEPNS_5TEdgeES2_
iZm:_U3CCreateWhereIteratorU3Ec__Iterator1D_1_MoveNext_m3448330397_gshared
gLn:_AnalyticsEventParam_get_value_m2837935290
vwk:_Array_Sort_TisSpriteData_t3048397587_m3876534650_gshared
PFm:_Collection_1_ConvertItem_m1556170494_gshared
wy:__ZN7mecanim5human12HumanPoseAddERNS0_9HumanPoseERKS1_S4_
Mjk:_DateTime_ToUniversalTime_m1945318289
BNk:_ArrayList_ToArray_m3827492363
Sod:__Z20UpdateWholeSheet2TplIL27ParticleSystemCurveEvalMode2ELS0_2EEvfRK11MinMaxCurveS3_RK23ParticleSystemParticlesPf
aGj:_Slider_get_stepSize_m1423227661
Qql:_UInt64_Parse_m819899889
zDo:__ZN6il2cpp8metadata15GenericMetadata15GetGenericClassEiPK17Il2CppGenericInst
X6k:_SymmetricAlgorithm_set_IV_m3196220308
iIi:_InternalEnumerator_1_get_Current_m3433165672_gshared
pnk:_Convert_ToUInt32_m1453583008
kTk:_CompareInfo_Compare_m894311506
Oya:__Z24MergeTransformComponentsR9TransformS0_b
Pbo:__ZNK15dense_hashtableI10KeyWrapperIPK19Il2CppGenericMethodES4_N6il2cpp8metadata23Il2CppGenericMethodHashEN14dense_hash_setIS4_S7_NS4_14EqualsComparerINS6_26Il2CppGenericMethodCompareEEENSt3__29allocatorIS4_EEE8IdentityESB_SE_E10test_emptyEj
NNi:_InternalEnumerator_1_System_Collections_IEnumerator_get_Current_m3982010935_AdjustorThunk
s8d:__ZThn24_N5physx2Sc20ArticulationJointSimD0Ev
whh:_EventSystem_UpdateModules_m3643806022
EOd:__ZN14PhysicsManager32AddToTriggerStayStatesIfRequiredEPK9Rigidbody
P2n:_AnimationOffsetPlayable__cctor_m1029460816
jXi:_SslStream_get_Position_m2568970827
z2d:__ZN5physx14PxsAABBManager12createBPElemEv
lpe:__ZThn12_N5physx7NpShape14onRefCountZeroEv
kXd:__ZL26GeomMTDCallback_ConvexMeshRN5physx6PxVec3ERfRKNS_10PxGeometryERKNS_11PxTransformES5_S8_
aMo:__ZN6il2cpp2vm13ComObjectBase19GetRuntimeClassNameEPP15Il2CppHString__
YFa:__Z37GetBarycentricCoordinatesForOuterCellPPK8Vector3fRK13dynamic_arrayIS_Lj0EERS0_RK11TetrahedronR8Vector4f
Gk:_emscripten_glVertexAttribPointer
UMb:__ZN14PreloadManager26UpdatePreloadingSingleStepENS_21UpdatePreloadingFlagsEi
QEj:_ScrollRect_SetLayoutHorizontal_m3078869633
O4e:__ZN18ScBeforeSolverTask11runInternalEv
bik:_Console_OpenStandardInput_m3262421490
Nsl:_SimpleCollator__ctor_m1587210019
rsc:__Z57Register_UnityEngine_RectTransform_INTERNAL_set_anchorMinv
$4d:__ZL33GeomOverlapCallback_CapsuleConvexRKN5physx10PxGeometryERKNS_11PxTransformES2_S5_PNS_2Gu12TriggerCacheE
gnk:_Convert_ToUInt16_m1480956416
vla:__ZN6prcoreL25inner_stretch_i8_bilinearEPKNS_9InnerInfoE
lom:_Array_InternalArray__ICollection_Add_TisUriScheme_t722425697_m3142345403_gshared
Scb:__ZL30RegisterFilteredObjectCallbackPP12Il2CppObjectiPv
GUm:_ReadOnlyCollection_1_System_Collections_Generic_IListU3CTU3E_RemoveAt_m3317217538_gshared
AKg:__ZL54AudioSource_t3935305588_CustomAttributesCacheGeneratorP21CustomAttributesCache
Avd:__ZN16PhysicsManager2D19ApplyParticleForcesER13dynamic_arrayI21BatchedColliderResultLj0EE
k9b:__Z30GetScriptableCullingParametersR6CamerabR27ScriptableCullingParameters
C_:__ZN11UnityEngine15CloudWebService16SessionContainer24GetSessionHeaderJsonDataERKN4core12basic_stringIcNS2_20StringStorageDefaultIcEEEERNS2_13StringBuilderE
Bck:_DerivedType_GetEvent_m4157575360
zda:__ZN13RuntimeStaticI21AssetReferenceStorageLb0EE13StaticDestroyEPv
D9e:__ZN5physx20InternalTriangleMesh9loadRTreeERNS_13PxInputStreamEj
Lig:__ZL56_MethodBuilder_t600455149_CustomAttributesCacheGeneratorP21CustomAttributesCache
qsm:_Array_InternalArray__set_Item_TisKeyValuePair_2_t2530217319_m258011711_gshared
z3h:__Z72RuntimeInvoker_Bounds_t2266837910_RuntimeObject_Matrix4x4U26_t3606180965PFvvEPK10MethodInfoPvPS4_
CWl:_Enumerator_MoveNext_m2041610666_AdjustorThunk
KIo:__ZN6il2cpp6icalls8mscorlib6System9AppDomain22InternalGetProcessGuidEP12Il2CppString
zxe:__ZN5physx2Sc18ParticleSystemCore16releaseParticlesEv
h_d:__ZN5physx2Gu20intersectTriangleBoxERKNS_6shdfnd3aos5Vec3VES5_S5_S5_S5_
cv:__ZN9Scripting11UnityEngine10Animations16ConstraintSource9InitProxyEv
pQc:__Z34Quaternion_CUSTOM_Inverse_InjectedRK11QuaternionfRS_
ook:_DateTime__cctor_m1880035693
ozb:__Z18Transfer_BlittableI24GenerateTypeTreeTransferLb1EjEvRK29SerializationCommandArgumentsR31RuntimeSerializationCommandInfo
$nm:_KeyValuePair_2_ToString_m3013572783_gshared
z1h:__Z103RuntimeInvoker_Boolean_t97287965_Ray_t3785851493_Single_t1397266774_Int32_t2950945753_Int32_t2950945753PFvvEPK10MethodInfoPvPS4_
VAc:__ZNK28RectTransformPropertyBinding9BindValueER6ObjectRKN11UnityEngine9Animation14GenericBindingERNS3_10BoundCurveE
LIa:__ZN11ColorRGBA328TransferI14SafeBinaryReadEEvRT_
nZn:_AudioSampleProvider_InvokeSampleFramesAvailable_m3478252833
qrf:_cff_vstore_done
xgf:__ZN5physx6shdfnd5ArrayIPvNS0_19ReflectionAllocatorINS_24NpPtrTableStorageManager8PtrBlockILi4EEEEEE15growAndPushBackERKS2_
gmb:__ZN9GfxDevice33ScheduleComputeBufferJobsInternalEPFvP20ComputeBufferJobDataEPFvRK8JobFenceEPK27ComputeBufferJobInstructionj
eYh:__Z68RuntimeInvoker_Void_t1185182177_UInt16_t2177724958_SByte_t1669577662PFvvEPK10MethodInfoPvPS4_
rCi:_InternalEnumerator_1_get_Current_m3008260692_AdjustorThunk
Dof:__ZN20TextRenderingPrivate8TextMesh8TransferI14SafeBinaryReadEEvRT_
Gvi:_MACTripleDES_HashFinal_m3613553534
kql:_UInt64_System_IConvertible_ToChar_m2074245892
TRa:__Z11IsHDRFormat13TextureFormat
Hil:_UTF8Encoding_InternalGetBytes_m1965760031
zg:_emscripten_glClearDepth
RCc:__ZNK8GUILayer22GetTypeVirtualInternalEv
tWa:__ZN14SafeBinaryRead21TransferSTLStyleArrayINSt3__26vectorIN15QualitySettings14QualitySettingENS1_9allocatorIS4_EEEEEEvRT_17TransferMetaFlags
$1n:_Physics2D_GetRayIntersectionNonAlloc_m2525277886
dGl:_KeyCollection__ctor_m2388548663_gshared
TWm:_Comparison_1_Invoke_m3423206938_gshared
R7a:__ZNSt3__26vectorINS_4pairIPKN5Unity4TypeE7Hash128EENS_9allocatorIS7_EEE8__appendEj
_2c:__ZN8JSONRead21TransferSTLStyleArrayI13dynamic_arrayIaLj0EEEEvRT_17TransferMetaFlags
trf:_cff_font_load
oJo:__GLOBAL__sub_I_LibraryLoader_cpp
dOc:__Z13IsPathCreatedRKN4core12basic_stringIcNS_20StringStorageDefaultIcEEEE
zUe:__ZN5physx35solveContactPreBlock_ConcludeStaticEPKNS_23PxcSolverConstraintDescEjRNS_16PxcSolverContextE
Ybj:_Debug_LogWarningFormat_m2535776735
bSa:__ZL22stbir__encode_scanlineP11stbir__infoiPvPfiii
AEh:_ExternalException__ctor_m2877839282
Tjf:__ZN20QuadTreeNodeRenderer13StaticDestroyEPv
y$:__ZN11UnityEngine15CloudWebService20WebRequestRestClient5AbortEv
GBm:_Regex_Matches_m2080913806
QBc:__ZN9Transform12CleanupClassEv
W0f:_TMP_MeshInfo__cctor_m2816277573
UVg:__ZL57FontData_t746620069_CustomAttributesCacheGenerator_m_FontP21CustomAttributesCache
o7d:__ZN5physx6shdfnd5ArrayIPvNS0_15InlineAllocatorILj256ENS0_19ReflectionAllocatorINS_2Cm5BlockIS2_Lj32EEEEEEEE15growAndPushBackERKS2_
O3e:__ZN5physx18PxsSolverStartTask13setupDescTaskEv
oof:_UNITY_FT_Set_Pixel_Sizes
q9j:_OperatingSystem_Clone_m1122165140
wnk:_Convert_ToUInt32_m1767593911
EE:__ZN11UnityEngine9Animation33SetGenericTransformPropertyValuesERKNS0_30AnimatorGenericBindingConstantERKN7mecanim10ValueArrayEP9Transformy
j0n:_Canvas_add_willRenderCanvases_m1234571137
PVd:__ZN5physx3Cct13BoxController6resizeEf
D0m:_List_1_RemoveAll_m3165362277_gshared
knl:_Type_type_is_subtype_of_m1406623598
joa:__ZL54__ManagedRegistrationHelperFunction_SpriteAtlasManagerPv
_1l:_List_1__ctor_m3151640588_gshared
Jbl:_String_System_IConvertible_ToByte_m4057316234
s5e:__ZN5physx6shdfnd5ArrayINS_2Cm12DelegateTaskINS_2Sc5SceneEXadL_ZNS5_19updateCCDSinglePassEPNS_10PxBaseTaskEEEEENS0_19ReflectionAllocatorIS8_EEE8recreateEj
gjl:_Thread_get_CurrentThread_m4142136012
kFa:__Z30ProcessDynamicBatchGeometryJobP25DynamicVBOGeometryJobDataj
j3b:__ZNSt3__27__sort4IRNS_6__lessI11CulledLightS2_EEPS2_EEjT0_S6_S6_S6_T_
pro:__ZN6il2cpp2vm14TypeNameParser26ParseArrayModifierOptionalEv
n9:__Z26scripting_object_get_class18ScriptingObjectPtr
Two:__ZN6il2cpp6icalls8mscorlib6System10Reflection8Assembly13get_code_baseEP24Il2CppReflectionAssemblyb
K8a:__ZNSt3__26vectorIN4core12basic_stringIcNS1_20StringStorageDefaultIcEEEE13stl_allocatorIS5_L18MemLabelIdentifier13ELi16EEE7reserveEj
wIj:_Array_InternalArray__ICollection_Contains_TisInt16_t2552820387_m2915683400_gshared
ggd:__Z25UpdateOrbitalAndRadialTplIL27ParticleSystemCurveEvalMode1ELS0_3ELS0_0EEvRK11MinMaxCurveS3_S3_S3_S3_S3_S3_R23ParticleSystemParticlesjjRKN4math8float3x3ERKNS6_7affineXERKNS6_7_float4E
PDc:__ZNK28MonoBehaviourPropertyBinding15GenerateBindingERKN4core12basic_stringIcNS0_20StringStorageDefaultIcEEEEbRN11UnityEngine9Animation14GenericBindingE
qpj:_RectTransform_INTERNAL_set_pivot_m1160676233
E5m:_List_1_set_Item_m35836043_gshared
tZi:_X509ChainElementCollection__ctor_m3424079155
iUn:__ZL25UnresolvedVirtualCall_175P12Il2CppObjectdPK10MethodInfo
X4o:_CameraController_Awake_m2307893076
vvi:_HMACSHA512__cctor_m4155933671
fzm:_LinkStack_Push_m3081279930
tzk:_TMP_TextInfo_Resize_TisTMP_WordInfo_t3331066303_m943255601_gshared
_0f:_TMP_ScrollbarEventHandler_OnDeselect_m2716618027
Aid:__Z20StartSingleSidedEdgeILN11ShapeModule14MultiModeValueE0EEvRS0_R23ParticleSystemParticlesRK19ParticleSystemStateRK27ParticleSystemEmissionStateRKN4math8float3x3ERKNSB_7affineXEjbj
wCl:_Enumerator_MoveNext_m1107569389_gshared
gbe:__ZNK5physx21PxsBodyTransformVault12getTransformERKNS_11PxsBodyCoreE
fKo:__ZN6il2cpp6icalls8mscorlib6System11Environment15internalGetHomeEv
WCl:_Enumerator_System_Collections_IEnumerator_get_Current_m2223443336_AdjustorThunk
Jhj:_Matrix4x4_GetHashCode_m4034747639_AdjustorThunk
CDh:_ResourceCacheItem_t51292791_marshal_pinvoke_cleanup
$ta:__ZNK5Unity9Component7GetNameEv
KIf:__ZN11UnityEngine9Analytics15UserCustomEvent15Internal_CreateE18ScriptingObjectPtrRKN4core12basic_stringIcNS3_20StringStorageDefaultIcEEEE
pdc:__Z23FindMonoScriptFromClass17ScriptingClassPtr
I6f:_TMP_Text_ReplaceClosingStyleTag_m761056113
S0n:_CanvasRenderer_SplitUIVertexStreams_m2753637362
BXd:__ZN44ConvexVsHeightfieldContactGenerationCallback7onEventEjPj
B4i:_VertexZoom_AnimateVertexColors_m3033224630
bqb:__ZN21ScalableBufferManager23UnregisterRenderSurfaceEP17RenderSurfaceBaseb
U3m:_List_1_System_Collections_IList_Remove_m1070694895_gshared
OFn:_LayoutCache__ctor_m3885940174
Jtd:__ZNK11b2RopeJoint16GetReactionForceEf
XF:__ZN7mecanim8skeleton26SkeletonPoseComputeGlobalQEPKNS0_8SkeletonEPKNS0_13SkeletonPoseTIN4math4trsXEEEPS7_ii
jql:_UInt64_System_IConvertible_ToByte_m1501504925_AdjustorThunk
g$n:_TextGenerator_Invalidate_m1072346986
I$n:_TextMesh_set_anchor_m3559070145
nnd:__ZN14ParticleSystem40OnTrailGeometryJobsScheduledRenderThreadERK8JobFence
l$j:_TlsClientHello_ProcessAsTls1_m2549285167
yii:__Z74RuntimeInvoker_Boolean_t97287965_UIVertex_t4057497605_UIVertex_t4057497605PFvvEPK10MethodInfoPvPS4_
PMm:_ReadOnlyCollection_1_System_Collections_IList_RemoveAt_m3006136027_gshared
FSe:__ZN5physx2Gu19_gjkRelativeRayCastINS0_9TriangleVENS0_8CapsuleVEEEbRT_RT0_RKNS_6shdfnd3aos15PsMatTransformVERKNS9_6FloatVERKNS9_5Vec3VESI_RSD_RSG_SK_f
x3i:_TMP_UiFrameRateCounter_Update_m2632221777
J9c:__ZN13TriggerModule8TransferI19StreamedBinaryWriteILb0EEEEvRT_
xF:__ZN9BlobWrite8TransferI22OffsetPtrArrayTransferIiEEEvRT_PKc17TransferMetaFlags
Zel:_EncoderExceptionFallback_Equals_m2760188920
HNo:__ZN6il2cpp6icalls8mscorlib6System7Runtime15InteropServices8GCHandle15GetTargetHandleEP12Il2CppObjectii
h4k:_RIPEMD160Managed_HashCore_m2350629432
Rbe:__ZN5physx6shdfnd5ArrayIPvNS0_15InlineAllocatorILj256ENS0_19ReflectionAllocatorINS_11NpAggregateEEEEEE15growAndPushBackERKS2_
Zac:__ZNK15LODGroupManager17CalculateLODMasksERK13LODParametersfPhPf
gQ:__ZN4FMOD6System7releaseEv
EOe:__ZN5physx6shdfnd8PoolBaseINS_2Sc18TriggerInteractionENS0_19ReflectionAllocatorIS3_EEE15disposeElementsEv
jKk:_Boolean_CompareTo_m3665076258
gcl:_String_Split_m3580120853
byl:_PrivateKeyInfo__ctor_m2811023496
Eba:__Z18PathToAbsolutePathRKN4core12basic_stringIcNS_20StringStorageDefaultIcEEEE
KGn:_GUILayoutUtility_LayoutFromEditorWindow_m2914699782
wra:__ZN9Scripting11UnityEngine12Experimental10PlayerLoop13PreLateUpdate9InitProxyEv
Wff:__ZN5physx28PxcContactCapsuleHeightFieldERKNS_2Gu13GeometryUnionES3_RKNS_11PxTransformES6_RKfRNS_10PxcNpCacheERNS0_13ContactBufferE
jIf:__ZN21UnityAnalyticsManager15ThreadedCleanupEv
rRo:__ZN6il2cpp6icalls8mscorlib6System10Reflection16MonoPropertyInfo16GetTypeModifiersEPvb
YFd:__ZThn160_N17PolygonCollider2D5ResetEv
xXd:__ZL31PointInConvexPolygon2D_OutCodesPKfjffffRh
HRa:__ZL13BlitImageImplR14ImageReferenceiiRKS_NS_10ColorSpaceENS_8BlitModeEb
RJc:__ZN15DirectorManager17AcquireOutputNodeEv
Wed:__ZL15AccumulateNoiseILb1ELi1EEN4math8floatNx2ERKNS0_8floatNx3ERKfiS6_S6_
PZa:__Z14resize_trimmedINSt3__26vectorI13dynamic_arrayI8Vector2fLj0EENS0_9allocatorIS4_EEEEEvRT_j
jtm:_Array_InternalArray__set_Item_TisColor32_t2600501292_m1891325855_gshared
WBk:_GameObject_GetComponentInChildren_TisRuntimeObject_m1310240902_gshared
fFl:_KeyCollection_System_Collections_Generic_ICollectionU3CTKeyU3E_Remove_m1071033400_gshared
ref:__ZN9Rigidbody12MoveRotationERK11Quaternionf
hEg:__ZL69PersistentCall_t3407714124_CustomAttributesCacheGenerator_m_ArgumentsP21CustomAttributesCache
mJa:__ZN16ReflectionProbes28GetMinBakedCubemapResolutionEv
C6e:__ZN5physx2Cm12DelegateTaskINS_2Sc5SceneEXadL_ZNS3_15postNarrowPhaseEPNS_10PxBaseTaskEEEE11runInternalEv
Cjf:__Z20ConvertContactToMonoP9Collision
s7n:__ZN15dense_hashtableINSt3__24pairIK10KeyWrapperIPK22Il2CppGenericParameterEP11Il2CppClassEES6_N6il2cpp5utils11PointerHashIS4_EEN14dense_hash_mapIS6_S9_SE_NS6_14EqualsComparerINS0_8equal_toIS5_EEEENS0_9allocatorISA_EEE9SelectKeyESJ_SL_E6insertERKSA_
RYf:_TMP_InputField_get_characterValidation_m293459329
K3f:_TMP_SubMeshUI_get_mesh_m1845552462
Hmn:_X509CertificateEnumerator__ctor_m85694331
sSb:__ZN14DataBufferGLES16RecreateWithDataEjPKv
xua:__Z29GetGlobalAllowNameConversionsv
wXd:__ZL17transformVerticesRfS_S_S_PfjPKN5physx6PxVec3EPKhRKNS1_7PxMat33E
$ff:__ZNK5physx2Gu15HeightFieldUtil31getFaceIndexAtShapePointNoTest2Ejff
vqm:_Array_InternalArray__Insert_TisTableRange_t3332867892_m558285859_gshared
POd:__ZNK12PhysXRaycast20FindParticleOverlapsER13dynamic_arrayI15BatchedOverlapsLj0EEPP8Colliderj
fec:__ZN8Material8SetColorEN9ShaderLab16FastPropertyNameERK10ColorRGBAf
UZl:_Enumerator_System_Collections_IEnumerator_Reset_m3754523291_gshared
Chm:_EqualityComparer_1__cctor_m2645305258_gshared
KMf:__ZN11UnityEngine7Connect20RemoteConfigSettings19ConfigUpdatedStaticEPS1_bbi
bS:__ZN11AudioSource23VirtualRedirectTransferER18StreamedBinaryReadILb0EE
QXi:_X509CertificateEnumerator__ctor_m943731472
G6k:_SHA512Managed_processLength_m2162821715
m7i:_Request_InfoString_m3189957263
qnj:_RangeInt_get_end_m4128831787
FPe:__ZNK5physx2Sq10AABBPruner5sweepERKNS0_9ShapeDataERKNS_6PxVec3ERfRNS0_14PrunerCallbackE
Mbp:dynCall_iiifiii
uOf:__Z25GetUnityConnectModuleSpecv
K2m:_List_1_set_Item_m2082115010_gshared
Mfl:_Encoding_GetBytes_m3735967069
cDd:__ZN23ColliderTilingExtension5ResetEv
JVb:__ZN14GfxContextGLES43AddRenderSurfaceToDeferredFBOInvalidateListEPK17RenderSurfaceGLES
jRe:__ZN5physx17PxsCCDAdvanceTask11runInternalEv
xwa:__ZN11NamedObject23VirtualRedirectTransferER14SafeBinaryRead
$cp:dynCall_vifiii
WGj:_Text_get_resizeTextMinSize_m1002355407
cof:__ZNSt3__26vectorIN20TextRenderingPrivate8FontImpl13CharacterInfoE13stl_allocatorIS3_L18MemLabelIdentifier1ELi16EEE6insertENS_11__wrap_iterIPKS3_EERS9_
mo:FUNCTION_TABLE_vifiiiiiiiiiiiii
UHk:_Array_CreateInstance_m1027597705
VCj:_Selectable_get_navigation_m3508916916
sJd:__ZN10Effector2D10EndContactEP9b2Contact
oLo:__ZN6il2cpp5utils11StringUtils11Utf16ToUtf8ERKNSt3__212basic_stringIDsNS2_11char_traitsIDsEENS2_9allocatorIDsEEEE
i0o:_JSONArray_Remove_m640712101
fVj:_MD4Managed_Decode_m4273685594
g0d:__ZN5physx3Cct26CharacterControllerManagerD2Ev
uZh:__Z57RuntimeInvoker_Quaternion_t2301928331_Vector3_t3722313464PFvvEPK10MethodInfoPvPS4_
ibh:_Compute_DT_EventArgs__ctor_m1008311213
Ybb:__ZN21LightProbeProxyVolume18HasHardwareSupportEv
v6b:__ZN26LightProbeProxyVolumeCacheC2ER13BatchRendererR15RenderLoopStats
F_k:_IntPtr__ctor_m620280096
ula:__ZN6prcoreL31inner_stretch_argb8888_bilinearEPKNS_9InnerInfoE
tDb:__Z18Transfer_BlittableI18StreamedBinaryReadILb1EELb1E8BitFieldEvRK29SerializationCommandArgumentsR31RuntimeSerializationCommandInfo
Kvf:_UNITY_FT_Outline_Decompose
TUl:_Enumerator_System_Collections_IEnumerator_get_Current_m3484854280_gshared
PWb:__ZNK12GraphicsCaps24GetFallbackSampledFormatE14GraphicsFormat
Tln:_GeneralNames_get_IPAddresses_m4242915644
hQo:_GC_init_size_map
xKm:_ReadOnlyCollection_1_System_Collections_IList_RemoveAt_m1118392812_gshared
MQe:__ZN5physx6shdfnd8internal8HashBaseINS0_4PairIKNS3_IPKNS_12PxsRigidCoreEPKNS_12PxsShapeCoreEEEPNS_11PxsCCDShapeEEESA_NS0_4HashISA_EENS1_11HashMapBaseISA_SD_SG_NS0_9AllocatorEE6GetKeyESI_Lb1EE15reserveInternalEj
pVf:_TMP_Dropdown_set_captionText_m4280879908
CBa:__Z20scripting_object_new17ScriptingClassPtr
xAn:_CRC32__ctor_m3861574013
edp:dynCall_iiiiifi
vta:__ZN9Scripting5Unity11Collections39NativeMatchesParallelForLengthAttribute12CleanupProxyEv
oyl:_KeyGeneratedEventHandler_Invoke_m2527485594
lid:__Z16RandomUnitVectorRKN4math7_float4ES2_
A5o:_TeleType__ctor_m1571455078
sLe:__ZN5physx2Sc5Scene21setDominanceGroupPairEhhRKNS_20PxDominanceGroupPairE
Brk:_Decimal__ctor_m1925875020_AdjustorThunk
$ra:__ZN9Scripting11UnityEngine6Events14UnityEventBase12CleanupProxyEv
$Ga:__ZN18ShadowMapJobHeaderD0Ev
b9c:__ZN16CustomDataModule8TransferI18StreamedBinaryReadILb0EEEEvRT_
P:Math_exp
Abm:_Dictionary_2_ToTKey_m224697230_gshared
dq:FUNCTION_TABLE_iiifi
sGo:__ZN6il2cpp2os5posix13PosixAutoLockD2Ev
sId:__ZN13BoxCollider2D15InitializeClassEv
QHn:_SymmetricTransform_OFB_m3690147804
BJb:__ZN13MonoBehaviour9SetScriptERK4PPtrI10MonoScriptE18ScriptingObjectPtr
h2n:_RaycastHit2D_get_collider_m1549426026
oyk:_Dictionary_2_Do_CopyTo_TisKeyValuePair_2_t727985506_TisKeyValuePair_2_t727985506_m1839692500_gshared
BYi:_X500DistinguishedName_GetSeparator_m1336760642
TCe:__ZN5physx7NpScene12loadFromDescERKNS_11PxSceneDescE
shb:__ZNK10FileSystem16LastErrorMessageEv
Xrm:_Array_InternalArray__Insert_TisVector3_t3722313464_m3862657277_gshared
vPm:_ReadOnlyCollection_1_System_Collections_Generic_IListU3CTU3E_get_Item_m1659090079_gshared
j_a:__ZN15SerializeTraitsI13dynamic_arrayI12SpriteVertexLj0EEE19ResizeSTLStyleArrayERS2_i
n9k:_SecurityException__ctor_m1631242336
t9n:__ZN15dense_hashtableINSt3__24pairIK10KeyWrapperIPK11Il2CppClassEPKcEES6_N6il2cpp5utils11PointerHashIS3_EEN14dense_hash_mapIS6_S9_SE_NS6_14EqualsComparerINS0_8equal_toIS5_EEEENS0_9allocatorISA_EEE9SelectKeyESJ_SL_E14squash_deletedEv
vih:_EventSystem_Update_m1662072334
yMc:__ZN11TimeManager16HasFixedTimeStepEv
NYf:_TMP_InputField_set_inputType_m3691041596
zRf:__ZN22UnityWebRequestManager10InitializeEv
Dvk:_Enum_ToString_m2477889358
G9a:__ZNSt3__26__treeINS_12__value_typeIN4core12basic_stringIcNS2_20StringStorageDefaultIcEEEE4PPtrI6ObjectEEENS_19__map_value_compareIS6_SA_NS_4lessIS6_EELb1EEE13stl_allocatorISA_L18MemLabelIdentifier52ELi16EEE15__emplace_multiIJRNS_4pairIS6_S9_EEEEENS_15__tree_iteratorISA_PNS_11__tree_nodeISA_PvEEiEEDpOT_
vxb:__ZL26Transfer_SimpleNativeClassI17RemapPPtrTransfer8GradientLb1EEvRK29SerializationCommandArgumentsR31RuntimeSerializationCommandInfo
Zhh:_RaycasterManager_RemoveRaycasters_m3057093063
o6f:_TMP_Text_set_isVolumetricText_m2363419080
Xoc:__ZN12CachedWriter9InitWriteER15CacheWriterBase
GJc:__Z21UnsignedInt64ToStringy
tBj:_GetRaycastNonAllocCallback_BeginInvoke_m3984885848
Wzm:_PatternCompiler_BeginLink_m1295557963
qLe:__ZN5physx14PxsAABBManager15createAggregateEPvb
gDm:_Group_GetAnchorInfo_m3730312864
gWg:__ZL50Graphic_t1660335611_CustomAttributesCacheGeneratorP21CustomAttributesCache
puh:_GridLayoutGroup_set_constraint_m3308895167
GGl:_KeyCollection_System_Collections_Generic_ICollectionU3CTKeyU3E_Add_m454648927_gshared
Dml:_TimeSpan_op_LessThanOrEqual_m300470010
Npk:_DateTime_GetDateTimeFormats_m3421493225
FMg:__ZL139AnimatorOverrideController_t3582062219_CustomAttributesCacheGenerator_AnimatorOverrideController_OnInvalidateOverrideController_m3380737075P21CustomAttributesCache
R6e:__ZN5physx2Sc15ClothFabricCore4loadERKNS_17PxClothFabricDescE
wyc:__Z66Register_UnityEngine_Transform_INTERNAL_CALL_InverseTransformPointv
s_m:_Nullable_1_GetHashCode_m1030690889_gshared
Vfa:__ZZN15DirectorManager15InitializeClassEvEN41FixedUpdateDirectorFixedUpdateRegistrator7ForwardEv
U2k:_MemoryStream_get_Position_m3733941202
ib:invoke_iiiiifiiiif
vek:_GenericTypeParameterBuilder_InvokeMember_m1647304778
Nuh:_HorizontalOrVerticalLayoutGroup_set_childControlWidth_m3261460516
Ulp:_glLinkProgram__wrapper
Mfb:__ZN18ScriptingArguments8AddInt64Ex
Fka:__ZN6prcoreL12RemapGenericI17TexFormatARGB888815TexFormatBGR888EEvPKNS_9InnerInfoE
zrb:__ZN26SinglePassStereoSupportExt19SaveStereoConstantsEv
uha:__ZNSt3__26vectorIP10MemoryPool13stl_allocatorIS2_L18MemLabelIdentifier76ELi16EEE21__push_back_slow_pathIRKS2_EEvOT_
oWk:_TextInfo_get_ListSeparator_m1628160079
tdd:__Z20UpdateCustomCurveTplIL27ParticleSystemCurveEvalMode1EEvRK11MinMaxCurveR23ParticleSystemParticlesiijjRKN4math5_int4E
pFj:_Selectable_OnCanvasGroupChanged_m472903475
pjl:_EventWaitHandle_Reset_m3348053200
Cbd:__ZNK10SizeModule6UpdateER23ParticleSystemParticlesjj
gpe:__ZN5physx7NpShape8requiresERNS_23PxProcessPxBaseCallbackE
kAo:__ZN6il2cpp6icalls8mscorlib6System13Globalization11CultureInfo35construct_internal_locale_from_nameEP17Il2CppCultureInfoP12Il2CppString
d2l:_List_1_System_Collections_IList_Add_m2656245659_gshared
Dzb:__ZL22Transfer_ManagedObjectI24GenerateTypeTreeTransferLb1EEvRK29SerializationCommandArgumentsR31RuntimeSerializationCommandInfo
I0b:__ZN15RenderNodeQueueC2E10MemLabelId
ybn:_Collection_1_System_Collections_ICollection_CopyTo_m1597420376_gshared
F7i:_ResponseCallbackDispatcher__cctor_m70018758
yDh:_ResourceEnumerator_FillCache_m1661715061
Wmg:__ZL72SecuritySafeCriticalAttribute_t3505979402_CustomAttributesCacheGeneratorP21CustomAttributesCache
Rk:_emscripten_set_main_loop_timing
w9i:_Bounds_get_min_m3755135869
rPj:_Array_InternalArray__IndexOf_TisKeyValuePair_2_t2245450819_m1517102824_gshared
$mk:_Convert_ToUInt16_m3523269149
ITb:__ZN14DataBufferGLES12RecordRenderEv
ujh:_ExecuteEvents_get_endDragHandler_m2879610446
xDn:_TMP_TextUtilities_FindIntersectingLink_m2257840797
JXe:__ZNK5physx20SingleAABBUpdateTask7getNameEv
Ldc:__ZN14ImageReference10FlipImageYEv
Axm:_Interpreter_GetLastDefined_m4107643411
o8c:__ZN21InheritVelocityModule8TransferI17RemapPPtrTransferEEvRT_
H1k:_FileStream_RefillBuffer_m4186945278
hAa:__ZN21ScalableBufferManager20GetHeightScaleFactorEv
VVo:_BossBullet_Update_m3668511664
$M:__ZN4FMOD3DSP9setBypassEb
lhc:__Z19NormalizeWheelInputf
rth:_Graphic_DoMeshGeneration_m3548487693
uJ:__ZN11KeyframeTplIfE8TransferI14SafeBinaryReadEEvRT_
bBm:_Repetition__ctor_m1672362629
m4c:__Z29Transfer_Blittable_ArrayFieldI8JSONReadhEvRT_R9ArrayInfoRK23StaticTransferFieldInfo
qal:_SecurityFrame_ToString_m339310712_AdjustorThunk
Exh:_TypeBuilder_create_runtime_class_m2581270900
poc:__ZN11MonoManager25GetImageFromAssemblyIndexEi
mCi:_InternalEnumerator_1_get_Current_m3008260692_gshared
Gte:__ZN5physx2Sc9ClothCore17addCollisionPlaneERKNS_21PxClothCollisionPlaneE
jCa:__ZN22RenderingCommandBuffer20CleanupCommandBufferEv
Lkk:_Decimal_op_Implicit_m2299919277
RXl:_Enumerator_MoveNext_m3275886745_gshared
a$c:__Z18Transfer_BlittableI9JSONWriteLb1EtEvRK29SerializationCommandArgumentsR31RuntimeSerializationCommandInfo
Fid:__Z10StartDonutILN11ShapeModule14MultiModeValueE0EEvRS0_R23ParticleSystemParticlesRK19ParticleSystemStateRK27ParticleSystemEmissionStateRKN4math8float3x3ERKNSB_7affineXEjbj
R3j:_UnexceptionalStreamReader_ReadToEnd_m920589220
Kok:_DateTime_System_IConvertible_ToType_m1242864300
Fcl:_String_IndexOf_m1298810678
kl:___syscall85
uFf:__ZN2UI14CanvasRenderer18UpdateTRSHierarchyEb
R8e:__ZNK5physx13PxHeightField8isKindOfEPKc
N0b:__ZNSt3__26__sortIRPFbP10GUIElementS2_EPS2_EEvT0_S7_T_
qck:_ConstructorBuilder_GetILGenerator_m1750792206
kfl:_EncoderFallback_get_ReplacementFallback_m818398284
kJo:__ZN6il2cpp2os6Thread19DetachCurrentThreadEv
Qih:_EventTrigger_OnBeginDrag_m4203438710
O7n:__ZN6il2cpp2vmL21SetupInterfacesLockedEP11Il2CppClassRKNS_2os12FastAutoLockE
dsb:__ZN11MonoManager23VirtualRedirectTransferER24GenerateTypeTreeTransfer
vD:__ZN23AnimationPlayableOutput17SetSourcePlayableEP8Playable
uqd:__ZL24BuildParticleLineSegmentILb1EEvjRPhRKN4math8float4x4EPK15LineBuilderDataRKfSA_11ColorRGBA32
bml:_TimeSpan_CompareTo_m3633415627_AdjustorThunk
oJi:_InternalEnumerator_1_get_Current_m1900477722_gshared
xZk:_Int32_ToString_m2507389746_AdjustorThunk
V8l:_List_1_System_Collections_IList_Contains_m3829146114_gshared
wbj:_CullingGroup_Dispose_m782801025
O_d:__ZN16ControllerFilter9preFilterERKN5physx12PxFilterDataEPKNS0_7PxShapeEPKNS0_12PxRigidActorERNS0_7PxFlagsINS0_9PxHitFlag4EnumEtEE
y_:__ZN11UnityEngine15CloudWebService14DataDispatcher15SetupWebRequestEv
iin:_Collection_1_ConvertItem_m492501417_gshared
DLf:__ZN11UnityEngine15PlatformWrapper13GetShaderCapsEv
FWe:__ZN16MBPOS_TmpBuffers16allocateSleepingEjj
Bek:_GenericTypeParameterBuilder_IsDefined_m98179866
lxl:_KeyPairPersistence_get_MachinePath_m3812267291
Shk:_Stack_Peek_m2216191248
xok:_DateTime_System_IConvertible_ToDecimal_m1044850612_AdjustorThunk
hDc:__ZN21FixedBehaviourManager6UpdateEv
Exc:__ZN9Transform9SetParentEPS_NS_15SetParentOptionE
Y8c:__ZN15CollisionModule8TransferI18StreamedBinaryReadILb0EEEEvRT_
U2n:_AnimatorControllerPlayable_SetHandle_m2260644454_AdjustorThunk
vEa:__ZN19ShaderPropertySheet8SetFloatEN9ShaderLab16FastPropertyNameEfNS_8SetFlagsE
O4n:_Physics_Raycast_m952690504
uab:__ZN19RuntimeSceneManager24BeginIntegrateMainThreadEP10UnityScene
Oce:__ZN5physx14NpArticulation26setExternalDriveIterationsEj
DRd:__ZN16RayRTreeCallbackILi0ELb0EED0Ev
bDn:_TMP_TextInfo__ctor_m1227556611
b0e:__ZN5physx20PxsParticleSystemSim23scheduleCollisionUpdateERNS_10PxBaseTaskE
YJo:__ZNSt3__2plIcNS_11char_traitsIcEENS_9allocatorIcEEEENS_12basic_stringIT_T0_T1_EERKS9_S6_
N2j:_StringReader_CheckObjectDisposedException_m3796163530
ypl:_UInt32_System_IConvertible_ToInt16_m1659441601
Fkc:__ZN9ShaderLab20SerializedSubProgramaSERKS0_
fbp:_roundf
XKk:_Byte_System_IConvertible_ToSingle_m324484566_AdjustorThunk
eUn:__ZL25UnresolvedVirtualCall_171P12Il2CppObjectf19Vector2_t2156229523aPK10MethodInfo
Jik:_Decimal_op_Explicit_m2848387298
Unm:_KeyValuePair_2_ToString_m1238786018_gshared
Qw:__ZN8Animator15SetPrepareStageEv
QK:__ZN8AnimatorC2E10MemLabelId18ObjectCreationMode
P7n:__ZN6il2cpp2vmL24SetupTypeHierarchyLockedEP11Il2CppClassRKNS_2os12FastAutoLockE
vhc:__ZL11TextHandleriPK23EmscriptenKeyboardEventPv
e6b:__Z20CalculateLightMatrixRK15SharedLightDataP10Matrix4x4f
qnf:_destroy_face
oPn:_Vector3__ctor_m1719387948
hSc:__Z31Mesh_CUSTOM_get_bounds_InjectedP12Il2CppObjectR4AABB
GRo:__ZN6il2cpp6icalls8mscorlib6System8Security12Cryptography24RNGCryptoServiceProvider13RngInitializeEP11Il2CppArray
kvg:__ZL68UsedByNativeCodeAttribute_t1703770351_CustomAttributesCacheGeneratorP21CustomAttributesCache
okd:__ZN21RotationBySpeedModuleD0Ev
kS:__ZN20SoundChannelInstance7setMuteEb
$$d:__ZN5physx3Cct26CharacterControllerManager21createObstacleContextEv
Mok:_DateTimeUtils_ToString_m1782212840
Qom:_Array_InternalArray__ICollection_Add_TisVector2_t2156229523_m4029235359_gshared
J2m:_List_1_get_Item_m1686506901_gshared
Z8j:_NumberFormatter_NumberToString_m3906556024
uEb:__Z19TransferField_ArrayI18StreamedBinaryReadILb1EE27Converter_SimpleNativeClassI17AnimationCurveTplIfEEEvRK23StaticTransferFieldInfoR31RuntimeSerializationCommandInfoRT0_
TId:__ZN7b2World18SetContactListenerEP17b2ContactListener
jpd:__Z19UpdateSingleRow2TplIL27ParticleSystemCurveEvalMode1ELS0_1EEvfRK11MinMaxCurveS3_RK23ParticleSystemParticlesPfbiii
_Tb:__ZN18GfxFramebufferGLES22MakeCurrentFramebufferENS_7BuiltinE
dFe:__ZN5physx6shdfnd5ArrayIPNS_2Sc19ShapeInstancePairLLENS0_19ReflectionAllocatorIS4_EEE15growAndPushBackERKS4_
iIa:__ZN12CachedReader4ReadEPvj
wpf:_cf2_blues_init
ahe:__ZN5physx2Sc8BodyCore24clearSpatialAccelerationEbb
dRg:__ZL49Canvas_t3310196443_CustomAttributesCacheGeneratorP21CustomAttributesCache
hBh:_MonoMethod_ShouldPrintFullName_m1607666412
ANn:_Toggle_OnPointerClick_m3526893169
jdd:__ZNK14RotationModule6UpdateERK27ParticleSystemReadOnlyStateRK19ParticleSystemStateR23ParticleSystemParticlesRKN4math7_float4Ejj
d8:__ZN19RuntimeSceneManagerD2Ev
kIj:_Array_InternalArray__ICollection_Contains_TisKeyValuePair_2_t727985506_m2528174741_gshared
FSk:_CCGregorianCalendar_GetMonth_m1547203696
O$:__ZN11UnityEngine15CloudWebService25WebRequestDownloadHandler17OnCompleteContentEv
oSa:__ZN6prcore17GetIntegerBlitterE13TextureFormatS0_N14ImageReference8BlitModeE
IPo:_GC_print_block_descr
YEe:__ZN5physx10PxsContext20createContactManagerERKNS_24PxvManagerDescRigidRigidEPNS_18PxsMaterialManagerE
zGd:__ZN13BoxCollider2DD0Ev
$na:__ZL51__ManagedRegistrationHelperFunction_ResourceRequestPv
X6d:__ZN5physx2Sc5Scene31removeActiveBreakableConstraintEPNS0_13ConstraintSimE
SRl:_Dictionary_2_ToTKey_m59443895_gshared
l_i:_Socket_set_SendTimeout_m2494155708
dMm:_ReadOnlyCollection_1_System_Collections_IList_Clear_m1160136535_gshared
APc:__ZN9BlobWrite14ReduceCopyImplERK14ReduceCopyDataj
GQj:_Array_LastIndexOf_TisRuntimeObject_m1677937501_gshared
eW:__ZN11AudioSource18IsPlayingScriptingEv
dxl:_KeyBuilder_IV_m2230195376
PKl:_Transform_1_Invoke_m3983555223_gshared
iud:__ZNK12b2WheelJoint10GetAnchorAEv
tJe:__ZN5physx6shdfnd5ArrayINS_12PxActorShapeENS0_19ReflectionAllocatorIS2_EEE15growAndPushBackERKS2_
gjb:__ZN25MultiBlocksMemoryFileData17AdjustBlocksCountEj
dxo:__ZNSt3__214__split_bufferIN6il2cpp2vm22EmbeddedResourceRecordERNS_9allocatorIS3_EEED2Ev
X5i:_CookieJar_get_Instance_m918869625
xlf:__ZN13TextRendering4Font8TransferI24GenerateTypeTreeTransferEEvRT_
u$i:_SocketAsyncCall_Invoke_m3982016662
oYf:_TMP_InputField_set_onValueChanged_m1887358354
Wsc:__Z27CullingGroup_CUSTOM_DisposeP12Il2CppObject
wod:__Z18UpdateSingleRowTplIL27ParticleSystemCurveEvalMode0EEvfRK11MinMaxCurveS3_RK23ParticleSystemParticlesPfbiii
B0n:_CanvasRenderer_INTERNAL_CALL_GetColor_m597074473
Mle:__ZN5physx2Sc14ConstraintCore8setFlagsENS_7PxFlagsINS_16PxConstraintFlag4EnumEtEE
tn:_glStencilMask
KJo:__ZN6il2cpp2os10ThreadImpl16GetCurrentThreadEv
N7e:__ZNK5physx2Sc15ClothFabricCore20getNbParticleIndicesEv
nhc:__ZN15GUIEventManager10QueueEventERK10InputEvent
rDh:_ResourceReader_ReadNonPredefinedValue_m2638853518
Hfo:_AnalyticsEvent_OnValidationFailed_m2609604624
hNg:__ZL62EventType_t3528516131_CustomAttributesCacheGenerator_mouseMoveP21CustomAttributesCache
iEh:_DecimalConstantAttribute__ctor_m3583301917
O1f:_TMP_SpriteAnimator_DoSpriteAnimation_m4244961026
jZh:__Z116RuntimeInvoker_Vector3_t3722313464_Vector3_t3722313464_Vector3_t3722313464_Vector3U26_t3464235976_Single_t1397266774PFvvEPK10MethodInfoPvPS4_
iPo:_GC_push_conditional_with_exclusions
OPe:__ZN5physx2Sq8AABBTree11shiftOriginERKNS_6PxVec3E
$Co:__GLOBAL__sub_I_GenericMetadata_cpp
kxn:__ZN30GenericInterfaceActionInvoker4IP12Il2CppObjectS1_S1_S1_E6InvokeEPK10MethodInfoS1_S1_S1_S1_S1_
H2a:__Z31DrawSpriteDeformedFromNodeQueueRK15RenderNodeQueuej16VertexInputMasksi
cFm:_UriParser_InitializeAndValidate_m2008117311
OOo:_GC_make_disappearing_links_disappear
i8o:_strrchr
Cpk:_DateTime_IsDaylightSavingTime_m2632700238_AdjustorThunk
n6d:__ZN5physx2Sc7BodySim6wakeUpEv
Cmh:_UIBehaviour_IsDestroyed_m3033055982
OEe:__ZN5physx6shdfnd8PoolBaseINS_2Gu30LargePersistentContactManifoldENS0_19ReflectionAllocatorIS3_EEE17releaseEmptySlabsEv
K6d:__ZN5physx2Sc21ConstraintInteraction7destroyEv
DUc:__Z33Register_UnityEngine_Random_Rangev
cvj:_InputField_get_readOnly_m3111985574
zJa:__ZN14RenderSettings27UpdateIndirectSpecularColorEv
pCg:__ZL59RectOffset_t1369453676_CustomAttributesCacheGenerator_m_PtrP21CustomAttributesCache
_6a:__ZN14PlayerSettings8TransferI18StreamedBinaryReadILb0EEEEvRT_
tio:__ZN6il2cpp6icalls8mscorlib6System8MonoType16GetMethodsByNameEP20Il2CppReflectionTypeP12Il2CppStringibS5_
dZo:_GameOverMenu_SendScore_m2393156162
sGe:__ZNK5physx7NpScene16getNbConstraintsEv
bLc:__ZN8Renderer20SetShadowCastingModeE17ShadowCastingMode
N5i:_Cookie_CollidesWith_m3724591895
Y3i:_VertexShakeA__ctor_m1957129449
pse:__ZN5physx7NpCloth14setWakeCounterEf
Apn:_RijndaelTransform__cctor_m2439033240
eOb:__ZNSt3__27__sort3IRNS_4lessIN22BuiltinResourceManager8ResourceEEEPS3_EEjT0_S7_S7_T_
qyf:_ps_hints_t2mask
dAk:_LayoutGroup_SetProperty_TisVector2_t2156229523_m2721164497_gshared
iKj:_Array_InternalArray__ICollection_Remove_TisMonoResource_t4103430009_m238733686_gshared
kGj:_Slider_Set_m1476104429
cvh:_Image_set_fillClockwise_m2210525152
u4a:__ZN10BlendShape8TransferI19StreamedBinaryWriteILb0EEEEvRT_
Tif:__ZN14PhysicsManagerC2E10MemLabelId18ObjectCreationMode
vAk:_Array_InternalArray__get_Item_TisKeyValuePair_2_t625878672_m751890403_gshared
hkj:_PlayerConnection_DisconnectedCallback_m1697017309
P5a:__Z19GetTimeSinceStartupv
Cvh:_Image_AddQuad_m2161647989
IZl:_Enumerator_System_Collections_IEnumerator_Reset_m2953002685_gshared
Mxf:_TT_Load_Composite_Glyph
V4a:__Z33MultiplyMatrixArrayWithBase4x4REFPK10Matrix4x4fS1_S1_PS_j
fu:__ZL51__ManagedRegistrationHelperFunction_ScaleConstraintPv
$um:_Array_Resize_TisTMP_WordInfo_t3331066303_m2364034418_gshared
yOa:__ZN9ShaderLab11shaderprops9GetTexEnvEPK19ShaderPropertySheetS3_NS_16FastPropertyNameE16TextureDimensionb
NPg:__ZL67ContactFilter2D_t3805203441_CustomAttributesCacheGenerator_maxDepthP21CustomAttributesCache
GGn:_GUILayoutGroup_CalcHeight_m1669391299
D3b:__ZN29RenderNodeQueuePrepareContextC2Ev
Bto:_il2cpp_gc_disable
cwi:_Promise_1_Reject_m617672045_gshared
Olc:__ZN9ShaderLab20SerializedSubProgram16TextureParameter8TransferI24GenerateTypeTreeTransferEEvRT_
Bta:__ZN9Scripting5Unity11Collections8LowLevel6Unsafe29NativeSetThreadIndexAttribute12CleanupProxyEv
xui:_DSASignatureDeformatter_SetKey_m2999549245
r3f:_TMP_SubMeshUI_get_mainTexture_m2995021644
eSo:__ZN6il2cpp2os11MutexHandle4WaitEb
Mlb:__ZN9GfxDevice19SaveStereoConstantsEv
dSo:__ZN6il2cpp2os11MutexHandle4WaitEj
htc:__ZL34GetComponentsImplementationRecurseILb1ELi1ELi1EEbR10GameObjectbRK17CompareParametersRK39GetComponentsImplementation_ReturnValue
vOh:__Z114RuntimeInvoker_Boolean_t97287965_RuntimeObject_RuntimeObject_Int32_t2950945753_Int32_t2950945753_Int32_t2950945753PFvvEPK10MethodInfoPvPS4_
Nbk:_AssemblyBuilder_GetTypes_m3415680380
Tja:__ZN6prcoreL17RemapGenericFloatI15TexFormatRGHalf18TexFormatARGBFloatEEvPKNS_9InnerInfoE
aMb:__Z18SimulateMouseInputi
z$b:__ZN13RenderManager23AddRemoveCamerasDelayedEv
nIf:__ZN11UnityEngine9Analytics15AnalyticsConfigC2Ev
z9j:_OverflowException__ctor_m4029085969
sJk:_BitConverter__cctor_m3841343255
qik:_Decimal_Compare_m3062820418
Mym:_IntervalCollection_GetMetaCollection_m4029522214
cef:__ZNK5Unity5Joint16GetCurrentForcesER8Vector3fS2_
B$n:_TextGenerator_get_characterCount_m864136654
rWo:_CollisionCheckerPowerUp_OnCollisionEnter2D_m1489399106
Bll:_TimeSpan__ctor_m2047388489_AdjustorThunk
rcc:__ZN13RenderTexture8SetWidthEi
_jd:__ZN11ColorModuleD0Ev
Cda:__ZN22BuiltinResourceManager16StaticInitializeEPv
Ten:_Collection_1_System_Collections_ICollection_CopyTo_m1516601228_gshared
mea:__ZN23DefaultMeshVertexFormatC2E18VertexChannelsInfo
CXk:_Int16_System_IConvertible_ToDouble_m1661805412
poe:__ZNK5physx9NpFactory11getNbShapesEv
Vwk:_Array_Sort_TisVector3_t3722313464_m1030213405_gshared
x3c:__ZN8JSONRead21TransferSTLStyleArrayI13dynamic_arrayI5RectTIiELj0EEEEvRT_17TransferMetaFlags
T5:__ZN9ShaderLab16FastPropertyName4InitEPKc
GNa:__ZN6ObjectC2E10MemLabelId18ObjectCreationMode
ro:FUNCTION_TABLE_iiiii
bFg:__ZL56PlayableGraph_t3515989261_CustomAttributesCacheGeneratorP21CustomAttributesCache
bGi:_InternalEnumerator_1_get_Current_m3911557813_AdjustorThunk
gLf:__ZN11UnityEngine15PlatformWrapper19GetPhysicalMemoryMBEv
Fz:__ZN17AnimationPlayable17GetAnimationClipsER13dynamic_arrayIP13AnimationClipLj0EE
FLk:_Char_System_IConvertible_ToByte_m2347554595_AdjustorThunk
$od:__Z20UpdateWholeSheet2TplIL27ParticleSystemCurveEvalMode0ELS0_2EEvfRK11MinMaxCurveS3_RK23ParticleSystemParticlesPf
Qsd:__ZN9Scripting11UnityEngine14ContactPoint2D9InitProxyEv
Ldl:_String_CreateString_m860434552
uga:__Z18GetDirectorManagerv
HMi:_InternalEnumerator_1_System_Collections_IEnumerator_get_Current_m2649471526_AdjustorThunk
uxc:__Z38Transform_CUSTOM_INTERNAL_get_rotationP12Il2CppObjectP11Quaternionf
MIg:__ZL99SceneManager_t2787271929_CustomAttributesCacheGenerator_SceneManager_LoadScene_m2298600132____mode1P21CustomAttributesCache
Nvo:__ZNK15dense_hashtableINSt3__24pairIK10KeyWrapperIP11Il2CppClassES4_EES5_N6il2cpp8metadata16SZArrayClassHashEN14dense_hash_mapIS5_S4_SA_NS5_14EqualsComparerINS9_19SZArrayClassCompareEEENS0_9allocatorIS7_EEE9SelectKeyESE_SG_E3endEv
D_h:__Z73RuntimeInvoker_Single_t1397266774_Vector2_t2156229523_Vector2_t2156229523PFvvEPK10MethodInfoPvPS4_
Cmo:__ZNK15dense_hashtableINSt3__24pairIK10KeyWrapperINS1_IPK10MethodInfoP11Il2CppClassEEEjEES9_17ReflectionMapHashIS8_EN14dense_hash_mapIS9_jSD_NS9_14EqualsComparerINS0_8equal_toIS8_EEEENS0_9allocatorISB_EEE9SelectKeyESI_SK_E5beginEv
tSb:__ZN7ApiGLES19UploadBufferSubDataEjN2gl12BufferTargetEllPKv
vQe:__ZN5physx2Sc5Scene17createClothSolverEv
Nia:__ZNSt3__216__rotate_forwardINS_11__wrap_iterIPN4core12basic_stringIcNS2_20StringStorageDefaultIcEEEEEEEET_S9_S9_S9_
YEk:_SmallXmlParserException__ctor_m1976648878
jFj:_Selectable_get_isPointerDown_m3518318267
$6k:_SymmetricAlgorithm_set_KeySize_m3805756466
Arc:__Z40SpriteRenderer_CUSTOM_INTERNAL_get_colorP12Il2CppObjectP10ColorRGBAf
fEf:__Z44Register_UnityEngine_Canvas_get_pixelPerfectv
A4o:_Benchmark01_Start_m4262200517
UVe:__ZN15MBP_PairManager17removeMarkedPairsEPK10MBP_ObjectPN5physx16PxsBroadPhaseMBPERK8BitArrayS8_
$Kk:_Byte_System_IConvertible_ToUInt32_m1049546902_AdjustorThunk
rAo:__ZN6il2cpp6icalls8mscorlib6System10Reflection10MonoMethod19GetGenericArgumentsEP22Il2CppReflectionMethod
UXh:__Z53RuntimeInvoker_Double_t594665363_Interval_t1802865632PFvvEPK10MethodInfoPvPS4_
oOb:__Z21InitializeBatchedJobsv
v0n:_CanvasGroup_get_blocksRaycasts_m1805542303
J5k:_SHA1Internal_ProcessBlock_m1991889327
vub:__Z19TransferField_ArrayI14SafeBinaryRead27Converter_SimpleNativeClassI8GUIStyleEEvRK23StaticTransferFieldInfoR31RuntimeSerializationCommandInfoRT0_
qIb:__ZN9TextAsset23VirtualRedirectTransferER19StreamedBinaryWriteILb0EE
awk:_Array_Sort_TisRuntimeObject_TisRuntimeObject_m1685639929_gshared
Hhd:__Z25UpdateOrbitalAndRadialTplIL27ParticleSystemCurveEvalMode0ELS0_1ELS0_3EEvRK11MinMaxCurveS3_S3_S3_S3_S3_S3_R23ParticleSystemParticlesjjRKN4math8float3x3ERKNS6_7affineXERKNS6_7_float4E
gll:_TimerCallback_Invoke_m1938221087
UIa:__ZN14RenderSettings5ResetEv
Loc:__ZN6Sprite9BindAtlasERK4PPtrI11SpriteAtlasE
WZc:__ZN5Unity9rapidjson12GenericValueINS0_4UTF8IcEE13JSONAllocatorE10FindMemberIS4_EENS0_21GenericMemberIteratorILb0ES3_S4_EERKNS1_IS3_T_EE
Sne:__ZN5physx9NpPhysics33unregisterDeletionListenerObjectsERNS_18PxDeletionListenerEPKPKNS_6PxBaseEj
ZFi:_InternalEnumerator_1_System_Collections_IEnumerator_get_Current_m3892960115_AdjustorThunk
foc:__ZN9ShaderLabL18AddPropertyToArrayERK19ShaderPropertySheetR13dynamic_arrayIiLj0EERKNS_8FloatValE
nue:__ZNK5physx2Sc9ClothCore22getAngularInertiaScaleEv
akk:_Convert_ToDateTime_m1800003024
bvi:_HMAC_HashCore_m3684104066
vOf:__Z13RegisterClassI20UnityConnectSettingsEvPKc
EXm:__ZN28GenericInterfaceFuncInvoker2Ii20UIVertex_t4057497605S0_E6InvokeEPK10MethodInfoP12Il2CppObjectS0_S0_
fZc:__ZN5Unity9rapidjson13GenericReaderINS0_4UTF8IcEES3_13JSONAllocatorE11ParseNumberILj1ENS0_25GenericInsituStringStreamIS3_EENS0_15GenericDocumentIS3_S4_S4_EEEEvRT0_RT1_
zfe:__ZN5physx20NpRigidActorTemplateINS_18PxArticulationLinkEE12setActorFlagENS_11PxActorFlag4EnumEb
CKf:__ZN22BaseUnityConnectClient20StartEventDispatcherEv
W1a:__ZN14SpriteRenderer14OnChangeSpriteEv
uJo:__ZN6il2cpp2os10ThreadImplD2Ev
Oqd:__ZN14ParticleSystem18MarkAllSubEmittersEPS_
j_c:__ZN8Gradient8TransferI9JSONWriteEEvRT_
Z4h:__Z90RuntimeInvoker_Boolean_t97287965_Vector3_t3722313464_Vector3_t3722313464_Int32_t2950945753PFvvEPK10MethodInfoPvPS4_
Fwa:__ZNK12TLSAllocatorI14StackAllocatorE22GetAllocatedMemorySizeEv
pNc:__Z32GetSceneHierarchyPathDescriptivePK6Object
vjm:_EqualityComparer_1_System_Collections_IEqualityComparer_GetHashCode_m2138064395_gshared
cgb:__ZN12HandlerChain4NameEv
_yc:__ZN17AnimationCurveTplIfE15SetPostInfinityE8WrapMode
PXk:_Int16_System_IConvertible_ToType_m3672347013_AdjustorThunk
Gn:FUNCTION_TABLE_fiiiiiifiiiiiif
aal:_SecurityException_ToString_m3228070608
uYk:_Int16_ToString_m2013897809
h3e:__ZN5physx37setupFinalizeSolverConstraintsCoulombERNS_13PxcNpWorkUnitERKNS_2Gu13ContactBufferERKNS_27PxcCorrelationBufferCoulombERKNS_11PxTransformESB_bPhRKNS_13PxcSolverBodyESF_RKNS_17PxcSolverBodyDataESI_ffjffff
Bgd:__Z25UpdateOrbitalAndRadialTplIL27ParticleSystemCurveEvalMode2ELS0_1ELS0_3EEvRK11MinMaxCurveS3_S3_S3_S3_S3_S3_R23ParticleSystemParticlesjjRKN4math8float3x3ERKNS6_7affineXERKNS6_7_float4E
NFf:__Z44Register_UnityEngine_CanvasRenderer_get_cullv
bCk:_ScriptableObject_CreateInstance_TisRuntimeObject_m1552711675_gshared
ewo:__ZNSt3__214__split_bufferIN6il2cpp8metadata18GenericArrayMethodERNS_9allocatorIS3_EEEC2EjjS6_
KKf:__ZN11UnityEngine7Connect17XRDeviceInfoEvent12XRDeviceInfoD2Ev
ysb:__Z44InitializeTransferFunctionScriptingTraitsForI17RemapPPtrTransferEvR31TransferFunctionScriptingTraits
DBc:__ZNSt3__26vectorI16MessageForwarder13stl_allocatorIS1_L18MemLabelIdentifier7ELi8EEE6resizeEj
fZi:_X509Chain_SelectBestFromCollection_m1068759221
THn:_SymmetricTransform_TransformBlock_m851059707
icd:__Z19UpdateProceduralTplIL27ParticleSystemCurveEvalMode4EEvRK20DualMinMaxPolyCurvesR23ParticleSystemParticlesPfRKN4math7_float4E
N7m:_Enumerator_System_Collections_IEnumerator_Reset_m2261065994_AdjustorThunk
aEj:_ScrollRect_get_verticalNormalizedPosition_m3693218937
VUe:__ZN5physx31ComputeCreatedDeletedPairsListsEPKjS1_jRPNS_17PxcBroadPhasePairERjS5_S4_S5_S5_RNS_14SapPairManagerE
tab:__ZN18LoadSceneOperation21MustCompleteNextFrameEv
mGj:_Slider_UpdateDrag_m1102107039
UXi:_X509ChainPolicy_set_RevocationMode_m3002768104
sBh:_MonoMethodInfo_get_method_info_m88651774
KV:__ZNK12AudioManager16GetAudioListenerEv
GYk:_Int32_System_IConvertible_ToDateTime_m1824716955
NJo:__ZN6il2cpp2osL23CleanupThreadIfCanceledEPv
Sri:_RuntimeTypeHandle__ctor_m3315980708_AdjustorThunk
iUl:_Dictionary_2_Resize_m536405636_gshared
Wbc:__ZNSt3__26vectorI11CameraStackNS_9allocatorIS1_EEE8__appendEj
WZe:__ZN5physx2Gu16pcmContactBoxBoxERKNS0_13GeometryUnionES3_RKNS_11PxTransformES6_RKfRNS0_5CacheERNS0_13ContactBufferE
x7i:_Request_ValidateServerCertificate_m1146481384
Y6l:_List_1_System_Collections_IList_Contains_m776542980_gshared
oy:__ZN7mecanim9animation12GetHumanPoseERKNS0_18ClipMuscleConstantEPKNS0_10ValueDeltaERNS_5human9HumanPoseE
MIf:__ZN11UnityEngine9Analytics15UserCustomEvent12CustomParams6InsertEPKcRNS1_11CustomValueE
iA:__ZN22AnimationMixerPlayable17ProcessRootMotionEP35AnimationPlayableEvaluationConstantP32AnimationPlayableEvaluationInputP33AnimationPlayableEvaluationOutput
Kba:__Z13GetFileSystemv
VEc:__ZZL23RegisterLightPropertiesR22GenericPropertyBindingEN29Wrapper_LightColorTemperature13SetFloatValueEPvf
gea:__ZN13RuntimeStaticI15GUIEventManagerLb0EE16StaticInitializeEPv
kjj:_MonoBehaviour_IsObjectMonoBehaviour_m2134950949
Efh:_TextMeshProUGUI_Rebuild_m2217366760
_Od:__ZN15RaycastCallback14processTouchesEPKN5physx12PxRaycastHitEj
hoa:__ZL45__ManagedRegistrationHelperFunction_Texture2DPv
ZPi:_Comparer_1__cctor_m2209434164_gshared
Trl:_Version_CompareTo_m3146217210
Mvd:__ZN24RigidbodyMovementState2D21ResetAngularMoveStateEv
_1a:__ZThn32_N14SpriteRenderer15AddAsRenderNodeER15RenderNodeQueueRK20DeprecatedSourceData
gpm:_Array_InternalArray__ICollection_CopyTo_TisKeyValuePair_2_t71524366_m1056941380_gshared
maf:__ZN5physx2Gu5RTree15exportExtraDataERNS_22PxSerializationContextE
Zml:_Type_get_IsClass_m589177581
Xvg:__ZL62NativeTypeAttribute_t2250406315_CustomAttributesCacheGeneratorP21CustomAttributesCache
ddl:_String_ReplaceUnchecked_m1381393810
Lrb:__ZN19ShaderPropertySheet9SetMatrixEN9ShaderLab16FastPropertyNameERK10Matrix4x4fNS_8SetFlagsE
yUa:__Z29GetTextureSizeAllowedMultiple13TextureFormat
EPe:__ZNK5physx2Sq10AABBPruner7overlapERKNS0_9ShapeDataERNS0_14PrunerCallbackE
ksk:_Decimal_Subtract_m835601464
$Bc:__Z46CleanupSpriteRendererAnimationBindingInterfacev
ARj:_Array_InternalArray__ICollection_Add_TisBoolean_t97287965_m1361760099_gshared
Jmj:_Quaternion_Internal_ToEulerRad_m1503250752
zll:_TimeSpan__ctor_m3689759052_AdjustorThunk
Phd:__Z25UpdateOrbitalAndRadialTplIL27ParticleSystemCurveEvalMode0ELS0_2ELS0_4EEvRK11MinMaxCurveS3_S3_S3_S3_S3_S3_R23ParticleSystemParticlesjjRKN4math8float3x3ERKNS6_7affineXERKNS6_7_float4E
Mso:_il2cpp_array_element_size
PEe:__ZN5physx6shdfnd5ArrayIPvNS0_19ReflectionAllocatorINS_2Gu30LargePersistentContactManifoldEEEE4copyINS0_15InlineAllocatorILj256ES6_EEEEvRKNS1_IS2_T_EE
pOa:__ZN19ShaderPropertySheet22CopyVectorPropertyFromERKS_i
_8f:__ZL62ComVisibleAttribute_t1362837655_CustomAttributesCacheGeneratorP21CustomAttributesCache
zxa:__ZNSt3__26__treeINS_12__value_typeIN4core12basic_stringIcNS2_20StringStorageDefaultIcEEEEjEENS_19__map_value_compareIS6_S7_NS_4lessIS6_EELb1EEE13stl_allocatorIS7_L18MemLabelIdentifier7ELi16EEE25__emplace_unique_key_argsIS6_JNS_4pairIS6_jEEEEENSH_INS_15__tree_iteratorIS7_PNS_11__tree_nodeIS7_PvEEiEEbEERKT_DpOT0_
mpj:_RectTransform_INTERNAL_set_sizeDelta_m188783163
Mg:_glCheckFramebufferStatus
kRo:__ZN6il2cpp2os11EventHandle4WaitEv
Q7:__Z43scripting_class_get_method_from_name_filter17ScriptingClassPtrPKciN24ScriptingMethodFiltering18MethodSearchFilterEPK16ScriptingTypePtr
bGf:__Z13RegisterClassIN2UI6CanvasEEvPKc
A1:__ZN19CloudServiceHandler20StartEventDispatcherERKN11UnityEngine15CloudWebService18CloudServiceConfigERNS1_23WebRequestRestHeaderMapE
Rth:_GraphicRaycaster__ctor_m646559428
H5e:__ZN5physx2Cm12DelegateTaskINS_2Sc5SceneEXadL_ZNS3_19updateCCDSinglePassEPNS_10PxBaseTaskEEEE11runInternalEv
I1d:__ZN5physx6string9sprintf_sEPcjPKcz
edf:__ZThn8_N5physx19TriangleMeshBuilderD1Ev
yPk:_BitArrayEnumerator_get_Current_m4220391712
kak:__Z37il2cpp_codegen_get_executing_assemblyPK10MethodInfo
OVi:_HttpWebRequest_GetServicePoint_m2640244283
Ipj:_Transform_get_parent_m835071599
tSd:__ZN5physx2Gu16intersectRayAABBERKNS_6PxVec3ES3_S3_S3_RfS4_
bWi:_IPAddress_get_ScopeId_m4237202723
vra:__ZN9Scripting11UnityEngine12Experimental10PlayerLoop9PreUpdate12CleanupProxyEv
Ax:__ZN21AnimationClipPlayable7SetTimeEd
fBm:_ExpressionCollection_get_Item_m3510736379
_Vg:__ZL62FontData_t746620069_CustomAttributesCacheGenerator_m_AlignmentP21CustomAttributesCache
Blh:_StandaloneInputModule_get_inputActionsPerSecond_m3946624274
Mil:_UTF8Encoding_InternalGetCharCount_m82458470
mPn:_Vector2__cctor_m2108982652
GEc:__ZZL23RegisterLightPropertiesR22GenericPropertyBindingEN22Wrapper_LightIntensity13GetFloatValueEPv
mpa:__ZN9Scripting11UnityEngine9Rendering20SphericalHarmonicsL29InitProxyEv
p3e:__ZN5physx30setupFinalizeSolverConstraintsERNS_13PxcNpWorkUnitERKNS_2Gu13ContactBufferERKNS_20PxcCorrelationBufferERKNS_11PxTransformESB_bPhRKNS_13PxcSolverBodyESF_RKNS_17PxcSolverBodyDataESI_ffffff
AAo:__ZN14dense_hash_mapI10KeyWrapperIP14Il2CppIUnknownEjN6il2cpp5utils11PointerHashIS1_EENS3_14EqualsComparerINSt3__28equal_toIS2_EEEENS9_9allocatorINS9_4pairIKS3_jEEEEE15set_deleted_keyERSF_
_qc:__ZN19SpriteMeshGenerator12path_segment12max_distanceENSt3__26vectorINS_6vertexENS1_9allocatorIS3_EEEEii
Hke:__ZN5physx7NpScene17releaseBatchQueryEPNS_12PxBatchQueryE
fpo:__ZN13Il2CppHashMapIPK14Il2CppAssemblyPK22Il2CppMonoAssemblyNameN6il2cpp5utils11PointerHashIS1_EENSt3__28equal_toIS2_EENSA_9allocatorINSA_4pairIK10KeyWrapperIS2_ES5_EEEEEC2EjRKS9_RKSC_
Fvc:__ZN9Scripting39GetScriptingArrayStringElementNoRefImplE17ScriptingArrayPtri
I2e:__ZN5physx26solveVBlockDefaultFrictionEPNS_13PxsSolverCoreEfjjPNS_13PxcSolverBodyEPNS_17PxcSolverBodyDataEjjPNS_25PxcArticulationSolverDescEjPNS_23PxcSolverConstraintDescEjS9_jRNS_6shdfnd5ArrayINS_24PxsConstraintBatchHeaderENSA_19ReflectionAllocatorISC_EEEESG_PNS_2Cm13SpatialVectorEPNS_25PxcThresholdStreamElementEjRj
sGk:_DelegatePInvokeWrapper_AppDomainInitializer_t682969308
$fd:__Z25UpdateOrbitalAndRadialTplIL27ParticleSystemCurveEvalMode1ELS0_1ELS0_1EEvRK11MinMaxCurveS3_S3_S3_S3_S3_S3_R23ParticleSystemParticlesjjRKN4math8float3x3ERKNS6_7affineXERKNS6_7_float4E
Paa:__ZN8Remapper6RemoveEi
lcn:_Collection_1_System_Collections_IList_IndexOf_m3538466904_gshared
QTe:__ZN5physx11writeBack1DERKNS_23PxcSolverConstraintDescERNS_16PxcSolverContextERNS_17PxcSolverBodyDataES6_
ytn:_TMP_XmlTagStack_1_SetDefault_m3926551933_AdjustorThunk
Lfl:_Encoding_GetBytes_m3148649984
zOc:__ZN9Scripting27CreateArgumentNullExceptionEPKc
kof:__ZL36CleanupTextRenderingScriptingClassesv
IRd:__ZThn4_N16RayRTreeCallbackILi0ELb0EED0Ev
occ:__ZN15ReflectionProbe17UseRendererResultEP13ProbeRenderer
dSc:__Z34Mesh_CUSTOM_SetArrayForChannelImplP12Il2CppObject30InternalScriptingShaderChannel34InternalScriptingVertexChannelTypeiP11Il2CppArrayi
U7:__Z32scripting_class_get_nested_types17ScriptingClassPtrRNSt3__26vectorIS_13stl_allocatorIS_L18MemLabelIdentifier1ELi16EEEE
D0n:_CanvasRenderer_INTERNAL_CALL_EnableRectClipping_m3318097918
pql:_UInt64_System_IConvertible_ToDecimal_m806594027_AdjustorThunk
Nma:__ZL58__ManagedRegistrationHelperFunction_MaterialEffectPlayablePv
JOf:__ZN11UnityEngine7Connect20RemoteConfigSettings18StaticCallOnUpdateEPS1_
WBl:_Enumerator_get_CurrentValue_m3103267885_gshared
S6l:_List_1__ctor_m3395838871_gshared
QTk:_CultureInfo_get_Parent_m672689885
Q4j:_MissingMemberException__ctor_m2571045846
SL:__ZN9Scripting11UnityEngine18AssetBundleRequest9InitProxyEv
hmn:_PKCS12__ctor_m1854440921
Hum:_Array_Resize_TisCustomAttributeNamedArgument_t287865710_m885566878_gshared
Pca:__ZN17TransformInternal19FreeTransformThreadER18TransformHierarchyjj
xu:__ZN9Scripting11UnityEngine12SkeletonBone12CleanupProxyEv
Nv:__ZN11UnityEngine9Animation28GenericAnimationBindingCache25RegisterIAnimationBindingEPKN5Unity4TypeEiP17IAnimationBinding
CNk:_ArrayList_ToArray_m3439706433
KOe:__ZN5physx2Gu17GetGeomSweepFuncsEv
C8d:__ZN5physx6shdfnd8PoolBaseINS_15PxsArticulationENS0_16AlignedAllocatorILj64ENS0_9AllocatorEEEE17releaseEmptySlabsEv
w0k:_DirectoryInfo__ctor_m481305441
Pbp:dynCall_viiffiii
Gpc:__ZNK6Sprite15GenerateOutlineEfhbRNSt3__26vectorI13dynamic_arrayI8Vector2fLj0EENS0_9allocatorIS4_EEEEi
S5:__ZN10MemoryPoolC2E10MemLabelIdbPKciii
QHf:__ZN14UnityAnalytics25UnregisterGlobalCallbacksEv
a8h:__Z80RuntimeInvoker_Boolean_t97287965_ColorBlockU26_t337120346_ColorBlock_t2139031574PFvvEPK10MethodInfoPvPS4_
Gac:__Z40ProcessCameraIndexListIsNodeVisibleInOutRK22SceneCullingParametersPK9SceneNodePK4AABBR9IndexList
OGn:_GUIScrollGroup_SetHorizontal_m291416666
ZHa:__ZN16GraphicsSettings8TransferI17RemapPPtrTransferEEvRT_
KGf:__ZN2UI6Canvas13UpdateBatchesEb
c1i:_X509BasicConstraintsExtension_Decode_m120598446
sD:__ZNK23AnimationPlayableOutput11DerivesFromE17ScriptingClassPtr
vgp:_glGetShaderInfoLog__wrapper
sqk:_DateTime_ToShortTimeString_m1551520344
rqi:_ObjectReader_ReadObjectGraph_m340866276
vpe:__ZN5physx2Gu5Debug9visualizeERKNS_13PxBoxGeometryERNS_2Cm12RenderOutputERKNS5_8Matrix34ERKNS_9PxBounds3Eyfj
GWd:__ZN5physx6shdfnd5ArrayIPKvNS0_19ReflectionAllocatorIS3_EEE6resizeEjRKS3_
KRj:_Array_InternalArray__ICollection_Add_TisKeyValuePair_2_t2245450819_m3591771797_gshared
aMf:__ZN11UnityEngine7Connect13ConfigHandler12GetListenersERKN4core12basic_stringIcNS2_20StringStorageDefaultIcEEEE
Mmb:__ZN9GfxDevice18AllocRenderSurfaceEb
yLk:_Char__cctor_m2787437263
v3e:__ZN5physx31setupFinalizeSolverConstraints4EPNS_21PxcSolverContact4DescERNS_18PxcNpThreadContextEPhffRKNS_6shdfnd3aos5Vec4VES9_S9_S9_
bHe:__ZN5physx7NpScene5flushEb
oHc:__ZN10TagManager32GetSortingLayerUniqueIDFromValueEi
lKf:__ZN11UnityEngine7Connect15DeviceInfoEvent7GFXInfoD2Ev
Qmh:_AspectRatioFitter_get_rectTransform_m2996235303
I7:__ZL27CleanupCoreScriptingClassesv
DKj:_Array_InternalArray__ICollection_Remove_TisContentType_t1128941285_m2281326462_gshared
opd:__Z19UpdateSingleRow2TplIL27ParticleSystemCurveEvalMode2ELS0_1EEvfRK11MinMaxCurveS3_RK23ParticleSystemParticlesPfbiii
iRi:_Comparer_1_System_Collections_IComparer_Compare_m1313384821_gshared
$yc:__Z26AnimationCurve_CUSTOM_InitP12Il2CppObjectP11Il2CppArray
pkp:_glUniform1uiv__wrapper
Twd:__ZNK14b2PolygonShape5CloneEP16b2BlockAllocator
Soo:__ZN6il2cpp2vm10Reflection7IsEventEP12Il2CppObject
Qaa:__ZN17PersistentManager26GetStreamNameSpaceInternalEi
aT:__ZN4FMOD6System11createSoundEPKcjP22FMOD_CREATESOUNDEXINFOPPNS_5SoundE
mp:FUNCTION_TABLE_iiifiiii
$jf:__ZN13SpeedTreeWind20AdvanceWithoutUpdateEd
unm:_KeyValuePair_2_ToString_m823870646_AdjustorThunk
Ivc:__Z48Register_UnityEngine_Material_get_shaderKeywordsv
wok:_DateTime_System_IConvertible_ToDecimal_m1044850612
Wvm:_X509Store_get_Factory_m3282910266
Uhf:__ZThn128_N5physx7profile8ZoneImplINS_28PxProfileNameProviderForwardEED1Ev
O6:__ZN9ShaderLab19CommonPropertyNames13StaticCleanupEPv
daa:__Z31scripting_method_get_returntype18ScriptingMethodPtr
$Pe:__ZN5physx2Sq17AABBTreeUpdateMap10invalidateEjjRNS0_8AABBTreeE
aZa:__ZN15SerializeTraitsI12LightmapDataE8TransferI24GenerateTypeTreeTransferEEvRS0_RT_
x8k:_SecurityElement_AddAttribute_m311510562
zta:__ZN9Scripting5Unity11Collections44NativeDisableParallelForRestrictionAttribute12CleanupProxyEv
N2e:__ZN5physx28solveParallelDefaultFrictionERNS_18PxsDynamicsContextEjjPNS_13PxcSolverBodyEPNS_17PxcSolverBodyDataEjjPNS_25PxcArticulationSolverDescEjPNS_23PxcSolverConstraintDescEjS9_jPiSA_SA_SA_SA_SA_PNS_25PxcThresholdStreamElementEjSA_PNS_2Cm13SpatialVectorEPKPNS_11PxsBodyCoreERNSD_10BitMapBaseINS_6shdfnd9AllocatorEEEPKPNS_15PxsArticulationEjPViRNSL_5ArrayINS_24PxsConstraintBatchHeaderENSL_19ReflectionAllocatorISW_EEEES10_RNSV_IjNSX_IjEEEES13_PPNS_12PxsRigidBodyEj
Bgp:_glStencilOpSeparate__wrapper
SLc:__ZN4Mesh5SetUvEiPKfjj
MWa:__ZN7Texture13SetAnisoLimitENS_20AnisotropicFilteringE
Axa:__ZNSt3__26__treeINS_12__value_typeIjN4core12basic_stringIcNS2_20StringStorageDefaultIcEEEEEENS_19__map_value_compareIjS7_NS_4lessIjEELb1EEE13stl_allocatorIS7_L18MemLabelIdentifier7ELi16EEE25__emplace_unique_key_argsIjJNS_4pairIjS6_EEEEENSH_INS_15__tree_iteratorIS7_PNS_11__tree_nodeIS7_PvEEiEEbEERKT_DpOT0_
Ox:__ZN21AnimationClipPlayable22PrepareAnimationEventsEfR13dynamic_arrayI22AnimationClipEventInfoLj0EE
iJk:_Attribute_IsDefined_m4069052474
Gi:_emscripten_glCompressedTexSubImage2D
yVb:__ZN13GfxDeviceGLES22MemoryBarrierImmediateEyN2gl17MemoryBarrierTypeE
Jm:_abort
vka:__ZN6prcoreL26RemapGenericFloatToIntegerI18TexFormatARGBFloat17TexFormatARGB8888EEvPKNS_9InnerInfoE
uAd:__ZN14qsort_internal5QSortIPN35b2SynchronizeContinuousFixturesTask14b2DeferredMoveEiPFbRKS2_S5_EEEvT_S8_T0_T1_
z6m:_List_1_set_Capacity_m1977188119_gshared
ZGl:_ShimEnumerator_Reset_m4072444564_gshared
LNc:__Z46GetShaderModelNumericValueFromRequirementsMask18ShaderRequirements
mil:_UTF7Encoding_InternalGetBytes_m797138468
asf:_cff_ps_has_glyph_names
jdf:__ZN5physx15writeWordBufferEPKtjbRNS_14PxOutputStreamE
Pem:_Dictionary_2_Resize_m3287623642_gshared
MNo:_GC_write
s3h:__Z68RuntimeInvoker_Void_t1185182177_Single_t1397266774_SByte_t1669577662PFvvEPK10MethodInfoPvPS4_
dMg:__ZL57UploadHandlerRaw_t25761545_CustomAttributesCacheGeneratorP21CustomAttributesCache
_s:__ZN17ConstraintManagerD2Ev
wbm:_Dictionary_2_Remove_m4193450060_gshared
Tpc:__Z13tessTesselateP14TESStesselatoriiiiPKf
j_o:_JSON_SerializeNumber_m511027017
q_k:_Int64_TryParse_m3606398488
omi:_RemotingServices_IsTransparentProxy_m1535738947
Qsm:_Array_InternalArray__set_Item_TisMark_t3471605523_m1299772331_gshared
FXc:__Z44Register_UnityEngine_GUIStyle_SetDefaultFontv
Npc:__ZN19SpriteMeshGenerator9MakeShapeEP11ColorRGBA32iifhbjfi
BCb:__Z18Transfer_BlittableI18StreamedBinaryReadILb1EELb1EiEvRK29SerializationCommandArgumentsR31RuntimeSerializationCommandInfo
vF:__ZN9BlobWrite8TransferI22OffsetPtrArrayTransferIKN4math7_float3EEEEvRT_PKc17TransferMetaFlags
L4a:__ZN16MeshSkinningData14GetBoneWeightsEi
BOh:__Z173RuntimeInvoker_Int32_t2950945753_RuntimeObject_Int32_t2950945753_Int32_t2950945753_Int32_t2950945753_RuntimeObject_Int32_t2950945753_SByte_t1669577662_ContextU26_t3937453398PFvvEPK10MethodInfoPvPS4_
T$m:_List_1__ctor_m2576108087_gshared
Hno:__ZN15dense_hashtableINSt3__24pairIK10KeyWrapperINS1_IPK12PropertyInfoP11Il2CppClassEEEjEES9_17ReflectionMapHashIS8_EN14dense_hash_mapIS9_jSD_NS9_14EqualsComparerINS0_8equal_toIS8_EEEENS0_9allocatorISB_EEE9SelectKeyESI_SK_E12maybe_shrinkEv
p6d:__ZN5physx2Sc7BodySim37checkSleepReadinessBesidesWakeCounterEv
Emn:_X509Certificate_get_DSA_m565099499
aDb:__Z18Transfer_BlittableI18StreamedBinaryReadILb1EELb1EsEvRK29SerializationCommandArgumentsR31RuntimeSerializationCommandInfo
chl:_StringBuilder_Remove_m940064945
P6a:__ZN14SafeBinaryRead21TransferSTLStyleArrayI13dynamic_arrayI16SplashScreenLogoLj0EEEEvRT_17TransferMetaFlags
rqb:__ZN13dynamic_arrayIN16GeometryJobTasks15GeometryJobTaskELj0EE18resize_initializedEjRKS1_12ResizePolicy
J$k:_BinaryWriter__ctor_m2439641268
ipd:__Z19UpdateSingleRow2TplIL27ParticleSystemCurveEvalMode1ELS0_2EEvfRK11MinMaxCurveS3_RK23ParticleSystemParticlesPfbiii
SWa:__ZL21SetAnisoLimitEnumImplN7Texture20AnisotropicFilteringEb
XLf:__ZN22BaseUnityConnectClient17OnEnterStateReadyEv
qOe:__ZN5physx13PxsCCDContextD2Ev
cHj:_Text_get_fontSize_m1677872538
j5l:_List_1_System_Collections_IList_get_Item_m995551621_gshared
cra:__ZN9Scripting11UnityEngine12Experimental9Rendering15ShadowSplitData9InitProxyEv
VPd:__ZN5physx2Gu9ContainerD2Ev
xzc:__Z29Input_CUSTOM_GetMouseButtonUpi
lYd:__ZN5physx2Gu12selectNormalEhff
Tio:__ZN6il2cpp6icalls8mscorlib6System8MonoType16InternalGetEventEP20Il2CppReflectionTypeP12Il2CppStringi
Fef:__Z13RegisterClassI9RigidbodyEvPKc
E_i:_Socket_EndSend_m1244041542
XEm:_UriScheme_t722425697_marshal_pinvoke_back
Utf:_UNITY_tt_face_load_maxp
Nzc:__Z46Input_CUSTOM_INTERNAL_set_compositionCursorPosRK13Vector2fIcall
sx:__ZN7mecanim5human12FullBodyMaskEv
Axe:__ZN5physx3Scb14ParticleSystem16releaseParticlesEjRKNS_16PxStrideIteratorIKjEE
z2b:__ZN13BatchRenderer15ApplyShaderPassER17ShaderPassContextPK18SharedMaterialDataP6ShaderPN9ShaderLab4PassEi13BatchingFlagsbbPKNS7_10GrabPassesEPK22DeviceRenderStateBlock
E2a:__ZN19ShaderPropertySheet11ComputeHashEv
Qbo:__ZN30dense_hashtable_const_iteratorI10KeyWrapperIPK19Il2CppGenericMethodES4_N6il2cpp8metadata23Il2CppGenericMethodHashEN14dense_hash_setIS4_S7_NS4_14EqualsComparerINS6_26Il2CppGenericMethodCompareEEENSt3__29allocatorIS4_EEE8IdentityESB_SE_EppEv
F3j:_TextWriter_WriteLine_m337766814
kKe:__ZN5physx2Sc5Scene21processLostTouchPairsEv
xxd:__ZN12b2EPCollider24ComputePolygonSeparationEv
GMm:_ReadOnlyCollection_1_System_Collections_ICollection_CopyTo_m95132623_gshared
x$:__ZN11UnityEngine15CloudWebService20WebRequestRestClient6IsDoneEv
FXo:_GameController_Delay_m166886129
s5f:_TMP_Text_get_firstOverflowCharacterIndex_m2980550079
Gjn:_X509CertificateCollection_get_Item_m1033426577
Dj:_llvm_fabs_f32
a$:__ZN11UnityEngine15CloudWebService16SessionContainer16GetJsonDataBlockEjRKN4core12basic_stringIcNS2_20StringStorageDefaultIcEEEERS6_PjSA_
b2f:_TMP_SpriteAsset_GetSpriteIndexFromName_m4129359537
Uvl:_ASN1_Decode_m1695284166
LLg:__ZL100UnityWebRequest_t463507806_CustomAttributesCacheGenerator_UnityWebRequest_BeginWebRequest_m464964044P21CustomAttributesCache
CYe:__ZN5physx22PxcContactConvexConvexERKNS_2Gu13GeometryUnionES3_RKNS_11PxTransformES6_RKfRNS_10PxcNpCacheERNS0_13ContactBufferE
avk:_Enum_ToString_m3248653065
aGh:_ChannelServices__cctor_m2475086854
sQd:__ZNK5physx2Gu11ConvexHullV12HillClimbingERKNS_6shdfnd3aos5Vec3VE
h9:__ZN14SafeBinaryReadD2Ev
oxe:__ZN5physx2Sc18ParticleSystemCore10setDampingEf
Rpk:_DateTime_GetDateTimeFormats_m4255658003
PZl:_Enumerator_MoveNext_m3859993671_gshared
alf:__ZN14SafeBinaryRead21TransferSTLStyleArrayI13dynamic_arrayIN20TextRenderingPrivate8FontImpl13CharacterInfoELj0EEEEvRT_17TransferMetaFlags
qEb:__ZN8Gradient8TransferI18StreamedBinaryReadILb1EEEEvRT_
Cwm:_Capture__ctor_m3103117740
zNh:__Z113RuntimeInvoker_Void_t1185182177_RuntimeObject_Int64_t3736567304_RuntimeObject_Int64_t3736567304_Int64_t3736567304PFvvEPK10MethodInfoPvPS4_
Upl:_UInt32_CompareTo_m2218823230
_2d:__ZN5physx2Sc10NPhaseCore16deleteFilterPairEPNS0_10FilterPairE
BKj:_Array_InternalArray__ICollection_Remove_TisTMP_CharacterInfo_t3185626797_m1831411579_gshared
Mjd:__ZN14ParticleSystem15ThreadedCleanupEv
rnj:_RangeInt_get_end_m4128831787_AdjustorThunk
Yzo:__ZN6il2cpp6icalls8mscorlib6System4Type15MakeGenericTypeEP20Il2CppReflectionTypeP11Il2CppArray
gff:_PxCreateBasePhysics
Uqj:_Shader__ctor_m837260462
dk:_SDL_PauseAudio
v8h:__Z72RuntimeInvoker_Boolean_t97287965_Int64_t3736567304_ObjectU26_t2146539884PFvvEPK10MethodInfoPvPS4_
Gkj:_Object_Internal_InstantiateSingle_m4074556765
hto:_il2cpp_class_from_type
GXi:_SslStream_Read_m576235997
rZo:_HighscoreMenu_Reset_m3282129528
Tjo:__ZN6il2cpp2os4File11GetStdErrorEv
i3i:_TMP_TextSelector_B__ctor_m619334773
MRc:__Z48Register_UnityEngine_Camera_set_orthographicSizev
y2n:_AnimationLayerMixerPlayable__ctor_m860721801
$6d:__ZN5physx2Sc5Scene28addActiveBreakableConstraintEPNS0_13ConstraintSimE
N6:__ZN9ShaderLab19CommonPropertyNames16StaticInitializeEPv
$le:__ZN5physx6shdfnd8PoolBaseINS_16NpParticleSystemENS0_19ReflectionAllocatorIS2_EEE15disposeElementsEv
RPi:_Comparer_1__cctor_m2517796511_gshared
Zv:__ZN7mecanim9animation18CreateAvatarOutputEPKNS0_14AvatarConstantEbbRNS_6memory9AllocatorE
oif:__ZN5physx7profile11EventBufferINS_24PxDefaultContextProviderENS_6shdfnd6MutexTINS0_26WrapperReflectionAllocatorIhEEEENS0_14ScopedLockImplIS7_EENS_24PxProfileNullEventFilterEE10eventValueEtyx
y$j:_TlsServerCertificateRequest_Update_m2763887540
Zed:__Z14UpdateSpeedTplIL27ParticleSystemCurveEvalMode1EEvRK11MinMaxCurveR23ParticleSystemParticlesjj
UFj:_Slider_set_maxValue_m2251404465
EKn:_UnityWebRequestAsyncOperation__ctor_m1252495487
dS:__ZN11AudioSource23VirtualRedirectTransferER24GenerateTypeTreeTransfer
oSd:__ZN5physx2Gu11getBoxEdgesEv
Vgj:_Material_CopyPropertiesFromMaterial_m2896226580
vRa:__ZN14Texture2DArray23VirtualRedirectTransferER14SafeBinaryRead
T4j:_MissingMemberException__ctor_m1220732369
m5b:__ZNK6Camera21CalculateCanDoShadowsEv
LIe:__ZNK5physx2Sc5Scene17getBroadPhaseCapsERNS_16PxBroadPhaseCapsE
Nie:__ZN5physx9NpFactory14onActorReleaseEPNS_7PxActorE
p$i:_Socket_Connect_m2387904622
b9d:__ZN5physx2Sc5Actor15onElementAttachERNS0_7ElementE
NAk:_Array_InternalArray__get_Item_TisRuntimeObject_m3347010206_gshared
fyh:_TypeBuilder_IsSubclassOf_m3458909121
$ak:_Default_check_arguments_with_score_m3467814020
Ybp:dynCall_viffii
$we:__ZN5physx2Sc18ParticleSystemCore23setSimulationFilterDataERKNS_12PxFilterDataE
zFb:__Z18Transfer_BlittableI18StreamedBinaryReadILb0EELb1EhEvRK29SerializationCommandArgumentsR31RuntimeSerializationCommandInfo
nEk:_X509Certificate__cctor_m198658613
tHc:__ZL24GenerateTilingJobCombineP22GenerateTilingAreaInfo
qJ:__ZN14SafeBinaryRead21TransferSTLStyleArrayI13dynamic_arrayI11KeyframeTplIfELj0EEEEvRT_17TransferMetaFlags
slj:_PlayableHandle_Equals_m1666612586_AdjustorThunk
bka:__ZN6prcoreL27StretchGenericFloatBilinearI15TexFormatRFloatEEvPKNS_9InnerInfoE
aQj:_Array_InternalArray__IndexOf_TisSpriteData_t3048397587_m1184765788_gshared
UOe:__ZN5physx6shdfnd8internal8HashBaseINS0_4PairIKNS_2Sq13PrunerPayloadEjEES5_NS0_4HashIS5_EENS1_11HashMapBaseIS5_jS9_NS0_9AllocatorEE6GetKeyESB_Lb1EE15reserveInternalEj
Atg:__ZL139ServicePointManager_t170559685_CustomAttributesCacheGenerator_ServicePointManager_t170559685____CheckCertificateRevocationList_PropertyInfoP21CustomAttributesCache
MP:__ZNK11AudioSource19GetFilterComponentsERNSt3__26vectorIPN4FMOD3DSPENS0_9allocatorIS4_EEEEb
lA:__Z24ProcessAnimationMixBeginP35AnimationPlayableEvaluationConstantP32AnimationPlayableEvaluationInputP33AnimationPlayableEvaluationOutput
D2j:_StreamWriter_LowLevelWrite_m1081676583
O_a:__ZN19StreamedBinaryWriteILb0EE21TransferSTLStyleArrayI13dynamic_arrayI8Vector2fLj0EEEEvRT_17TransferMetaFlags
gVa:__Z14PadImageBorderR14ImageReferenceii
hmo:__ZN15dense_hashtableINSt3__24pairIK10KeyWrapperINS1_IPK10MethodInfoP11Il2CppClassEEEjEES9_17ReflectionMapHashIS8_EN14dense_hash_mapIS9_jSD_NS9_14EqualsComparerINS0_8equal_toIS8_EEEENS0_9allocatorISB_EEE9SelectKeyESI_SK_E4findERSA_
_eo:__ZN6il2cpp2vm13MetadataCache28GetFieldDefaultValueForFieldEPK9FieldInfo
ZOj:_Array_IndexOf_TisUIVertex_t4057497605_m3336763564_gshared
O4f:_TMP_Text_set_outlineWidth_m3845803135
PA:__ZN27AnimationLayerMixerPlayableD2Ev
$oh:_ColorBlock_Equals_m518833916_AdjustorThunk
GSe:__ZN5physx2Gu22gjkRelativePenetrationINS0_9TriangleVENS0_8CapsuleVEEEjRKT_RKT0_RKNS_6shdfnd3aos15PsMatTransformVERKNSB_6FloatVERNSB_5Vec3VESJ_SJ_RSF_PhSL_Rh
DTo:__ZN6il2cpp2os9FastMutexC2Ev
HLd:__ZN9Rigidbody14SetIsKinematicEb
nCi:_InternalEnumerator_1_System_Collections_IEnumerator_get_Current_m1514266661_AdjustorThunk
cO:__ZN12AudioManager39HandlePendingAudioConfigurationCallbackEv
ooa:__ZL43__ManagedRegistrationHelperFunction_Vector3Pv
dl:_emscripten_glIsFramebuffer
tyl:_RSAManaged_EncryptValue_m799827583
Abc:__ZN12_GLOBAL__N_16qAtan2Eff
hl:_JS_Sound_SetLoopPoints
y_n:_RestClient_Post_m775137210
tSo:__ZN6il2cpp2vm26MetadataAllocGenericMethodEv
tKj:_Array_InternalArray__ICollection_Remove_TisUInt16_t2177724958_m1766181761_gshared
OXb:__ZN19ConstantBuffersGLES12RecordRenderEv
vOe:__ZN5physx13ActorAABBTaskD2Ev
$$c:__ZN9JSONWrite8TransferI10RectOffsetEEvRT_PKc17TransferMetaFlags
ZUa:__ZN4crnd12symbol_codec11decode_bitsEj
Txd:__ZN15b2CircleContact8EvaluateEP10b2ManifoldRK11b2TransformS4_
lIn:_AesManaged_GenerateIV_m1368817386
o1f:_TMP_Settings_get_defaultTextMeshProUITextContainerSize_m3222036350
oN:__ZN4FMOD6System12createReverbEPPNS_6ReverbE
OLo:__ZN6il2cpp2vm6String21InitializeEmptyStringEP11Il2CppClass
wnd:__ZL17DrawMeshParticlesILb1EL25ParticleSystemRenderSpace1EEvRK26ParticleSystemTempMeshDataRK22ParticleSystemTempDataRK23ParticleSystemParticlesRK31ParticleSystemParticlesTempDataRK26ParticleSystemRendererDataRK21ParticleSystemModulesPfPv
geg:__ZL48Queue_t3637523393_CustomAttributesCacheGeneratorP21CustomAttributesCache
GA:__ZN7mecanim19ValueArrayBlendNodeILb1EEEvRKNS_10ValueArrayERKNS_14ValueArrayMaskERS1_RS4_RNS_16ValueArrayWeightEf
Ycb:__Z16MarkDependenciesR27GarbageCollectorThreadStatej
pni:_RemotingServices_DisposeIdentity_m2605848806
_ia:__ZNK9Transform11GetPositionEv
GWk:_GuidParser_Reset_m2640004655
dbh:_ColorTween_AddOnChangedCallback_m2712346959_AdjustorThunk
vrc:__ZN23SharedMeshRenderingData18UnloadVertexStreamEi
L0d:__ZN5physx3Cct13HandleManager3AddEPv
oJc:__ZN31CanvasBatchIntermediateRenderer11AddSubBatchERK16DrawBuffersRangePK19ShaderPropertySheet
_Ec:__ZN19RenderEventsContextC2Ei
UY:__Z6simd4fRKf
Ll:_emscripten_glEnable
VDi:_InternalEnumerator_1_System_Collections_IEnumerator_get_Current_m2982675020_gshared
Kmd:__ZNK14ParticleSystem16GetParticleCountEv
oxa:__ZN10TagManager23VirtualRedirectTransferER14SafeBinaryRead
EXg:__ZL51RawImage_t3182918964_CustomAttributesCacheGeneratorP21CustomAttributesCache
O7e:__ZNK5physx2Sc15ClothFabricCore9getNbSetsEv
xOn:_UnityException__ctor_m1456865679
wga:__ZN14PlayableOutput26ClearInvalidSourcePlayableEv
i8b:__Z15InitLightMeshesv
OSf:__Z60Register_UnityEngine_Networking_DownloadHandlerBuffer_Createv
r5n:_RaycastHit_get_collider_m1464180279
SHe:__ZNK5physx7NpScene26getNbContactDataBlocksUsedEv
Eo:FUNCTION_TABLE_iifiii
bUd:__ZN5physx2Gu29computeCapsule_HeightFieldMTDERKNS_21PxHeightFieldGeometryERKNS_11PxTransformERNS0_8CapsuleVEffbjRNS_10PxSweepHitE
d9e:__ZN5physx2Gu11HeightField15exportExtraDataERNS_22PxSerializationContextE
HWa:__ZN15QualitySettings8TransferI19StreamedBinaryWriteILb0EEEEvRT_
jWk:_SortKey_GetHashCode_m3547067087
szj:_LayoutUtility_U3CGetFlexibleHeightU3Em__7_m2991026842
Epf:_cf2_arrstack_init
WAk:_Array_InternalArray__get_Item_TisResourceCacheItem_t51292791_m1306056717_gshared
Zum:_Array_Resize_TisTMP_PageInfo_t2608430633_m3712126464_gshared
b4:__Z15CleanLogHandler7LogTypePKcz
e8j:_NumberFormatter_NumberToString_m2481532188
rmc:__ZN9ShaderLab19SerializedSubShader8TransferI19StreamedBinaryWriteILb0EEEEvRT_
aoe:__ZN5physx10NpMaterialC2ERKNS_2Sc12MaterialCoreE
vli:_DictionaryEnumerator_MoveNext_m1462973125
y$e:__ZN5physx9PxTaskMgr10resolveRowEjb
Sta:__ZN9Scripting5Unity11Collections8LowLevel6Unsafe41NativeContainerIsAtomicWriteOnlyAttribute9InitProxyEv
lJb:__ZN6Camera17RemoveImageFilterERK11ImageFilter
Xqb:__ZNSt3__218__insertion_sort_3IR25ValueParameterArraySorterPN20GpuProgramParameters14ValueParameterEEEvT0_S6_T_
dEd:__ZN10ClipperLib7Clipper27ProcessEdgesAtTopOfScanbeamEx
lcd:__ZN14EmissionModule15AccumulateBurstER27ParticleSystemEmissionStateRK11MinMaxCurvef
oQk:_Comparer__cctor_m3311686689
WXf:_TMP_InputField_set_scrollSensitivity_m275207258
Kjd:__ZN11ShapeModule17MainThreadCleanupEv
c0j:_HttpsClientStream_U3CHttpsClientStreamU3Em__1_m1202173386
sad:__ZN9SubModule5ResetEv
W_f:_TMP_InputField_Rebuild_m919426078
xDi:_InternalEnumerator_1_get_Current_m3500427238_AdjustorThunk
wHf:__ZN2UI26InitializeDeviceForOverlayEi
i7e:__ZNK5physx13NpClothFabric13getRestvaluesEPfj
x5:__Z27LogRepeatingStringWithFlagsRKN4core12basic_stringIcNS_20StringStorageDefaultIcEEEE15LogMessageFlagsi
NQd:__ZN5physx2Gu16_gjkLocalRayCastINS0_9TriangleVENS0_11ConvexHullVEEEbRT_RT0_RKNS_6shdfnd3aos6FloatVERKNS9_5Vec3VESF_RSA_RSD_SH_f
nvk:_Enum_IsDefined_m1442314461
lgh:_TextMeshProUGUI_SetSharedMaterials_m854082582
aYn:_AudioExtensionManager_RegisterBuiltinDefinitions_m2742744104
Ux:__ZN17AnimationPlayable28ComputeNeedsBindingRebuildedEv
Zw:__ZN17AnimationPlayable23RequestAllocateBindingsEv
k7d:__ZN5physx6shdfnd8PoolBaseINS_2Cm5BlockIPvLj32EEENS0_19ReflectionAllocatorIS5_EEE17releaseEmptySlabsEv
LUe:__ZN5physx23PxsBroadPhaseContextSap21batchUpdateFewUpdatesEjRPNS_17PxcBroadPhasePairERjS4_
Sel:_DecoderReplacementFallbackBuffer_Fallback_m1261056214
lZd:__ZN5physx3Cct17getSceneTimestampEPKNS0_30InternalCBData_FindTouchedGeomE
BSg:__ZL78g_UnityEngine_UnityWebRequestWWWModule_Assembly_CustomAttributesCacheGeneratorP21CustomAttributesCache
$5j:_Binder_get_DefaultBinder_m950908649
UMf:__ZN18UnityConnectClient33OnPlayerSessionStateChangedStaticEPS_jyy
vzd:__ZN19ProcessContactsDataD2Ev
TQi:_Comparer_1__cctor_m298632577_gshared
S4k:_RSA_ToXmlString_m2922661427
h0:__ZNK11UnityEngine15CloudWebService23WebRequestUploadHandler11GetProgressEv
cvc:__Z25PlayerPrefs_CUSTOM_GetIntP12Il2CppStringi
dTb:__ZN7ApiGLES4LoadE16GfxDeviceLevelGL
jne:__ZN5physx9NpPhysics15createAggregateEjb
TUa:__ZN4crnd12crn_unpacker22decode_color_endpointsEv
EDo:__ZN15dense_hashtableI10KeyWrapperIP18Il2CppGenericClassES3_N6il2cpp8metadata22Il2CppGenericClassHashEN14dense_hash_setIS3_S6_NS3_14EqualsComparerINS5_25Il2CppGenericClassCompareEEENSt3__29allocatorIS3_EEE8IdentityESA_SD_E15insert_noresizeERKS3_
CGc:__ZZL31RegisterOtherRendererPropertiesR22GenericPropertyBindingEN30Wrapper_RendererReceiveShadows13GetFloatValueEPv
tOd:__ZN9Rigidbody5ResetEv
sIj:_Array_InternalArray__ICollection_Contains_TisSlot_t384495010_m688761886_gshared
vKj:_Array_InternalArray__ICollection_Remove_TisUInt64_t4134040092_m2664745791_gshared
wUa:__ZN17SharedTextureDataC2E10MemLabelIdii13TextureFormatjiibb
N3h:__Z114RuntimeInvoker_RuntimeObject_RuntimeObject_Int32_t2950945753_Int32_t2950945753_Int32_t2950945753_Int32_t2950945753PFvvEPK10MethodInfoPvPS4_
oMb:__ZN8Material11SetPassFastEPN9ShaderLab4PassER17ShaderPassContextP6Shaderib
DMf:__ZN11UnityEngine7Connect20BasePersistentValues10SaveValuesER9JSONWrite
BHl:_ShimEnumerator_MoveNext_m2632237013_gshared
yok:_DateTime_System_IConvertible_ToDouble_m2116720007
lUj:_BitConverterLE_GetUIntBytes_m795219058
mcj:_Display_GetSystemExtImpl_m2808197389
Hsi:_SByte_Parse_m2899090751
Z9c:__ZN11ShapeModule18MultiModeParameterIN25IParticleSystemProperties8PropertyIfNS1_5ClampILi0ELi360EEEEEE8TransferI19StreamedBinaryWriteILb0EEEEvRT_
pRj:_Promise_1_InvokeHandler_TisRuntimeObject_m339964354_gshared
tqa:__ZN9Scripting11UnityEngine20ManagedStreamHelpers12CleanupProxyEv
Exi:_ArrayReadOnlyList_1_GetEnumerator_m1835926958_gshared
p$e:__ZN5physx9PxTaskMgr12addReferenceEj
H0f:_TMP_MeshInfo_Clear_m2171221426_AdjustorThunk
aNc:__Z14ScaleCurveTimeR17AnimationCurveTplIfEf
Vda:__ZN20GlobalCachingManager7DisposeEv
T1b:__Z12SetupLODFadeR9GfxDeviceR17ShaderPassContextf
VQa:__ZNK14PlayableOutput7GetTypeEv
R0c:__ZN9JSONWrite8TransferI13dynamic_arrayI4AABBLj0EEEEvRT_PKc17TransferMetaFlags
X7b:__ZL24CollectForwardObjectsJobP27CollectForwardObjectsHeader
D5m:_List_1_get_Item_m1378751541_gshared
R2c:__ZN8JSONRead21TransferSTLStyleArrayI13dynamic_arrayIdLj0EEEEvRT_17TransferMetaFlags
rac:__Z13IsNodeVisibleRK9SceneNodeRK4AABBRK22SceneCullingParameters
ntl:_SortKeyBuffer_AppendCJKExtension_m2591091991
lrd:__ZN11ShapeModuleC2E10MemLabelId
Gil:_UTF8Encoding_GetByteCount_m4153686982
wmp:_emscripten_glStencilMask__wrapper
nMh:__Z49RuntimeInvoker_Void_t1185182177_Double_t594665363PFvvEPK10MethodInfoPvPS4_
Gbo:__ZN15dense_hashtableI10KeyWrapperIPK19Il2CppGenericMethodES4_N6il2cpp8metadata23Il2CppGenericMethodHashEN14dense_hash_setIS4_S7_NS4_14EqualsComparerINS6_26Il2CppGenericMethodCompareEEENSt3__29allocatorIS4_EEE8IdentityESB_SE_EC2ERKSH_j
gdo:__ZN15dense_hashtableINSt3__24pairIK10KeyWrapperIN6il2cpp5utils13dynamic_arrayIPK10Il2CppTypeLj4EEEEPFvvEEESA_NS3_8metadata19Il2CppSignatureHashEN14dense_hash_mapISA_SD_SG_NSA_14EqualsComparerINSF_22Il2CppSignatureCompareEEENS0_9allocatorISE_EEE9SelectKeyESK_SM_EC2EjRKSG_RKSK_RKSO_
$Ba:__ZN15RenderNodeQueue7CleanupEv
_wg:__ZL66RuntimePlatform_t4159857903_CustomAttributesCacheGenerator_XBOX360P21CustomAttributesCache
OKd:__ZN16NovodexAllocator8allocateEjPKcS1_i
r7b:__Z17PrepareShadowMapsRK11CullResultsRK11ActiveLightRK10MinMaxAABB
vmn:_DeriveBytes_DeriveIV_m973925711
RYk:_Int32_System_IConvertible_ToSByte_m3133688512
kno:__ZN30dense_hashtable_const_iteratorINSt3__24pairIK10KeyWrapperINS1_IPK11Il2CppImageP11Il2CppClassEEEjEES9_17ReflectionMapHashIS8_EN14dense_hash_mapIS9_jSD_NS9_14EqualsComparerINS0_8equal_toIS8_EEEENS0_9allocatorISB_EEE9SelectKeyESI_SK_EppEv
mUf:__ZN9Scripting11UnityEngine12Experimental23SubsystemDescriptorBase9InitProxyEv
T7b:__ZN9ShaderLab10GrabPassesD2Ev
vMn:_OnTrigger_Invoke_m2120872091
wSa:__ZN14Texture2DArray13UploadTextureEv
Vzj:_MaskableGraphic_UpdateCull_m2805101913
Auf:_tt_cmap14_done
Yab:__ZN18AwakeFromLoadQueue25RegisterObjectInstanceIDsEv
buj:_InputField_UpdateLabel_m1837760870
H7f:_TMP_Text_AddFloatToCharArray_m3062272884
UA:__ZNK27AnimationLayerMixerPlayable11DerivesFromE17ScriptingClassPtr
hmf:__ZN20TextRenderingPrivate19NativeTextGenerator15InsertCharacterEiPj
DIe:__ZN5physx2Sc5Scene22removeBroadPhaseRegionEj
b1d:__ZN5physx2Cm12RenderBuffer5clearEv
zzl:_Enumerator_get_CurrentValue_m3438280969_gshared
Aej:_SpriteBone_t303320096_marshal_pinvoke_back
pue:__ZNK5physx2Sc9ClothCore21getStiffnessFrequencyEv
Ntd:__ZN11b2RopeJoint24SolveVelocityConstraintsERK12b2SolverData
V5j:_MonoType_get_attributes_m1332507727
bGn:_GUIContent_ClearStaticCache_m1205116045
$Lg:__ZL107DownloadHandler_t2937767557_CustomAttributesCacheGenerator_DownloadHandler_InternalGetByteArray_m4277508027P21CustomAttributesCache
p6c:__ZN24OptimizedPolynomialCurve19BuildOptimizedCurveERK17AnimationCurveTplIfEf
VQe:__ZN5physx13PxsCCDContext14postCCDAdvanceEPNS_10PxBaseTaskE
E9k:_WindowsIdentity_Dispose_m3466258450
lpi:_BinaryCommon__cctor_m2978407547
j2:__GLOBAL__sub_I_Runtime_Burst_0_cpp
W5b:__Z19GetReflectionSampleRK23ReflectionProbesContextRK22ActiveReflectionProbesRK27PerObjectLightCullingOutputRK10RenderNodejP16ReflectionSample
d$o:_PowerUpBulletPower_Update_m1587125046
nGc:__ZN28ReflectionProbeAnchorManager23HandleAnchorDestructionEPK15TransformAccessj
cyo:__ZN6il2cpp6icalls8mscorlib6System2IO6MonoIO20GetFileSystemEntriesEP12Il2CppStringS6_iiPi
APf:__ZL65__ManagedRegistrationHelperFunction_UnityWebRequestAsyncOperationPv
bpl:_UInt16_TryParse_m4139137016
NQc:__Z41MonoBehaviour_Set_Custom_PropUseGUILayoutP12Il2CppObjecth
jpa:__ZN9Scripting11UnityEngine15ResourceRequest12CleanupProxyEv
yfl:_Encoding__ctor_m2997749867
kgj:_ManagedStreamHelpers_ManagedStreamSeek_m3158782053
aDm:_ExpressionAssertion_Compile_m2166597834
Vrb:__ZN16ScriptingManagerD0Ev
Ral:_Single_System_IConvertible_ToSByte_m1208276900_AdjustorThunk
Z_j:_TlsClientCertificate_ProcessAsSsl3_m3265529850
FMo:__ZN6il2cpp6icalls8mscorlib6System7Convert24InternalFromBase64StringEP12Il2CppStringb
kXe:__ZNK5physx10BPWorkTask7getNameEv
tje:__ZN5physx2Sc8ShapeSim16onResetFilteringEv
Ghd:__Z25UpdateOrbitalAndRadialTplIL27ParticleSystemCurveEvalMode0ELS0_1ELS0_0EEvRK11MinMaxCurveS3_S3_S3_S3_S3_S3_R23ParticleSystemParticlesjjRKN4math8float3x3ERKNS6_7affineXERKNS6_7_float4E
UBo:__ZN30dense_hashtable_const_iteratorINSt3__24pairIK10KeyWrapperINS1_IPKcS4_EEEiEES6_24NamespaceAndNamePairHashN14dense_hash_mapIS6_iS9_NS6_14EqualsComparerI26NamespaceAndNamePairEqualsEENS0_9allocatorIS8_EEE9SelectKeyESD_SF_EppEv
XTc:__Z44Register_UnityEngine_Component_get_transformv
Ntc:__Z39GameObject_CUSTOM_FindGameObjectWithTagP12Il2CppString
AG:__ZN12_GLOBAL__N_120ProcessPlayableGraphERN8Animator11AnimatorJobER35AnimationPlayableEvaluationConstantR32AnimationPlayableEvaluationInputR33AnimationPlayableEvaluationOutputPFvS4_R17AnimationPlayableEPFvS4_S6_S8_EPFvS8_S4_S6_S8_fESE_MS9_FvPS3_PS5_PS7_E
sWk:_TextInfo_ToLower_m2744057472
gZb:__ZN17ArchiveFileSystem12MountArchiveEPKcS1_
nao:__ZN14dense_hash_mapI10KeyWrapperIP9FieldInfoEiN6il2cpp5utils11PointerHashIS1_EENS3_14EqualsComparerINSt3__28equal_toIS2_EEEENS9_9allocatorINS9_4pairIKS3_iEEEEE15set_deleted_keyERSF_
Rkm:_EqualityComparer_1_System_Collections_IEqualityComparer_Equals_m3977314386_gshared
d$c:__Z18Transfer_BlittableI9JSONWriteLb1E8Vector4fEvRK29SerializationCommandArgumentsR31RuntimeSerializationCommandInfo
L7:__Z11RequireTypePKcS0_S0_
ySk:_CCGregorianCalendar_year_from_fixed_m463929682
JBf:__ZN2UI13CanvasManagerD0Ev
G$j:_TlsServerHello_Update_m3935081401
g8i:_Debug_get_unityLogger_m2239795986
zLm:_ReadOnlyCollection_1_System_Collections_IEnumerable_GetEnumerator_m2123446296_gshared
WUj:_MD2Managed_Initialize_m2341076836
iUm:_ReadOnlyCollection_1_System_Collections_IList_Add_m4240023232_gshared
tnb:__ZN9GfxDevice15ImmediateVertexEfff
yYa:__ZNK16LightmapSettings22GetTypeVirtualInternalEv
k2f:_TMP_Style_set_name_m734708838
Nwk:_Array_Sort_TisUIVertex_t4057497605_TisUIVertex_t4057497605_m4243853890_gshared
zPb:__ZN13GfxDeviceGLES15SetStencilStateEPK18DeviceStencilStatei
AKk:_Buffer_BlockCopyInternal_m418318694
l7o:_cycle
vMo:__ZN6il2cpp2vm8Profiler7GCEventE13Il2CppGCEvent
$Nh:__Z76RuntimeInvoker_Void_t1185182177_RuntimeObject_RuntimeFieldHandle_t1871169219PFvvEPK10MethodInfoPvPS4_
AGm:_Collection_1_ConvertItem_m4023613763_gshared
Deh:_TextMeshPro_GetTextInfo_m3192935234
lpn:_Rijndael_Create_m3053077028
te:_emscripten_glUniform1iv
dqb:__ZN13ComputeShader14SetBufferParamEjRKN9ShaderLab16FastPropertyNameE15ComputeBufferIDb
gwd:__ZN15b2DistanceProxy3SetEPK7b2Shapei
mPj:_Array_InternalArray__IndexOf_TisKeyValuePair_2_t1383673463_m3347832327_gshared
kkb:__ZN16MemoryFileSystemD2Ev
qOh:__Z150RuntimeInvoker_Int32_t2950945753_RuntimeObject_Int32_t2950945753_Int32_t2950945753_RuntimeObject_Int32_t2950945753_Int32_t2950945753_Int32_t2950945753PFvvEPK10MethodInfoPvPS4_
$7f:_TMP_Text_GetPreferredValues_m2784517200
ljk:_DateTime_Parse_m3729096069
Xch:_MaterialReferenceManager_TryGetMaterial_m183071449
Y$m:_List_1_System_Collections_IList_Add_m1540114404_gshared
K1f:_TMP_SpriteAnimator_Awake_m377449737
sHa:__ZN16GraphicsSettings27SetLightsUseLinearIntensityEb
pCd:__ZN29b2InitializeContactSolverTask7TaskJobEPS_j
xGc:__ZZN8Renderer15InitializeClassEvEN32FunctorImpl_146kCullSceneChanged4CallEPviR11MessageData
k_o:_JSON_SerializeArray_m1553454783
O2j:_StringReader_Read_m3322058819
pGh:_CrossAppDomainChannel_get_ChannelPriority_m3418073750
Rwj:_Selectable_StartColorTween_m3618813981
Ehh:_BaseInputModule_HandlePointerExitAndEnter_m1705532066
qhf:__ZN5physx7profile8ZoneImplINS_28PxProfileNameProviderForwardEE10startEventEty
nRe:__ZN5physx10PxsCCDPair17sweepAdvanceToToiEfb
Ogc:__Z23ConvertIntegerToTypePtrItEbPvR14SafeBinaryRead
htk:_Delegate_CombineImpl_m3572135514
UHc:__Z13RegisterClassI15EditorExtensionEvPKc
f8j:_NumberFormatter_IntegerToString_m1679294587
vRm:_ReadOnlyCollection_1_System_Collections_IList_RemoveAt_m422909114_gshared
mH:__ZN7mecanim5human29HumanGetGoalOrientationOffsetENS0_4GoalE
Ke:_emscripten_glStencilFunc
vie:__ZN5physx6shdfnd8PoolBaseINS_2Cm5BlockIhLj384EEENS0_19ReflectionAllocatorIS4_EEE17releaseEmptySlabsEv
p5e:__ZN5physx16PxsIslandManager11freeBuffersEv
KMm:_ReadOnlyCollection_1_System_Collections_IList_Contains_m1942059508_gshared
b1k:_FileInfo_Open_m2640035097
Fjf:__ZN5Unity12PhysicsQuery21OverlapBoxUserCollectERK8Vector3fS3_RK11Quaternionfi23QueryTriggerInteractionRN8IPhysics12IUserCollectE
Gnc:__ZN9ShaderLab20SerializedSubProgram14AddMatrixParamEPKcii15ShaderParamTypei
Re:_glGetActiveUniformBlockName
Zz:__ZN7mecanim13CopyValueMaskILb0EEEvPKNS_14ValueArrayMaskEPS1_
d1f:_TMP_Settings_get_enableWordWrapping_m1488159339
$$l:_List_1_set_Item_m1240329677_gshared
vDm:_Parser_IsIgnoreCase_m2210120858
Xkd:__ZN31CollisionModulePropertyBindings13GetFloatValueERK14ParticleSystemi
t8k:_SecurityPermission_IsSubsetOf_m545000671
KJj:_Array_InternalArray__ICollection_Remove_TisLink_t3209266973_m897088622_gshared
Mcb:__ZN27UnloadUnusedAssetsOperationD0Ev
WEk:_SmallXmlParser_Cleanup_m2310464878
$O:__ZN4FMOD7Channel20set3DConeOrientationEP11FMOD_VECTOR
to:FUNCTION_TABLE_iiifii
Mbk:_AssemblyBuilder_not_supported_m1735277432
XFo:__ZN6il2cpp2vm12GenericClass11SetupEventsEP11Il2CppClass
anf:_ft_open_face_internal
Yuf:_tt_cmap12_get_info
UQk:_Hashtable_get_Keys_m625158339
cBo:__ZN6il2cpp2vm15ReboxIReferenceEP14Il2CppIUnknownP11Il2CppClass
A3n:__ZN6il2cpp6icalls8mscorlib6System7Decimal14decimalCompareEP19il2cpp_decimal_reprS5_
vbm:_Dictionary_2_OnDeserialization_m4209543208_gshared
fNo:__ZThn4_N6il2cpp2vm13CachedCCWBaseINS0_13ManagedObjectEE7ReleaseEv
Dde:__ZN5physx26PxcFsComputeJointLoadsSimdERKNS_9PxcFsDataEPKNS_12PxcFsInertiaEPNS_6shdfnd3aos6Mat33VEPKfjjNS_21PxcFsScratchAllocatorE
gDe:__ZN5physx6shdfnd8SyncImpl7getSizeEv
L4k:_RNGCryptoServiceProvider_GetNonZeroBytes_m1918423726
Mgd:__Z25UpdateOrbitalAndRadialTplIL27ParticleSystemCurveEvalMode2ELS0_3ELS0_2EEvRK11MinMaxCurveS3_S3_S3_S3_S3_S3_R23ParticleSystemParticlesjjRKN4math8float3x3ERKNS6_7affineXERKNS6_7_float4E
ljp:_glCopyTexImage2D__wrapper
YId:__ZN16PhysicsManager2D11CreateWorldERK8Vector2f
dVi:_Dns_GetHostAddresses_m878956259
bqh:_FloatTween_TweenValue_m52237061
a$f:_TMP_InputField_AdjustRectTransformRelativeToViewport_m2545853035
zMb:__Z18ClearByDrawingQuad13GfxClearFlagsRK10ColorRGBAffjR17ShaderPassContext
Ija:__ZN6prcoreL17RemapGenericFloatI14TexFormatRHalf15TexFormatRFloatEEvPKNS_9InnerInfoE
D8j:_NumberFormatter_FormatExponential_m2139559983
LRh:__Z155RuntimeInvoker_Void_t1185182177_RuntimeObject_SByte_t1669577662_SByte_t1669577662_Int64U26_t200113976_ObjectU26_t2146539884_SerializationInfoU26_t419328957PFvvEPK10MethodInfoPvPS4_
pga:__ZN15DirectorManager21RebuildStageCallbacksEv
RMb:__ZN19RuntimeSceneManager9LoadSceneERKN4core12basic_stringIcNS0_20StringStorageDefaultIcEEEES6_S6_RK9UnityGUIDiNS_11LoadingModeE
QAl:_Enumerator_Reset_m1756580451_gshared
i8i:_Application_Internal_ApplicationQuit_m2936209313
hSb:__ZN7ApiGLES10DrawArraysE16GfxPrimitiveTypejjj
VS:__ZN10SampleClip13LoadBaseSoundEv
RRd:__ZN5physx2Gu22gjkRelativePenetrationINS0_17ShrunkConvexHullVES2_EEjRKT_RKT0_RKNS_6shdfnd3aos15PsMatTransformVERKNSA_6FloatVERNSA_5Vec3VESI_SI_RSE_PhSK_Rh
eFk:_SmallXmlParser_SkipWhitespaces_m4243606597
sTk:_CompareInfo_IndexOf_m2631915198
Fvb:__ZN14SafeBinaryRead21TransferSTLStyleArrayI13dynamic_arrayI10Matrix4x4fLj0EEEEvRT_17TransferMetaFlags
cLk:_Byte_CompareTo_m4285128861
Vih:_TriggerEvent__ctor_m87299207
rUf:__ZN9Scripting11UnityEngine12Experimental27Internal_SubsystemInstances12CleanupProxyEv
rW:__Z57AudioSource_CUSTOM_INTERNAL_CALL_ClearExtensionPropertiesP12Il2CppObjectRK12PropertyName
QFo:__ZN15dense_hashtableINSt3__24pairIK10KeyWrapperIP12Il2CppObjectEN6il2cpp2gc9CachedCCWEEES5_NS7_5utils11PointerHashIS3_EEN14dense_hash_mapIS5_S9_SD_NS5_14EqualsComparerINS0_8equal_toIS4_EEEENS0_9allocatorISA_EEE9SelectKeyESI_SK_E15insert_noresizeERKSA_
Dnd:__ZL17DrawMeshParticlesILb0EL25ParticleSystemRenderSpace3EEvRK26ParticleSystemTempMeshDataRK22ParticleSystemTempDataRK23ParticleSystemParticlesRK31ParticleSystemParticlesTempDataRK26ParticleSystemRendererDataRK21ParticleSystemModulesPfPv
BKl:_Transform_1_Invoke_m2167534993_gshared
n6e:__ZN5physx2Sc19ParticlePacketShapeC2ERNS0_17ParticleSystemSimEjPNS_16PxvParticleShapeE
j5f:_TMP_Text_set_paragraphSpacing_m3392922741
QQa:__ZN22DeviceMVPMatricesStateC2ER9GfxDevice
K8f:_TMP_Text_PackUV_m2186616011
led:__Z9UpdateTplIL27ParticleSystemCurveEvalMode1EEvRK11MinMaxCurveS3_S3_R23ParticleSystemParticlesjjRKN4math8float3x3ERKNS6_7_float4E
lne:__ZN5physx9NpPhysics18createTriangleMeshERNS_13PxInputStreamE
Fo:FUNCTION_TABLE_iiiiifiiiif
$n:FUNCTION_TABLE_iifii
HPk:_Comparer_Compare_m3984347512
fro:__ZN6il2cpp2vm10Reflection12HasAttributeEP9FieldInfoP11Il2CppClass
kra:__ZN9Scripting11UnityEngine12Experimental9Rendering11CullResults9InitProxyEv
Sc:invoke_viiifi
AAc:__Z13RegisterClassI6SpriteEvPKc
MBh:_MonoProperty_GetCustomAttributes_m3619796755
xaf:__ZN5physx6shdfnd5ArrayIPNS_7PxActorENS0_19ReflectionAllocatorIS3_EEE8recreateEj
$ki:_MethodDictionary_System_Collections_IEnumerable_GetEnumerator_m4169036899
yKl:_Transform_1_BeginInvoke_m1042516857_gshared
s4k:_RIPEMD160Managed_JJJ_m4161373884
Cfm:_DefaultComparer_Equals_m3257444875_gshared
$f:_JS_Sound_SetPosition
ILa:__ZN19RenderBufferManager13GetTempBufferEii17DepthBufferFormat19RenderTextureFormatj22RenderTextureReadWrite14VRTextureUsagei23RenderTextureMemoryless
Beo:__ZL13GetSharedInstPK17Il2CppGenericInst
eGa:__Z27ConvertSubMeshesToTrianglesIjEvR13dynamic_arrayI7SubMeshLj0EERS0_IhLj0EE
$9n:__ZNK15dense_hashtableINSt3__24pairIK10KeyWrapperIPKcEP11Il2CppClassEES5_N6il2cpp5utils11StringUtils12StringHasherIS4_EEN14dense_hash_mapIS5_S8_SE_NS5_14EqualsComparerINSB_13VmStringUtils21CaseSensitiveComparerEEENS0_9allocatorIS9_EEE9SelectKeyESJ_SL_E3endEv
yKf:__ZN22BaseUnityConnectClient17SaveSessionValuesEv
ABi:_InternalEnumerator_1_get_Current_m476140818_gshared
Eqe:__ZNK5physx7NpCloth14getNbParticlesEv
CRi:_Enumerator_System_Collections_IEnumerator_get_Current_m1741827799_gshared
m_i:_NetworkStream_BeginRead_m194067695
e3d:__ZN5physx2Sc10NPhaseCore24releaseShapeInstancePairEPNS0_19ShapeInstancePairLLEjj
_7b:__Z24SetupActiveLightsContextR21ActiveLightingContextRK12ActiveLightsRK11CullResultsP14ShadowMapCacheRK10MinMaxAABB
orc:__Z38Sprite_CUSTOM_INTERNAL_get_textureRectP12Il2CppObjectP5RectTIfE
auc:__ZN9TextAsset7SetTextERKN4core12basic_stringIcNS0_20StringStorageDefaultIcEEEE
NAa:__ZN6Camera8TransferI24GenerateTypeTreeTransferEEvRT_
Ua:invoke_iiiiiiif
Na:invoke_iiiiiiii
esm:_Array_InternalArray__set_Item_TisByte_t1134296376_m3104140039_gshared
FSh:__Z194RuntimeInvoker_Int32_t2950945753_RuntimeObject_Int32_t2950945753_Int32_t2950945753_RuntimeObject_Int32_t2950945753_SByte_t1669577662_Int32U26_t1369213839_BooleanU26_t4125257963_SByte_t1669577662PFvvEPK10MethodInfoPvPS4_
Zmn:_PKCS12_GetBytes_m415958948
O$b:__ZN8Renderer17PendingAddToSceneEv
cje:__ZN5physx7NpActor18releaseConstraintsERNS_12PxRigidActorE
h1d:__ZN5physx6shdfnd5ArrayINS_11PxDebugLineENS0_19ReflectionAllocatorIS2_EEE8recreateEj
Blp:b125
zlp:b124
Amp:b127
Clp:b126
Cmp:b129
psc:__Z52Register_UnityEngine_RectTransform_INTERNAL_get_rectv
KSc:__Z38Material_CUSTOM_SetMatrixImpl_InjectedP12Il2CppObjectiRK10Matrix4x4f
v7:__Z21PostprocessStacktracePKcRN4core12basic_stringIcNS1_20StringStorageDefaultIcEEEE
OPg:__ZL73ContactFilter2D_t3805203441_CustomAttributesCacheGenerator_minNormalAngleP21CustomAttributesCache
P2o:_LinqEnumerator_System_Collections_IEnumerator_get_Current_m70747910
lgj:_ManagedStreamHelpers_ManagedStreamLength_m2930872960
$rc:__Z43RectTransform_CUSTOM_INTERNAL_get_anchorMinP12Il2CppObjectP13Vector2fIcall
TAe:__ZNK5physx14NpRigidDynamic25getContactReportThresholdEv
B2k:_FileStreamAsyncResult_CBWrapper_m1670848754
Uvc:__Z47Register_UnityEngine_Camera_get_allCamerasCountv
xv:__ZN16MecanimAnimation25RegisterIAnimationBindingEPKN5Unity4TypeEiP17IAnimationBinding
YLc:__ZNSt3__26vectorIj13stl_allocatorIjL18MemLabelIdentifier1ELi16EEE6assignIPKtEENS_9enable_ifIXaasr21__is_forward_iteratorIT_EE5valuesr16is_constructibleIjNS_15iterator_traitsIS9_E9referenceEEE5valueEvE4typeES9_S9_
RF:__ZN7mecanim9animation16EvaluateAvatarIKEPKNS0_14AvatarConstantEPKNS0_11AvatarInputEPNS0_12AvatarOutputEPNS0_12AvatarMemoryEPNS0_15AvatarWorkspaceEb
eC:__ZN26AnimatorControllerPlayable10GetIntegerEiRi
R1e:__Z22updateIslandsToProcessRKN5physx2Cm10BitMapBaseINS_6shdfnd9AllocatorEEEPKjRKNS_11NodeManagerERS4_
__b:__ZN12InputManager13InputEndFrameEv
Ifh:_TextMeshProUGUI_UpdateMaterial_m902456839
Gij:_Object_get_name_m4211327027
xuo:__ZN6il2cpp2vm6Thread5SetupEP12Il2CppThread
sNd:__ZN8Collider30GetRelativePositionAndRotationERK9TransformR10Matrix4x4f
tRe:__ZN5physx35PxcSweepEstimateAnyShapeHeightfieldERKNS_11PxsCCDShapeES2_PKNS_12PxsRigidBodyES5_RKNS_11PxTransformES8_f
qCl:_Enumerator_System_Collections_IDictionaryEnumerator_get_Key_m2500634048_gshared
u1d:__ZN5physx3Cct13BoxControllerC2ERKNS_16PxControllerDescERNS_9PxPhysicsEPNS_7PxSceneE
Q5n:_NativeNameAttribute__ctor_m3296876808
q8o:___munmap
qyl:_RSAManaged_get_PublicOnly_m595121416
Sg:_localtime_r
n0b:__ZN22RenderingCommandBuffer13GetAndCheckRTE24BuiltinRenderTextureTypeRKN9ShaderLab16FastPropertyNameEPKcPP13RenderTexture
gdd:__ZN14ParticleSystem13KillParticlesILb1EEEvRjbR24ParticleSystemUpdateDataR23ParticleSystemParticlesjPj
sod:__Z16UpdateSpritesTplIL27ParticleSystemCurveEvalMode3EEvfRK11MinMaxCurveS3_RK23ParticleSystemParticlesPf
$2:__Z19free_alloc_internalPv10MemLabelId
U7n:__ZNSt3__26vectorIjNS_9allocatorIjEEE6resizeEj
_u:__ZN9Scripting11UnityEngine10Animations18PositionConstraint9InitProxyEv
Vg:_strftime
ZLa:__ZN7Texture33SetStoredColorSpaceNoDirtyNoApplyE17TextureColorSpace
RDh:_ResourceSet__ctor_m3618395942
Srk:_Decimal_System_IConvertible_ToDouble_m3125524987_AdjustorThunk
ica:__ZN12FileAccessorD2Ev
tGa:__ZN14VertexDataInfoC2Ev
mIo:__ZN6il2cpp2gc16GarbageCollector14CollectALittleEv
IJc:__ZNK9HPlayable15GetPlayableTypeEv
PDb:__ZL17Transfer_GUIStyleI18StreamedBinaryReadILb1EELb1EEvRK29SerializationCommandArgumentsR31RuntimeSerializationCommandInfo
cdd:__ZNSt3__227__insertion_sort_incompleteIR31SortCollisionEventsByGameObjectP22ParticleCollisionEventEEbT0_S5_T_
gBj:_RectMask2D_IsRaycastLocationValid_m1652308696
y5:__ZNSt3__26__treeINS_12__value_typeIPKciEENS_19__map_value_compareIS3_S4_15compare_tstringIS3_ELb1EEENS_9allocatorIS4_EEE21__emplace_unique_implIJNS_4pairIPciEEEEENSD_INS_15__tree_iteratorIS4_PNS_11__tree_nodeIS4_PvEEiEEbEEDpOT_
qSi:_Enumerator_System_Collections_IDictionaryEnumerator_get_Value_m1780001393_AdjustorThunk
Jio:__ZN6il2cpp6icalls8mscorlib6SystemL9IsPrivateEPK12PropertyInfo
gnn:_X501_ToString_m1148552872
zRe:__ZNK5physx18PxcConvexTriangles16getPolygonNormalEj
rpj:_RectTransform_add_reapplyDrivenProperties_m1374850920
J6:__ZN9shadertag10InitializeEv
rgf:__ZN5physx24NpPtrTableStorageManager8canReuseEjj
Njf:__GLOBAL__sub_I_Modules_Terrain_Public_1_cpp
EWa:__ZN15QualitySettings14QualitySetting8TransferI24GenerateTypeTreeTransferEEvRT_
dKn:_UnityWebRequest_get_isHttpError_m797082501
JFe:__ZN5physx2Sc27ConstraintProjectionManager33processConstraintForGroupBuildingEPNS0_13ConstraintSimERNS0_20ScratchAllocatorListIS3_Lj64EEE
Ezf:__Z28Font_Get_Custom_PropMaterialP12Il2CppObject
dpc:__ZN22BlockMemoryCacheWriter14LockCacheBlockEjPPhS1_
kBf:__ZN9Scripting11UnityEngine8Tilemaps8TileData12CleanupProxyEv
NDe:__ZN5physx2Cm29ConstraintImmediateVisualizer19visualizeDoubleConeERKNS_11PxTransformEfb
Yql:_UInt64_ToString_m2177233542
uu:__ZN9Scripting11UnityEngine21StateMachineBehaviour9InitProxyEv
Q2c:__Z22TransferField_NonArrayI8JSONRead27Converter_SimpleNativeClassI8GUIStyleEEvRK23StaticTransferFieldInfoR31RuntimeSerializationCommandInfoRT0_
JWd:__ZN5physx6shdfnd5ArrayINS_13PxExtendedBoxENS0_19ReflectionAllocatorIS2_EEE8recreateEj
Ura:__ZN9Scripting11UnityEngine26ExcludeFromPresetAttribute9InitProxyEv
p7d:__ZN5physx6shdfnd5ArrayIPvNS0_19ReflectionAllocatorINS_2Cm5BlockIS2_Lj16EEEEEE4copyINS0_15InlineAllocatorILj256ES7_EEEEvRKNS1_IS2_T_EE
Ah:_llvm_eh_typeid_for
Mjp:_glGetUniformLocation__wrapper
Bki:_RemotingServices_FindInterfaceMethod_m2125212568
rD:__ZNK23AnimationPlayableOutput7GetTypeEv
pGe:__ZN5physx7NpScene19getActiveTransformsERjh
t2j:_StreamWriter__cctor_m1229272693
uJc:__ZN13RendererScene38UpdatePreviousFrameDataForRendererTypeEii12RendererType
Q3e:__ZN5physx6shdfnd5ArrayIPKNS_24PxsIndexedContactManagerENS0_19ReflectionAllocatorIS4_EEE8recreateEj
k4h:__Z109RuntimeInvoker_RuntimeObject_Ray_t3785851493_Single_t1397266774_Int32_t2950945753_RuntimeObject_RuntimeObjectPFvvEPK10MethodInfoPvPS4_
nQe:__ZN5physx6shdfnd8internal8HashBaseIjjNS0_4HashIjEENS1_11HashSetBaseIjS4_NS0_9AllocatorELb0EE6GetKeyES6_Lb0EE6createERKjRb
eGb:__Z18Transfer_BlittableI18StreamedBinaryReadILb0EELb1E8Vector4fEvRK29SerializationCommandArgumentsR31RuntimeSerializationCommandInfo
elf:__ZN14SafeBinaryRead21TransferSTLStyleArrayI13dynamic_arrayIN4core17string_with_labelILi35EEELj0EEEEvRT_17TransferMetaFlags
bfm:_Dictionary_2_U3CCopyToU3Em__0_m2023886030_gshared
$Gl:_ShimEnumerator_MoveNext_m1353453605_gshared
Ylp:_glBindVertexArray__wrapper
Ucf:__ZN5physx6shdfnd5ArrayINS_11RTreeNodeNQENS0_19ReflectionAllocatorIS2_EEE19resizeUninitializedEj
a4d:__ZNK5physx2Sc16InteractionScene18getLLIslandManagerEv
gqi:_SerializationInfo__ctor_m2923079689
gPa:__ZN8Material8TransferI14SafeBinaryReadEEvRT_
YQe:__ZN5physx17PxcNpMemBlockPool34acquireExceptionalConstraintMemoryEj
yTa:__ZN12CubemapArray17UploadToGfxDeviceEv
jYk:_Int32_JumpOverWhite_m208298144
iSe:__ZN5physxL23PxcSweepConvexTrianglesERKNS_11PxsCCDShapeES2_RKNS_11PxTransformES5_S5_S5_fRNS_6PxVec3ES7_RNS_10PxcNpCacheERNS_18PxcNpThreadContextERKNS_2Cm23FastVertex2ShapeScalingERNS_2Gu9TriangleVEf
Joe:__ZNK5physx7NpShape16getPlaneGeometryERNS_15PxPlaneGeometryE
Cbi:__Z53RuntimeInvoker_Int32_t2950945753_UIVertex_t4057497605PFvvEPK10MethodInfoPvPS4_
Okp:_emscripten_glGetUniformiv__wrapper
_Mo:__ZN6il2cpp2vm13ManagedObject14QueryInterfaceERK10Il2CppGuidPPv
cdf:__ZN5physx27InternalTriangleMeshBuilder14fillRemapTableEv
IP:__ZN11AudioSource4StopEb
Cbe:__ZN5physx6shdfnd8PoolBaseINS_13NpRigidStaticENS0_19ReflectionAllocatorIS2_EEE17releaseEmptySlabsEv
aGk:_AppDomain_LoadAssembly_m1557889794
vrb:__ZN18GlslGpuProgramGLESD2Ev
oec:__ZN13RenderTexture14SetVolumeDepthEi
Bhf:__ZThn116_NK5physx7profile8ZoneImplINS_28PxProfileNameProviderForwardEE10hasClientsEv
r_e:__ZN5physx2Gu20pcmContactCapsuleBoxERKNS0_13GeometryUnionES3_RKNS_11PxTransformES6_RKfRNS0_5CacheERNS0_13ContactBufferE
zXh:__Z86RuntimeInvoker_Void_t1185182177_UInt16_t2177724958_SByte_t1669577662_SByte_t1669577662PFvvEPK10MethodInfoPvPS4_
tnc:__Z22LoadGpuProgramFromDataPKhS0_Rj
u3c:__ZN10Matrix4x4f8TransferI8JSONReadEEvRT_
WCn:_ZlibBaseStream_get_CanSeek_m1334254125
EFb:__Z15Transfer_StringI18StreamedBinaryReadILb0EELb0EEvRK29SerializationCommandArgumentsR31RuntimeSerializationCommandInfo
RAj:_PositionAsUV1_ModifyMesh_m4231919476
JQk:_Hashtable__ctor_m1941859523
s5b:__Z26FindForwardLightsForObjectR13dynamic_arrayIhLj0EEPK11CulledLightjRK12ActiveLightsRK10RenderNodePK19ShaderPropertySheetbRK23FindForwardLightsParamsf
Wna:__ZL44__ManagedRegistrationHelperFunction_GPUFencePv
NDj:_ScrollRect_set_horizontalScrollbarSpacing_m2209919081
jWb:__ZN25TransformFeedbackSkinning31CleanupTransformFeedbackShadersEv
vnl:_Type_GetTypeCodeInternal_m1968182887
uBa:__Z22scripting_object_unbox18ScriptingObjectPtr
jmf:__ZNK20TextRenderingPrivate8FontImpl19GetCharacterAdvanceEjijfPj
vTo:__ZN6il2cpp6icalls8mscorlib4Mono8Security12Cryptography18KeyPairPersistence16_IsUserProtectedEP12Il2CppString
f1f:_TMP_Settings_get_enableExtraPadding_m167438525
rxo:__ZN6il2cpp6icalls8mscorlib6System9Threading6Thread19ResetAbort_internalEv
O6o:_fmt_u
G_a:__ZN10VertexData8TransferI18StreamedBinaryReadILb0EEEEvRT_
qbe:__ZN5physx2Sc5Scene9addStaticERNS0_10StaticCoreEPKPvjj
sVo:__ZN6il2cpp8metadata25Il2CppGenericClassCompare7CompareEPK18Il2CppGenericClassS4_
Luh:_HorizontalOrVerticalLayoutGroup_set_childForceExpandHeight_m1754245348
tGf:__ZN2UI29ResetVRScreenSpaceWarningFlagEv
B6j:_MonoType_get_Assembly_m4290914179
coc:__ZN9ShaderLab7ProgramC2E10MemLabelIdi10ShaderType
zec:__ZN14PreloadManager16UpdatePreloadingEv
vza:__ZN12BaseRendererD2Ev
$tc:__ZNSt3__26vectorI4PPtrI10MonoScriptE13stl_allocatorIS3_L18MemLabelIdentifier79ELi16EEE6insertENS_11__wrap_iterIPKS3_EERS9_
PXf:_TMP_InputField_set_caretWidth_m141005399
XMe:__ZN5physx2Sc5Scene9addShapesEPKPvjjRNS0_8RigidSimEPNS_12PxsRigidBodyERPNS0_8ShapeSimEPNS_9PxBounds3E
vtm:_Array_InternalArray__set_Item_TisUILineInfo_t4195266810_m2313892078_gshared
n_n:_U3CDefaultUnityWebRequestU3Ed__0_System_Collections_IEnumerator_Reset_m2946020892
auj:_InputField_SendOnValueChanged_m2560301445
hZe:__ZN5physx23PxcPCMContactConvexMeshERKNS_2Gu13GeometryUnionES3_RKNS_11PxTransformES6_RKfRNS_10PxcNpCacheERNS0_13ContactBufferE
Lhc:__ZNK21UnityDefaultAllocatorI17LowLevelAllocatorE8ContainsEPKv
Uri:_RuntimeTypeHandle_Equals_m2857439487
Ki:_emscripten_get_main_loop_timing
pFh:_SafeHandle_Finalize_m3866180675
DWa:__ZN24GenerateTypeTreeTransfer21TransferSTLStyleArrayINSt3__26vectorIN15QualitySettings14QualitySettingENS1_9allocatorIS4_EEEEEEvRT_17TransferMetaFlags
c3k:_MemoryStream_ToArray_m3911744835
Cdc:__ZN23ManagedAttributeManager52CallManagedGetParentTypeDisallowingMultipleInclusionE17ScriptingClassPtr
d6a:__Z10AddGUIAxesR13dynamic_arrayI9InputAxisLj0EE
Cnl:_Type_GetHashCode_m1947148725
hSh:__Z91RuntimeInvoker_Void_t1185182177_RuntimeObject_RuntimeObject_RuntimeObject_SByte_t1669577662PFvvEPK10MethodInfoPvPS4_
geb:__ZNK2UI13RectTransform22GetTypeVirtualInternalEv
H5c:__ZNK15PolynomialCurve18EvaluateIntegratedERKN4math7_float4E
Mq:getTempRet0
X3i:_U3CAnimateVertexColorsU3Ec__Iterator0_Reset_m1037330916
Okd:__ZN26SizeModulePropertyBindings13GetFloatValueERK14ParticleSystemi
R$i:_SocketException__ctor_m480722159
HWl:_Enumerator_System_Collections_IEnumerator_Reset_m2394182378_AdjustorThunk
Whh:_BaseRaycaster_OnEnable_m2678466030
mPl:_ValueCollection__ctor_m825399723_gshared
vdj:_UnityEventBase__ctor_m1851535676
Ywk:_Array_Sort_TisVector4_t3319028937_m2797285308_gshared
W3j:_UnexceptionalStreamWriter_Write_m1834931241
g5n:_Physics_RaycastAll_m3796226007
U0o:_JSONLazyCreator_set_AsFloat_m3519126835
zxo:__ZN6il2cpp6icalls8mscorlib6System9ThreadingL21lookup_cached_cultureEP12Il2CppThreadi
RQn:_NetFxCoreExtensions_CreateDelegate_m751211712
X8b:__ZN18DeferredRenderLoopD2Ev
D2n:_AnimationLayerMixerPlayable__cctor_m4086299972
tua:__ZNK16TypeTreeIterator4NameEv
Iba:__ZN15FileSystemEntry3SetEPKc
l4e:__ZN5physx6shdfnd5ArrayIPNS_13PxcNpMemBlockENS0_19ReflectionAllocatorIS3_EEE6resizeEjRKS3_
Xwc:__Z52Register_UnityEngine_Application_set_targetFrameRatev
eNm:_ReadOnlyCollection_1_System_Collections_Generic_IListU3CTU3E_Insert_m568455025_gshared
IO:__ZN20SoundChannelInstance15ParameterBuffer5ApplyEPN4FMOD7ChannelE
Ncn:_Collection_1_CheckWritable_m2727304722_gshared
UUi:_IPv6Address__ctor_m4117281080
yXf:_SelectionEvent__ctor_m3977662582
Zlk:_Convert_ToInt64_m2075293963
gmf:__ZN20TextRenderingPrivate19NativeTextGenerator9InsertTabEv
hbp:_sbrk
Zdd:__Z13DragUpdateTplIL27ParticleSystemCurveEvalMode2EEvRK11MinMaxCurvebbR23ParticleSystemParticlesjjRKN4math7_float4E
KM:__ZL49__ManagedRegistrationHelperFunction_AudioSettingsPv
hhf:__ZN5physx7profile8ZoneImplINS_28PxProfileNameProviderForwardEE21setProfileZoneManagerEPNS_20PxProfileZoneManagerE
YLf:__ZN11UnityEngine15PlatformWrapper24GetRuntimePlatformStringEv
uj:_glIsEnabled
c$d:__ZN5physx3Cct17CapsuleController15setFootPositionERKNS_14PxExtendedVec3E
gUd:__ZN5physx2Gu33PCMCapsuleVsMeshContactGeneration13generateEEMTDERKNS_6shdfnd3aos5Vec3VES6_RKNS3_6FloatVES6_jS6_S6_PNS0_21MeshPersistentContactERj
Rbk:_DerivedType__ctor_m1853298054
rub:__Z25scripting_class_get_image17ScriptingClassPtr
s_a:__ZN10SpriteBone8TransferI24GenerateTypeTreeTransferEEvRT_
G5l:_List_1_RemoveAt_m2730968292_gshared
N8a:__ZNSt3__26vectorIN4core12basic_stringIcNS1_20StringStorageDefaultIcEEEE13stl_allocatorIS5_L18MemLabelIdentifier13ELi16EEEC2INS_11__wrap_iterIPS5_EEEET_SE_RKS8_PNS_9enable_ifIXaasr21__is_forward_iteratorISE_EE5valuesr16is_constructibleIS5_NS_15iterator_traitsISE_E9referenceEEE5valueEvE4typeE
yj:_emscripten_glDrawElementsInstanced
aC:__ZN26AnimatorControllerPlayable27SetupStateMachineBehavioursEv
DUj:_KeyBuilder_get_Rng_m983065666
azg:__ZL48Mathf_t3464937446_CustomAttributesCacheGeneratorP21CustomAttributesCache
oxg:__ZL79Camera_t4157153871_CustomAttributesCacheGenerator_Camera_RaycastTry_m3913529496P21CustomAttributesCache
dyj:_LayoutGroup_get_preferredWidth_m3816902260
Ofh:_TextMeshProUGUI_Cull_m2430697619
dKa:__ZN18JobBatchDispatcherD2Ev
beb:__ZN9Transform17MainThreadCleanupEv
OPo:_GC_clear_hdr_marks
Jpd:__Z17UpdateSprites2TplIL27ParticleSystemCurveEvalMode1ELS0_4EEvfRK11MinMaxCurveS3_RK23ParticleSystemParticlesPf
d6f:_TMP_Text_get_pageToDisplay_m1088040628
bpf:_cff_fd_select_get
VGj:_Text_set_resizeTextForBestFit_m4095249125
o1i:_OidEnumerator_MoveNext_m3138911739
Jj:_emscripten_glGetShaderiv
$P:__ZN4FMOD6System10getVersionEPj
g5e:__ZN5physx2Sc7BodySim10sleepCheckEffb
CCf:__ZN2UI6Canvas23VirtualRedirectTransferER24GenerateTypeTreeTransfer
cFj:_Selectable_set_animationTriggers_m2970345687
Y0c:__ZN9JSONWrite8TransferIN4math12int2_storageEEEvRT_PKc17TransferMetaFlags
Skf:__ZN13TextRendering4Font13AwakeFromLoadE17AwakeFromLoadMode
yTk:_CompareInfo_LastIndexOf_m2688553706
smp:_emscripten_glCullFace__wrapper
pmb:__ZN9GfxDevice21ReleaseSharedMeshDataEP14SharedMeshData
Lkh:_MouseState__ctor_m1467839005
lEm:_Uri_IsDomainAddress_m2867513594
O7a:__ZNSt3__27__sort5IRNS_6__lessINS_4pairIPKN5Unity4TypeE7Hash128EES8_EEPS8_EEjT0_SC_SC_SC_SC_T_
Jrh:_Dropdown_CreateItem_m2954407740
VOo:_GC_unreachable_finalize_mark_proc
Qlj:_PlayerConnectionInternal_PollInternal_m3759016321
tYi:_X509Chain_ProcessCrlExtensions_m236234529
Qg:___syscall192
Xik:_Convert_ToByte_m2375887898
d9n:__ZN6il2cpp2vm5Class40GetInterfaceInvokeDataFromVTableSlowPathEPK12Il2CppObjectPK11Il2CppClassj
c8c:__ZN11ShapeModule18MultiModeParameterIN25IParticleSystemProperties8PropertyIfNS1_5ClampILi0ELi360EEEEEE8TransferI24GenerateTypeTreeTransferEEvRT_
csc:__Z43RectTransform_CUSTOM_INTERNAL_get_anchorMaxP12Il2CppObjectP13Vector2fIcall
Oje:__ZN5physx14NpShapeManagerC2Ev
pkk:_Decimal_Parse_m942471224
cEa:__ZN8Material28UpdateHashesOnPropertyChangeEN9ShaderLab16FastPropertyNameE
nvc:__Z53Register_UnityEngine_SortingLayer_GetLayerValueFromIDv
u3i:_TMP_UiFrameRateCounter_Awake_m2736519745
fUj:_ASN1_GetBytes_m1968380955
ktb:__Z18Transfer_BlittableI14SafeBinaryReadLb1E8Vector4fEvRK29SerializationCommandArgumentsR31RuntimeSerializationCommandInfo
nTf:__ZN13RuntimeStaticINSt3__26vectorI23UnityVRDeviceDefinition13stl_allocatorIS2_L18MemLabelIdentifier90ELi16EEEELb0EE13StaticDestroyEPv
hS:__ZN11AudioSource12AddToManagerEv
Hw:__ZN8Animator23VirtualRedirectTransferER19StreamedBinaryWriteILb0EE
ND:__ZN11UnityEngine9Animation32CreateAnimatorGenericBindingsOptERKNS0_20AnimationSetBindingsER9TransformPKN7mecanim9animation14AvatarConstantEPKNS0_21AvatarBindingConstantEbRNS6_6memory9AllocatorER8Animator
ZBo:__ZN6il2cpp2vm5Image13ClassFromNameEPK11Il2CppImagePKcS6_
acp:dynCall_vdddddd
S5n:_NativePropertyAttribute__ctor_m2033094153
Blc:__ZN24GenerateTypeTreeTransfer21TransferSTLStyleArrayINSt3__26vectorIN9ShaderLab14SerializedPassENS1_9allocatorIS4_EEEEEEvRT_17TransferMetaFlags
j7:__ZL32MarkLevelGameManagerDependenciesR27GarbageCollectorThreadState
pRb:__ZNK13GfxDeviceGLES26HasActiveRandomWriteTargetEv
uNk:_ArrayList_CopyTo_m3962521159
nuo:__GLOBAL__sub_I_Thread_cpp
nQc:__Z29Matrix4x4_CUSTOM_TRS_InjectedRK8Vector3fRK11QuaternionfS1_R10Matrix4x4f
qhp:_glGetActiveUniformsiv__wrapper
uPa:__ZN14SafeBinaryRead8TransferINSt3__24pairIN9ShaderLab16FastPropertyNameE10ColorRGBAfEEEEvRT_PKc17TransferMetaFlags
lWd:__ZNK5physx3Cct10Controller16getInternalStateERNS_17PxControllerStateE
Oij:_Mesh_GetIndices_m2873123901
Pef:__ZZN8Collider15InitializeClassEvEN37FunctorImpl_822kForceRecreateCollider4CallEPviR11MessageData
E9:__ZN13MonoBehaviour19SetupScriptingCacheE17ScriptingClassPtrP10MonoScript
u3n:__ZL9rshift128PyS_
WG:__Z20AnimationEventToMonoRK14AnimationEventR18MonoAnimationEvent
wGc:__ZZN8Renderer15InitializeClassEvEN28FunctorImpl_145kLayerChanged4CallEPviR11MessageData
zkh:_PointerEventData_get_dragging_m746831934
XLe:__ZN5physx10PxsContext15setScratchBlockEPvj
hUm:_ReadOnlyCollection_1_System_Collections_IEnumerable_GetEnumerator_m2781605075_gshared
Jsn:_TMP_XmlTagStack_1_Remove_m1417473052_AdjustorThunk
dra:__ZN9Scripting11UnityEngine12Experimental9Rendering15ShadowSplitData12CleanupProxyEv
$fa:__ZZN15DirectorManager15InitializeClassEvEN52PreLateUpdateDirectorUpdateAnimationBeginRegistrator7ForwardEv
Nth:_Graphic_RegisterDirtyMaterialCallback_m106898453
gGn:_GUILayoutEntry_get_margin_m3174861737
G2d:__ZN5physx2Cm27getDynamicGlobalPoseAlignedERKNS_11PxTransformES3_S3_RS1_
Wom:_Array_InternalArray__ICollection_CopyTo_TisResolveHandler_t4124874245_m1101829896_gshared
BBo:__ZNK15dense_hashtableINSt3__24pairIK10KeyWrapperINS1_IPKcS4_EEEiEES6_24NamespaceAndNamePairHashN14dense_hash_mapIS6_iS9_NS6_14EqualsComparerI26NamespaceAndNamePairEqualsEENS0_9allocatorIS8_EEE9SelectKeyESD_SF_E13find_positionERS7_
Skc:__ZNSt3__26vectorIN9ShaderLab14SerializedPassENS_9allocatorIS2_EEE8__appendEj
Maf:__ZN5physx6shdfnd5ArrayIPvNS0_19ReflectionAllocatorIN17PxcPoolMallocData10PoolData32EEEE15growAndPushBackERKS2_
fkc:__ZNSt3__26vectorIN9ShaderLab20SerializedSubProgram13BufferBindingENS_9allocatorIS3_EEEC2INS_11__wrap_iterIPS3_EEEET_SB_RKS5_PNS_9enable_ifIXaasr21__is_forward_iteratorISB_EE5valuesr16is_constructibleIS3_NS_15iterator_traitsISB_E9referenceEEE5valueEvE4typeE
bgl:_Encoding_get_ISOLatin1_m2107621369
Fvd:__ZNK16PhysicsManager2D21GetAutoSyncTransformsEv
yEc:__ZZL23RegisterLightPropertiesR22GenericPropertyBindingEN20Wrapper_LightColorb213GetFloatValueEPv
oud:__ZN12b2WheelJoint24SolveVelocityConstraintsERK12b2SolverData
Omj:_Quaternion_LookRotation_Injected_m3680180073
EKb:__ZNK25PathNamePersistentManager30PathIDToFileIdentifierInternalEi
JVa:__ZN9Texture2D23VirtualRedirectTransferER18StreamedBinaryReadILb0EE
ZEd:__ZN10Collider2D8TransferI24GenerateTypeTreeTransferEEvRT_
nSf:__Z53Register_UnityEngine_Networking_UnityWebRequest_Abortv
C1o:_JSONNode_get_Linq_m3913908471
B3f:_TMP_SubMeshUI_set_fallbackMaterial_m2367683490
lYl:_Enumerator_MoveNext_m1177880931_gshared
uUi:_Stopwatch_get_ElapsedMilliseconds_m1101465039
PKg:__ZL73g_UnityEngine_TextRenderingModule_Assembly_CustomAttributesCacheGeneratorP21CustomAttributesCache
jaa:__ZN16ScriptingManager27NativeTypeForScriptingClassE17ScriptingClassPtr
mql:_UInt64_System_IConvertible_ToDateTime_m3434604642
inl:_Type_get_IsSerializable_m1040556850
Ktf:_get_sfnt_table
dpk:_DateTime_get_TimeOfDay_m82064893_AdjustorThunk
JAm:_Parser_ResolveReferences_m1518052352
tAb:__Z29Transfer_Blittable_ArrayFieldI24GenerateTypeTreeTransferiEvRT_R9ArrayInfoRK23StaticTransferFieldInfo
tXa:__ZN8Renderer20RendererAddedToSceneEv
zac:__ZL22ScheduleSceneNodesJobsP25ScheduleSceneNodesJobDataj
CUe:__ZN5physx22concludeContactCoulombERKNS_23PxcSolverConstraintDescERNS_16PxcSolverContextE
Cl:_emscripten_set_canvas_size
Rsh:_Graphic_SetVerticesDirty_m2124914069
Vve:__ZNK5physx15NpParticleFluid12getStiffnessEv
BTk:_CultureInfo__ctor_m3285927757
Uzj:_MaskableGraphic_get_rootCanvasRect_m3492154629
Osd:__ZN9Scripting11UnityEngine9Physics2D9InitProxyEv
fvm:_Array_Resize_TisRaycastResult_t3360306849_m1811054291_gshared
cEc:__ZN12MeshRenderer27PrepareSingleRendererUpdateER13RendererSceneRS_10MemLabelId
ykc:__ZNSt3__26vectorIN9ShaderLab20SerializedSubProgramENS_9allocatorIS2_EEE8__appendEj
m3:__ZN20DynamicHeapAllocatorI17LowLevelAllocatorE8AllocateEji
qIf:__ZN11UnityEngine9Analytics15UserCustomEvent12ToJsonStringER9JSONWrite
EHn:_Locale_GetText_m2427493201
C2b:__ZN20DynamicPropertySheet15SetVectorQueuedERKN9ShaderLab16FastPropertyNameERK8Vector4fN19ShaderPropertySheet8SetFlagsE
aF:__ZN7mecanim9animation22EvaluateAvatarRetargetEPKNS0_14AvatarConstantEPKNS0_11AvatarInputEPNS0_12AvatarOutputEPNS0_12AvatarMemoryEPNS0_15AvatarWorkspaceEb
WIa:__ZN14RenderSettings23VirtualRedirectTransferER19StreamedBinaryWriteILb0EE
u$c:__ZL26Transfer_SimpleNativeClassI9JSONWrite10RectOffsetLb0EEvRK29SerializationCommandArgumentsR31RuntimeSerializationCommandInfo
nPo:_GC_push_conditional
hIf:__ZN21UnityAnalyticsManager23VirtualRedirectTransferER24GenerateTypeTreeTransfer
k1a:__ZN17GenericDynamicVBO10AllocateVBEjR21DynamicVBOChunkHandle
HYe:__ZL27PxcTestFacesSepAxesBackfaceRKN5physx2Gu13PolygonalDataES3_RKNS_2Cm8Matrix34ES7_RKNS4_23FastVertex2ShapeScalingESA_S7_RKNS_6PxVec3ERfRSB_RjPjSG_fSD_
urk:_DBNull_ToString_m3638608738
rDo:__ZN30dense_hashtable_const_iteratorI10KeyWrapperIP18Il2CppGenericClassES3_N6il2cpp8metadata22Il2CppGenericClassHashEN14dense_hash_setIS3_S6_NS3_14EqualsComparerINS5_25Il2CppGenericClassCompareEEENSt3__29allocatorIS3_EEE8IdentityESA_SD_EppEv
tPk:_BitArray_Clone_m3537018332
Kpi:_ObjectRecord_UnchainFixup_m3191243952
eln:_TlsStream_get_CanWrite_m16389328
aGf:__Z15GetUIModuleSpecv
Ekf:__ZN9Scripting11UnityEngine8UIVertex9InitProxyEv
$l:_glMapBufferRange
BVa:__ZN9Texture2D8TransferI18StreamedBinaryReadILb0EEEEvRT_
wzc:__Z31Input_CUSTOM_GetMouseButtonDowni
XJc:__ZN13PlayableGraph4PlayEv
gre:__ZNK5physx7NpCloth23getExternalAccelerationEv
Oeb:__ZNK9Transform16GetLocalPositionEv
E6j:_MonoType_get_BaseType_m1098640416
V9a:__ZN13LoadOperation19IntegrateTimeSlicedEi
xln:_TlsStream_Read_m3392972801
aWe:__ZN5physx16PxsBroadPhaseMBP9updatePPUEPNS_10PxBaseTaskE
zRb:__ZN13GfxDeviceGLES22DispatchComputeProgramE12ObjectHandleI18ComputeProgram_TagPvE15ComputeBufferIDj
Apj:_Transform_get_localToWorldMatrix_m4155710351
Lgl:_Latin1Encoding_GetString_m254210343
Xbb:__Z17TransformAABBSlowRK4AABBRK10Matrix4x4fRS_
pIk:_Array_combsort_m4052486289
XLk:_Char_System_IConvertible_ToUInt16_m2449138174
YQ:__ZN24AudioScriptBufferManager27InitialCompleteDomainReloadEv
Yic:__ZN9ShaderLab21SerializedShaderState8TransferI14SafeBinaryReadEEvRT_
ARk:_Environment_GetWindowsFolderPath_m1738399646
K9e:__ZN5physx2Gu13RTreeMidphaseC2Ev
bqf:_cf2_stack_pushInt
UE:__ZN8Animator19FireAnimationEventsERNS_11AnimatorJobE
cye:__ZN5physx6shdfnd8PoolBaseINS_16NpParticleSystemENS0_19ReflectionAllocatorIS2_EEE12allocateSlabEv
Bzh:_Module_GetCustomAttributes_m76573271
zeh:_TextMeshPro_UpdateMaterial_m854395998
XPa:__ZN15SerializeTraitsINSt3__24pairIN4core12basic_stringIcNS2_20StringStorageDefaultIcEEEES6_EEE8TransferI24GenerateTypeTreeTransferEEvRS7_RT_
Vip:b89
Uip:b88
Dhp:b81
Ahp:b80
LWb:__ZN7ApiGLES19CreateSparseTextureEjj14GraphicsFormatiiiiRiS1_S1_
Zaa:__ZN18ResourceImageGroup7CleanupEv
Rip:b85
t5d:__ZN5physx2Gu36closestPtPointTetrahedronTesselationEPNS_6shdfnd3aos5Vec3VES4_S4_RjRS3_S6_
Tip:b87
WYe:__ZN5physx25PxcPCMContactSphereConvexERKNS_2Gu13GeometryUnionES3_RKNS_11PxTransformES6_RKfRNS_10PxcNpCacheERNS0_13ContactBufferE
Uli:_RemotingSurrogateSelector_GetSurrogate_m3900875713
t$j:_TlsServerCertificate_validateCertificates_m4242999387
aXj:_CertificateValidationCallback_Invoke_m1014111289
vLa:__ZN8Playable19SetOutputConnectionEPS_i
NEa:__Z20RenderMultipleMeshesRK15RenderNodeQueueRK18RenderMultipleData16VertexInputMasks
Pm:_glDeleteShader
Wvk:_Array_Sort_TisChar_t3634460470_TisChar_t3634460470_m992244203_gshared
Qja:__ZN6prcoreL17RemapGenericFloatI15TexFormatRGHalf16TexFormatRGFloatEEvPKNS_9InnerInfoE
Jwk:_Array_Sort_TisUICharInfo_t75501106_m128665067_gshared
osf:_otv_GSUB_validate
t5k:_RSAPKCS1SignatureDeformatter_SetHashAlgorithm_m1602190713
Quk:_Enum_System_IConvertible_ToByte_m1219166845
dme:__ZN5physx6shdfnd8PoolBaseINS_10NpMaterialENS0_19ReflectionAllocatorIS2_EEE15disposeElementsEv
kbm:_Dictionary_2_CopyToCheck_m45332585_gshared
pgn:_Collection_1_System_Collections_IList_IndexOf_m2831626011_gshared
Zpm:_Array_InternalArray__ICollection_CopyTo_TisTMP_MeshInfo_t2771747634_m3871978652_gshared
cbk:_ConstructorInfo__cctor_m1016079270
J0f:_TMP_MeshInfo_ClearUnusedVertices_m888817622_AdjustorThunk
OLf:__ZN11UnityEngine15PlatformWrapper20IsRootedOrJailbrokenEv
joc:__Z27scripting_add_internal_callPKcPKv
bGk:_AppDomain_Load_m4174353770
Kkc:__ZNSt3__26vectorIN9ShaderLab20SerializedSubProgram16SamplerParameterENS_9allocatorIS3_EEE6assignIPS3_EENS_9enable_ifIXaasr21__is_forward_iteratorIT_EE5valuesr16is_constructibleIS3_NS_15iterator_traitsISA_E9referenceEEE5valueEvE4typeESA_SA_
Ktm:_Array_qsort_TisByte_t1134296376_m726517433_gshared
DVc:__ZN9Scripting11UnityEngine3GUI9InitProxyEv
rbh:_FastAction_Call_m217488180
ZBl:_Enumerator_MoveNext_m1556953412_AdjustorThunk
bx:__ZN26AnimatorControllerPlayable18SetLayerAutoWeightEv
hc:invoke_vffff
kDm:_Literal_GetAnchorInfo_m810577400
kOo:_GC_alloc_large
C9c:__ZN20ExternalForcesModule8TransferI19StreamedBinaryWriteILb0EEEEvRT_
pHf:__ZN2UI14CanvasRenderer12SyncMaterialENS0_8SyncFlagE
Bch:_MaterialReference_AddMaterialReference_m1459790169
G2j:_StreamWriter_Write_m1660535366
Jjh:_PhysicsRaycaster_get_finalEventMask_m5197086
nTo:__ZN6il2cpp2vm9Parameter30GetDefaultParameterValueObjectEPK10MethodInfoPK13ParameterInfoPb
Fil:_UTF8Encoding_GetByteCount_m4152118078
mih:_EventSystem_RaycastComparer_m3685368675
Ovi:_MD5CryptoServiceProvider_Dispose_m3502499818
Qhn:_Collection_1_System_Collections_IList_get_Item_m2422562729_gshared
KJa:__ZN12LightManager28IsLightTransformDataUpToDateEPK5Light
wuf:_UNITY_tt_face_done_kern
Ixi:_ArrayReadOnlyList_1_RemoveAt_m2104218585_gshared
fgd:__Z25UpdateOrbitalAndRadialTplIL27ParticleSystemCurveEvalMode1ELS0_2ELS0_4EEvRK11MinMaxCurveS3_S3_S3_S3_S3_S3_R23ParticleSystemParticlesjjRKN4math8float3x3ERKNS6_7affineXERKNS6_7_float4E
w_a:__ZN12BoneWeights48TransferI24GenerateTypeTreeTransferEEvRT_
Uma:__ZL49__ManagedRegistrationHelperFunction_PreLateUpdatePv
uLb:__Z19scripting_gc_enablev
ALi:_InternalEnumerator_1_get_Current_m2907722321_gshared
SZb:__ZZ23InitPlayerLoopCallbacksvEN41InitializationPlayerUpdateTimeRegistrator7ForwardEv
gOc:__ZN11UTF16StringC2ERKS_10MemLabelId
qif:__ZN5physx7profile11EventBufferINS_24PxDefaultContextProviderENS_6shdfnd6MutexTINS0_26WrapperReflectionAllocatorIhEEEENS0_14ScopedLockImplIS7_EENS_24PxProfileNullEventFilterEE9stopEventEty
JLi:_InternalEnumerator_1_System_Collections_IEnumerator_get_Current_m3854084659_gshared
yFf:__Z55Register_UnityEngine_CanvasRenderer_DisableRectClippingv
dv:__ZN9Scripting11UnityEngine10Animations16ConstraintSource12CleanupProxyEv
uml:_TimeSpan_Subtract_m1264203589_AdjustorThunk
Wyd:__ZN19OverlapPointQuery2D14InitializeAABBER6b2AABB
Dmj:_Quaternion_SlerpUnclamped_m3270925602
hDi:_InternalEnumerator_1_System_Collections_IEnumerator_get_Current_m888718134_gshared
_Ci:_InternalEnumerator_1_get_Current_m2894466703_gshared
mOj:_Array_compare_TisRaycastResult_t3360306849_m822404090_gshared
Rso:_il2cpp_class_is_inflated
Ikj:_Object_Destroy_m3118546832
wLm:_ReadOnlyCollection_1_System_Collections_Generic_IListU3CTU3E_set_Item_m519295790_gshared
Xok:_DateTime_FromTicks_m4059645178_AdjustorThunk
xJi:_InternalEnumerator_1_System_Collections_IEnumerator_get_Current_m1470676642_gshared
kAk:_Array_InternalArray__get_Item_TisClientCertificateType_t1004704908_m2297379651_gshared
fHh:_ConfigHandler_ParseTime_m1787834288
lnc:__ZN9ShaderLab7Program27CreateFromSerializedProgramERKNS_17SerializedProgramE10ShaderTypeiP16PropertyNamesSetPK6Shader
iak:_Assembly_Load_m3487507613
mM:__ZNSt3__27__sort4IRNS_6__lessIN4core12basic_stringIcNS2_20StringStorageDefaultIcEEEES6_EEPS6_EEjT0_SA_SA_SA_T_
Dcp:dynCall_viiiifii
DQo:_GC_unregister_disappearing_link
bpo:__ZN6il2cpp2gc19AppendOnlyGCHashMapINSt3__24pairIPK11Il2CppImageP11Il2CppClassEEP22Il2CppReflectionModule17ReflectionMapHashIS9_ENS2_8equal_toIS9_EEEC2Ev
p8:__Z20GetPersistentManagerv
Gxf:_UNITY_TT_Set_Var_Design
rdi:__Z79RuntimeInvoker_Void_t1185182177_Int32_t2950945753_TMP_CharacterInfo_t3185626797PFvvEPK10MethodInfoPvPS4_
K4:__ZN21SystemInfoStringCache16StaticInitializeEPv
AZo:_JSONNode_ParseElement_m214103003
ITi:_NameObjectCollectionBase_FindFirstMatchedItem_m840305173
gen:_Collection_1__ctor_m3380123530_gshared
Z3d:__ZN5physx2Sc7BodySim18internalWakeUpBaseEf
fNm:_ReadOnlyCollection_1_System_Collections_Generic_ICollectionU3CTU3E_Remove_m1100818788_gshared
u3o:_JSONNumber_get_AsDouble_m1115619630
$jc:__ZNSt3__26vectorIN9ShaderLab20SerializedSubProgram15StructParameterENS_9allocatorIS3_EEE6assignIPS3_EENS_9enable_ifIXaasr21__is_forward_iteratorIT_EE5valuesr16is_constructibleIS3_NS_15iterator_traitsISA_E9referenceEEE5valueEvE4typeESA_SA_
X3j:_UnexceptionalStreamWriter_Write_m363195622
HJf:__ZN9Scripting11UnityEngine9Analytics21AnalyticsSessionState12CleanupProxyEv
VIb:__ZNK13MonoBehaviour7GetNameEv
Xxf:_ft_var_load_item_variation_store
cdb:__ZN19ScriptingInvocation28AdjustArgumentsToMatchMethodEv
kRl:_Dictionary_2_System_Collections_IDictionary_Remove_m2463639949_gshared
iO:__Z15_CheckFMODError11FMOD_RESULTPKciS1_
ryo:__ZN6il2cpp6icalls8mscorlib6SystemL16ThrowInvalidCastEPK11Il2CppClassS5_
qzk:_TMP_TextInfo_Resize_TisTMP_LinkInfo_t1092083476_m1050620713_gshared
_ui:_HMAC_KeySetup_m661741544
NCo:__ZN6il2cpp2vm5Field11SetValueRawEPK10Il2CppTypePvS5_b
egl:_Latin1Encoding__ctor_m498920120
$1j:_StreamReader_Peek_m2272511193
WKn:_WWWTranscoder_QPEncode_m4114472822
bad:__ZN11ShapeModule5ResetEv
FEf:__Z51Register_UnityEngine_CanvasGroup_get_blocksRaycastsv
U7j:_NumberFormatter_get_IsFloatingSource_m3714711779
ilp:b119
zvc:__Z38Material_Set_Custom_PropShaderKeywordsP12Il2CppObjectP11Il2CppArray
e8e:__ZN5physx13BigConvexData5VLoadERNS_13PxInputStreamE
qKm:_ReadOnlyCollection_1_System_Collections_IList_Add_m3258677755_gshared
Snl:_Type_GetConstructor_m1195697116
he:_glBeginQuery
FEj:_ScrollRect_SetNormalizedPosition_m3260907438
ena:__ZL48__ManagedRegistrationHelperFunction_VisibleLightPv
fOe:__ZN5physx11NodeManager6resizeEj
hJd:__ZN10Effector2D25CheckEffectorColliderMaskEP10Collider2DS1_
H$b:__ZN6Camera12RenderStereoENS_10RenderFlagE8CullFlagPNS_24PerformEyeRenderFunctionE
Ngb:__ZN20LocalFileSystemPosix10ToAbsoluteEPKc
oIa:__ZN20TierGraphicsSettings8TransferI19StreamedBinaryWriteILb0EEEEvRT_
Kjp:b111
bcb:__Z23CollectSceneGameObjectsR13dynamic_arrayIiLj0EE
iMo:__ZN6il2cpp2vm13ComObjectBase16DisconnectObjectEj
FHe:__ZNK5physx7NpScene28getSceneQueryStaticTimestampEv
vn:f0
O7o:_getcwd
zwd:__ZN16b2CapsuleContact6CreateEP9b2FixtureiS1_iP16b2BlockAllocator
Mwa:__ZN25ThreadsafeLinearAllocatorD2Ev
SNc:__ZL50GetAndClearChangedTransformsForMultilpleSystemsJobP45GetChangedTransformsForMultipleSystemsJobDatajPK23TransformAccessReadOnlyPKyj
HPe:__ZN5physx2Sq10AABBPruner11preallocateEj
bbb:__Z21SendMessageToEveryoneRK17MessageIdentifier11MessageData
Dea:__ZN21BillboardBatchManager16StaticInitializeEPv
Ujk:_DateTime_AbsoluteDays_m4235097773
f6:__ZN12_GLOBAL__N_138ArchiveRedirectFileSystemStaticDestroyEPv
SJh:__Z74RuntimeInvoker_RuntimeObject_RuntimeObject_RuntimeObject_SByte_t1669577662PFvvEPK10MethodInfoPvPS4_
Jqh:_DefaultControls_CreateScrollView_m3842770629
Isd:__ZL55__ManagedRegistrationHelperFunction_PhysicsJobOptions2DPv
VLk:_Char_System_IConvertible_ToSingle_m2690985411
vTa:__ZN12CubemapArray34UpdateFileTextureUploadInstructionEP26FileAssetUploadInstructionj
eFe:__ZN5physx2Sc19ShapeInstancePairLLC2ERNS0_8ShapeSimES3_RNS0_9ActorPairENS_7PxFlagsINS_10PxPairFlag4EnumEtEE
KWb:__Z23CreateSparseTextureGLES9TextureIDii14GraphicsFormati
Wsf:_otv_Anchor_validate
yzd:__Z18AddCollisionReportP11Collision2DR13dynamic_arrayINS_15CollisionReportELj0EE
gra:__ZN9Scripting11UnityEngine12Experimental9Rendering21RenderPipelineManager9InitProxyEv
sml:_TimeSpan_Negate_m1889505500_AdjustorThunk
TRm:_ReadOnlyCollection_1_System_Collections_ICollection_CopyTo_m2715087453_gshared
v5o:_U3CWarpTextU3Ec__Iterator0_MoveNext_m379835037
lkb:__ZN16MemoryFileSystemD0Ev
Rte:__ZN5physx2Sc9ClothCore16setStretchConfigENS_22PxClothFabricPhaseType4EnumERKNS_20PxClothStretchConfigE
epd:__Z19UpdateSingleRow2TplIL27ParticleSystemCurveEvalMode4ELS0_1EEvfRK11MinMaxCurveS3_RK23ParticleSystemParticlesPfbiii
RMf:__ZN11UnityEngine7Connect20RemoteConfigSettings7SetJSONER8JSONReadb
K9c:__ZN9SubModule8TransferI19StreamedBinaryWriteILb0EEEEvRT_
BLn:_AnalyticsEventTracker_Awake_m2780522130
fff:_PxCreateFoundation
ztd:__ZNK12b2MotorJoint16GetReactionForceEf
mto:_il2cpp_class_get_assemblyname
H7n:__ZN6il2cpp2vm5Class15GetEnumBaseTypeEP11Il2CppClass
n_j:_Context_set_WriteSequenceNumber_m942577065
Ne:_glVertexAttrib4fv
T1i:_X509CertificateEnumerator_Reset_m4026698923
EMo:__ZNK6il2cpp5utils13VmStringUtils23CaseInsensitiveComparerclERKNSt3__212basic_stringIcNS3_11char_traitsIcEENS3_9allocatorIcEEEEPKc
Tnh:_CanvasScaler_SetScaleFactor_m3006968999
tii:__Z78RuntimeInvoker_Boolean_t97287965_Navigation_t3049316579_Navigation_t3049316579PFvvEPK10MethodInfoPvPS4_
WTa:__ZNK9Texture2D16GetNpotTexelSizeEv
I7j:_NumberFormatter_Init_m3576155222
Lhb:__ZL33FileEntryInfoListToFolderContentsRKN4core12basic_stringIcNS_20StringStorageDefaultIcEEEERK19dynamic_block_arrayI13FileEntryInfoLj32EERNSt3__23setIS3_NSB_4lessIS3_EENSB_9allocatorIS3_EEEE
dzj:_LayoutUtility_GetLayoutProperty_m714717302
sVl:_LinkedList_1_Remove_m776321970_gshared
Hed:__Z20EvaluateSlowThreadedRK11MinMaxCurveRNS_5CacheERKN4math7_float4ES7_
fSi:_Enumerator_System_Collections_IEnumerator_get_Current_m2678986219_AdjustorThunk
Xyo:__ZN6il2cpp2vm9Exception18GetSystemExceptionEv
Pgn:_Collection_1_IsValidItem_m3076520886_gshared
cmb:__ZN9GfxDevice22GetDefaultVertexBufferE26GfxDefaultVertexBufferTypej
yIj:_Array_InternalArray__ICollection_Contains_TisInt64_t3736567304_m2911357929_gshared
BMb:__Z17BeginSplashScreenb
ain:_Collection_1_Remove_m3022471627_gshared
e8o:___fseeko_unlocked
Hra:__ZN9Scripting11UnityEngine12Experimental9Playables21TexturePlayableOutput12CleanupProxyEv
h9j:_Object_ToString_m1740002499
Y7o:_sscanf
l1d:__ZN5physx3Cct17CapsuleControllerC2ERKNS_16PxControllerDescERNS_9PxPhysicsEPNS_7PxSceneE
H3a:__ZN14SafeBinaryRead21TransferSTLStyleArrayINSt3__26vectorI17BlendShapeChannelNS1_9allocatorIS3_EEEEEEvRT_17TransferMetaFlags
SVl:_Enumerator_System_Collections_IEnumerator_get_Current_m4138390031_gshared
jvm:_Array_Resize_TisUILineInfo_t4195266810_m3763058392_gshared
Ksi:_SByte_ToString_m3584531119_AdjustorThunk
omc:__ZN9ShaderLab16SerializedShader8TransferI19StreamedBinaryWriteILb0EEEEvRT_
Wv:__ZN7mecanim9animation18CreateAvatarMemoryEPKNS0_14AvatarConstantERNS_6memory9AllocatorE
USj:_ModulusRing__ctor_m2420310199
AWf:_TMP_Dropdown_OnSelectItem_m1536972123
Zjk:_Convert_ToDateTime_m626620011
sCl:_Enumerator_System_Collections_IDictionaryEnumerator_get_Key_m2500634048_AdjustorThunk
Opd:__Z17UpdateSprites2TplIL27ParticleSystemCurveEvalMode2ELS0_4EEvfRK11MinMaxCurveS3_RK23ParticleSystemParticlesPf
kG:__ZN7mecanim8skeleton16SkeletonPoseCopyIN4math4trsXENS2_7affineXEEEvPKNS0_13SkeletonPoseTIT_EEPNS5_IT0_EE
mUb:__ZN18GfxFramebufferGLES18GetFramebufferNameERK20GfxRenderTargetSetup
ypa:__ZN9Scripting11UnityEngine9Transform9InitProxyEv
ecn:_Collection_1_IsFixedSize_m1766078928_gshared
HPo:_GC_print_block_list
WVi:_IPAddress__ctor_m921977496
$ap:_saveSetjmp
rwj:_InputField_MoveDown_m1455948167
Byc:__Z45Register_UnityEngine_Transform_get_hasChangedv
YVc:__Z30Event_Get_Custom_PropCharacterP12Il2CppObject
lga:__ZN13PlayableGraph27SchedulePlayableDestructionERK9HPlayable
fsf:_cff_get_mm_var
HZd:__ZN5physx6shdfnd5ArrayINS_12PxDebugPointENS0_19ReflectionAllocatorIS2_EEE15growAndPushBackERKS2_
sgp:_glGetFramebufferAttachmentParameteriv__wrapper
_Fh:_ChannelServices_GetCurrentChannelInfo_m3041604116
oub:__Z22scripting_array_length17ScriptingArrayPtr
T2j:_SynchronizedReader_Peek_m148942882
UNd:__ZN8Collider13AwakeFromLoadE17AwakeFromLoadMode
Jpn:_Predicate_1_Invoke_m2308795536_gshared
Syd:__ZNK13b2DynamicTree5QueryI19b2WorldQueryWrapperEEvPT_RK6b2AABB
X1a:__ZN14SpriteRenderer18UpdateCachedSpriteEb
gIo:__ZN15dense_hashtableINSt3__24pairIK10KeyWrapperIPcES3_EES4_N6il2cpp5utils15PassThroughHashIS3_EEN14dense_hash_mapIS4_S3_SA_NS4_14EqualsComparerINS0_8equal_toIS3_EEEENS0_9allocatorIS6_EEE9SelectKeyESF_SH_E3endEv
gEa:__Z19GetActiveColorSpacev
V8c:__ZN17SizeBySpeedModule8TransferI18StreamedBinaryReadILb0EEEEvRT_
A4n:_BoxCollider_INTERNAL_set_center_m471190135
Ztf:_UNITY_tt_face_load_kern
Xzh:_MonoMethodInfo_GetDeclaringType_m2924452727
uTl:_Dictionary_2_ContainsKey_m3601783571_gshared
Rli:_RemotingSurrogate_SetObjectData_m2713731796
w5:__Z6StrCmpPKcS0_
BRj:_Array_InternalArray__ICollection_Add_TisByte_t1134296376_m2816118303_gshared
boc:__Z21CheckGpuProgramUsable20ShaderGpuProgramType
oDc:__ZN13ProduceHelperI14Texture2DArrayLb0EE7ProduceE10MemLabelId18ObjectCreationMode
VJo:__ZN6il2cpp2os9Directory20GetFileSystemEntriesERKNSt3__212basic_stringIcNS2_11char_traitsIcEENS2_9allocatorIcEEEESA_iiPi
bHk:_Array_System_Collections_IList_Add_m1063688101
Cie:__ZN5physx6shdfnd5ArrayIPvNS0_19ReflectionAllocatorINS_2Cm5BlockIhLj128EEEEEE4copyINS0_15InlineAllocatorILj256ES7_EEEEvRKNS1_IS2_T_EE
Zlf:__ZN20TextRenderingPrivate19NativeTextGenerator5SetupEv
v7b:__ZNK15SharedLightData24GetFinalShadowResolutionEv
jme:__ZN5physx6shdfnd8PoolBaseINS_16NpConnectorArrayENS0_19ReflectionAllocatorIS2_EEE15disposeElementsEv
b7a:__ZN12AspectRatios8TransferI18StreamedBinaryReadILb0EEEEvRT_
aff:__ZN14PhysicsManager19CreatePvdConnectionEv
G3o:_JSONObject_GetEnumerator_m3251166103
hXf:_TMP_Settings_get_fallbackFontAssets_m4226204732
xpc:__ZN10GameObject14CopyPropertiesERS_
AXc:__Z44Register_UnityEngine_GUIStyle_get_fixedWidthv
UJj:_Array_InternalArray__ICollection_Remove_TisLink_t544317964_m1280781374_gshared
tJk:_BitConverter_DoubleWordsAreSwapped_m1474345095
Y0h:__Z114RuntimeInvoker_Int32_t2950945753_Vector2_t2156229523_Vector2_t2156229523_ContactFilter2D_t3805203441_RuntimeObjectPFvvEPK10MethodInfoPvPS4_
nOk:_FixedSizeArrayListWrapper_set_Capacity_m4221053039
z8o:_rand
Wgp:_emscripten_glFramebufferRenderbuffer__wrapper
mMc:__ZN13MeshScripting10CreateMeshE21ScriptingObjectOfTypeI4MeshE
sle:__ZNK5physx12NpConstraint9getActorsERPNS_12PxRigidActorES3_
Gz:__ZN17AnimationPlayable22PrepareAnimationEventsEfR13dynamic_arrayI22AnimationClipEventInfoLj0EE
nvb:__ZN14SafeBinaryRead21TransferSTLStyleArrayINSt3__26vectorI17AnimationCurveTplIfE13stl_allocatorIS4_L18MemLabelIdentifier1ELi16EEEEEEvRT_17TransferMetaFlags
SOk:_SynchronizedArrayListWrapper_Contains_m3809499313
E$j:_HandshakeMessage_Compare_m2214647946
Gaf:__ZN5physx6shdfnd8PoolBaseIN17PxcPoolMallocData10PoolData16ENS0_19ReflectionAllocatorIS3_EEE15disposeElementsEv
MLd:__ZN9Rigidbody23UpdateInterpolationNodeEv
mvi:_HMACSHA256__ctor_m346174875
U9b:__Z22PrepareOptimizedPlanesPK5PlaneiPKN4math7_float4E
X1:__ZN11UnityEngine15CloudWebService17WebFileDownloaderINS0_20WebRequestRestClientENS0_23WebRequestRestHeaderMapEE10InitializeERKN4core12basic_stringIcNS5_20StringStorageDefaultIcEEEE
Bea:__ZN17UniqueIDGenerator15CreatePureIndexEv
sUi:_Stopwatch_get_Elapsed_m1649583664
dBc:__Z48InitializeRectTransformAnimationBindingInterfacev
N0a:__ZN16BlitStereoHelper16PrepareEyeRenderEiRK19ShaderPropertySheetRS0_bRK8Vector2fS6_14VRTextureUsage
gGe:__ZN5physx7NpScene8addActorERNS_7PxActorE
A9a:__ZNSt3__26vectorIN15ResourceManager10DependencyE13stl_allocatorIS2_L18MemLabelIdentifier52ELi16EEE6assignINS_11__wrap_iterIPS2_EEEENS_9enable_ifIXaasr21__is_forward_iteratorIT_EE5valuesr16is_constructibleIS2_NS_15iterator_traitsISC_E9referenceEEE5valueEvE4typeESC_SC_
W6n:__ZN15dense_hashtableINSt3__24pairIK10KeyWrapperIPK22Il2CppGenericParameterEP11Il2CppClassEES6_N6il2cpp5utils11PointerHashIS4_EEN14dense_hash_mapIS6_S9_SE_NS6_14EqualsComparerINS0_8equal_toIS5_EEEENS0_9allocatorISA_EEE9SelectKeyESJ_SL_E14squash_deletedEv
jOa:__ZN9ShaderLabL27GetDesiredRenderTextureDescEPK6Camera
Vud:__ZNK12b2MouseJoint17GetReactionTorqueEf
mrm:_Array_InternalArray__Insert_TisMark_t3471605523_m2854535880_gshared
NLc:__ZN4Mesh24UpdateSubMeshVertexRangeEi
JEc:__ZZL23RegisterLightPropertiesR22GenericPropertyBindingEN18Wrapper_LightRange13SetFloatValueEPvf
NMg:__ZL52HumanBone_t2465339518_CustomAttributesCacheGeneratorP21CustomAttributesCache
X1o:_JSONNode_op_Implicit_m3237263780
Bli:_MethodReturnDictionary__cctor_m278392388
r1b:__ZNK9Transform18TransformDirectionERK8Vector3f
D6e:__ZN5physx21PxsBodyTransformVault6updateEv
fZg:__ZL80CanvasScaler_t2767979955_CustomAttributesCacheGenerator_m_ReferencePixelsPerUnitP21CustomAttributesCache
Hsf:_otv_MarkLigPos_validate
kkl:_Thread_GetSerializedCurrentUICulture_m3681656498
cXd:__ZL29GeomMTDCallback_CapsuleConvexRN5physx6PxVec3ERfRKNS_10PxGeometryERKNS_11PxTransformES5_S8_
Dek:_GenericTypeParameterBuilder_GetCustomAttributes_m580748276
Ldo:__ZN15dense_hashtableINSt3__24pairIK10KeyWrapperIPK11Il2CppClassEPKcEES6_N6il2cpp5utils11PointerHashIS3_EEN14dense_hash_mapIS6_S9_SE_NS6_14EqualsComparerINS0_8equal_toIS5_EEEENS0_9allocatorISA_EEE9SelectKeyESJ_SL_E12resize_deltaEjj
k$f:_TMP_InputField_DoStateTransition_m1946589647
ZSj:_Kernel_LeftShift_m4140742987
X9j:_Assembly_GetManifestResourceInternal_m1224391897
VEa:__Z30AddDefaultStreamsToMeshBuffersR9GfxDeviceR11MeshBuffersj17ShaderChannelMaskS3_
I5:__ZL16GetInterfaceImpl18UnityInterfaceGUID
MUf:_TMP_DefaultControls_SetLayerRecursively_m3201739960
rMo:__ZN6il2cpp6icalls8mscorlib6System15MonoCustomAttrs27GetCustomAttributesInternalEP12Il2CppObjectP20Il2CppReflectionTypeb
xc:invoke_viifi
AQc:__Z55Register_UnityEngine_Quaternion_FromToRotation_Injectedv
byf:_UNITY_TT_Set_MM_Blend
ita:__ZN9Scripting11UnityEngine11Application9InitProxyEv
jEn:_TMPro_EventManager_ON_FONT_PROPERTY_CHANGED_m1466790487
TMb:__ZN14PreloadManager35WaitForAllAsyncOperationsToCompleteEv
j9n:__ZN13Il2CppHashMapIP9FieldInfoiN6il2cpp5utils11PointerHashIS0_EENSt3__28equal_toIS1_EENS6_9allocatorINS6_4pairIK10KeyWrapperIS1_EiEEEEEC2EjRKS5_RKS8_
G6:__ZNSt3__26__treeINS_12__value_typeIPKc11ShaderTagIDEENS_19__map_value_compareIS3_S5_27compare_tstring_insensitiveIS3_ELb1EEENS_9allocatorIS5_EEE7destroyEPNS_11__tree_nodeIS5_PvEE
CPd:__Z27sweepCCTBox_HeightFieldGeomRKN5physx10PxGeometryERKNS_11PxTransformERKNS_2Gu3BoxERKNS_6PxVec3EfRNS_10PxSweepHitENS_7PxFlagsINS_9PxHitFlag4EnumEtEEf
eO:__ZL31InitializeAudioScriptingClassesv
M0b:__Z14SortGUIByDepthP10GUIElementS0_
fcd:__Z19UpdateProceduralTplIL27ParticleSystemCurveEvalMode0EEvRK20DualMinMaxPolyCurvesR23ParticleSystemParticlesPfRKN4math7_float4E
Njj:_PlayerConnection_OnEnable_m4286555589
TWf:_TMP_Settings_get_warningsDisabled_m4194286636
cH:__ZN12_GLOBAL__N_120ProcessRootMotionMixER33AnimationPlayableEvaluationOutputR35AnimationPlayableEvaluationConstantR32AnimationPlayableEvaluationInputS1_f
bFm:_UriParser__cctor_m3655686731
MWd:__ZN5physx3Cct9SweepTest18updateTouchedGeomsEPKNS0_30InternalCBData_FindTouchedGeomERKNS0_13UserObstaclesERKNS_17PxExtendedBounds3ERKNS_19PxControllerFiltersERKNS_6PxVec3E
Mgj:_Material_SetColor_m355160541
Vyj:_LayoutRebuilder_U3Cs_RebuildersU3Em__0_m589488547
Sif:_PxCloseExtensions
nhb:__ZNK20LocalFileSystemPosix21GetAvailableDiskSpaceEPKcRy
iM:__ZNSt3__26__treeIiNS_4lessIiEENS_9allocatorIiEEE7destroyEPNS_11__tree_nodeIiPvEE
Plb:__ZNK9GfxDevice14GetWorldMatrixEv
Yun:_InvokableCall_2_Invoke_m3594767000_gshared
dYo:_U3CDelayU3Ec__Iterator1_Reset_m2353695391
a3i:_TMP_TextEventCheck_OnLineSelection_m3140534732
kZn:_AudioSampleProvider_InternalSetScriptingPtr_m3742743270
XFj:_Slider_get_value_m739683640
Lfb:__Z19scripting_array_new17ScriptingClassPtrjj
yT:__ZN11SoundHandle13CreateChannelEb
Gkc:__ZNSt3__26vectorIN9ShaderLab20SerializedSubProgram16TextureParameterENS_9allocatorIS3_EEE6assignIPS3_EENS_9enable_ifIXaasr21__is_forward_iteratorIT_EE5valuesr16is_constructibleIS3_NS_15iterator_traitsISA_E9referenceEEE5valueEvE4typeESA_SA_
mco:__ZN13Il2CppHashMapIN6il2cpp5utils13dynamic_arrayIPK10Il2CppTypeLj4EEEPFvvENS0_8metadata19Il2CppSignatureHashENS9_22Il2CppSignatureCompareENSt3__29allocatorINSC_4pairIK10KeyWrapperIS6_ES8_EEEEEC2EjRKSA_RKSB_
CPg:__ZL104Physics2D_t1528932956_CustomAttributesCacheGenerator_Physics2D_GetRayIntersectionAll_Internal_m643548862P21CustomAttributesCache
Jpo:__ZN15dense_hashtableINSt3__24pairIK10KeyWrapperIPK22Il2CppGenericParameterEPK24MonoGenericParameterInfoEES6_N6il2cpp5utils11PointerHashIS4_EEN14dense_hash_mapIS6_SA_SF_NS6_14EqualsComparerINS0_8equal_toIS5_EEEENS0_9allocatorISB_EEE9SelectKeyESK_SM_E15set_deleted_keyERKSB_
Isi:_SByte_TryParse_m2431806379
uKa:__ZN6prcoreL11inner_clearILj2EEEvPhjjj
Gyk:_Dictionary_2_Do_CopyTo_TisDictionaryEntry_t3123975638_TisDictionaryEntry_t3123975638_m2909244099_gshared
Uta:__ZN9Scripting5Unity11Collections8LowLevel6Unsafe24NativeContainerAttribute9InitProxyEv
kui:_DSACryptoServiceProvider_get_KeySize_m786836990
N6i:_FormPart_Read_m2058419040
pud:__ZN12b2WheelJoint24SolvePositionConstraintsERK12b2SolverData
Dte:__ZNK5physx2Sc9ClothCore20getNbCollisionPlanesEv
yh:_emscripten_exit_fullscreen
SBf:__ZN2UI11CanvasGroup23VirtualRedirectTransferER18StreamedBinaryReadILb0EE
H8e:__ZNK5physx13GuMeshFactory17getNbHeightFieldsEv
Htm:_Array_qsort_TisBoolean_t97287965_TisBoolean_t97287965_m214793583_gshared
jWl:_Enumerator_System_Collections_IEnumerator_Reset_m1564381721_gshared
kff:__ZN14PhysicsManager19CreateDynamicsSceneEbb14BroadphaseType16ContactPairsModeRK4AABBi
jBc:__ZZL31RegisterRectTransformPropertiesR22GenericPropertyBindingEN39Wrapper_RectTransformAnchoredPositiony113GetFloatValueEPv
b9j:_Object_MemberwiseClone_m1474068832
OIo:__ZN6il2cpp6icalls8mscorlib6System6String19InternalAllocateStrEi
W3c:__Z29Transfer_Blittable_ArrayFieldI8JSONRead11QuaternionfEvRT_R9ArrayInfoRK23StaticTransferFieldInfo
LHk:_Array_SetValue_m282347242
VPe:__ZNK5physx2Gu12OBBAABBTestsILb1EEclENS_6shdfnd3aos5Vec3VES5_
jgo:__ZN6il2cpp6icalls6System6System3Net7Sockets6Socket8ShutdownEiNS4_14SocketShutdownEPi
Tvc:__Z45Register_UnityEngine_Camera_get_targetDisplayv
WGc:__ZNK24RendererAnimationBinding15GenerateBindingERKN4core12basic_stringIcNS0_20StringStorageDefaultIcEEEEbRN11UnityEngine9Animation14GenericBindingE
Jza:__ZN33RendererCullingCallbackPropertiesC2ERK6CameraRK10Matrix4x4f
BWi:_IPv6Address__ctor_m3704187391
IJa:__Z15GetFlareManagerv
yLc:__ZN4Mesh15AppendTrianglesERNSt3__26vectorIj13stl_allocatorIjL18MemLabelIdentifier1ELi16EEEEjRK13dynamic_arrayI7SubMeshLj0EEPK14SharedMeshDatab
gWd:__ZN5physx3Cct9SweepTestD2Ev
_v:__ZN8Animator13GetAvatarRootEv
z6o:___toread
IKb:__ZNSt3__26vectorI10vector_mapIiiNS_4lessIiEE13stl_allocatorINS_4pairIiiEEL18MemLabelIdentifier38ELi16EEES4_IS9_LS7_38ELi16EEE26__swap_out_circular_bufferERNS_14__split_bufferIS9_RSA_EE
c1f:_TMP_Settings_get_version_m3911328366
vSj:_BigInteger_get_Rng_m3283260184
Lap:___cxa_is_pointer_type
_K:__ZN8Animator22ScriptingStringToCRC32ERK11ICallString
eH:__ZN7mecanim9animation16EvaluateAvatarDXEPKNS0_14AvatarConstantEPKNS0_11AvatarInputEPNS0_12AvatarMemoryEPNS0_15AvatarWorkspaceEPNS0_12AvatarOutputE
LVb:__ZN4gles20DestroyRenderSurfaceEP7ApiGLESP17RenderSurfaceGLES
CAk:_Array_InternalArray__get_Item_TisKeyValuePair_2_t2530217319_m2886833132_gshared
Fma:__ZL50__ManagedRegistrationHelperFunction_UnityEventBasePv
Uxc:__Z34Transform_CUSTOM_SetAsFirstSiblingP12Il2CppObject
G9c:__ZN21RotationBySpeedModule8TransferI19StreamedBinaryWriteILb0EEEEvRT_
N4i:_WarpTextExample_Start_m647679331
gwj:_InputField_Delete_m3471899192
Mni:_RemotingConfiguration_get_ProcessId_m2180277012
t_:__ZN11UnityEngine15CloudWebService17SessionEventQueue14ParseEventDataERKN4core12basic_stringIcNS2_20StringStorageDefaultIcEEEE
Uke:__ZN12GeomQueryAnyIN5physx10PxSweepHitEE7geomHitERKNS0_2Sq17SceneQueryManagerERKNS0_15MultiQueryInputERKNS3_9ShapeDataERKNS0_10PxGeometryERKNS0_11PxTransformENS0_7PxFlagsINS0_9PxHitFlag4EnumEtEEjPS1_fbPNS0_9PxBounds3E
eJl:_Transform_1_BeginInvoke_m4058251461_gshared
fTb:__ZN13TranslateGLES4InitERK12GraphicsCaps16GfxDeviceLevelGL
jYd:__ZN43CapsuleHeightfieldContactGenerationCallback7onEventEjPj
vKm:_ReadOnlyCollection_1_System_Collections_IList_Insert_m4244537418_gshared
lOd:__ZThn4_N12MemoryStream4readEPvj
YZk:_Int64_System_IConvertible_ToUInt16_m848637338_AdjustorThunk
iJf:__Z32CustomEventData_CUSTOM_AddUInt32P12Il2CppObjectP12Il2CppStringj
HEm:_Uri_get_PathAndQuery_m2396197970
vPj:_Array_InternalArray__IndexOf_TisLink_t544317964_m455584088_gshared
U7m:_Enumerator_get_Current_m2282646120_AdjustorThunk
HRm:_ReadOnlyCollection_1_IndexOf_m2539022912_gshared
nYg:__ZL66Selectable_t3250028441_CustomAttributesCacheGenerator_m_TransitionP21CustomAttributesCache
UTo:__ZN6il2cpp2os6Memory12AlignedAllocEjj
_0c:__ZN9JSONWrite8TransferI13dynamic_arrayIN4math12int3_storageELj0EEEEvRT_PKc17TransferMetaFlags
cpk:_DateTime_get_TimeOfDay_m82064893
bHj:_Text_set_alignByGeometry_m3828822280
FRj:_Array_InternalArray__ICollection_Add_TisKeyValuePair_2_t1383673463_m1385069916_gshared
sNo:__ZN6il2cpp8metadataL7CompareEPK10Il2CppTypeS3_
FSi:_HybridDictionary__ctor_m1681134385
zAn:_CRC32__ctor_m1614943059
fAa:__ZN21ScalableBufferManager11GetInstanceEv
RFb:__Z18Transfer_BlittableI18StreamedBinaryReadILb0EELb1E10ColorRGBAfEvRK29SerializationCommandArgumentsR31RuntimeSerializationCommandInfo
Cml:_TimeSpan_op_LessThan_m1594498345
ltc:__ZL27GetComponentsImplementationILb0ELi0EEbR10GameObjectbRK17CompareParametersRK39GetComponentsImplementation_ReturnValue
HJb:__ZN9Scripting36IsSystemCollectionsGenericDictionaryE17ScriptingClassPtr
Gxn:_UnityEvent_1_FindMethod_Impl_m322741469_gshared
Eje:__ZN5physx12NpConstraint12actorDeletedEPNS_12PxRigidActorE
kSf:__Z54Register_UnityEngine_Networking_UnityWebRequest_Createv
fOn:_Enumerator_get_Current_m2591725252
Cba:__ZL16ReadTypeTreeImplILb0EEbR8TypeTreeRK16TypeTreeIteratorRPKhS6_i
Bym:_Interval_Contains_m110351300_AdjustorThunk
Elk:_Convert_ToInt32_m3048308591
ow:__ZN25RuntimeAnimatorControllerD2Ev
kBj:_RectMask2D_OnCanvasHierarchyChanged_m3195492255
Sqk:_DateTimeOffset_Equals_m3030958070
o2d:__ZN5physx2Sc8ShapeSim18reinsertBroadPhaseEv
lJa:__ZNK22BuiltinResourceManager21GetResourceInstanceIDEPKN5Unity4TypeERKN4core12basic_stringIcNS4_20StringStorageDefaultIcEEEE
Suc:__Z42Register_UnityEngine_RectOffset_set_bottomv
aMn:_AnalyticsTracker_BuildParameters_m43920649
The:__ZN5physx2Sc5Scene11removeShapeERNS0_8ShapeSimEb
yUk:_DateTimeFormatInfo_GetMonthName_m2034512315
R2b:__ZN28LightProbeProxyVolumeContext8CopyFromERKS_
sSm:_ReadOnlyCollection_1_System_Collections_Generic_IListU3CTU3E_Insert_m2489506856_gshared
lza:__ZN23TransformChangeDispatch32QueueTransformChangeIfHasChangedER18TransformHierarchy
Lzl:_Enumerator_System_Collections_IEnumerator_get_Current_m1145487420_gshared
fYf:_TMP_InputField_get_onSelect_m1664894426
Nhj:_Matrix4x4_MultiplyPoint_m1575665487
MVb:__ZN7ApiGLES18DeleteRenderbufferERj
Y5d:__ZN5physx6shdfnd5ArrayIPvNS0_15InlineAllocatorILj256ENS0_19ReflectionAllocatorINS_16NpConnectorArrayEEEEEE15growAndPushBackERKS2_
YUb:__ZL23ProgramUniformMatrix4fvPK7ApiGLESjiihPKv
ZOb:__ZN7ApiGLES13CreateTextureEjj14GraphicsFormatiiiii
y7i:_Request__cctor_m1449343363
uIk:_Array_new_gap_m262136975
Wxd:__Z10b2DistanceP16b2DistanceOutputP14b2SimplexCachePK15b2DistanceInput
HXe:__ZN5physx14SingleAABBTaskC2Ev
mkc:__ZN9ShaderLab20SerializedSubProgram15MatrixParameter8TransferI14SafeBinaryReadEEvRT_
T7f:_TMP_Text_SetCharArray_m3635885420
WXa:__ZN4core8hash_mapIiN28ReflectionProbeAnchorManager16CachedAnchorDataENS_4hashIiEENSt3__28equal_toIiEEEixERKi
nEf:__Z46Register_UnityEngine_Canvas_set_sortingLayerIDv
j8f:_TMP_Text_HexCharsToColor_m2075419509
IWl:_Enumerator_System_Collections_IEnumerator_get_Current_m1846615603_gshared
ntc:__ZL27GetComponentsImplementationILb0ELi1EEbR10GameObjectbRK17CompareParametersRK39GetComponentsImplementation_ReturnValue
Uvm:_X509Store__ctor_m275383717
Ksj:_Transform_INTERNAL_get_position_m1310184257
ffo:__ZN6il2cpp2vm13MetadataCache40AddThreadLocalStaticOffsetForFieldLockedEP9FieldInfoiRKNS_2os12FastAutoLockE
ldf:__ZN5physx12storeIndicesEjjPKjRNS_14PxOutputStreamEb
FBa:__ZN13RenderTexture7ReleaseEv
t1c:__Z18Transfer_BlittableI8JSONReadLb1EN4math12int3_storageEEvRK29SerializationCommandArgumentsR31RuntimeSerializationCommandInfo
x1a:__ZN10MeshFilter23VirtualRedirectTransferER14SafeBinaryRead
m5a:__ZN12MeshRenderer17MainThreadCleanupEv
L7n:__ZN6il2cpp2vmL10InitLockedEP11Il2CppClassRKNS_2os12FastAutoLockE
yqb:__ZN22CreateGpuProgramOutput12CreateParamsEv
mP:__ZN10ObjectPoolIN4FMOD7ChannelENS0_8ChannelIEE7GetFreeEi
lu:__ZL62__ManagedRegistrationHelperFunction_AnimatorOverrideControllerPv
tge:__ZNK5physx18NpArticulationLink11getChildrenEPPNS_18PxArticulationLinkEj
YSb:__ZNK14GfxContextGLES13GetDefaultFBOEv
BKk:_Byte_System_IConvertible_ToType_m2251112646
jRc:__Z55Register_UnityEngine_MonoBehaviour_StopCoroutineManagedv
l3h:__Z81RuntimeInvoker_Char_t3634460470_RuntimeObject_Int32_t2950945753_Int16_t2552820387PFvvEPK10MethodInfoPvPS4_
a4e:__Z15atomIntegrationfPKPN5physx11PxsBodyCoreEPKPNS_12PxsRigidBodyEjPKNS_2Cm13SpatialVectorEPNS_13PxcSolverBodyEPNS_17PxcSolverBodyDataEPS9_RjSH_
fpk:_DateTime_get_Hour_m4153505178_AdjustorThunk
fMb:__ZN14GraphicsHelper5ClearE13GfxClearFlagsRK10ColorRGBAffjR17ShaderPassContext
mOm:_ReadOnlyCollection_1_System_Collections_Generic_IListU3CTU3E_RemoveAt_m2659121554_gshared
SCn:_ZlibBaseStream_ReadZeroTerminatedString_m934210149
Z8k:_Evidence_Equals_m1478353107
kCe:__ZN5physx13NpRigidStatic11createShapeERKNS_10PxGeometryEPKPNS_10PxMaterialEtNS_7PxFlagsINS_11PxShapeFlag4EnumEhEE
PKc:__Z13GetImagePixelI10ColorRGBAfET_PKhii13TextureFormat15TextureWrapModeS5_ii
f1m:_List_1_System_Collections_IList_set_Item_m1842844683_gshared
Duo:__ZN6il2cpp2vm6Thread49CheckCurrentThreadForInterruptAndThrowIfNecessaryEv
zvk:_Enum_ToObject_m1136033697
AEa:__ZNSt3__23mapIN9ShaderLab16FastPropertyNameEN18UnityPropertySheet11UnityTexEnvENS_4lessIS2_EENS_9allocatorINS_4pairIKS2_S4_EEEEEixERS9_
_Ob:__ZNK13TranslateGLES25GetTextureTargetDimensionEj
_9d:__ZN5physx11NpAggregate22removeActorAndReinsertERNS_7PxActorEb
m4i:_VertexShakeB_OnDisable_m1594553736
yOm:_ReadOnlyCollection_1_System_Collections_IList_Remove_m1842121503_gshared
ybf:__ZZL19ExtractHullPolygonsRjRN5physx2Gu9ContainerERKNS0_17ConvexHullBuilderEPS2_S3_EN5Local9FloodFillES3_PKNS0_11AdjTriangleEjPb
P0k:_File_OpenRead_m2936789020
q7:__ZN9Scripting12LogExceptionE21ScriptingExceptionPtriPKcb
W_h:__Z94RuntimeInvoker_Void_t1185182177_RuntimeObject_PlayableGraph_t3515989261_RuntimeObject_IntPtr_tPFvvEPK10MethodInfoPvPS4_
zj:_emscripten_glVertexAttrib4f
lwb:__ZN14SafeBinaryRead21TransferSTLStyleArrayI13dynamic_arrayIN4math12int3_storageELj0EEEEvRT_17TransferMetaFlags
A1o:_JSONNode_ToString_m838049535
Anc:__ZNSt3__26vectorIN20GpuProgramParameters14ConstantBufferENS_9allocatorIS2_EEE8__appendEj
O1i:_X509CertificateCollection_AddRange_m3683116910
o_i:_Socket_BeginReceive_m2439065097
Rpn:_Predicate_1_Invoke_m2315049893_gshared
fp:FUNCTION_TABLE_vf
Ice:__ZN5physx14NpArticulation26setMaxProjectionIterationsEj
C0d:__ZN5physx3Cct15ObstacleContext14removeObstacleEj
tbk:_CustomAttributeTypedArgument_Equals_m2261980307
GB:__ZN7mecanim12statemachine24CreateStateMachineMemoryEPKNS0_20StateMachineConstantERNS_6memory9AllocatorE
Knb:__ZN9GfxDevice18SetGlobalDepthBiasEff
Iho:__ZN6il2cpp6icalls8mscorlib6System8MonoType12get_AssemblyEP20Il2CppReflectionType
Nj:_emscripten_glGetPointerv
qwk:_Array_Sort_TisSingle_t1397266774_TisSingle_t1397266774_m1233431437_gshared
NG:__ZN8Animator22ApplyBuiltinRootMotionEv
Oyc:__Z14BezierExtractUfff
pMb:__Z26ApplyMaterialPassWithCacheRK18SharedMaterialDataR17ShaderPassContextP6ShaderPN9ShaderLab4PassEibPKNS6_10GrabPassesEPNS6_11SubProgramsEPK22DeviceRenderStateBlock
chf:__ZN5physx7profile8ZoneImplINS_28PxProfileNameProviderForwardEE17handleBufferFlushEPKhj
pxg:__ZL81Camera_t4157153871_CustomAttributesCacheGenerator_Camera_RaycastTry2D_m2460696262P21CustomAttributesCache
X9d:__ZN5physx2Sc5ActorC2ERNS0_16InteractionSceneEhNS0_14IslandNodeInfo4TypeE
J$f:_TMP_LinkInfo_SetLinkID_m3158822466_AdjustorThunk
rHi:_InternalEnumerator_1_get_Current_m1897120917_AdjustorThunk
x6j:_MonoType_ReorderParamArrayArguments_m2458683451
gpi:_FormatterConverter_ToInt16_m4282804414
Q3f:_TMP_SubMeshUI_OnTransformParentChanged_m2009301060
_lh:_StandaloneInputModule_ProcessTouchPress_m4019232747
H0k:_FileStream__ctor_m3151488352
tIk:_Array_swap_m547389985
Cue:__ZN5physx15NpActorTemplateINS_7PxClothEED2Ev
dql:_UInt32_ToString_m2420423038
X6l:_List_1_System_Collections_IList_Add_m634558835_gshared
z1k:_FileStream_get_Length_m426703983
gjo:_WWW_get_text_m898164367
cJc:__Z13RegisterClassI10TagManagerEvPKc
fte:__ZN5physx2Sc9ClothCore16setRestPositionsEPKNS_6PxVec4E
t9e:__ZN5physx2Gu12TriangleMesh4loadERNS_13PxInputStreamE
Cnd:__ZL17DrawMeshParticlesILb0EL25ParticleSystemRenderSpace2EEvRK26ParticleSystemTempMeshDataRK22ParticleSystemTempDataRK23ParticleSystemParticlesRK31ParticleSystemParticlesTempDataRK26ParticleSystemRendererDataRK21ParticleSystemModulesPfPv
LN:__ZN12AudioManager5ResetEv
Mwg:__ZL68DisallowMultipleComponent_t1422053217_CustomAttributesCacheGeneratorP21CustomAttributesCache
aka:__ZN6prcoreL17RemapGenericFloatI17TexFormatRGBAHalf15TexFormatRGHalfEEvPKNS_9InnerInfoE
Qzl:_Enumerator_Reset_m576306132_gshared
eKo:__ZN6il2cpp6icalls8mscorlib6System11Environment20GetWindowsFolderPathEi
aQm:_ReadOnlyCollection_1_System_Collections_Generic_IListU3CTU3E_set_Item_m2921615109_gshared
Jrf:_UNITY_FT_Stream_ReadFields
uA:__ZN7mecanim5human18HumanPoseBlendNodeERNS0_9HumanPoseEPS1_f
frf:_UNITY_FT_RoundFix
obh:_FastAction__ctor_m80680614
Nsd:__ZN9Scripting11UnityEngine19PhysicsJobOptions2D12CleanupProxyEv
OQo:_GC_is_heap_ptr
MPd:__ZNK5physx2Gu15HeightFieldUtil12traceSegmentI24ConvexVsHeightfieldSweepLb0ELb0ELb1EEEvRKNS_6PxVec3ES6_PT_PS5_
Vvl:_ASN1_DecodeTLV_m1200977460
Cdj:_UnityEventBase_PrepareInvoke_m1785382128
k8e:__ZNK5physx12PxConvexMesh19getConcreteTypeNameEv
o5a:__ZNK12MeshRenderer22GetTypeVirtualInternalEv
ZLk:_Char_System_IConvertible_ToUInt32_m3901815580
vCj:_Scrollbar_set_onValueChanged_m346467699
rId:__ZN13ProduceHelperI13BoxCollider2DLb0EE7ProduceE10MemLabelId18ObjectCreationMode
Qoh:_ColorBlock_set_disabledColor_m2996580094
OQd:__ZN5physx2Gu19gjkLocalPenetrationINS0_9TriangleVENS0_17ShrunkConvexHullVEEEjRKT_RKT0_RKNS_6shdfnd3aos6FloatVERNSB_5Vec3VESG_SG_RSC_PhSI_Rhb
AUh:__Z157RuntimeInvoker_Int32_t2950945753_RuntimeObject_Int32_t2950945753_Int32_t2950945753_Int32_t2950945753_SByte_t1669577662_SByte_t1669577662_Int32U26_t1369213839PFvvEPK10MethodInfoPvPS4_
JQ:__ZN4FMOD6System17setSoftwareFormatEi17FMOD_SOUND_FORMATii18FMOD_DSP_RESAMPLER
m2d:__ZN5physx2Sc13ShapeIterator4initERKNS0_8ActorSimE
hPa:__ZN14SafeBinaryRead19TransferSTLStyleMapINSt3__23mapIN4core12basic_stringIcNS3_20StringStorageDefaultIcEEEES7_NS1_4lessIS7_EE13stl_allocatorINS1_4pairIKS7_S7_EEL18MemLabelIdentifier1ELi16EEEEEEvRT_17TransferMetaFlags
Vt:__ZL49__ManagedRegistrationHelperFunction_AimConstraintPv
tHf:__ZN2UI6Canvas27UpdateEventIndexesRecursiveERi
$y:__ZN7mecanim9animation18EvaluateRootMotionERKNS0_18ClipMuscleConstantERKNS0_15ClipMuscleInputEPKfS8_RNS0_12MotionOutputEb
A_:__ZN11UnityEngine15CloudWebService16SessionContainer21PrepareDataErrorEventERN4core12basic_stringIcNS2_20StringStorageDefaultIcEEEE
pjh:_ExecuteEvents_get_pointerUpHandler_m3515704212
$Mk:_ArrayList_set_Item_m2003485935
eEh:_SatelliteContractVersionAttribute__ctor_m3630863995
hlh:_MouseButtonEventData_PressedThisFrame_m1060658845
pRf:__ZN16UploadHandlerRaw13TransmitBytesEPvjj
SBb:__Z19TransferField_ArrayI19StreamedBinaryWriteILb0EE27Converter_SimpleNativeClassI8GUIStyleEEvRK23StaticTransferFieldInfoR31RuntimeSerializationCommandInfoRT0_
tUc:__Z43Register_UnityEngine_Renderer_get_isVisiblev
ROm:_ReadOnlyCollection_1_System_Collections_Generic_IListU3CTU3E_RemoveAt_m3969985996_gshared
zof:__ZN20TextRenderingPrivate8TextMesh23VirtualRedirectTransferER18StreamedBinaryReadILb0EE
goe:__ZN5physx14NpArticulationC2Ev
GJn:_UnityWebRequest_SetUploadHandler_m2465141380
OGa:__Z28BuildSingleStreamChannelInfoP11ChannelInfo17ShaderChannelMaskS1_
pjp:_emscripten_glCopyTexSubImage2D__wrapper
Ljj:_PlayerConnection_get_isConnected_m911966057
_th:_GraphicRegistry_GetGraphicsForCanvas_m4219276355
s7j:_NumberFormatter_FastToDecHex_m699829267
Mzm:_PatternCompiler_MakeFlags_m1977119795
h1c:__Z35Transfer_Blittable_FixedBufferFieldI8JSONReadiEvRK29SerializationCommandArgumentsR31RuntimeSerializationCommandInfo
Hmd:__ZN22ParticleSystemRenderer16UpdateCachedMeshEv
cgo:__ZNSt3__213__vector_baseIN6il2cpp2os19SocketHandleWrapperENS_9allocatorIS3_EEED2Ev
z5o:_U3CWarpTextU3Ec__Iterator0_Reset_m493227373
xcg:__ZL48_Type_t3588564251_CustomAttributesCacheGeneratorP21CustomAttributesCache
U7c:__ZN12LightsModule8TransferI24GenerateTypeTreeTransferEEvRT_
UXa:__ZN28ReflectionProbeAnchorManager18RemoveCachedAnchorERK4PPtrI9TransformE
Mc:invoke_viiffi
Vec:__ZN13sorted_vectorINSt3__24pairIN4core12basic_stringIcNS2_20StringStorageDefaultIcEEEEPK17MessageIdentifierEEN10vector_mapIS6_S9_NS0_4lessIS6_EENS0_9allocatorISA_EEE13value_compareESF_E10insert_oneERKSA_
ZDh:_ResourceSet_ReadResources_m3663669011
$Ea:__ZL13MeshExtractorPv16VertexInputMasksiR11MeshBuffersR16DrawBuffersRangeRiS5_
kTa:__ZNK12CubemapArray20GetRuntimeMemorySizeEv
kxe:__ZN5physx2Sc18ParticleSystemCore18setProjectionPlaneERKNS_7PxPlaneE
ilc:__Z14resize_trimmedINSt3__26vectorIN9ShaderLab18SerializedPropertyENS0_9allocatorIS3_EEEEEvRT_j
Wod:__Z20UpdateWholeSheet2TplIL27ParticleSystemCurveEvalMode3ELS0_3EEvfRK11MinMaxCurveS3_RK23ParticleSystemParticlesPf
tFe:__ZN5physx6shdfnd8PoolBaseINS_2Sc9ActorPairENS0_19ReflectionAllocatorIS3_EEE12allocateSlabEv
sdo:__ZN6il2cpp2vm13MetadataCache38GetMethodInfoFromMethodDefinitionIndexEi
aih:_EventSystem_set_current_m38955169
YQc:__Z39MonoBehaviour_CUSTOM_GetScriptClassNameP12Il2CppObject
lYg:__ZL53Selectable_t3250028441_CustomAttributesCacheGeneratorP21CustomAttributesCache
n_f:_TMP_InputField_Backspace_m3815535005
$ym:_CostDelegate_EndInvoke_m2797921932
u_a:__ZN10VertexData8TransferI24GenerateTypeTreeTransferEEvRT_
qwn:_UnityAction_2_Invoke_m3803176137_gshared
Nik:_Double_IsInfinity_m820013146
bti:_CryptographicException__ctor_m503735289
xqj:_Screen_get_dpi_m495672463
Eil:_UTF8Encoding_InternalGetByteCount_m2120178851
s9b:__ZL10CullLightsRK22SceneCullingParametersR11CullResults
Pnk:_Convert_ToUInt64_m3170916409
BB:__ZN7mecanim12statemachine20GetBlendTreeConstantERKNS0_13StateConstantEi
wGe:__ZN5physx7NpScene21setDominanceGroupPairEhhRKNS_20PxDominanceGroupPairE
MZk:_Int64_System_IConvertible_ToInt16_m4062196970_AdjustorThunk
U6j:_MonoType_GetGenericTypeDefinition_m3201894896
Cwc:__Z40GetTemporaryCachePathApplicationSpecificv
kmb:__ZN9GfxDevice16EndAsyncJobFrameEv
e1h:__Z99RuntimeInvoker_Int32_t2950945753_Ray_t3785851493_RuntimeObject_Single_t1397266774_Int32_t2950945753PFvvEPK10MethodInfoPvPS4_
Stf:_UNITY_tt_face_load_hhea
XQ:__ZN12AudioManager27InitialCompleteDomainReloadEv
Ml:___syscall3
W0h:__Z135RuntimeInvoker_RaycastHit2D_t2279581989_Vector2_t2156229523_Vector2_t2156229523_Single_t1397266774_Int32_t2950945753_Single_t1397266774PFvvEPK10MethodInfoPvPS4_
Pl:___syscall6
Rl:___syscall4
z$:__ZN11UnityEngine15CloudWebService20WebRequestRestClient17GetResponseStatusEv
Wli:_ReturnMessage__ctor_m2352989078
R7d:__ZN5physx6shdfnd4sortIPvNS0_4LessIS2_EENS0_19ReflectionAllocatorINS_2Sc19ConstraintGroupNodeEEEEEvPT_jRKT0_RKT1_j
vjo:__ZN6il2cpp2vm7Runtime9SetConfigEPKc
glb:__ZNSt3__26__treeINS_12__value_typeIN4core12basic_stringIcNS2_20StringStorageDefaultIcEEEEPN16MemoryFileSystem4NodeEEENS_19__map_value_compareIS6_SA_NS_4lessIS6_EELb1EEE13stl_allocatorISA_L18MemLabelIdentifier55ELi16EEE7destroyEPNS_11__tree_nodeISA_PvEE
j0h:__Z67RuntimeInvoker_Boolean_t97287965_TextGenerationSettings_t1351628751PFvvEPK10MethodInfoPvPS4_
WNk:_ArrayListWrapper_IndexOf_m3692065720
zZj:_TlsServerCertificateRequest__ctor_m1334974076
Ard:__ZN27PerformanceReportingManager23VirtualRedirectTransferER14SafeBinaryRead
Hlk:_Convert_ToInt32_m1613163543
hqa:__ZN9Scripting11UnityEngine9Playables8Playable12CleanupProxyEv
qOm:_ReadOnlyCollection_1_System_Collections_ICollection_CopyTo_m3127175806_gshared
em:_emscripten_glShaderBinary
x9k:_String_op_Inequality_m215368492
jpl:_UInt16_ToString_m760649087
fhb:__ZNK20LocalFileSystemPosix6ExistsERK13FileEntryData
wgk:_Queue_Dequeue_m2397857002
b8d:__ZN5physx35NpArticulationJointGetBodiesFromScbERNS_3Scb17ArticulationJointERPNS0_4BodyES5_
G7e:__ZNK5physx2Sc15ClothFabricCore16getTetherLengthsEPfj
oaj:_Camera_GetAllCameras_m668492922
WYc:__Z23TransferScriptingObjectI8JSONReadEvRT_18ScriptingObjectPtr17ScriptingClassPtrPK15MonoScriptCache
lwf:_UNITY_TT_Get_HMetrics
Bml:_TimeSpan_op_Inequality_m2467851530
vEb:__ZN17AnimationCurveTplIfE8TransferI18StreamedBinaryReadILb1EEEEvRT_
Owk:_Array_Sort_TisUIVertex_t4057497605_m3996333845_gshared
PPg:__ZL73ContactFilter2D_t3805203441_CustomAttributesCacheGenerator_maxNormalAngleP21CustomAttributesCache
whp:_emscripten_glShaderBinary__wrapper
fsi:_SByte_System_IConvertible_ToDouble_m2381680501
NIk:_Swapper_BeginInvoke_m1688449973
icj:_Display_get_renderingWidth_m1970428952
lLe:__ZN5physx2Sc13ConstraintSim8getForceERNS_6PxVec3ES3_
eWh:__Z81RuntimeInvoker_Void_t1185182177_RuntimeObject_Int32_t2950945753_Int64_t3736567304PFvvEPK10MethodInfoPvPS4_
atn:_TMP_XmlTagStack_1_Pop_m1336251350_AdjustorThunk
WK:__ZNSt3__26vectorIN4core12basic_stringIcNS1_20StringStorageDefaultIcEEEE13stl_allocatorIS5_L18MemLabelIdentifier1ELi16EEE21__push_back_slow_pathIS5_EEvOT_
Gfd:__Z25UpdateOrbitalAndRadialTplIL27ParticleSystemCurveEvalMode4ELS0_3ELS0_2EEvRK11MinMaxCurveS3_S3_S3_S3_S3_S3_R23ParticleSystemParticlesjjRKN4math8float3x3ERKNS6_7affineXERKNS6_7_float4E
OWd:__ZN5physx15PxGeometryQuery18computePenetrationERNS_6PxVec3ERfRKNS_10PxGeometryERKNS_11PxTransformES6_S9_
hzn:_IndexedSet_1_IndexOf_m241693686_gshared
CLf:__ZN11UnityEngine15PlatformWrapper30GetGraphicsDriverLibraryStringEv
Ori:_RuntimeMethodHandle_Equals_m3301340296_AdjustorThunk
Bql:_UInt64_System_IConvertible_ToSingle_m925613075_AdjustorThunk
Vif:__ZN5Unity12PhysicsQueryC2Ev
SFb:__Z18Transfer_BlittableI18StreamedBinaryReadILb0EELb0E4AABBEvRK29SerializationCommandArgumentsR31RuntimeSerializationCommandInfo
H9a:__ZN24GenerateTypeTreeTransfer19TransferSTLStyleMapINSt3__28multimapIN4core12basic_stringIcNS3_20StringStorageDefaultIcEEEE4PPtrI6ObjectENS1_4lessIS7_EE13stl_allocatorINS1_4pairIKS7_SA_EEL18MemLabelIdentifier52ELi16EEEEEEvRT_17TransferMetaFlags
Av:__ZN16MecanimAnimation24DeleteAnimatedPropertiesERP26IAnimatedPropertyEvaluator
Myk:_Dictionary_2_Do_ICollectionCopyTo_TisKeyValuePair_2_t2245450819_m216493345_gshared
Zdh:_TextContainer__cctor_m389829303
I0n:_CanvasRenderer_SetMaterial_m824577244
G7c:__ZN11ColorModule8TransferI24GenerateTypeTreeTransferEEvRT_
n$b:__Z14DrawGUITextureRK5RectTIfEP7Texture11ColorRGBA32P8Materiali
X3o:_U3CU3Ec__Iterator0_Dispose_m4156704853
ZNa:__ZNK15PlayableMethods18InvokeProcessFrameER18ScriptingObjectPtrRK9HPlayableP18ScriptingFrameDataRK9FrameData
wF:__ZN9BlobWrite8TransferI22OffsetPtrArrayTransferIKN4math7_float4EEEEvRT_PKc17TransferMetaFlags
Gtj:_Transform_IsChildOf_m224006092
$Ma:__ZN15TextureSettings8TransferI24GenerateTypeTreeTransferEEvRT_
S0c:__ZN9JSONWrite8TransferI4AABBEEvRT_PKc17TransferMetaFlags
Jxj:_LayoutElement_set_preferredHeight_m1999633022
ljc:__ZN15dense_hashtableINSt3__24pairIKiN4core17string_with_labelILi1EEEEEi18SInt32HashFunctionN14dense_hash_mapIiS5_S7_NS0_8equal_toIiEE13stl_allocatorIS6_L18MemLabelIdentifier1ELi16EEE9SelectKeyESA_SD_E12expand_arrayEjN21dense_hash_map_traits17integral_constantIbLb0EEE
jAc:__Z13RegisterClassI15QualitySettingsEvPKc
TFi:_InternalEnumerator_1_get_Current_m3191242573_AdjustorThunk
N4e:__ZNK18ScBeforeSolverTask7getNameEv
kt:__ZN13ConstraintJob17ConstraintJobDataD2Ev
Cgd:__Z25UpdateOrbitalAndRadialTplIL27ParticleSystemCurveEvalMode2ELS0_1ELS0_2EEvRK11MinMaxCurveS3_S3_S3_S3_S3_S3_R23ParticleSystemParticlesjjRKN4math8float3x3ERKNS6_7affineXERKNS6_7_float4E
jIn:_Aes__ctor_m178909601
MTa:__ZNK9Texture2D20GetRuntimeMemorySizeEv
jL:__ZN11Marshalling39CreateNullExceptionForUnityEngineObjectE18ScriptingObjectPtr
XTe:__ZN5physx14solve1D4_BlockEPKNS_23PxcSolverConstraintDescEjRNS_16PxcSolverContextE
t4c:__ZN5Unity9rapidjson13GenericReaderINS0_4UTF8IcEES3_13JSONAllocatorE9ParseTrueILj0ENS0_19GenericStringStreamIS3_EENS0_15GenericDocumentIS3_S4_S4_EEEEvRT0_RT1_
on:_emscripten_glUniform2iv
KWf:_DropdownItem_OnCancel_m3947700413
lXd:__ZL33GeomMTDCallback_ConvexHeightFieldRN5physx6PxVec3ERfRKNS_10PxGeometryERKNS_11PxTransformES5_S8_
sma:__ZL46__ManagedRegistrationHelperFunction_ColorGamutPv
Lmf:_UNITY_FT_Outline_Transform
Vrc:__Z60Register_UnityEngine_Sprites_DataUtility_Internal_GetMinSizev
m8n:__ZN6il2cpp2vm5Class10GetMethodsEP11Il2CppClassPPv
vSc:__Z45Register_UnityEngine_Mesh_get_bounds_Injectedv
Z4b:__Z30AddDefaultStreamsToMeshBuffersR9GfxDeviceR11MeshBuffersRK16DrawBuffersRange17ShaderChannelMaskS6_
oVb:__ZN7ApiGLES17DeleteFramebufferERN2gl6HandleILNS0_10ObjectTypeE9EEES3_
uof:__ZN20TextRenderingPrivate8TextMesh17MainThreadCleanupEv
GXb:__ZN15UniformTFMethod13MapBoneBufferEj
aCf:__ZN2UI14CanvasRendererD2Ev
VAk:_Array_InternalArray__get_Item_TisParameterModifier_t1461694466_m29553316_gshared
T_m:_Nullable_1_GetHashCode_m1123196047_gshared
tCn:_InfTree__cctor_m3025646792
c_k:_Int64_CompareTo_m1928360444_AdjustorThunk
bZe:__ZN5physx26PxcPCMContactCapsuleConvexERKNS_2Gu13GeometryUnionES3_RKNS_11PxTransformES6_RKfRNS_10PxcNpCacheERNS0_13ContactBufferE
_oe:__ZNK5physx7NpShape16getContactOffsetEv
fLb:__Z9SetupArgviPPKc
amk:_Convert_ToInt64_m2075031821
Sid:__Z15GetPositionMeshIL20MeshDistributionMode0ELb0E11ColorRGBA32EvRN4math8floatNx3ES4_RNS2_4pix4ERK13dynamic_arrayIS1_Lj0EERK14StrideIteratorI8Vector3fESF_RKSB_I8Vector2fERKSB_IT1_ERKS7_I16MeshTriangleDataLj0EERKS7_I11MeshAreaLUTLj0EERKfRKiSX_RK16ShapeTextureDataR5RandNP12SkinMeshInfo
Qoo:__ZN6il2cpp2vm10Reflection7IsFieldEP12Il2CppObject
Lan:_Collection_1_IsSynchronized_m1300921416_gshared
HLn:_AnalyticsEventTracker_OnDisable_m1553012800
lkp:_glTexParameteri__wrapper
$ae:__ZN5physx10PxsContext17addParticleSystemEPNS_15PxsParticleDataERKNS_26PxvParticleSystemParameterEb
X8d:__ZN5physx3Scb5Scene13addRigidNoSimINS0_4BodyELb1ELb1EEEvRT_RNS0_13ObjectTrackerE
oTa:__ZN12CubemapArray23VirtualRedirectTransferER24GenerateTypeTreeTransfer
yma:__ZL49__ManagedRegistrationHelperFunction_RenderTexturePv
cFl:_KeyCollection_System_Collections_Generic_ICollectionU3CTKeyU3E_Add_m220590786_gshared
h_n:_U3CDefaultUnityWebRequestU3Ed__0_U3CU3Em__Finally1_m3779297382
UJo:__ZN6il2cpp2os9Directory6CreateERKNSt3__212basic_stringIcNS2_11char_traitsIcEENS2_9allocatorIcEEEEPi
g3i:_TMP_TextSelector_A_OnPointerEnter_m420863590
hSd:__ZL19sweepBoxVsTrianglesjPKN5physx10PxTriangleERKNS_2Gu3BoxERKNS_6PxVec3EfRNS_10PxSweepHitENS_7PxFlagsINS_9PxHitFlag4EnumEtEEbPKj
iza:__ZN23TransformChangeDispatch32QueueTransformChangeIfHasChangedERK15TransformAccess
h0i:_TcpClient_Connect_m1569041472
jff:_PxCreateCooking
HUd:__ZN9Rigidbody18AddForceAtPositionERK8Vector3fS2_i
pJo:__ZN6il2cpp2os26LibraryNamePrefixAndSuffixC2EPKcS3_
T9j:_Assembly_get_FullName_m293988418
nJd:__ZN22WorldContactListener2D8PreSolveEP9b2ContactPK10b2Manifold
xMf:__ZN22BaseUnityConnectClientD0Ev
R9i:_Camera_get_pixelRect_Injected_m2326986893
E$o:_Scoreboard_SaveToString_m4162145868
Wrd:__ZN27PerformanceReportingManager18ActiveSceneChangedEPS_P10UnitySceneS2_
B:tempValue
T_g:__ZL48CRC32_t2128839853_CustomAttributesCacheGeneratorP21CustomAttributesCache
FUo:__ZN6il2cpp8metadata24Il2CppGenericContextHash4HashEPK20Il2CppGenericContext
zFi:_InternalEnumerator_1_get_Current_m356936020_AdjustorThunk
EAn:_DeflateManager__InitializeLazyMatch_m2220834049
X$b:__ZN6Camera21RenderODSWorldTextureERK11CullResultsRK19SharedRendererSceneR17ShaderPassContextNS_10RenderFlagE
ghd:__Z25UpdateOrbitalAndRadialTplIL27ParticleSystemCurveEvalMode3ELS0_1ELS0_4EEvRK11MinMaxCurveS3_S3_S3_S3_S3_S3_R23ParticleSystemParticlesjjRKN4math8float3x3ERKNS6_7affineXERKNS6_7_float4E
T7:__Z29scripting_class_from_fullnamePKcS0_S0_
g0k:_Directory_GetCurrentDirectory_m219218555
ptj:_Transform_TransformDirection_m3784028109
hFk:_SmallXmlParser_UnexpectedEndError_m1914362401
_B:__ZN26AnimatorControllerPlayable18DeallocateBindingsEv
rXd:__ZN5physx2Gu29ConvexVsMeshContactGeneration20generateLastContactsEv
w1h:__Z85RuntimeInvoker_Boolean_t97287965_Ray_t3785851493_Single_t1397266774_Int32_t2950945753PFvvEPK10MethodInfoPvPS4_
_pb:__ZN14DelayedDeletorI15dense_hashtableINSt3__24pairIK9TextureIDiEES3_14GfxGenericHashIS3_EN14GfxDoubleCacheIS3_iS7_NS1_8equal_toIS3_EEN31GfxDoubleCacheConcurrencyPolicy11LocklessGetE42GfxDoubleCacheDefaultEmptyDeletedGeneratorIS3_EE9SelectKeyESA_13stl_allocatorIS5_L18MemLabelIdentifier24ELi16EEEEclEv
dUl:_Dictionary_2_CopyToCheck_m3475736769_gshared
KT:__ZN11AudioSource19CreateOpenALRolloffEfff
Mtf:_UNITY_FT_Stream_ReadAt
gwe:__ZN5physx2Sc17ParticleSystemSim16getParticleStateEv
jZn:_AudioSampleProvider_Dispose_m1993565764
$4n:_Physics_Raycast_m3336206959
T3e:__ZN5physx6shdfnd5ArrayINS_25PxsCompoundContactManagerENS0_19ReflectionAllocatorIS2_EEE8recreateEj
eJi:_InternalEnumerator_1_get_Current_m1711665164_gshared
tpd:__Z19UpdateSingleRow2TplIL27ParticleSystemCurveEvalMode3ELS0_1EEvfRK11MinMaxCurveS3_RK23ParticleSystemParticlesPfbiii
G0c:__ZN9JSONWrite8TransferI13dynamic_arrayI5RectTIfELj0EEEEvRT_PKc17TransferMetaFlags
X0m:_List_1_System_Collections_IList_Contains_m3860993176_gshared
PWe:__ZN5physx14PxsAABBManagerC2ERNS_2Cm13EventProfilerERNS_19PxcScratchAllocatorE
tX:__ZN11AudioModule22CreateAudioClipFromWWWEP10IWWWStreamPKcbbi
rDc:__ZN9Texture2DC2E10MemLabelId18ObjectCreationMode
yOb:__Z17DebugStringToFileIA59_cEvRKT_iPKci15LogMessageFlagsiiPFvRK11CppLogEntryE
Bqi:_ObjectRecord_get_IsUnsolvedObjectReference_m1163921033
npl:_UInt32_System_IConvertible_ToBoolean_m1763673183_AdjustorThunk
Tpm:_Array_InternalArray__ICollection_CopyTo_TisTextAlignmentOptions_t4036791236_m3453113315_gshared
wdj:_UnityEvent_AddListener_m2276267359
Ts:__Z9SetLocalR15TransformAccessRKN4math7_float4Ey
wKa:__ZN6prcoreL11inner_clearILj4EEEvPhjjj
_5n:_NativeTypeAttribute__ctor_m1677513894
J2:__GLOBAL__sub_I_Runtime_SceneManager_0_cpp
i8j:_NumberFormatter_FormatExponential_m1436810062
kga:__ZNK8Playable6HandleEv
Fuj:_SetPropertyUtility_SetColor_m2229203028
hMk:_Char_ConvertFromUtf32_m2726544766
yBl:_Enumerator_MoveNext_m481679286_gshared
gaa:__ZN14MessageHandler28MessageIDToMessageIdentifierEi
IEm:_Uri_get_Query_m2772518875
Z_a:__ZNK11SpriteAtlas20GetRuntimeRenderDataEPK6Sprite
Z$k:_FileSystemInfo__ctor_m3035148496
iId:__Z13RegisterClassI17CapsuleCollider2DEvPKc
JYk:_Int32_System_IConvertible_ToDecimal_m2190376994_AdjustorThunk
qoa:__ZL43__ManagedRegistrationHelperFunction_Vector4Pv
Yz:__ZN7mecanim14ValueArrayCopyILb0EEEvPKNS_10ValueArrayEPS1_
pL:__Z51Register_UnityEngine_Animator_get_hasBoundPlayablesv
ue:emscriptenWebGLGetUniform
Qp:FUNCTION_TABLE_iiiiiiiiiii
uFn:_GUI_CallWindowDelegate_m3309453386
aWl:_Enumerator_System_Collections_IEnumerator_Reset_m1475773051_AdjustorThunk
dsf:_cff_set_mm_blend
zUd:__ZN5physx2Gu19sweepCapsuleCapsuleERKNS0_7CapsuleES3_RKNS_6PxVec3EfRfRS4_S8_jRt
kbc:__ZL10CleanUpJobP20CullingGroupsJobData
V$k:_DirectoryInfo_get_Exists_m3142069876
w1a:__ZN10MeshFilter23VirtualRedirectTransferER24GenerateTypeTreeTransfer
kAc:__Z13RegisterClassI16LightmapSettingsEvPKc
e$b:__ZN13RenderManager15BatchModeUpdateEv
Hzl:_Enumerator_VerifyState_m1545185457_AdjustorThunk
xYi:_X509Chain_get_CertificateAuthorities_m804805415
GPg:__ZL71ContactFilter2D_t3805203441_CustomAttributesCacheGenerator_useLayerMaskP21CustomAttributesCache
jPn:_Vector2_get_one_m738793577
IEd:__ZN10ClipperLib7Clipper15SetWindingCountERNS_5TEdgeE
UKc:__ZNK4Mesh14GetIndexFormatEv
GJf:__ZN9Scripting11UnityEngine9Analytics21AnalyticsSessionState9InitProxyEv
O5o:_TextConsoleSimulator_OnDisable_m2939709510
XOn:_Vector2_get_magnitude_m2752892833_AdjustorThunk
eie:__ZN5physx2Sc8ActorSim24postDominanceGroupChangeEv
agh:_TextMeshProUGUI_GetCanvas_m3181528364
cFo:__ZN14dense_hash_mapI10KeyWrapperIP12Il2CppObjectEN6il2cpp2gc9CachedCCWENS4_5utils11PointerHashIS1_EENS3_14EqualsComparerINSt3__28equal_toIS2_EEEENSB_9allocatorINSB_4pairIKS3_S6_EEEEE13set_empty_keyERSH_
Me:_glVertexAttribIPointer
kfj:_Input_GetAxisRaw_m2316819917
X4f:_TMP_Text_set_fontSizeMin_m3526936629
Hrc:__ZNK6Sprite10GetPaddingE20SpriteRenderDataMode
Yie:__ZN5physx2Cm8PtrTable5clearERNS0_22PtrTableStorageManagerE
uKj:_Array_InternalArray__ICollection_Remove_TisUInt32_t2560061978_m733727733_gshared
z0d:__ZN5physx3Cct15ObstacleContext7releaseEv
BTe:__ZN5physx27solveFrictionBlockWriteBackEPKNS_23PxcSolverConstraintDescEjRNS_16PxcSolverContextEPNS_25PxcThresholdStreamElementEjPi
T1k:_Stream_EndRead_m1896469262
kKh:__Z93RuntimeInvoker_Boolean_t97287965_Int32_t2950945753_SByte_t1669577662_ExceptionU26_t3600731591PFvvEPK10MethodInfoPvPS4_
Sgk:_SortedList__ctor_m1261191695
G2b:__ZN14qsort_internal5QSortIP15RODataDepthPassi17ROSorterDepthPassEEvT_S4_T0_T1_
e0n:_Canvas_get_additionalShaderChannels_m2758569541
vuf:_UNITY_ft_glyphslot_alloc_bitmap
Bjf:__ZN13PhysicsModule21SetAutoSyncTransformsEbb
ALm:_ReadOnlyCollection_1_System_Collections_IList_Add_m3642938800_gshared
Z0j:_RSASslSignatureDeformatter_SetHashAlgorithm_m895570787
q6:__ZL36TransformAccessArray_InitializeClassPv
bFo:__ZN14dense_hash_mapI10KeyWrapperIP12Il2CppObjectEN6il2cpp2gc9CachedCCWENS4_5utils11PointerHashIS1_EENS3_14EqualsComparerINSt3__28equal_toIS2_EEEENSB_9allocatorINSB_4pairIKS3_S6_EEEEEC2EjRKS9_RKSE_
nSi:_Enumerator_System_Collections_IDictionaryEnumerator_get_Key_m554883757_AdjustorThunk
vZo:_JSON_Parse_m3730951315
gLj:_Enumerable_Contains_TisRuntimeObject_m553751294_gshared
Bdf:__ZN5physx6shdfnd10Foundation19AlignCheckAllocator8allocateEjPKcS4_i
ySc:__Z47Register_UnityEngine_Mesh_RecalculateBoundsImplv
xmb:__ZN9GfxDevice27UpdateComputeSkinPoseBufferEP9GfxBufferP12SkinMeshInfo
Scl:_String_LastIndexOf_m3451222878
s9o:__ZNKSt3__221__basic_string_commonILb1EE20__throw_length_errorEv
hjm:_EqualityComparer_1_System_Collections_IEqualityComparer_Equals_m245992594_gshared
Zj:_JS_SystemInfo_GetMemory
NPj:_Array_InternalArray__IndexOf_TisParameterModifier_t1461694466_m1227120810_gshared
YVb:__ZN18GfxFramebufferGLES13ReadbackImageER14ImageReferenceiiiiii
tZc:__ZN5Unity9rapidjson6WriterI16TempBufferWriterNS0_4UTF8IcEES4_13JSONAllocatorE11WriteStringEPKcj
Bka:__ZN6prcoreL12RemapGenericI17TexFormatARGB888815TexFormatRGB565EEvPKNS_9InnerInfoE
XO:__ZN4FMOD7Channel19setReverbPropertiesEPK29FMOD_REVERB_CHANNELPROPERTIES
EMn:_StandardEventPayload_GetParameters_m2672427676
X1j:_StreamReader_Dispose_m156389394
H9:__ZN13MonoBehaviour22GetScriptFullClassNameEv
l7l:_List_1_AddEnumerable_m1683884858_gshared
pIc:__ZN13ProduceHelperI11MonoManagerLb0EE7ProduceE10MemLabelId18ObjectCreationMode
r4k:_RIPEMD160Managed_JJ_m112143231
_3e:__ZN5physx6shdfnd4sortIPNS_15PxsContactPatchENS_27SortBoundsPredicateManifoldENS0_19ReflectionAllocatorIS3_EEEEvPT_jRKT0_RKT1_j
S1b:__ZN13BatchRendererC2ER15RenderLoopStatsRK15RenderNodeQueuebb
Wkb:__ZNK16MemoryFileSystem9EnumerateEPKcP19dynamic_block_arrayI13FileEntryInfoLj32EEbPPv19FileEnumerationFlag
pJb:__ZN13MonoBehaviour9CallAwakeEv
kKa:__ZN20SphericalHarmonicsL211AddWeightedERKS_f
qNh:__Z82RuntimeInvoker_RuntimeObject_Int64_t3736567304_Int64_t3736567304_Int64_t3736567304PFvvEPK10MethodInfoPvPS4_
kCj:__Z14bankers_roundff
Wxb:__Z19TransferField_ArrayI17RemapPPtrTransfer27Converter_SimpleNativeClassI8GUIStyleEEvRK23StaticTransferFieldInfoR31RuntimeSerializationCommandInfoRT0_
y1m:_List_1_Insert_m2426986470_gshared
nIi:_InternalEnumerator_1_get_Current_m3433165672_AdjustorThunk
k_c:__ZN9JSONWrite8TransferI10ColorRGBAfEEvRT_PKc17TransferMetaFlags
U$d:__ZN5physx3Cct26CharacterControllerManager16createControllerERKNS_16PxControllerDescE
YOf:__ZN11UnityEngine9Analytics22EventLimitResumedEventC2EjRKN4core12basic_stringIcNS2_20StringStorageDefaultIcEEEEb
aaa:__Z25scripting_method_get_name18ScriptingMethodPtr
lxc:__Z35Register_UnityEngine_Resources_Loadv
i1j:_SslCipherSuite_ComputeKeys_m661027754
nwb:__Z19TransferField_ArrayI14SafeBinaryRead16Converter_StringEvRK23StaticTransferFieldInfoR31RuntimeSerializationCommandInfoRT0_
Ckj:_Object_set_name_m291480324
scd:__ZN14ParticleSystem17SimulateParticlesER24ParticleSystemUpdateDataR23ParticleSystemParticlesjRKfPj
Esk:_Decimal_Equals_m2486655999
iQo:_GC_exit_check
Gnd:__ZL24GenerateParticleGeometryIL24ParticleSystemRenderMode0ELb1ELb1EL25ParticleSystemRenderSpace4EEvPfRK22ParticleSystemTempDataRK26ParticleSystemRendererDataRK21ParticleSystemModulesRK23ParticleSystemParticlesRK31ParticleSystemParticlesTempData
fXm:__ZN16VirtFuncInvoker2Ii19Color32_t2600501292S0_E6InvokeEjP12Il2CppObjectS0_S0_
Z5b:__Z34SetupObjectBakedOcclusionInForwardbRK15SharedLightDataRK26SharedLightmapSettingsDataRK15LightmapIndicesR17ShaderPassContext
Qwl:_DSAManaged_get_Random_m923751780
u6:__ZL29TransformAccessChangeCallbackPK15TransformAccessj
krd:__ZN10SizeModuleC2E10MemLabelId
IPn:_Vector3_set_Item_m1772472431_AdjustorThunk
uxm:_Interpreter_PopulateGroup_m4042796257
CPl:_ValueCollection_System_Collections_Generic_ICollectionU3CTValueU3E_Clear_m541602619_gshared
IPf:__ZN9Scripting11UnityEngine10Networking18CertificateHandler9InitProxyEv
cUf:__ZN9Scripting11UnityEngine12Experimental2XR13TrackableType9InitProxyEv
Inl:_Type_GetProperty_m3414567179
Dzo:__ZN6il2cpp2vm13LivenessState25FieldCanContainReferencesEP9FieldInfo
nfc:__ZNSt3__26vectorINS_4pairIN4core12basic_stringIcNS2_20StringStorageDefaultIcEEEES6_EE13stl_allocatorIS7_L18MemLabelIdentifier38ELi16EEE6insertENS_11__wrap_iterIPKS7_EERSD_
iej:_RenderPipelineManager_DoRenderLoop_Internal_m3799666479
nF:__ZN9BlobWrite8TransferI22OffsetPtrArrayTransferI9OffsetPtrIN7mecanim12statemachine18StateMachineMemoryEEEEEvRT_PKc17TransferMetaFlags
VSo:__ZN6il2cpp2os12Cryptography23GetCryptographyProviderEv
aIc:__Z13RegisterClassI14PlayerSettingsEvPKc
Xf:_emscripten_glStencilOpSeparate
sin:_Collection_1_System_Collections_IList_IndexOf_m3894953546_gshared
e5k:_RSACryptoServiceProvider_OnKeyGenerated_m863837376
Bmn:_PKCS12_get_Certificates_m26161562
sTi:_NameObjectCollectionBase_Init_m2525481323
Y4b:__ZN15SkyboxGenerator28GetCubemapSkyboxVertexFormatEv
ipb:__ZN19ShaderPropertySheet24SetTextureWithExplicitIDERK23FastTexturePropertyNameP7Texture9TextureID
J1l:_List_1_Insert_m1582252370_gshared
SLo:__ZN6il2cpp2vm6String8NewUtf16EPKDsi
_ri:_SByte_System_IConvertible_ToByte_m2268214252_AdjustorThunk
BJo:__ZN6il2cpp2os10ThreadImpl12QueueUserAPCEPFvPvES2_
pDm:_RegularExpression__ctor_m119502265
lPf:__ZN22BaseUnityConnectClient10QueueEventERN11UnityEngine15CloudWebService17CloudServiceEventEPKcjb
O3o:_JSONObject_Remove_m3544892468
OOm:_ReadOnlyCollection_1_System_Collections_Generic_ICollectionU3CTU3E_Clear_m522482168_gshared
CJh:_ConstructionCall_InitMethodProperty_m2021094586
WPc:__Z27Texture_CUSTOM_GetDataWidthP12Il2CppObject
aUd:__ZNK5physx2Gu15HeightFieldUtil12traceSegmentI25CapsuleTraceSegmentReportLb0ELb0ELb1EEEvRKNS_6PxVec3ES6_PT_PS5_
Xvk:_Array_Sort_TisChar_t3634460470_m2306966989_gshared
Ezd:__ZN7b2World19ContactsCollideTaskEv
bQl:_ValueCollection_System_Collections_Generic_ICollectionU3CTValueU3E_Add_m3595439229_gshared
Mbd:__Z9UpdateTplIL27ParticleSystemCurveEvalMode1EEvRK11MinMaxCurveR23ParticleSystemParticlesjjbjRK8Vector2f
aYe:__ZN5physx10PxsContext23prepareCMDiscreteUpdateEPNS_10PxBaseTaskE
mZg:__ZL74CanvasScaler_t2767979955_CustomAttributesCacheGenerator_m_DefaultSpriteDPIP21CustomAttributesCache
zie:__ZN5physx6shdfnd5ArrayIPvNS0_19ReflectionAllocatorINS_2Cm5BlockIhLj256EEEEEE4copyINS0_15InlineAllocatorILj256ES7_EEEEvRKNS1_IS2_T_EE
og:_emscripten_glGetError
mpo:__ZN15dense_hashtableINSt3__24pairIK10KeyWrapperIPK14Il2CppAssemblyEPK22Il2CppMonoAssemblyNameEES6_N6il2cpp5utils11PointerHashIS4_EEN14dense_hash_mapIS6_SA_SF_NS6_14EqualsComparerINS0_8equal_toIS5_EEEENS0_9allocatorISB_EEE9SelectKeyESK_SM_E14squash_deletedEv
qWf:_TMP_Dropdown_CreateBlocker_m1312254317
OEk:_SmallXmlParser__ctor_m202236734
ZP:__Z14FMOD_FILE_SeekPvjS_
fme:__ZN5physx6shdfnd8PoolBaseINS_11NpAggregateENS0_19ReflectionAllocatorIS2_EEE15disposeElementsEv
$nh:_CanvasUpdateRegistry__ctor_m2005397069
gMa:__ZN7TextureC2E10MemLabelId18ObjectCreationMode
Vxj:_LayoutGroup__ctor_m2162961217
oTd:__ZThn4_N16RayRTreeCallbackILi1ELb1EE14processResultsEjPj
yGf:__ZZN2UI6Canvas15InitializeClassEvEN39FunctorImpl_1449kCanvasHierarchyChanged4CallEPviR11MessageData
vcc:__ZNK13RenderTexture32CalculateNeedsInvertedProjectionEv
n0d:__ZN5physx2Gu17RadixSortBuffered4SortEPKfj
wg:emscriptenWebGLGet
vca:__Z19CanReplaceComponentRN5Unity9ComponentEPKNS_4TypeEPN4core12basic_stringIcNS5_20StringStorageDefaultIcEEEE
h4j:_UnmanagedMemoryStream_Flush_m1540584491
HWk:_GuidParser_ParseGuid2_m1914838819
RFc:__ZN12CubemapArray11InitTextureEiii13TextureFormatb
qSa:__ZN6prcoreL18BlitIntegerToFloatERK14ImageReferenceRS0_
Mkd:__ZN32CustomDataModulePropertyBindings13SetFloatValueER14ParticleSystemif
Wrc:__Z17GetSceneBuildInfoRKN4core12basic_stringIcNS_20StringStorageDefaultIcEEEEiR14SceneBuildInfo
Uzh:_MonoMethodInfo_GetCallingConvention_m3156036493
Byi:_InternalEnumerator_1_System_Collections_IEnumerator_get_Current_m55999184_gshared
w0f:_TMP_MeshInfo__ctor_m2732078488
lQo:_GC_print_all_errors
ath:_Graphic_get_depth_m815589653
h5d:__ZN27ConvexVsMeshOverlapCallbackC2ERKN5physx2Gu10ConvexMeshERKNS0_11PxMeshScaleERKNS0_2Cm23FastVertex2ShapeScalingERKNS0_11PxTransformESE_bRKNS1_3BoxE
GMc:__Z18SetIParticleSystemP15IParticleSystem
syj:_LayoutGroup_SetLayoutInputForAxis_m2458344630
WF:__ZN7mecanim5human13HumanFixTwistEPKNS0_5HumanEPNS_8skeleton13SkeletonPoseTIN4math4trsXEEES9_iiRKf
uLf:__ZN11UnityEngine15PlatformWrapper12GetBuildTagsEv
M5b:__ZL24AssignProjectorQueuesJobP30AssignProjectorQueuesJobHeader
zCh:_ParameterModifier_t1461694466_marshal_pinvoke
Rnc:__ZNSt3__26vectorIN9ShaderLab20SerializedSubProgram15StructParameterENS_9allocatorIS3_EEE21__push_back_slow_pathIS3_EEvOT_
SXk:_Int16_System_IConvertible_ToUInt32_m3410279543
Enc:__ZN9ShaderLab20SerializedSubProgram14SetConstBufferEPKci
Xad:__ZN11ShapeModule9ResetSeedERK27ParticleSystemReadOnlyState
dko:__ZN6il2cpp2os4File5CloseEPNS0_10FileHandleEPi
hco:__ZNSt3__27__sort5IRN6il2cpp5utils11collections13ArrayValueMapIPK10Il2CppType17Il2CppInteropData26InteropDataToTypeConverterNS1_8metadata14Il2CppTypeLessENSA_26Il2CppTypeEqualityComparerEE12SortComparerEPS8_EEjT0_SH_SH_SH_SH_T_
hjf:__ZN13PhysicsModule17SetRigidBodyStateER9RigidbodyRKN8IPhysics14RigidBodyStateE
tpf:_cf2_getStdVW
Tol:_UInt16_CompareTo_m2664746316_AdjustorThunk
tlb:__ZN9GfxDevice13SetActiveTierE12GraphicsTier
cPe:__ZN5physx2Sq12BucketPruner11shiftOriginERKNS_6PxVec3E
Y2c:__Z29Transfer_Blittable_ArrayFieldI8JSONReadjEvRT_R9ArrayInfoRK23StaticTransferFieldInfo
y8d:__ZN5physx6shdfnd5ArrayIPNS_2Sc16ArticulationCoreENS0_19ReflectionAllocatorIS4_EEE15growAndPushBackERKS4_
O1h:__Z54RuntimeInvoker_Vector2_t2156229523_Vector2_t2156229523PFvvEPK10MethodInfoPvPS4_
oQo:_GC_check_finalizer_nested
Pvh:_Image__cctor_m1927508576
ch:__setLetterbox
lEj:_ScrollRect_OnScroll_m3861066534
z2e:__ZN5physx19normalizePartitionsERNS_6shdfnd5ArrayIjNS0_19ReflectionAllocatorIjEEEEPNS_23PxcSolverConstraintDescEPKNS_13PxcSolverBodyEjjS5_
JIj:_Array_InternalArray__ICollection_Contains_TisResourceCacheItem_t51292791_m2991582559_gshared
lGg:__ZL72FormerlySerializedAsAttribute_t2859083114_CustomAttributesCacheGeneratorP21CustomAttributesCache
_tj:_OnValidateInput_Invoke_m1009124904
kYd:__ZN18ContactCapsuleMesh20processTriangleCacheILj16EEEbRN5physx2Gu13TriangleCacheIXT_EEE
gAm:_PatternCompiler_EmitFastRepeat_m3012952683
L3a:__ZNSt3__26vectorI17BlendShapeChannelNS_9allocatorIS1_EEE6assignINS_11__wrap_iterIPS1_EEEENS_9enable_ifIXaasr21__is_forward_iteratorIT_EE5valuesr16is_constructibleIS1_NS_15iterator_traitsISA_E9referenceEEE5valueEvE4typeESA_SA_
zOb:__Z12SetGfxDeviceP9GfxDevice
thc:__ZN11TimeManager11GetRealtimeEv
LXf:_TMP_InputField_get_isFocused_m859964129
e4d:__ZN5physx2Sc16InteractionScene25removeFromActiveActorListERNS0_5ActorE
Nfo:__ZN6il2cpp6icalls6System6System3Net7Sockets6Socket4BindEiP19Il2CppSocketAddressPi
tQ:__ZN29AudioEffectInternalDefinitionC2EP26UnityAudioEffectDefinitionb
RUm:_ReadOnlyCollection_1_System_Collections_IList_Remove_m2434650390_gshared
kpl:_UInt16_ToString_m3056878594_AdjustorThunk
C5c:__ZNK11MinMaxCurve20FindMinMaxIntegratedEv
cMd:__ZN5physx3Ext21InertiaTensorComputer6rotateERKNS_7PxMat33E
XAl:_Enumerator_System_Collections_IDictionaryEnumerator_get_Value_m2179213088_gshared
zso:__ZNSt3__2plIcNS_11char_traitsIcEENS_9allocatorIcEEEENS_12basic_stringIT_T0_T1_EERKS9_PKS6_
Zrj:_Time_get_unscaledDeltaTime_m4270080131
VMf:__ZN18UnityConnectClient27OnPlayerSessionStateChangedEjyy
WRa:_stbir_resize
QOj:_Array_IndexOf_TisCustomAttributeTypedArgument_t2723150157_m3158556463_gshared
vRk:_Environment_GetOSVersionString_m407782784
yel:_DecoderExceptionFallback_Equals_m1082173956
wgg:__ZL69Assembly_t_CustomAttributesCacheGenerator_Assembly_GetName_m981771927P21CustomAttributesCache
Xma:__ZL59__ManagedRegistrationHelperFunction_AsyncGPUReadbackRequestPv
mzg:__ZL93Mesh_t3648964284_CustomAttributesCacheGenerator_Mesh_GetAllocArrayFromChannelImpl_m3084065604P21CustomAttributesCache
Hwd:__ZN24b2ChainAndCapsuleContact6CreateEP9b2FixtureiS1_iP16b2BlockAllocator
jjb:__Z37ReadDirectoryInfo_UnityWebAndUnityRawR12FileAccessorRKN20ArchiveStorageHeader6HeaderERNS1_13DirectoryInfoE
H6:__ZNSt3__26__treeINS_12__value_typeIPKciEENS_19__map_value_compareIS3_S4_15compare_tstringIS3_ELb1EEENS_9allocatorIS4_EEE7destroyEPNS_11__tree_nodeIS4_PvEE
Yqm:_Array_InternalArray__Insert_TisIntPtr_t_m189626842_gshared
zWi:_IPEndPoint_Equals_m306328693
pzi:_InternalEnumerator_1_System_Collections_IEnumerator_get_Current_m2062365953_AdjustorThunk
upn:_RijndaelManaged_CreateEncryptor_m263736311
lgo:__ZN6il2cpp6icalls6System6System3Net7SocketsL19check_thread_statusEv
D2b:__ZN20DynamicPropertySheet14SetValueQueuedEN9ShaderLab16FastPropertyNameEN19ShaderPropertySheet12PropertyTypeEjNS2_8SetFlagsE
bdj:_InvokableCallList_ClearPersistent_m1904264973
ehd:__Z25UpdateOrbitalAndRadialTplIL27ParticleSystemCurveEvalMode3ELS0_1ELS0_2EEvRK11MinMaxCurveS3_S3_S3_S3_S3_S3_R23ParticleSystemParticlesjjRKN4math8float3x3ERKNS6_7affineXERKNS6_7_float4E
zKb:__ZN25PathNamePersistentManagerD2Ev
aab:__ZN17PersistentManager48IntegrateObjectAndUnlockIntegrationMutexInternalEi
Z_f:_TMP_InputField_GenerateCaret_m2588630787
XIj:_Array_InternalArray__ICollection_Contains_TisSpriteData_t3048397587_m4000778412_gshared
Yia:__ZZ29InitializeSortingGroupManagerPvEN44PostLateUpdateSortingGroupsUpdateRegistrator7ForwardEv
WSg:__ZL55EventTrigger_t1076084509_CustomAttributesCacheGeneratorP21CustomAttributesCache
Q9k:_SecurityElement_SearchForChildByTag_m900466299
hr:__ZN6Object12SetHideFlagsENS_9HideFlagsE
FVl:_Enumerator_VerifyState_m4044446453_gshared
Pvd:__ZN9b2Fixture11SynchronizeEP12b2BroadPhaseRK11b2TransformS4_
zOd:__ZN9Rigidbody23VirtualRedirectTransferER14SafeBinaryRead
Cmk:_Convert_ToSingle_m3227075028
Xgp:_emscripten_glGetFramebufferAttachmentParameteriv__wrapper
Lbc:__ZN13RendererScene15InitializeUmbraEv
xIa:__Z28CalculateGlobalMatrixInverse23TransformAccessReadOnly
mjd:__ZN23ParticleSystemParticles17SetUsesCustomDataEi
amm:_GenericEqualityComparer_1_Equals_m3457564127_gshared
PSj:_BigInteger_ModInverse_m2426215562
uel:_DecoderExceptionFallback__ctor_m4044614564
uwe:__ZNK5physx15PxsParticleData15getWorldBoundsVEv
m4j:_LocalDataStoreSlot__cctor_m644942532
DZd:__ZN12_GLOBAL__N_124HfTrianglesEntityReport27onEventEjPj
DUo:__ZN6il2cpp6icalls8mscorlib6System6Object7GetTypeEP12Il2CppObject
wBh:_MonoProperty_CachePropertyInfo_m2968057423
QPf:__ZNK25UnityWebRequestJavaScript18GetDownloadedBytesEv
xnj:_Ray_GetPoint_m1852405345_AdjustorThunk
yhe:__ZN5physx17PxsContactManager16resetCachedStateEv
aQf:__ZN12HeaderHelper14SetUnvalidatedERKN4core12basic_stringIcNS0_20StringStorageDefaultIcEEEES6_b
BO:__ZN4FMOD6SoundI7releaseEv
rBe:__ZN5physx20NpRigidActorTemplateINS_14PxRigidDynamicEE15setActorSimFlagEb
K1a:__ZN14SpriteRenderer13AwakeFromLoadE17AwakeFromLoadMode
Wqf:_cff_parse_num
Njb:__ZN10MemoryFile9SetLengthEy
r3c:__ZN8JSONRead21TransferSTLStyleArrayI13dynamic_arrayI11ColorRGBA32Lj0EEEEvRT_17TransferMetaFlags
UJb:__Z28scripting_class_is_interface17ScriptingClassPtr
ti:_glTexStorage2D
bgk:_SyncHashtable_get_Item_m2686606216
KOa:__ZNK9ShaderLab10SubProgram14EnsureCompiledEv
Cfk:_MethodBuilder_GetGenericArguments_m1765425737
zpk:_DateTime_CompareTo_m3687348273
Aqk:_DateTime_ToUniversalTime_m1945318289_AdjustorThunk
uif:__ZN5physx7profile10DataBufferINS_6shdfnd6MutexTINS0_26WrapperReflectionAllocatorIhEEEENS0_14ScopedLockImplIS6_EEE17handleBufferFlushEPKhj
qlk:_Convert_ToInt16_m1336719169
S9:__Z18BuildScriptClassId17ScriptingClassPtr
b$n:_TextGenerator_Init_m1168488231
vhb:__ZL31DeleteLastPathNameComponentImplRKN4core12basic_stringIcNS_20StringStorageDefaultIcEEEEPKc
trk:_DBNull_System_IConvertible_ToUInt64_m4072736670
YJf:__ZN18UnityConnectClient15GetCloudServiceEv
Gvb:__Z29Transfer_Blittable_ArrayFieldI14SafeBinaryRead5RectTIiEEvRT_R9ArrayInfoRK23StaticTransferFieldInfo
k5e:__ZN5physx20PxsConstraintProjectEPKNS_13PxsConstraintEbf
bpe:__ZN5physx7NpShape7setFlagENS_11PxShapeFlag4EnumEb
yEi:_InternalEnumerator_1_get_Current_m2698009637_gshared
Kfo:__ZN6il2cpp2os19SocketHandleWrapperD2Ev
X8l:_List_1_System_Collections_IList_Insert_m2850345481_gshared
lwd:__ZN15b2CircleContact6CreateEP9b2FixtureiS1_iP16b2BlockAllocator
OJb:__ZL28SerializationCommandGroupForRK31TransferFunctionScriptingTraits17ScriptingClassPtr17ScriptingFieldPtrRK20CoreScriptingClasses
qxa:__ZN10TagManager32RegisterDefaultTagsAndLayerMasksEv
qll:_WaitHandle_Dispose_m738127030
vTh:__Z50RuntimeInvoker_Double_t594665363_Int32_t2950945753PFvvEPK10MethodInfoPvPS4_
h1e:__ZN5physx2Sc35ParticleElementRbElementInteraction12onDeactivateEj
M2h:__Z104RuntimeInvoker_Void_t1185182177_Color_t2555686324_Single_t1397266774_SByte_t1669577662_SByte_t1669577662PFvvEPK10MethodInfoPvPS4_
zZl:_Enumerator_System_Collections_IEnumerator_get_Current_m1540440674_gshared
JFn:_GUIUtility_Internal_GetPixelsPerPoint_m290411053
Lal:_Single_System_IConvertible_ToInt16_m809233024_AdjustorThunk
rJf:__Z56Register_UnityEngine_Analytics_CustomEventData_AddUInt32v
F7o:_fmodf
hKd:__Z75Register_UnityEngine_Physics2D_GetRayIntersectionNonAlloc_Internal_Injectedv
eTb:__ZN4gles8InitCapsEP7ApiGLESP12GraphicsCapsR16GfxDeviceLevelGL
mSa:__ZN6prcore14BlitImageFloatERK14ImageReferenceRS0_NS0_8BlitModeE
o7h:__Z91RuntimeInvoker_Void_t1185182177_RuntimeObject_RuntimeObject_Int32_t2950945753_RuntimeObjectPFvvEPK10MethodInfoPvPS4_
SJa:__Z24CalculateVertexLightDataRK15SharedLightDataR14GfxVertexLight
bj:_glEnable
Ano:__ZN15dense_hashtableINSt3__24pairIK10KeyWrapperINS1_IPK12PropertyInfoP11Il2CppClassEEEjEES9_17ReflectionMapHashIS8_EN14dense_hash_mapIS9_jSD_NS9_14EqualsComparerINS0_8equal_toIS8_EEEENS0_9allocatorISB_EEE9SelectKeyESI_SK_E15insert_noresizeERKSB_
Xra:__ZN9Scripting11UnityEngine33ExcludeFromObjectFactoryAttribute12CleanupProxyEv
GOa:__ZNK9ShaderLab7Program28BeginReadUnsupportedVariantsEv
bva:__ZN12CachedWriter11Align4WriteEv
F8a:__ZNSt3__26vectorIN30RuntimeInitializeOnLoadManager9ClassInfoE13stl_allocatorIS2_L18MemLabelIdentifier13ELi16EEE7reserveEj
NKe:__ZN5physx2Sq8AABBTreeC2Ev
Nzm:_PatternCompiler_EmitCategory_m851169746
w_c:__Z35Transfer_Blittable_FixedBufferFieldI9JSONWriteiEvRK29SerializationCommandArgumentsR31RuntimeSerializationCommandInfo
tkd:__ZN11TrailModuleD2Ev
Vul:_BigInteger_op_Subtraction_m1575155386
SB:__ZN26AnimatorControllerPlayable17ProcessRootMotionEP35AnimationPlayableEvaluationConstantP32AnimationPlayableEvaluationInputP33AnimationPlayableEvaluationOutput
pWj:_RSAManaged_ImportParameters_m1117427048
M3j:_UnexceptionalStreamReader_Peek_m1842169584
bMn:_AnalyticsTracker_SendEvent_m2955089255
aLf:__ZN11UnityEngine7Connect15DeviceInfoEvent16CollectExtraInfoEv
OMo:__ZN6il2cpp2os11Environment22SetEnvironmentVariableERKNSt3__212basic_stringIcNS2_11char_traitsIcEENS2_9allocatorIcEEEESA_
l8e:__ZN5physx2Gu10ConvexMeshD2Ev
zXg:__ZL66Navigation_t3049316579_CustomAttributesCacheGenerator_m_SelectOnUpP21CustomAttributesCache
dpo:__ZN6il2cpp2gc19AppendOnlyGCHashMapIPK10Il2CppTypeP20Il2CppReflectionTypeNS_8metadata14Il2CppTypeHashENS7_26Il2CppTypeEqualityComparerEEC2Ev
pQn:_Vector4_Equals_m1779210055_AdjustorThunk
eLa:__ZN17LightBakingOutput8TransferI19StreamedBinaryWriteILb0EEEEvRT_
iZb:__ZN20ArchiveStorageReader10InitializeER15FileSystemEntryyb
hNo:__ZThn8_N6il2cpp2vm13CachedCCWBaseINS0_13ManagedObjectEE6AddRefEv
dzf:_New_Profile
Wul:_ModulusRing_BarrettReduction_m167376748
nmi:_RemotingServices_GetRealProxy_m2081098851
xwl:_BlockProcessor_Core_m189015002
dhp:_emscripten_glScissor__wrapper
dSf:__Z47UnityWebRequest_CUSTOM_InternalSetRequestHeaderP12Il2CppObjectP12Il2CppStringS2_
Up:FUNCTION_TABLE_viifi
Xp:FUNCTION_TABLE_viiff
s2d:__ZNK5physx2Sc8ShapeSim10getBodySimEv
o0f:_U3CGetBaseMaterialU3Ec__AnonStorey0_U3CU3Em__0_m4018174143
lEk:_X501__cctor_m1166912714
fvl:_PrimalityTests_Test_m2932837908
mcg:__ZL37Type_t_CustomAttributesCacheGeneratorP21CustomAttributesCache
Uu:__ZN9Scripting11UnityEngine14AnimationState9InitProxyEv
Myd:__ZNSt3__26__sortIRN18Overlap2DQueryBase29ColliderHitsByDepthComparitorEPP10Collider2DEEvT0_S7_T_
G9i:_Bounds_ToString_m4208690781
y5h:__Z57RuntimeInvoker_Void_t1185182177_VertexGradient_t345148380PFvvEPK10MethodInfoPvPS4_
bPh:__Z88RuntimeInvoker_RuntimeObject_RuntimeObject_RuntimeObject_Int32_t2950945753_RuntimeObjectPFvvEPK10MethodInfoPvPS4_
jro:__ZN6il2cpp2vm14TypeNameParser5ParseEb
nHg:__ZL100GameObject_t1113636619_CustomAttributesCacheGenerator_GameObject_SendMessage_m3720186693____options2P21CustomAttributesCache
p2j:_StreamWriter_Initialize_m3490883444
Vnl:_Type_GetGenericArguments_m3500465462
ifo:__ZN15dense_hashtableINSt3__24pairIK10KeyWrapperIP9FieldInfoEiEES5_N6il2cpp5utils11PointerHashIS3_EEN14dense_hash_mapIS5_iSB_NS5_14EqualsComparerINS0_8equal_toIS4_EEEENS0_9allocatorIS7_EEE9SelectKeyESG_SI_E12resize_deltaEjj
Die:__ZN5physx6shdfnd5ArrayIPvNS0_19ReflectionAllocatorINS_2Cm5BlockIhLj128EEEEEE15growAndPushBackERKS2_
DOf:__ZN23UnityPurchasingSettingsC2Ev
S4a:__ZNK9Transform13GetWorldScaleEv
s4o:_TileController_SpawnBackgroundSpaceShip_m3367612859
Ezh:_Module_IsDefined_m2423524910
kZi:_X509Certificate2Enumerator__ctor_m1083666285
mNg:__ZL60EventType_t3528516131_CustomAttributesCacheGenerator_repaintP21CustomAttributesCache
gCa:__ZN17GPUFenceInternals7ReleaseEv
mYg:__ZL66Selectable_t3250028441_CustomAttributesCacheGenerator_m_NavigationP21CustomAttributesCache
Jpe:__ZN5physx14NpShapeManager15setupSceneQueryERNS_2Sq17SceneQueryManagerERKNS_12PxRigidActorERKNS_7NpShapeE
wcc:__ZL10RenderFaceR9GfxDeviceR18MaterialStateCacheP13RenderTextureiif
POj:_Array_IndexOf_TisCustomAttributeNamedArgument_t287865710_m2817957199_gshared
WNm:_ReadOnlyCollection_1_System_Collections_IList_RemoveAt_m1980090087_gshared
Qln:_ExtendedKeyUsageExtension_ToString_m2116504780
hdb:__ZNK5Unity9Component38MarkGameObjectAndComponentDependenciesER27GarbageCollectorThreadState
f5e:__ZN22ScAfterIntegrationTask11runInternalEv
q$k:_BinaryReader_Read_m3708759962
oae:__ZNK5physx2Sc9ClothCore23getExternalAccelerationEv
raa:__ZNK11TypeManager15ClassNameToRTTIEPKcb
FSd:__ZN5physx2Gu13coarseCullingERKNS_6PxVec3ES3_ffRKNS_10PxTriangleE
Bma:__ZL57__ManagedRegistrationHelperFunction_DefaultExecutionOrderPv
LSb:__ZN9GfxDevice26CreateDefaultVertexBuffersEv
yip:_emscripten_glVertexAttrib2fv__wrapper
V2j:_SynchronizedReader_ReadToEnd_m2160105378
J1e:__ZN5physx2Sc5Scene29processNarrowPhaseTouchEventsEv
YUa:__ZN4crnd12symbol_codec32decode_receive_static_data_modelERNS_25static_huffman_data_modelE
RDc:__ZN18ScriptingArguments8AddFloatEf
j4f:_TMP_Text_get_isRightToLeftText_m3326972673
nsj:_TouchScreenKeyboard_Open_m3325559252
evh:_Image_set_fillOrigin_m469806249
QKf:__ZN11UnityEngine15PlatformWrapper16GetVRRenderScaleEv
rce:__ZN5physx6shdfnd5ArrayIPvNS0_15InlineAllocatorILj256ENS0_19ReflectionAllocatorINS_18NpArticulationLinkEEEEEE15growAndPushBackERKS2_
ETl:_Dictionary_2_GetEnumerator_m2532220708_gshared
w$c:__Z18Transfer_BlittableI9JSONWriteLb0EaEvRK29SerializationCommandArgumentsR31RuntimeSerializationCommandInfo
yom:_Array_InternalArray__ICollection_Add_TisXML_TagAttribute_t1174424309_m1755316534_gshared
VZ:__ZN11UnityEngine15CloudWebService14DataDispatcher34OnSessionContainerArchivedAndReadyERNS0_16SessionContainerE
Gjj:_ConnectionChangeEvent__ctor_m764126802
qtd:__ZN7b2World11CreateJointEPK10b2JointDef
Tcd:__ZN23ParticleSystemParticles20SetUsesTriggerEventsEb
F0d:__ZNK5physx3Cct15ObstacleContext11getObstacleEj
jzm:_Mark_get_Length_m2532192442_AdjustorThunk
rYl:_Enumerator_VerifyState_m2621680056_gshared
jEm:_UriParser_InternalRegister_m3643767086
Wic:__ZN14SafeBinaryRead19TransferSTLStyleMapINSt3__23mapIN4core12basic_stringIcNS3_20StringStorageDefaultIcEEEEiNS1_4lessIS7_EENS1_9allocatorINS1_4pairIKS7_iEEEEEEEEvRT_17TransferMetaFlags
Lvf:_gray_move_to
prk:_DBNull_System_IConvertible_ToSingle_m13713620
DMk:_Char_ToLowerInvariant_m1926695830
gXf:_TMP_FontAsset_HasCharacter_Internal_m2112188792
IZf:_TMP_InputField_GetCaretPositionFromStringIndex_m2732968711
SNm:_ReadOnlyCollection_1_System_Collections_IList_Contains_m1327645028_gshared
rvh:_Image_GetDrawingDimensions_m3060965396
VJn:_UnityWebRequest_Dispose_m3261105905
rLg:__ZL69FontTextureRebuildCallback_t2467502454_CustomAttributesCacheGeneratorP21CustomAttributesCache
mol:_TypeLoadException__ctor_m1154572625
UOc:__Z30RegisterValidateMethodCallbackiPF18ScriptingMethodPtrS_17ScriptingClassPtrP6ObjectEPKc
sQa:__ZNSt3__27__sort4IRPFbRKNS_4pairIN9ShaderLab16FastPropertyNameE10ColorRGBAfEES7_EPS5_EEjT0_SC_SC_SC_T_
m_j:_Context_get_WriteSequenceNumber_m1115956887
Zcl:_String_PadLeft_m1263950263
czk:_Dictionary_2_Do_ICollectionCopyTo_TisKeyValuePair_2_t2401056908_m1169495264_gshared
aed:__Z25GetTransformationMatricesPN4math8float3x3ES1_bbRK10Matrix4x4fS4_
fph:_ContentSizeFitter__ctor_m2349275633
lOe:__ZN5physx13IslandManager6resizeEj
qFa:__Z26TransformVerticesInnerLoopILb1ELb0ELb0EEvPhRK10Matrix4x4fRK10Matrix3x3fjPKhiS8_ii25GfxTransformVerticesFlagsj
P3c:__ZN8JSONRead8TransferI9BoundsIntEEvRT_PKc17TransferMetaFlagsb
Hb:invoke_viidi
Vpd:__Z17UpdateSprites2TplIL27ParticleSystemCurveEvalMode0ELS0_2EEvfRK11MinMaxCurveS3_RK23ParticleSystemParticlesPf
Q7f:_TMP_Text_ReplaceClosingStyleTag_m619073692
j7d:__ZN5physx6shdfnd8PoolBaseINS_2Cm5BlockIPvLj16EEENS0_19ReflectionAllocatorIS5_EEE17releaseEmptySlabsEv
asi:_SByte_System_IConvertible_ToChar_m1489191771_AdjustorThunk
rO:__ZN9AudioClip7CleanupEv
WHc:__Z13RegisterClassI18DelayedCallManagerEvPKc
m_m:_Nullable_1_get_Value_m3112951896_AdjustorThunk
vdl:_String_Concat_m1809518182
uwo:__ZNK15dense_hashtableINSt3__24pairIK10KeyWrapperIP11Il2CppClassES4_EES5_N6il2cpp8metadata16SZArrayClassHashEN14dense_hash_mapIS5_S4_SA_NS5_14EqualsComparerINS9_19SZArrayClassCompareEEENS0_9allocatorIS7_EEE9SelectKeyESE_SG_E12test_deletedEj
Alk:_Convert_ToInt16_m1223489986
p1d:__ZL20updateMassAndInertiabRN5physx11PxRigidBodyEPKfjPKNS_6PxVec3Eb
q2c:__Z18Transfer_BlittableI8JSONReadLb0EdEvRK29SerializationCommandArgumentsR31RuntimeSerializationCommandInfo
ogf:__ZN5physx24NpPtrTableStorageManagerC2Ev
Qmi:_SoapTypeAttribute_get_IsInteropXmlElement_m3413949955
kEf:__Z44Register_UnityEngine_Canvas_set_sortingOrderv
V$n:_Canvas_get_referencePixelsPerUnit_m3420541976
UEn:_Event_get_current_m2393892120
LNn:_VertexHelper_Clear_m627349662
JBk:_Array_InternalArray__get_Item_TisWorkRequest_t1354518612_m2694410850_gshared
Qlb:__ZNK9GfxDevice13GetViewMatrixEv
i4j:_UnmanagedMemoryStream_Dispose_m2681886347
cHe:__ZN5physx7NpScene15flushSimulationEb
$zi:_InternalEnumerator_1_System_Collections_IEnumerator_get_Current_m1295084274_gshared
$ne:__ZN5physx6shdfnd8PoolBaseINS_10NpMaterialENS0_19ReflectionAllocatorIS2_EEE12allocateSlabEv
uba:__ZN8TypeTree8BlobReadERPKhS1_ib
lIk:_Array_Reverse_m3714848183
roh:_CanvasUpdateRegistry_InternalRegisterCanvasElementForGraphicRebuild_m3522560454
Y$l:_List_1_set_Capacity_m2639563982_gshared
Nbf:__ZN5physx18ReducedVertexCloudC2EPKNS_6PxVec3Ej
nab:__ZN18LoadSceneOperation23GetAllowSceneActivationEv
f0n:_Canvas_set_additionalShaderChannels_m4180310117
lAa:__ZN6CameraD0Ev
Mha:__ZN31CanvasBatchIntermediateRenderer16StaticInitializeEPv
iB:__ZN7mecanim12AndValueMaskILb0EEEvPKNS_14ValueArrayMaskEPS1_
t8a:__ZN14SafeBinaryRead21TransferSTLStyleArrayINSt3__26vectorIi13stl_allocatorIiL18MemLabelIdentifier13ELi16EEEEEEvRT_17TransferMetaFlags
dPj:_Array_InternalArray__IndexOf_TisProgressHandler_t926933139_m2009823052_gshared
wnf:_raccess_guess_apple_double
EUb:__ZL18ProgramUniform1uivPK7ApiGLESjiihPKv
Vvk:_Array_Sort_TisByte_t1134296376_m343015505_gshared
hld:__ZN27ShapeModulePropertyBindings13GetFloatValueERK14ParticleSystemi
_Fc:__ZN14Texture2DArray13RebuildMipMapEv
h9n:__ZN13Il2CppHashSetIPK17Il2CppGenericInstN6il2cpp8metadata21Il2CppGenericInstHashENS4_24Il2CppGenericInstCompareENSt3__29allocatorI10KeyWrapperIS2_EEEEC2EjRKS5_RKS6_
Etb:__Z18Transfer_BlittableI14SafeBinaryReadLb1EaEvRK29SerializationCommandArgumentsR31RuntimeSerializationCommandInfo
tIo:__ZN6il2cpp2gc16GarbageCollector14RemoveWeakLinkEPPv
Fnc:__ZN9ShaderLab20SerializedSubProgram14AddVectorParamEPKcii15ShaderParamTypei
FOj:_Array_IndexOf_TisResolveHandler_t4124874245_m3487245119_gshared
w0m:_List_1_GetEnumerator_m563931292_gshared
gGf:__ZN2UI14CanvasRenderer12CleanupClassEv
Rhk:_Enumerator__ctor_m3362421874
SDo:__ZN6il2cpp2vm6Object3BoxEP11Il2CppClassPv
Quo:__ZN6il2cpp2vm6Thread7SetNameEP12Il2CppThreadP12Il2CppString
o$:__ZN11UnityEngine15CloudWebService10RestClientINS0_23WebRequestRestHeaderMapEE16SetRequestHeaderERKN4core12basic_stringIcNS4_20StringStorageDefaultIcEEEESA_
y8a:__ZN30RuntimeInitializeOnLoadManager15ClassMethodInfo8TransferI14SafeBinaryReadEEvRT_
vJh:_ConstructionCall_InitDictionary_m2824447813
jcd:__ZN23ParticleSystemParticles14element_assignEjj
pY:__ZL22InitializeModule_Audiov
ROe:__ZN5physx2Sq11PruningPoolD0Ev
Ikb:__ZN16MemoryFileSystem8IsLockedERK13FileEntryData
KWe:__ZN3MBP15removeBoxPrunerEj
ayo:__ZN6il2cpp6icalls8mscorlib6System2IO6MonoIO5WriteEiP11Il2CppArrayiiPi
L9l:_List_1_set_Item_m1753836470_gshared
r6h:__Z80RuntimeInvoker_Int32_t2950945753_RuntimeObject_Vector3_t3722313464_RuntimeObjectPFvvEPK10MethodInfoPvPS4_
lnd:__ZN14ParticleSystem23OnGeometryJobsScheduledEj
Ahj:_Mathf_InverseLerp_m4155825980
IQh:__Z92RuntimeInvoker_RuntimeObject_RuntimeObject_RuntimeObject_SByte_t1669577662_SByte_t1669577662PFvvEPK10MethodInfoPvPS4_
Sl:_emscripten_glBindRenderbuffer
Gqd:__ZZN14ParticleSystem15InitializeClassEvEN29FunctorImpl_228kDidModifyMesh4CallEPviR11MessageData
_6l:_List_1_System_Collections_IList_Insert_m1011775503_gshared
dQo:_GC_dirty_init
zCo:__ZN6il2cpp2vm5Image33GetCachedMemoryMappedResourceFileEP24Il2CppReflectionAssembly
KDf:__ZNK2UI6Canvas16GetTargetDisplayEv
oJf:__Z63Register_UnityEngine_Analytics_CustomEventData_Internal_Destroyv
MOm:_ReadOnlyCollection_1__ctor_m2610384050_gshared
dgd:__Z25UpdateOrbitalAndRadialTplIL27ParticleSystemCurveEvalMode1ELS0_2ELS0_2EEvRK11MinMaxCurveS3_S3_S3_S3_S3_S3_R23ParticleSystemParticlesjjRKN4math8float3x3ERKNS6_7affineXERKNS6_7_float4E
$Yd:__ZL15SweepBoxCapsulePKN5physx3Cct9SweepTestEPKNS0_11SweptVolumeEPKNS0_11TouchedGeomERKNS_14PxExtendedVec3ERKNS_6PxVec3ERNS0_12SweptContactE
ZYf:_TMP_InputField_set_richText_m1744201547
jJb:__ZN13MonoBehaviour17RemoveFromManagerEv
GPn:_Vector3_get_Item_m668685504_AdjustorThunk
o6e:__ZN5physx2Sc19ParticlePacketShapeD2Ev
eAh:_MonoEventInfo_GetEventInfo_m873645389
YWa:__ZL11DecodeValuePPKcS0_
CFn:_GUIUtility_get_pixelsPerPoint_m2369948084
C9k:_WindowsIdentity_System_Runtime_Serialization_IDeserializationCallback_OnDeserialization_m3428853631
a3:__ZN13MemoryManagerC2Ev
x3o:_JSONNumber_set_AsLong_m3543961811
K4a:__ZN12SkinMeshInfo10DeallocateEPS_
ODj:_ScrollRect_SetDirty_m214267968
pPj:_Array_InternalArray__IndexOf_TisKeyValuePair_2_t727985506_m1773917996_gshared
akb:__ZN20ArchiveStorageReader28AcquireAndPrefillUnusedBlockEjPNS_11CacheResultE
PJk:_Boolean_System_IConvertible_ToDateTime_m603510836
VFc:__Z12NHxRoughnessIA4_tEvP9Texture2DPT_iiii
_vl:_ASN1_get_Value_m1857007406
XY:__Z6simd4iiiii
Veb:__ZN9Transform5ResetEv
Flk:_Decimal_op_Explicit_m1842265407
qAb:__Z22TransferField_NonArrayI24GenerateTypeTreeTransfer16Converter_StringEvRK23StaticTransferFieldInfoR31RuntimeSerializationCommandInfoRT0_
Rma:__ZL47__ManagedRegistrationHelperFunction_FixedUpdatePv
Dqd:__ZN29ParticleSystemPropertyBinding49InitializeParticleSystemAnimationBindingInterfaceEv
zrf:_UNITY_FT_CMap_New
lBi:_InternalEnumerator_1_get_Current_m4241643334_AdjustorThunk
rWf:_TMP_Dropdown_DestroyBlocker_m2367277104
cgn:_Collection_1_set_Item_m2389175716_gshared
GLb:__Z17MainLoopKeepalivePv
aae:__ZN5physx7NpScene16addActorInternalERNS_7PxActorE
$Cj:_Selectable_FindSelectableOnDown_m1591762582
BHi:_InternalEnumerator_1_get_Current_m1588647567_AdjustorThunk
fak:_Assembly_UnprotectedGetName_m600830855
cig:__ZL51GCHandle_t3351438187_CustomAttributesCacheGeneratorP21CustomAttributesCache
uuj:_InputField_get_caretBlinkRate_m3620074524
y2b:__Z19SetupLODFadeKeywordR17ShaderPassContexti
Znd:__ZL19ParticleGeomFlipUVsffRKN4math5_int4EPS1_
x5k:_RSAPKCS1SignatureFormatter_CreateSignature_m3191980616
zOa:__ZN10builtintex16GetDefaultTexEnvE16TextureDimensionb
MWb:__ZL25CheckCopyTextureArgumentsRK7ApiGLESP11GLESTextureS3_
Qkd:__ZN24UVModulePropertyBindings13AddPropertiesER10vector_mapIi22ParticleModulePropertyNSt3__24lessIiEENS2_9allocatorINS2_4pairIiS1_EEEEE
PLg:__ZL104UnityWebRequest_t463507806_CustomAttributesCacheGenerator_UnityWebRequest_get_isNetworkError_m1231611882P21CustomAttributesCache
Klp:_glDeleteShader__wrapper
Yga:__ZNK15PlayableMethods18InvokeOnGraphStartER18ScriptingObjectPtrRK9HPlayable
Ozb:__Z29Transfer_Blittable_ArrayFieldI24GenerateTypeTreeTransferyEvRT_R9ArrayInfoRK23StaticTransferFieldInfo
L0o:_JSONLazyCreator_Add_m786737145
lP:__ZN4FMOD7SystemI9playSoundE17FMOD_CHANNELINDEXPNS_5SoundEbPPNS_7ChannelE
f_k:_Int64_GetHashCode_m703091690
Yna:__ZL60__ManagedRegistrationHelperFunction_ReflectionProbeBlendInfoPv
ure:__ZNK5physx7NpCloth16getStretchConfigENS_22PxClothFabricPhaseType4EnumE
fFn:_Event_get_commandName_m4275147343
hB:__ZN27AnimationLayerMixerPlayable17LayerMixerProcessEP35AnimationPlayableEvaluationConstantP32AnimationPlayableEvaluationInputP33AnimationPlayableEvaluationOutputM17AnimationPlayableFvS1_S3_S5_EMS_FvS1_S3_S5_ESA_MS_FvS5_S1_S3_S5_ifE
Nkk:_Decimal_op_Implicit_m4256234411
gub:__Z24TransferPPtrToMonoObjecti17ScriptingClassPtrP23DataToCreateNullWrapper24TransferInstructionFlags
C_m:_Nullable_1_Equals_m3352611811_gshared
ON:__ZN12AudioManager23VirtualRedirectTransferER18StreamedBinaryReadILb0EE
iNh:__Z60RuntimeInvoker_RuntimeObject_RuntimeObject_Int16_t2552820387PFvvEPK10MethodInfoPvPS4_
u3a:__ZN10VertexData13SwapEndianessEv
P1j:_StreamReader__ctor_m3941437302
bld:__ZN27ColorModulePropertyBindings13GetFloatValueERK14ParticleSystemi
kyc:__Z57Register_UnityEngine_Transform_INTERNAL_get_localRotationv
zdp:dynCall_viif
iAc:__Z13RegisterClassIN5Unity9ComponentEEvPKc
y4b:__ZN29MotionVectorRenderLoopScratchD2Ev
h5e:__ZN5physx2Sc24ConstraintProjectionTree11projectPoseERNS0_19ConstraintGroupNodeE
uxb:__ZL26Transfer_SimpleNativeClassI17RemapPPtrTransfer8GradientLb0EEvRK29SerializationCommandArgumentsR31RuntimeSerializationCommandInfo
nyg:__ZL49Shader_t4151988712_CustomAttributesCacheGeneratorP21CustomAttributesCache
UC:__ZN17AnimationPlayable26DisconnectNoTopologyChangeEPS_i
rke:__ZNK5physx12NpBatchQuery14getOwnerClientEv
P4m:_List_1_System_Collections_IList_Contains_m2131605266_gshared
Zee:__ZN5physx2Sc21ArticulationJointCore28setSwingLimitContactDistanceEf
gep:dynCall_viifffi
dgh:_TextMeshProUGUI_LoadFontAsset_m2596902304
j0:__ZN13UploadHandlerD2Ev
ML:__GLOBAL__sub_I_Modules_AssetBundle_Public_1_cpp
zbp:dynCall_viiiiiffi
md:_emscripten_glBlendFuncSeparate
Bin:_Collection_1_Add_m809543251_gshared
A7:__Z20scripting_string_newPKc
uDm:_Parser_IsSingleline_m326238187
$Pk:_CollectionBase_get_Count_m1708965601
Pui:_HMAC__ctor_m97939284
Crl:_ValueType_DefaultEquals_m2927252100
b_c:__ZN9JSONWrite12AppendToNodeEPN5Unity9rapidjson12GenericValueINS1_4UTF8IcEE13JSONAllocatorEEPKcRS6_
fwl:_ASN1_ToString_m1340204511
$Xi:_X509ChainElementEnumerator_get_Current_m1301774989
Bvd:__ZN16PhysicsManager2D20GetRigidBodyVelocityERK11Rigidbody2D
Vvm:_X509Store_get_Certificates_m2149701265
Bnl:_Type_GetField_m2961003358
RRm:_ReadOnlyCollection_1_System_Collections_Generic_IListU3CTU3E_set_Item_m711370667_gshared
LUg:__ZL144StandaloneInputModule_t2760469101_CustomAttributesCacheGenerator_StandaloneInputModule_t2760469101____allowActivationOnMobileDevice_PropertyInfoP21CustomAttributesCache
xsa:__ZN9Scripting11UnityEngine13ComputeBuffer12CleanupProxyEv
g9e:__ZThn8_N5physx2Gu11HeightFieldD1Ev
$gl:_StringBuilder_set_Chars_m3548656617
Xjo:__ZN6il2cpp2os4File17GetFileAttributesERKNSt3__212basic_stringIcNS2_11char_traitsIcEENS2_9allocatorIcEEEEPi
fee:__ZNK5physx19PxArticulationJoint19getConcreteTypeNameEv
FG:__ZNSt3__26__sortIRPFbPKN8Animator11AnimatorJobES4_EPS4_EEvT0_S9_T_
jV:__ZN17AudioCustomFilterD2Ev
BUj:_ARC4Managed_GenerateKey_m1607343060
YNo:_GC_unpromote_black_lists
HL:__ZN9Scripting11UnityEngine2XR5Tango9GridIndex9InitProxyEv
IVb:__ZN18GfxFramebufferGLES18ReleaseFramebufferEP17RenderSurfaceBaseP14GfxContextGLES
g1c:__Z18Transfer_BlittableI8JSONReadLb1EiEvRK29SerializationCommandArgumentsR31RuntimeSerializationCommandInfo
N0:__ZN19CloudServiceHandler34HandleSaveFileWebRequestPlayerLoopEv
GC:__ZN7mecanim21ValueArrayReverseCopyEPKNS_18ValueArrayConstantEPKNS_10ValueArrayES2_PS3_PKi
uTf:__ZL47__ManagedRegistrationHelperFunction_XRNodeStatePv
CU:__Z31GetParentSampleClipFromInstancePN11SoundHandle8InstanceE
QAc:__ZNK28RectTransformPropertyBinding13GetFloatValueERKN11UnityEngine9Animation10BoundCurveE
Tcc:__ZN6Camera22StandaloneCustomRenderENS_10RenderFlagEP6ShaderRKN4core12basic_stringIcNS3_20StringStorageDefaultIcEEEEPNS_21PerformRenderFunctionE
tPj:_Array_InternalArray__IndexOf_TisKeyValuePair_2_t2401056908_m4118889689_gshared
x9a:__ZNSt3__26vectorI4PPtrI6ObjectE13stl_allocatorIS3_L18MemLabelIdentifier52ELi16EEE6assignINS_11__wrap_iterIPS3_EEEENS_9enable_ifIXaasr21__is_forward_iteratorIT_EE5valuesr16is_constructibleIS3_NS_15iterator_traitsISD_E9referenceEEE5valueEvE4typeESD_SD_
LCe:__ZL22addOrRemoveRigidObjectILb0ELb0ELb0ELb1EN5physx3Scb11RigidStaticEEvRNS0_2Sc5SceneERT3_b
YUo:__ZN6il2cpp2os16ThreadLocalValue8GetValueEPPv
gYi:_X509Certificate2_get_PublicKey_m370665820
_do:__ZN6il2cpp2vm13MetadataCache14GetGenericInstEPKPK10Il2CppTypej
hgn:_Collection_1_IsSynchronized_m2790814605_gshared
UV:__ZN13AudioListener17ReadExtensionNameEi
Pd:_glUniform1uiv
LMf:__ZN11UnityEngine7Connect20RemoteConfigSettings35CallConfigUpdatedOnMainThreadStaticEPS1_
ATc:__Z52Object_CUSTOM_GetOffsetOfInstanceIDInCPlusPlusObjectv
v7d:__ZN5physx6shdfnd4sortIPvNS0_4LessIS2_EENS0_19ReflectionAllocatorINS_2Cm5BlockIS2_Lj8EEEEEEEvPT_jRKT0_RKT1_j
Ine:__ZNK5physx9NpPhysics11getNbShapesEv
Kq:setThrew
M1j:_SslClientStream_OnLocalPrivateKeySelection_m1934775249
NFc:__ZL21BuildEmptyCubeTexturePKci11ColorRGBA3217TextureColorSpace
rLk:_Byte_ToString_m721125428
Zic:__ZN14SafeBinaryRead21TransferSTLStyleArrayINSt3__26vectorIN9ShaderLab20SerializedSubProgramENS1_9allocatorIS4_EEEEEEvRT_17TransferMetaFlags
SPj:_Array_InternalArray__IndexOf_TisX509ChainStatus_t133602714_m48896230_gshared
xhb:__ZN19dynamic_block_arrayI13FileEntryInfoLj32EE4growEj
p1c:__Z15Transfer_StringI8JSONReadLb1EEvRK29SerializationCommandArgumentsR31RuntimeSerializationCommandInfo
Kab:__ZN16LightmapSettings15AppendLightmapsEiRK13dynamic_arrayI12LightmapDataLj0EE
sja:__ZN6prcoreL17RemapGenericFloatI17TexFormatRGBFloat15TexFormatRGHalfEEvPKNS_9InnerInfoE
Ptf:_sfnt_load_face
Hmf:_UNITY_FT_Render_Glyph_Internal
Myo:__ZNSt3__212basic_stringIDsNS_11char_traitsIDsEENS_9allocatorIDsEEE21__grow_by_and_replaceEjjjjjjPKDs
Prf:_UNITY_ft_service_list_lookup
KWc:__ZN5IMGUI21SelectReceivingWindowER8GUIStateb
a8f:_TMP_Text_GetPreferredValues_m3747234872
dvi:_HMAC_Initialize_m3157696427
oUd:__ZN5physx2Gu20intersectTriangleBoxERKNS_6PxVec3ES3_S3_S3_S3_
a3j:_SynchronizedWriter_Write_m2529550287
eVf:_TMP_InputField_CaretBlink_m3970334312
Dme:__ZN5physx10NpMaterial8setFlagsENS_7PxFlagsINS_14PxMaterialFlag4EnumEtEE
j4:__ZN13BaseAllocator13TryDeallocateEPv
$vm:_X509SubjectKeyIdentifierExtension__ctor_m2055934916
PYc:__ZN9Scripting19UnityEngineInternal5Input17NativeInputSystem9InitProxyEv
G6o:_sprintf
loc:__ZN9Scripting25CreateNullExceptionObjectE18ScriptingObjectPtr
hyl:_PrivateKeyInfo_DecodeRSA_m2889346634
YU:__ZN13AudioListener17RemoveFromManagerEv
ie:_glAttachShader
qph:_ContentSizeFitter_SetLayoutHorizontal_m2833273874
GLm:_ReadOnlyCollection_1_System_Collections_IList_RemoveAt_m134366701_gshared
Ygf:__ZN5physx6shdfnd8internal8HashBaseINS0_4PairIKtPKcEEtNS0_4HashItEENS1_11HashMapBaseItS6_S9_NS_7profile26WrapperReflectionAllocatorIS6_EEE6GetKeyESD_Lb1EE6createERS4_Rb
Oza:__ZNK6Camera19GetProjectionMatrixEv
XHe:__ZNK5physx7NpScene24getWakeCounterResetValueEv
ppd:__Z19UpdateSingleRow2TplIL27ParticleSystemCurveEvalMode2ELS0_4EEvfRK11MinMaxCurveS3_RK23ParticleSystemParticlesPfbiii
Wuj:_InputField_SetToCustomIfContentTypeIsNot_m2813459946
Gfn:_Collection_1_System_Collections_IList_IndexOf_m1439404860_gshared
ZCd:__ZN21b2FindNewContactsTask15AddContactPairsERK16b2ContactManagerP14b2FixtureProxyS4_R13dynamic_arrayINS_17b2DeferredContactELj0EE
fCn:_InflateCodes_InflateFast_m1137157281
bxg:__ZL70RuntimePlatform_t4159857903_CustomAttributesCacheGenerator_FlashPlayerP21CustomAttributesCache
aXk:_Guid_GetHashCode_m3042133858_AdjustorThunk
oZe:__ZN5physx2Gu32PCMConvexVsMeshContactGeneration20generateLastContactsEv
rua:__Z38PreallocateObjectFromPersistentManagerib
Nme:__ZThn12_N5physx10NpMaterialD0Ev
Exm:_Interpreter_Backtrack_m2828876822
TTa:__ZNK9Texture2D20GetUnscaledTextureIDEv
qsi:_SByte_System_IConvertible_ToType_m4075253447
izl:_StrongName_get_PublicKey_m1841537984
Ncf:__ZN5physx6shdfnd4sortIjNS_19SortBoundsPredicateENS0_19ReflectionAllocatorIjEEEEvPT_jRKT0_RKT1_j
hpe:__ZN5physx7NpShape14onRefCountZeroEv
ltj:_Transform_INTERNAL_get_worldToLocalMatrix_m2730237241
zcd:__ZNK14ParticleSystem7GetLoopEv
_al:_Single_System_IConvertible_ToUInt64_m3299129161
lcf:__ZL15TestContainmentRKN5physx6PxVec3EPKfjPKNS_2Gu15HullPolygonDataE
YTa:__ZNK9Texture2D26CanReuploadDataToGfxDeviceEv
Img:__ZL63CodeAccessPermission_t2681295399_CustomAttributesCacheGeneratorP21CustomAttributesCache
hbb:__Z29ClearRepeatingLogMessageStatev
OFi:_InternalEnumerator_1_get_Current_m3191242573_gshared
fLk:_Byte_Equals_m1161982810_AdjustorThunk
KJl:_Transform_1_BeginInvoke_m290848834_gshared
o9e:__ZN5physx2Gu11HeightField12loadFromDescERKNS_17PxHeightFieldDescEb
Rea:__ZN21EnlightenSceneMappingaSERKS_
uxa:__ZN14SafeBinaryRead21TransferSTLStyleArrayI13dynamic_arrayI17SortingLayerEntryLj0EEEEvRT_17TransferMetaFlags
bLd:__ZL48__ManagedRegistrationHelperFunction_MeshColliderPv
OZm:_U3CSortU3Ec__Iterator21_Dispose_m448183640_gshared
AYb:__ZN7ApiGLESD2Ev
jCn:_InflateBlocks_Free_m789816840
Tya:__ZN9Transform47ClearTransformHierarchyAndApplyToSerializedDataEv
bFe:__ZN5physx6shdfnd8PoolBaseINS_2Gu30LargePersistentContactManifoldENS0_19ReflectionAllocatorIS3_EEE12allocateSlabEv
E2c:__ZN8JSONRead21TransferSTLStyleArrayINSt3__26vectorI8MonoPPtr13stl_allocatorIS3_L18MemLabelIdentifier1ELi16EEEEEEvRT_17TransferMetaFlags
A5:__ZNSt3__26__treeI19RepeatingLogMessageNS_4lessIS1_EE13stl_allocatorIS1_L18MemLabelIdentifier74ELi16EEE25__emplace_unique_key_argsIS1_JRKS1_EEENS_4pairINS_15__tree_iteratorIS1_PNS_11__tree_nodeIS1_PvEEiEEbEERKT_DpOT0_
ORl:_Dictionary_2_Remove_m789637624_gshared
ywj:_InputField_IsSelectionVisible_m3622592134
SIk:_AssemblyLoadEventHandler_Invoke_m1462077361
rAa:__ZN6Camera23VirtualRedirectTransferER19StreamedBinaryWriteILb0EE
Wdp:dynCall_fidi
_ko:__ZN15dense_hashtableINSt3__24pairIK10KeyWrapperINS1_IPK9FieldInfoP11Il2CppClassEEEjEES9_17ReflectionMapHashIS8_EN14dense_hash_mapIS9_jSD_NS9_14EqualsComparerINS0_8equal_toIS8_EEEENS0_9allocatorISB_EEE9SelectKeyESI_SK_E12resize_deltaEjj
hKe:__ZN5physx6shdfnd5ArrayIPNS_2Sc8BodyCoreENS0_19ReflectionAllocatorIS4_EEE6resizeEjRKS4_
V$d:__ZN5physx3Cct26CharacterControllerManager16createControllerERNS_9PxPhysicsEPNS_7PxSceneERKNS_16PxControllerDescE
NFn:_GUILayoutEntry__ctor_m2229197035
OTo:__ZN6il2cpp6icalls6System6System14ComponentModel14Win32Exception15W32ErrorMessageEi
S3f:_TMP_SubMeshUI_GetPaddingForMaterial_m3359882614
ADa:__ZN15dense_hashtableINSt3__24pairIKN9ShaderLab7Program23ShaderKeywordSetAndHashEPKNS2_10SubProgramEEES4_NS3_24ShaderKeywordHashFunctorEN14dense_hash_mapIS4_S8_SA_NS0_8equal_toIS4_EE13stl_allocatorIS9_L18MemLabelIdentifier67ELi16EEE9SelectKeyESD_SG_E15insert_noresizeERKS9_
eMa:__ZN13RenderTexture12SetDimensionE16TextureDimension
y1j:_SslClientStream_set_ClientCertSelectionDelegate_m1261530976
Oqa:__ZN9Scripting11UnityEngine16GradientColorKey9InitProxyEv
$e:_SDL_FreeRW
oNe:__ZN5physx6shdfnd8PoolBaseINS_2Cm5BlockIhLj128EEENS0_19ReflectionAllocatorIS4_EEE15disposeElementsEv
lFf:__Z34CanvasRenderer_Get_Custom_PropCullP12Il2CppObject
sxe:__ZN5physx3Scb14ParticleSystem14setRestOffsetsEjRKNS_16PxStrideIteratorIKjEERKNS2_IKfEE
CT:__ZN20SoundChannelInstance8getDelayE14FMOD_DELAYTYPEPjS1_
RDa:__ZNSt3__26vectorIN20GpuProgramParameters15StructParameterENS_9allocatorIS2_EEEC2ERKS5_
Sxi:_ArrayReadOnlyList_1_Contains_m232667507_gshared
Llk:_Convert_ToInt32_m2128774575
ZSh:__Z77RuntimeInvoker_Boolean_t97287965_IntPtr_t_Int32_t2950945753_SByte_t1669577662PFvvEPK10MethodInfoPvPS4_
Alj:_PlayableHandle_GetPlayableType_m432385838_AdjustorThunk
e5o:_ShaderPropAnimator_Start_m2331709270
vlf:__ZNSt3__26vectorIN20TextRenderingPrivate8FontImpl13CharacterInfoE13stl_allocatorIS3_L18MemLabelIdentifier1ELi16EEE8__appendEj
v:tempBigInt
Mrm:_Array_InternalArray__Insert_TisKeyframe_t4206410242_m1558638568_gshared
hf:_emscripten_glVertexAttrib1fv
Fjc:__ZNSt3__26vectorIN9ShaderLab20SerializedSubProgram12UAVParameterENS_9allocatorIS3_EEE7reserveEj
XQf:__ZN29UnityWebRequestAsyncOperationD0Ev
a0i:_TcpClient_set_SendBufferSize_m3098002341
qSj:_BigInteger__ctor_m2644482640
nap:__ZSt11__terminatePFvvE
XIe:__ZN5physx13NpVolumeCacheC2EPNS_2Sq17SceneQueryManagerEjj
r8d:__ZThn24_N5physx2Sc20ArticulationJointSimD1Ev
bQ:__ZN12AudioManager14systemCallbackEP11FMOD_SYSTEM24FMOD_SYSTEM_CALLBACKTYPEPvS3_
c$m:_Nullable_1_Equals_m4046255732_gshared
VSm:_ReadOnlyCollection_1_System_Collections_Generic_ICollectionU3CTU3E_Clear_m3451551308_gshared
cnh:_BaseMeshEffect_OnEnable_m3291426649
txe:__ZN5physx2Sc18ParticleSystemCore14setRestOffsetsEjRKNS_16PxStrideIteratorIKjEERKNS2_IKfEE
NPo:_clear_marks_for_block
wYd:__ZN5physx2Gu16testPolyDataAxisERKNS0_8CapsuleVERKNS0_13PolygonalDataEPNS0_12SupportLocalERKNS_6shdfnd3aos6FloatVERSB_RNSA_5Vec3VE
hJj:_Array_InternalArray__ICollection_Contains_TisColor_t2555686324_m266224315_gshared
AJa:__ZN16ReflectionProbes16UpdateSampleDataEv
qed:__Z9UpdateTplIL27ParticleSystemCurveEvalMode1EEvRK11MinMaxCurveR23ParticleSystemParticlesjjPKN4math8floatNx3E
ibe:__ZN5physx2Sc17ParticleSystemSimD0Ev
kni:_TrackingServices_NotifyUnmarshaledObject_m2784831802
AOk:_ReadOnlyArrayListWrapper_Sort_m2577012511
Gma:__ZL46__ManagedRegistrationHelperFunction_UnityEventPv
jTl:_Dictionary_2_set_Item_m3394774875_gshared
nWl:_Enumerator_System_Collections_IEnumerator_get_Current_m2237476582_AdjustorThunk
mUk:_CultureInfo_GetCultureInfo_m56098747
DFo:__ZN15dense_hashtableINSt3__24pairIK10KeyWrapperIP12Il2CppObjectEN6il2cpp2gc9CachedCCWEEES5_NS7_5utils11PointerHashIS3_EEN14dense_hash_mapIS5_S9_SD_NS5_14EqualsComparerINS0_8equal_toIS4_EEEENS0_9allocatorISA_EEE9SelectKeyESI_SK_E3endEv
G9b:__Z20AddActiveLocalLightsR11CullResultsR27LocalLightCullingParametersPPK15SharedLightDataPK8Vector4fRK9IndexListPfRSA_R12ActiveLightsSG_P5RectTIfEP13TargetEyeMask
Rdg:__ZL80Hashtable_t1853889766_CustomAttributesCacheGenerator_Hashtable__ctor_m1763145853P21CustomAttributesCache
ykk:_Convert_ToDecimal_m1284148187
EGm:_Collection_1__ctor_m3489157029_gshared
_la:__ZL52__ManagedRegistrationHelperFunction_AndroidJNIHelperPv
ppf:_cf2_getNormalizedVector
Ff:_JS_Sound_Play
STm:_ReadOnlyCollection_1_System_Collections_IList_set_Item_m1538987737_gshared
kPi:_DefaultComparer_Compare_m1920986590_gshared
q0j:_RecordProtocol_ProcessChangeCipherSpec_m15839975
wic:__ZN9ShaderLab16SerializedShader8TransferI14SafeBinaryReadEEvRT_
Beh:_TextMeshPro_ForceMeshUpdate_m19192154
HJh:_ConstructionCallDictionary_SetMethodProperty_m3145285304
D5a:__ZN11TimeManagerD2Ev
xzi:_InternalEnumerator_1_System_Collections_IEnumerator_get_Current_m1503522504_gshared
YF:__ZN7mecanim8skeleton13SkeletonAlignEPKNS0_8SkeletonERKN4math7_float4ES7_i
PGc:__ZN19ShaderPropertySheet16SetVectorIndexedEN9ShaderLab16FastPropertyNameEifRK8Vector4fNS_8SetFlagsE
Wml:_Type_get_IsAbstract_m1120089130
OPn:_Vector3_get_normalized_m2454957984_AdjustorThunk
_Em:_UriFormatException__ctor_m1115096473
bVi:_Dns_GetHostEntry_m3727355895
hvo:__ZN15dense_hashtableINSt3__24pairIK10KeyWrapperINS1_IP11Il2CppClassjEEES4_EES6_N6il2cpp8metadata14ArrayClassHashEN14dense_hash_mapIS6_S4_SB_NS6_14EqualsComparerINSA_17ArrayClassCompareEEENS0_9allocatorIS8_EEE9SelectKeyESF_SH_E9copy_fromERKSK_j
vHn:_GUIUtility_IsExitGUIException_m3644066650
F1:__ZN11UnityEngine15CloudWebService14DataDispatcher4StopEv
dVl:_LinkedList_1_System_Collections_Generic_ICollectionU3CTU3E_Add_m2568132950_gshared
y4i:_VertexZoom_OnEnable_m3348437111
Hjc:__ZNSt3__26vectorIN9ShaderLab20SerializedSubProgram12UAVParameterENS_9allocatorIS3_EEE8__appendEj
LWc:__ZN5IMGUI9GUIWindow5OnGUIER8GUIState
hEo:__ZN6il2cpp2gcL16find_first_unsetEj
XPo:_GC_maybe_gc
Hal:_Single_System_IConvertible_ToDecimal_m325860800_AdjustorThunk
Jpm:_Array_InternalArray__ICollection_CopyTo_TisSingle_t1397266774_m455540885_gshared
Gla:__ZN17ScriptingGCHandle7AcquireE18ScriptingObjectPtr25ScriptingGCHandleWeakness
sVh:__Z74RuntimeInvoker_RuntimeObject_RuntimeObject_Int64_t3736567304_RuntimeObjectPFvvEPK10MethodInfoPvPS4_
qhe:__ZN5physx12NpConstraint8comShiftEPNS_12PxRigidActorE
p9n:__ZN14dense_hash_mapI10KeyWrapperIPK11Il2CppClassEPKcN6il2cpp5utils11PointerHashIS1_EENS4_14EqualsComparerINSt3__28equal_toIS3_EEEENSC_9allocatorINSC_4pairIKS4_S6_EEEEE13set_empty_keyERSI_
tcp:dynCall_iifiii
Imm:_HashSet_1__ctor_m620629637_gshared
MRa:__Z21HasAlphaTextureFormat13TextureFormat
bY:__ZN12AudioManager6UpdateEv
GRa:__ZN14ImageReference9BlitImageERKS_NS_8BlitModeE
bNm:_ReadOnlyCollection_1__ctor_m1345363288_gshared
Ow:__ZN8Animator12AddToManagerEv
wLc:__Z26ApplyBlendShapesToVerticesR12SkinMeshInfoRKN4math5_int4EPNS1_8floatNx3ES6_
s2:__GLOBAL__sub_I_Runtime_Core_Callbacks_0_cpp
pQd:__ZNK5physx2Gu16SupportLocalImplINS0_11ConvexHullVEE9doSupportERKNS_6shdfnd3aos5Vec3VERNS5_6FloatVESA_
dKb:__ZN23CachedSerializationDataD2Ev
Sbc:__ZNK25CameraStackRenderingState31CalculateStereoCameraTargetTypeEv
_Ia:__ZN14RenderSettings23VirtualRedirectTransferER14SafeBinaryRead
ULi:_InternalEnumerator_1_get_Current_m114240259_gshared
cyd:__ZNK13b2CircleShape5CloneEP16b2BlockAllocator
JJo:__ZN6il2cpp2os10ThreadImpl15CurrentThreadIdEv
tAk:_Array_InternalArray__get_Item_TisLink_t3209266973_m1574224299_gshared
Nlj:_PlayerConnectionInternal_UnityEngine_IPlayerEditorConnectionNative_SendMessage_m389985885
oUc:__Z36Renderer_Set_Custom_PropSortingOrderP12Il2CppObjecti
rgk:_Queue_CopyTo_m737385843
Y6k:_SymmetricAlgorithm_get_Key_m3241860519
pxj:_U3CMouseDragOutsideRectU3Ec__Iterator1_Reset_m2233410497
m2:__GLOBAL__sub_I_Runtime_Camera_5_cpp
lId:__ZN10Collider2DC2E10MemLabelId18ObjectCreationMode
Cxf:_UNITY_tt_face_load_fpgm
Mya:__Z17IsObjectAvailablei
U5a:__ZN12InputManagerD0Ev
xjl:_ExecutionContext_Capture_m681135907
Qkn:_TlsException__ctor_m818940807
Ohe:__ZN5physx2Sc9RigidCore20removeShapeFromSceneERNS0_9ShapeCoreEb
BBi:_InternalEnumerator_1_System_Collections_IEnumerator_get_Current_m2889979481_AdjustorThunk
h9o:_posix_memalign
Jcf:__ZN5physx11RTreeCooker18buildFromTrianglesERNS_2Gu5RTreeEPKNS_6PxVec3EjPKtPKjjRNS_6shdfnd5ArrayIjNSB_19ReflectionAllocatorIjEEEEPNS0_13RemapCallbackEfNS_17PxMeshCookingHint4EnumE
Zbe:__ZN5physx6shdfnd5ArrayIPvNS0_15InlineAllocatorILj256ENS0_19ReflectionAllocatorINS_14NpArticulationEEEEEE15growAndPushBackERKS2_
Bxo:__ZN6il2cpp6icalls8mscorlib6System9ThreadingL13cache_cultureEP12Il2CppThreadP12Il2CppObjecti
cwl:_ASN1_GetBytes_m3305539297
D9:__ZNK15MonoScriptCache7ReleaseEv
V_e:__ZN5physx9PxTaskMgrC2EPNS_15PxCpuDispatcherEPNS_15PxGpuDispatcherEPNS_15PxSpuDispatcherE
Tg:_glBindTexture
x7o:_snprintf
jpm:_Array_InternalArray__ICollection_CopyTo_TisKeyValuePair_2_t2401056908_m4025041902_gshared
Fnm:_KeyValuePair_2__ctor_m844205450_gshared
fEn:_TMP_WordInfo_GetWord_m3252148633
xip:_emscripten_glVertexAttrib1fv__wrapper
adj:_InvokableCallList_RemoveListener_m1769379719
oGc:__ZN16LevelGameManagerC2E10MemLabelId18ObjectCreationMode
_ij:_MonoBehaviour_Internal_IsInvokingAll_m2820042090
Vgp:_emscripten_glGetProgramInfoLog__wrapper
Fv:__ZN25AnimatedPropertyEvaluator29BindCurveToScriptingObjectPtrERKN13AnimationClip10FloatCurveEj18ScriptingObjectPtrb
a6o:_U3CRevealWordsU3Ec__Iterator1_Reset_m1198161461
I8k:_String_Equals_m1744302937
gcj:_Display__ctor_m501911701
kOm:_ReadOnlyCollection_1_System_Collections_Generic_IListU3CTU3E_Insert_m1020890112_gshared
MQk:_Hashtable__cctor_m4112166779
oqh:_DefaultControls_SetDefaultTextValues_m1943359795
ofi:__Z62RuntimeInvoker_TMP_CharacterInfo_t3185626797_Int32_t2950945753PFvvEPK10MethodInfoPvPS4_
m4b:__Z19SetupMotionMatricesR6CameraR18RPDataMotionVector
G3n:__ZL7log2_64y
T3f:_TMP_SubMeshUI_UpdateMeshPadding_m567989066
xH:__ZN26AnimatorControllerPlayable18PrepareForPlaybackERN7mecanim6memory9AllocatorE
LH:__ZN8Animator11AnimatorJob11AddPlayableEP17AnimationPlayablef
kuh:_GridLayoutGroup_get_cellSize_m2967185053
aRe:__ZN5physx19PxsMaterialCombiner24combineIsotropicFrictionERKNS_15PxsMaterialDataES3_
qmn:_PKCS12_Decrypt_m1280162536
jUl:_Dictionary_2_Add_m1679778769_gshared
KBi:_InternalEnumerator_1_get_Current_m3081223448_gshared
_En:_Event_get_isMouse_m1058251071
eCm:_AnchorInfo_get_IsPosition_m2100552190
kGa:__ZN10VertexDataC2ERKS_17ShaderChannelMask10MemLabelId
P$c:__ZL22Transfer_ManagedObjectI9JSONWriteLb1EEvRK29SerializationCommandArgumentsR31RuntimeSerializationCommandInfo
wSf:__Z66Register_UnityEngine_Networking_UnityWebRequest_get_isNetworkErrorv
qsf:_otv_JSTF_validate
UDa:__ZN22CreateGpuProgramOutputC2Ev
pdj:_PersistentCallGroup_Initialize_m4253175514
OJk:_Boolean_System_IConvertible_ToChar_m4279513009_AdjustorThunk
FQk:_Hashtable__ctor_m1763145853
z7j:_NumberFormatter_ScaleOrder_m3813786990
WUl:_Enumerator_System_Collections_IEnumerator_Reset_m2550940120_gshared
iyl:_PrivateKeyInfo_DecodeDSA_m771724585
xqm:_Array_InternalArray__Insert_TisProgressHandler_t926933139_m28642970_gshared
X5o:_U3CRevealCharactersU3Ec__Iterator0_Reset_m322011311
Saf:__ZN5physx7Cooking16cookTriangleMeshERKNS_18PxTriangleMeshDescERNS_14PxOutputStreamE
xym:_Interval_get_Size_m4163671410_AdjustorThunk
Xdf:__ZN14CompletionTask4InitEPN5physx7PxSceneE
j9d:__ZN5physx2Sc7ElementD0Ev
Epl:_UInt32_System_IConvertible_ToSByte_m1061556466
odf:__ZN5physx6shdfnd10Foundation7releaseEv
Joi:_WellKnownClientTypeEntry__ctor_m2471908952
X7n:__ZN6il2cpp2vm5Class4InitEP11Il2CppClass
gd:invoke_vidi
P8j:_NumberFormatter_FormatRoundtrip_m19342689
noi:_RemotingServices_CreateClientProxyForContextBound_m783705199
sMc:__ZNK15GUIEventManager15GetEventAtIndexEi
jHf:__ZN2UI14CanvasRenderer17SyncDirtyElementsER8JobFence
jBl:_Enumerator_System_Collections_IEnumerator_get_Current_m3816090481_gshared
ELo:__ZN6il2cpp5utils11StringUtils15StringDuplicateEPKc
qhm:_DefaultComparer_Equals_m2480133610_gshared
kDa:__ZNK9ShaderLab21ShaderRasterStateDesc16ToGfxRasterStateEPK19ShaderPropertySheetS3_R14GfxRasterState
Uwk:_Array_Sort_TisVector3_t3722313464_m1915176437_gshared
gVo:__ZN6il2cpp2os9EventImplC2Ebb
Eid:__Z12RangedRandomR5RandNRKiS2_
Y5f:_TMP_Text_set_maxVisibleCharacters_m1275491376
oEj:_ScrollRect_OnInitializePotentialDrag_m3139711961
L1m:_List_1_get_Item_m2113769949_gshared
fAj:_MaskableGraphic_OnTransformParentChanged_m329502413
LCa:__ZN12FlareManager12RemoveCameraER6Camera
V5:__Z20IsMatrixBuiltinParamPKcPi
xXi:_SslStream_BeginWrite_m831482228
q8k:_String_memcpy4_m979367827
Bhl:_UnicodeEncoding_GetBytesInternal_m1902824297
rGc:__ZN8Renderer19PostInitializeClassEv
AOj:_Array_FindIndex_TisRuntimeObject_m2504082708_gshared
fHf:__ZNSt3__26__treeINS_12__value_typeINS_4pairIKiS3_EEN2UI14DepthSortLayerEEENS_19__map_value_compareIS4_S7_NS_4lessIS4_EELb1EEE13stl_allocatorIS7_L18MemLabelIdentifier1ELi16EEE25__emplace_unique_key_argsIS4_JRKNS_21piecewise_construct_tENS_5tupleIJOS4_EEENSK_IJEEEEEENS2_INS_15__tree_iteratorIS7_PNS_11__tree_nodeIS7_PvEEiEEbEERKT_DpOT0_
oom:_Array_InternalArray__ICollection_Add_TisSpriteData_t3048397587_m2279685385_gshared
hon:_X509Chain_FindCertificateRoot_m1937726457
c4k:_StreamAsyncResult_get_AsyncWaitHandle_m3390046559
WKf:__ZN11UnityEngine15PlatformWrapper21GetVRPlayAreaGeometryER13dynamic_arrayI8Vector3fLj0EE
sRo:__ZN6il2cpp6icalls8mscorlib6System8Delegate23CreateDelegate_internalEP20Il2CppReflectionTypeP12Il2CppObjectP22Il2CppReflectionMethodb
kCl:_Enumerator_System_Collections_IEnumerator_get_Current_m921113401_AdjustorThunk
wJb:__ZN18DelayedCallManager18CancelCallDelayed2E4PPtrI6ObjectEPF15CallObjectStatePS1_PvES7_
Pwa:__ZN25ThreadsafeLinearAllocator10ReallocateEPvji
Vsb:__Z18Transfer_BlittableI14SafeBinaryReadLb1E11QuaternionfEvRK29SerializationCommandArgumentsR31RuntimeSerializationCommandInfo
tfe:__ZNK5physx18PxArticulationLink8isKindOfEPKc
Uia:__ZN18SpriteAtlasManagerD0Ev
fz:__ZN7mecanim9animation10SampleClipERKNS0_12ConstantClipEjPf
Ydh:_TextContainer_OnRectTransformDimensionsChange_m2148637261
Uzl:_Enumerator_System_Collections_IDictionaryEnumerator_get_Key_m1314958700_gshared
c_a:__ZN10Matrix4x4f8TransferI14SafeBinaryReadEEvRT_
Bn:FUNCTION_TABLE_vifiiiiiiiiiiiiiiiiii
pti:_CryptographicUnexpectedOperationException__ctor_m2381988196
Hpo:__ZN14dense_hash_mapI10KeyWrapperIPK22Il2CppGenericParameterEPK24MonoGenericParameterInfoN6il2cpp5utils11PointerHashIS2_EENS4_14EqualsComparerINSt3__28equal_toIS3_EEEENSD_9allocatorINSD_4pairIKS4_S7_EEEEE15set_deleted_keyERSJ_
uH:__ZN14AvatarPlayback8StopTimeEv
nEi:_InternalEnumerator_1_System_Collections_IEnumerator_get_Current_m4213507601_gshared
hda:__Z6AppendRKN4core12basic_stringIcNS_20StringStorageDefaultIcEEEEPKc
ugk:_Queue_Clone_m178259971
P5i:_Cookie_ToString_m3245013858
dEo:__ZN6il2cpp2vm6Object12NullableInitEPhP12Il2CppObjectP11Il2CppClass
Toa:__ZN9Scripting11UnityEngine16TrackedReference12CleanupProxyEv
MTi:__KeysEnumerator_MoveNext_m4289758929
ouo:__ZN6il2cpp2vm6Thread10InitializeEv
hof:__ZN20TextRenderingPrivate19NativeTextGeneratorC2ERK11UTF16StringPNS_8FontImplE11ColorRGBA32ifRK8Vector2fbifiibffbbP13dynamic_arrayIN2UI8UIVertexELj0EE
nHn:_GUIUtility_RemoveCapture_m1294193818
wSb:__ZN7ApiGLES18ClearBufferSubDataEjN2gl12BufferTargetEll
Qvc:__Z37Camera_Get_Custom_PropAllCamerasCountv
PSa:__ZN14Texture2DArray8TransferI18StreamedBinaryReadILb0EEEEvRT_
Pie:__ZN5physx15NpActorTemplateINS_18PxArticulationLinkEED2Ev
yXc:__Z38Register_UnityEngine_GUIStyle_get_namev
ezf:_Split_Cubic
pb:invoke_fiiii
Owj:_InputField_OnSubmit_m3583210804
wQe:__ZN5physx2Sc32DefaultClothInterCollisionFilterEPvS1_
dEm:_Uri_CheckHostName_m2213216182
z7i:_Request_U3CSendU3Em__0_m3036197640
LUj:_HMAC_set_Key_m3535779141
aZf:_TMP_InputField_get_asteriskChar_m1201011147
UNk:_ArrayListWrapper_Contains_m2641184447
A9k:_WindowsIdentity__ctor_m3086466707
Ryf:_ft_black_render
qhi:__Z92RuntimeInvoker_RuntimeObject_Int32_t2950945753_Int16_t2552820387_RuntimeObject_RuntimeObjectPFvvEPK10MethodInfoPvPS4_
vSh:__Z177RuntimeInvoker_Int32_t2950945753_RuntimeObject_Int32_t2950945753_Int32_t2950945753_RuntimeObject_Int32_t2950945753_EncoderFallbackBufferU26_t2343550713_CharU5BU5DU26_t3299466565PFvvEPK10MethodInfoPvPS4_
cep:dynCall_viiifi
jVb:__ZN18GfxFramebufferGLES20ActiveContextChangedEPP17RenderSurfaceBaseS2_
Epb:__Z19PluginsRenderMarkeri
xK:__ZN10HumanTrait18InitializeBoneNameEv
Ojc:__ZNSt3__26vectorIN9ShaderLab20SerializedSubProgram15StructParameterENS_9allocatorIS3_EEE6assignINS_11__wrap_iterIPS3_EEEENS_9enable_ifIXaasr21__is_forward_iteratorIT_EE5valuesr16is_constructibleIS3_NS_15iterator_traitsISC_E9referenceEEE5valueEvE4typeESC_SC_
tnm:_KeyValuePair_2_ToString_m823870646_gshared
ECo:__ZNSt3__214__split_bufferIN6il2cpp2vm5Image20EmbeddedResourceDataERNS_9allocatorIS4_EEEC2EjjS7_
IMg:__ZL66SkeletonBone_t4134054672_CustomAttributesCacheGenerator_parentNameP21CustomAttributesCache
dse:__ZNK5physx7NpCloth25getNbSelfCollisionIndicesEv
PZm:_U3CSortU3Ec__Iterator21_Reset_m1241298888_gshared
bJf:__Z69Register_UnityEngine_Analytics_UnityAnalyticsHandler_Internal_Destroyv
MWo:_EnemyBossScript_Update_m512555062
oZi:_X509Certificate2Collection_Add_m3151757943
Okf:__ZN9Scripting11UnityEngine13CharacterInfo9InitProxyEv
Byd:__ZNSt3__227__insertion_sort_incompleteIR15DepthComparitorP8DepthHitEEbT0_S5_T_
Fjk:_DateTime_AddMilliseconds_m3713972790
NPk:_CaseInsensitiveHashCodeProvider_get_DefaultInvariant_m4264275163
MSh:__Z195RuntimeInvoker_Int32_t2950945753_RuntimeObject_Int32_t2950945753_Int32_t2950945753_Int32_t2950945753_RuntimeObject_DecoderFallbackBufferU26_t3866396827_ByteU5BU5DU26_t4057885439_SByte_t1669577662PFvvEPK10MethodInfoPvPS4_
tIe:__ZN5physx2Sc5Scene22setNbContactDataBlocksEj
cZ:__ZN5physx14PxLightCpuTask12addReferenceEv
FFa:__ZNK15InstancingProps35FillInstanceBufferDispatchConstantsIN10Instancing14RenderLoopArgsEEEvPPvjjRK19ShaderPropertySheetRKT_
Y9h:__Z86RuntimeInvoker_Int32_t2950945753_Color32_t2600501292_Color32_t2600501292_RuntimeObjectPFvvEPK10MethodInfoPvPS4_
qZa:__ZN21EnlightenSceneMapping8TransferI19StreamedBinaryWriteILb0EEEEvRT_
zFo:__ZN6il2cpp2gc16GarbageCollector19InitializeFinalizerEv
IC:__ZN7mecanim8skeleton18CreateSkeletonMaskEjPKNS0_19SkeletonMaskElementERNS_6memory9AllocatorE
iYc:__ZN10GUIManager10DoGUIEventER10InputEventb
Oyb:__Z35Transfer_Blittable_FixedBufferFieldI24GenerateTypeTreeTransferxEvRK29SerializationCommandArgumentsR31RuntimeSerializationCommandInfo
etf:_otv_LangSys_validate
Ooj:_RectOffset_get_right_m2294081512
D6j:_MonoType_getFullName_m837685882
D1f:_TMP_Settings_GetSettings_m2819480199
rsm:_Array_InternalArray__set_Item_TisLink_t544317964_m1234244240_gshared
Ixf:_UNITY_TT_Init_Glyph_Loading
zMm:_ReadOnlyCollection_1_System_Collections_Generic_ICollectionU3CTU3E_Clear_m1624648842_gshared
GKc:__Z20CalculateSqrDistanceRK8Vector3fRK4AABB
$df:__ZN14PhysicsManager15ProcessContactsEv
lAk:_Array_InternalArray__get_Item_TisProgressHandler_t926933139_m2560246503_gshared
hri:_SerializationInfo_GetBoolean_m1756153320
_Sd:__ZN21BoxTraceSegmentReport7onEventEjPj
afe:__ZN5physx2Sc21ArticulationJointCore13setSwingLimitEff
SR:__Z32AudioMixerDuckingProcessCallbackP21UnityAudioEffectStatePfS1_jii
ZXd:__ZL20HullProjectionCB_BoxRKN5physx2Gu13PolygonalDataERKNS_6PxVec3ERKNS_2Cm8Matrix34ERKNS7_23FastVertex2ShapeScalingERfSE_
uij:_Mesh_get_uv2_m3615020997
qKe:__ZN5physx17PxcNpMemBlockPool19releaseUnusedBlocksEv
Kim:_EqualityComparer_1_System_Collections_IEqualityComparer_Equals_m4172006498_gshared
VWe:__ZN5physx14PxsAABBManager21selfCollideAggregatesEPKNS_19AggregateSortedDataE
TN:__ZN12AudioManager8TransferI24GenerateTypeTreeTransferEEvRT_
mhj:_Mathf_Round_m4098141538
Bkd:__ZN16CustomDataModuleD0Ev
xBc:__ZZL31RegisterRectTransformPropertiesR22GenericPropertyBindingEN28Wrapper_RectTransformPivotx013GetFloatValueEPv
wxo:__ZN6il2cpp6icalls8mscorlib6System9Threading6Thread20Thread_free_internalEP12Il2CppThreadi
hNb:__ZNK11PreloadData18GetInstanceIDArrayER13dynamic_arrayIiLj0EE
dAm:_PatternCompiler_EmitRepeat_m697083858
hSg:__ZL64UnityAnalyticsHandler_t3011359618_CustomAttributesCacheGeneratorP21CustomAttributesCache
LTi:__KeysEnumerator_get_Current_m2996478063
K$f:_TMP_LinkInfo_GetLinkText_m1788600626
scp:dynCall_iifff
sKd:__ZN19ControllerHitReportD2Ev
Aaa:__Z32scripting_class_get_assemblyname17ScriptingClassPtr
_xd:__ZN9b2Simplex9ReadCacheEPK14b2SimplexCachePK15b2DistanceProxyRK11b2TransformS5_S8_
t2h:__Z99RuntimeInvoker_Boolean_t97287965_Int32_t2950945753_PointerEventDataU26_t867828220_SByte_t1669577662PFvvEPK10MethodInfoPvPS4_
lKd:__Z50Register_UnityEngine_Rigidbody2D_AddForce_Injectedv
hTe:__ZN5physx26PxcFrictionPatchStreamPairC2ERNS_17PxcNpMemBlockPoolE
VCi:_InternalEnumerator_1_get_Current_m2128158355_AdjustorThunk
_mb:__ZN9GfxDevice21RegisterNativeTextureE9TextureIDi16TextureDimension
Ysh:_GraphicRegistry__ctor_m1851575309
pAf:__Z13RegisterClassIN20TextRenderingPrivate8TextMeshEEvPKc
uSo:__ZN6il2cpp6icalls8mscorlib6System10Reflection4Emit11TypeBuilder20create_generic_classEP27Il2CppReflectionTypeBuilder
uVb:__ZNK16UniformCacheGLES6SubmitEjRK13dynamic_arrayIN20GpuProgramParameters14ValueParameterELj0EERKS0_IiLj0EE
yLj:_PlayableHandle_IsPlayableOfType_TisAnimationLayerMixerPlayable_t3631223897_m201603007_gshared
xW:__Z60Register_UnityEngine_AudioListener_GetNumExtensionPropertiesv
Mj:_emscripten_glUniformMatrix4fv
wvo:__ZN15dense_hashtableINSt3__24pairIK10KeyWrapperINS1_IP11Il2CppClassjEEES4_EES6_N6il2cpp8metadata14ArrayClassHashEN14dense_hash_mapIS6_S4_SB_NS6_14EqualsComparerINSA_17ArrayClassCompareEEENS0_9allocatorIS8_EEE9SelectKeyESF_SH_E13set_empty_keyERKS8_
Gdb:__ZN12ScriptMapperD2Ev
p_o:_LaserBeamCollision_OnCollisionEnter2D_m3419821879
rOd:__ZN9Rigidbody13AwakeFromLoadE17AwakeFromLoadMode
yij:_Mesh_get_colors32_m1253190811
h6c:__ZN9SubModule8TransferI14SafeBinaryReadEEvRT_
GOo:_GC_stopped_mark
STf:__ZL59__ManagedRegistrationHelperFunction_SubsystemDescriptorBasePv
Y7i:_AnimationCurve_Finalize_m2397002729
K5c:__ZN14ParticleSystem15AddCustomLightsERK27LocalLightCullingParametersRK11CullResultsR12ActiveLightsRi9LightType
Jke:__ZNK5physx14NpSceneQueries10multiQueryINS_12PxOverlapHitEEEbRKNS_15MultiQueryInputERNS_13PxHitCallbackIT_EENS_7PxFlagsINS_9PxHitFlag4EnumEtEEPKNS_12PxQueryCacheERKNS_17PxQueryFilterDataEPNS_21PxQueryFilterCallbackEPNS_20BatchQueryFilterDataE
Xji:__Z50RuntimeInvoker_RuntimeObject_ColorTween_t809614380PFvvEPK10MethodInfoPvPS4_
Qqi:_SerializationCallbacks__cctor_m1674315180
BCa:__ZNSt3__26vectorIN12FlareManager10FlareEntryENS_9allocatorIS2_EEE21__push_back_slow_pathIS2_EEvOT_
Cmc:__ZN9ShaderLab20SerializedSubProgram16TextureParameter8TransferI19StreamedBinaryWriteILb0EEEEvRT_
Mb:invoke_fiiiiiiiifiiiif
Amd:__ZN14ParticleSystem23RendererBecameInvisibleEv
Rva:__ZNK7Hash12812PackToUInt32Ev
RFl:_KeyCollection__ctor_m1035147995_gshared
KAf:__ZZN20TextRenderingPrivate8TextMesh15InitializeClassEvEN31FunctorImpl_299kDidAddComponent4CallEPviR11MessageData
sca:__ZNSt3__227__insertion_sort_incompleteIRNS_6__lessI14ObjectLoadDataS2_EEPS2_EEbT0_S6_T_
N1:__ZN11UnityEngine15CloudWebService16SessionContainer8AddEventEPNS0_14CloudEventInfoE
drb:__Z4TrimRKN4core12basic_stringIcNS_20StringStorageDefaultIcEEEES5_
MZi:_SPKey_Equals_m4205549017
Wyk:_Dictionary_2_Do_ICollectionCopyTo_TisKeyValuePair_2_t3842366416_m1399105608_gshared
C1i:_X509Certificate2_Import_m4026562329
Zkk:_Convert_ToDouble_m996590115
sEl:_Enumerator_System_Collections_IEnumerator_get_Current_m2763095718_AdjustorThunk
Njp:_glGetStringi__wrapper
_fm:_DefaultComparer_Equals_m4141672650_gshared
_Za:__ZN10VertexData8TransferI14SafeBinaryReadEEvRT_
hee:__ZN5physx19NpArticulationJointD0Ev
pia:__ZN13RuntimeStaticI12AdsIdHandlerLb0EE16StaticInitializeEPv
uQo:_GC_malloc_atomic
hgf:__ZN5physx9NpPhysics14createInstanceEjRNS_12PxFoundationERKNS_17PxTolerancesScaleEbPNS_20PxProfileZoneManagerE
zef:__Z59Register_UnityEngine_Physics_INTERNAL_CALL_Internal_Raycastv
anm:_HashSet_1_GetEnumerator_m3346268098_gshared
y8l:_List_1_Insert_m3678598124_gshared
Uwj:_Selectable_get_animator_m2899312855
D8:__ZL20SortItemByInstanceIDRKN18AwakeFromLoadQueue4ItemES2_
bPn:_Vector2_op_Multiply_m2347887432
Mgf:__ZN5physx6shdfnd5ArrayIPvNS0_15InlineAllocatorILj256ENS0_19ReflectionAllocatorINS_24NpPtrTableStorageManager8PtrBlockILi16EEEEEEEE15growAndPushBackERKS2_
bUi:_TypeConverterAttribute__ctor_m1774069684
TC:__ZNK34AnimationStateMachineMixerPlayable26GetInterruptedPosePlayableEv
FNf:__ZN20UnityConnectSettings8TransferI24GenerateTypeTreeTransferEEvRT_
k7c:__ZN25IParticleSystemProperties8PropertyIfNS_11ClampRadiusEE8TransferI14SafeBinaryReadEEvRT_PKc
zF:__ZN34BlobWriteTransferSTLStyleArrayImplI22OffsetPtrArrayTransferIbEEclERS1_17TransferMetaFlagsR9BlobWrite
YDc:__ZZN12MeshRenderer15InitializeClassEvEN29FunctorImpl_205kDidDeleteMesh4CallEPviR11MessageData
JEk:_Byte_ToString_m4063101981
c6j:_MonoType_GetConstructors_m2574682189
Xfh:_TextMeshProUGUI_UpdateVertexData_m3399849512
dfo:__ZN6il2cpp2vm13MetadataCache31GetParameterDefinitionFromIndexEi
OAd:__ZN25b2SynchronizeFixturesTask7TaskJobEPS_j
rqj:_SceneManager_LoadSceneAsyncNameIndexInternal_m4031498323
$oe:__ZN5physx7NpShape13setRestOffsetEf
BSf:__Z69Register_UnityEngine_Networking_UnityWebRequest_GetResponseHeaderKeysv
Wxe:__ZN5physx3Scb14ParticleSystemC2ERKNS_11PxActorType4EnumEjb
PVi:_ServicePointManager_FindServicePoint_m4119451290
LQm:_ReadOnlyCollection_1_System_Collections_IList_Clear_m2007013334_gshared
Afa:__ZL31InitializeRendererUpdateManagerPv
iCh:_ParameterInfo__ctor_m2779026345
zoa:__ZN9Scripting11UnityEngine18WaitForFixedUpdate12CleanupProxyEv
Bpe:__ZN5physxL11getTriangleERKNS_2Gu12TriangleMeshEjPNS_6PxVec3EPKS4_PKvRKNS_2Cm8Matrix34Eb
Sna:__ZL46__ManagedRegistrationHelperFunction_RectOffsetPv
W7j:_NumberFormatter_get_IsZeroInteger_m2263284741
QMd:__ZN14SafeBinaryRead21TransferSTLStyleArrayINSt3__26vectorIjNS1_9allocatorIjEEEEEEvRT_17TransferMetaFlags
Gqe:__ZNK5physx7NpCloth16lockParticleDataEv
Gkn:_X509Certificate_PEM_m2020851166
Bsi:_SByte_Equals_m865896384_AdjustorThunk
Sqm:_Array_InternalArray__Insert_TisDateTime_t3738529785_m2308632330_gshared
S5a:__ZN11TimeManager8TransferI19StreamedBinaryWriteILb0EEEEvRT_
A$j:_TlsServerCertificateRequest_ProcessAsTls1_m3214041063
Atf:_compare_uni_maps
Fgn:_Collection_1_Insert_m3559276190_gshared
HLf:__ZN11UnityEngine15PlatformWrapper27GetGraphicsCapsSupportFlagsEv
Xyk:_Dictionary_2_Do_ICollectionCopyTo_TisRuntimeObject_m3695543300_gshared
eMe:__ZN5physx13NpRigidStatic9visualizeERNS_2Cm12RenderOutputEPNS_7NpSceneE
uCb:__ZN12NativeBufferI16Converter_StringE15SetupForWritingER9ArrayInfo
Gvl:_SequentialSearchPrimeGeneratorBase_GenerateSearchBase_m3595783982
NL:__ZN13RuntimeStaticI18AssetBundleManagerLb1EE16StaticInitializeEPv
olp:___cxa_end_catch__wrapper
ek:_emscripten_glVertexAttrib3fv
Jnd:__ZL24GenerateParticleGeometryIL24ParticleSystemRenderMode0ELb1ELb0EL25ParticleSystemRenderSpace4EEvPfRK22ParticleSystemTempDataRK26ParticleSystemRendererDataRK21ParticleSystemModulesRK23ParticleSystemParticlesRK31ParticleSystemParticlesTempData
BOe:__ZN5physx6shdfnd8PoolBaseINS_2Sc35ParticleElementRbElementInteractionENS0_19ReflectionAllocatorIS3_EEE15disposeElementsEv
G5k:_SHA1CryptoServiceProvider_Dispose_m1653611664
KMk:_Char_ToString_m278452217
Sok:_DateTime_System_IConvertible_ToUInt16_m4182197229_AdjustorThunk
j5n:_Physics_RaycastAll_m447622039
VTf:__ZL50__ManagedRegistrationHelperFunction_ReferencePointPv
tTj:_BigInteger_op_RightShift_m460065452
hKb:__ZN13MonoBehaviour22DoScriptRebuildWarningEv
cJj:_Array_InternalArray__ICollection_Contains_TisTMP_MeshInfo_t2771747634_m644520357_gshared
hJc:__ZNK10GameObject22GetComponentPtrAtIndexEi
SEc:__ZZL23RegisterLightPropertiesR22GenericPropertyBindingEN22Wrapper_LightSpotAngle13GetFloatValueEPv
hBj:_RectMask2D_get_rootCanvasRect_m2913509457
nln:_TlsStream_ReadInt24_m3096782201
Ajh:_ExecuteEvents_get_cancelHandler_m1220395193
Tzf:__Z38TextGenerator_Get_Custom_PropLineCountP12Il2CppObject
Sjn:_InternalAsyncResult_SetComplete_m963842420
Ufl:_Encoding_GetEncoding_m2801244948
IYc:__ZN11IMGUIModule25GetGUIStyleScriptingClassEv
_vf:_tt_get_interface
Wjn:_SslStreamBase_EndRead_m495357226
gxo:__ZN6il2cpp5utils9PathUtils7CombineIcEENSt3__212basic_stringIT_NS3_11char_traitsIS5_EENS3_9allocatorIS5_EEEERKSA_SC_
dXe:__ZN5physx14PxsAABBManager16processBPResultsERKNS_20PxsComputeAABBParamsE
kVe:__ZN5physx23PxsBroadPhaseContextSapD2Ev
kVh:__Z64RuntimeInvoker_RuntimeObject_SByte_t1669577662_SByte_t1669577662PFvvEPK10MethodInfoPvPS4_
Bso:_il2cpp_set_config_dir
bKc:__ZN13PlayableGraph21InvalidateMultithreadEv
PGn:_GUIScrollGroup_CalcHeight_m3173593443
Pcf:__ZN5physx12SubSortQuickC2EPjPKNS_10PxBounds3VEjf
rdk:_EnumBuilder_GetConstructorImpl_m3068576149
D7:__Z18ConvertUTF16toUTF8PPKtS0_PPhS2_15ConversionFlags
mKo:__ZN6il2cpp2os20PathErrnoToErrorCodeERKNSt3__212basic_stringIcNS1_11char_traitsIcEENS1_9allocatorIcEEEEi
NWg:__ZL68InputField_t3762917431_CustomAttributesCacheGenerator_m_KeyboardTypeP21CustomAttributesCache
KNc:__Z24GetActualTargetFrameRatev
t3n:__ZL16my_g_bit_nth_msfj
rwk:_Array_Sort_TisSingle_t1397266774_m2695228512_gshared
J7m:_Enumerator_MoveNext_m3662315381_AdjustorThunk
i$j:_TlsClientFinished_ProcessAsTls1_m2429863130
p1b:__Z23SetupStereoFlareElementP11FlareVertexRK8Vector2fS3_S3_RK11ColorRGBA32RK10Matrix4x4fRK8Vector3fb
RIj:_Array_InternalArray__ICollection_Contains_TisUInt16_t2177724958_m3393176156_gshared
j8n:__ZN6il2cpp2vm5Class15GetInstanceSizeEPK11Il2CppClass
yWf:_TMP_Dropdown_SetAlpha_m201864524
ab:invoke_iiiifiiii
uBl:_Enumerator_System_Collections_IDictionaryEnumerator_get_Key_m2502357460_AdjustorThunk
I5f:_TMP_Text_set_enableCulling_m1094505026
Tqd:__ZN11ShapeModule13DidDeleteMeshEv
ete:__ZNK5physx2Sc9ClothCore16getRestPositionsEPNS_6PxVec4E
SRe:__ZN5physx20PxcSweepConvexConvexERKNS_11PxsCCDShapeES2_PKNS_12PxsRigidBodyES5_RKNS_11PxTransformES8_S8_S8_fRNS_6PxVec3ESA_RNS_10PxcNpCacheERNS_18PxcNpThreadContextEf
xdl:_String_Join_m2050845953
lwe:__ZN5physx15PxsParticleDataD0Ev
OVb:__ZL19BlitFramebufferImplRN4gles23BlitFramebufferDrawQuadER9GfxDevice9TextureIDRK8Vector4f
Iaf:__ZN5physx6shdfnd5ArrayIPvNS0_19ReflectionAllocatorIN17PxcPoolMallocData9PoolData8EEEE15growAndPushBackERKS2_
Mtm:_Array_qsort_TisChar_t3634460470_m1841999294_gshared
qcp:dynCall_viiiiiiiiiiiiii
lnf:_UNITY_FT_List_Add
PFc:__ZN14Texture2DArray11InitTextureEiii13TextureFormatb
OPi:_Comparer_1_System_Collections_IComparer_Compare_m562585159_gshared
Kun:_InvokableCall_1_Invoke_m1524307439_gshared
CNd:__ZN5physx15PxGeometryQuery14getWorldBoundsERKNS_10PxGeometryERKNS_11PxTransformEf
tue:__ZN5physx2Sc9ClothCore18setSolverFrequencyEf
DRc:__Z41Camera_CUSTOM_WorldToScreenPoint_InjectedP12Il2CppObjectRK8Vector3fRS1_
Ief:__ZN8ColliderC2E10MemLabelId18ObjectCreationMode
wqo:__ZN15dense_hashtableINSt3__24pairIK10KeyWrapperINS1_IPK11Il2CppImageP11Il2CppClassEEEjEES9_17ReflectionMapHashIS8_EN14dense_hash_mapIS9_jSD_NS9_14EqualsComparerINS0_8equal_toIS8_EEEENS0_9allocatorISB_EEE9SelectKeyESI_SK_E14squash_deletedEv
N6k:_SHAConstants__cctor_m1699027474
m6a:__ZN9InputAxis8TransferI18StreamedBinaryReadILb0EEEEvRT_
XAd:__ZN39b2PrepareDiscreteIslandContactIndexTask7TaskJobEPS_j
VXd:__ZN5physx2Gu16buildPartialHullERKNS0_13PolygonalDataEPNS0_12SupportLocalERNS0_14SeparatingAxesERKNS_6shdfnd3aos5Vec3VESC_
J8a:__Z14resize_trimmedINSt3__26vectorIN4core12basic_stringIcNS2_20StringStorageDefaultIcEEEE13stl_allocatorIS6_L18MemLabelIdentifier13ELi16EEEEEvRT_j
g2:__GLOBAL__sub_I_Runtime_2D_SpriteAtlas_0_cpp
Dtb:__Z18Transfer_BlittableI14SafeBinaryReadLb0EaEvRK29SerializationCommandArgumentsR31RuntimeSerializationCommandInfo
OMk:_CharEnumerator_System_Collections_IEnumerator_get_Current_m1328529384
drk:_DBNull__ctor_m3431698857
CRl:_Dictionary_2_CopyToCheck_m2443857744_gshared
Led:__ZN11NoiseModule17CalculateNoiseJobILi3ELb1ELb1EEEvP12NoiseJobData
PXa:__ZN4core8hash_setINS_4pairIKiiLb0EEENS_9hash_pairINS_4hashIiEES2_iEENS_10equal_pairINSt3__28equal_toIiEES2_iEEE6insertERKS3_
u7k:_TripleDES_IsWeakKey_m2147489852
vde:__ZNK5physx2Sc16ArticulationCore17releaseDriveCacheERNS_9PxcFsDataE
xBj:_GetRayIntersectionAllCallback_Invoke_m1316694896
Sxf:_UNITY_FT_List_Iterate
J1d:__ZN5physx11NpAggregate7releaseEv
$Lk:_Char_System_IConvertible_ToUInt64_m3536560782
$hm:_EqualityComparer_1__cctor_m3452395357_gshared
sso:__ZN6il2cpp2vm4Type6IsEnumEPK10Il2CppType
P$b:__Z20SyncFenceCullResultsR11CullResults
uXb:__ZN15TextureTFMethod20IsBoneCountSupportedEi
TPn:_Vector3_Min_m1803158933
Euk:_Double_ToString_m3828879243_AdjustorThunk
URa:__ZL8StbAllocjPv
Zxb:__Z22TransferField_NonArrayI17RemapPPtrTransfer27Converter_SimpleNativeClassI8GUIStyleEEvRK23StaticTransferFieldInfoR31RuntimeSerializationCommandInfoRT0_
Voe:__ZN5physx7NpShape12setMaterialsEPKPNS_10PxMaterialEt
EQf:__ZNK20UnityWebRequestProtoI24UnityWebRequestTransport16AtomicRefCounter14RedirectHelper14ResponseHelper15DownloadHandler13UploadHandler18CertificateHandler12HeaderHelper14AsyncOperationE16GetUploadedBytesEv
Myc:__ZNK17AnimationCurveTplIfE20EvaluateWithoutCacheEfRf
j_h:__Z67RuntimeInvoker_Boolean_t97287965_Rect_t2360479859_SByte_t1669577662PFvvEPK10MethodInfoPvPS4_
bEa:__ZN19ShaderPropertySheet10SetTextureERK23FastTexturePropertyNameP7Texture
fbk:_CustomAttributeData__ctor_m2966233049
eoh:_CanvasUpdateRegistry_PerformUpdate_m1793997159
QLc:__ZN4Mesh10SetNormalsEPK8Vector3fj
nIn:_AesManaged_CreateDecryptor_m692040246
pJ:__ZN17AnimationCurveTplIfE8TransferI14SafeBinaryReadEEvRT_
P1m:_List_1__ctor_m808270210_gshared
nQk:_Comparer__ctor_m2580215220
VGk:_ArithmeticException__ctor_m3551809662
tGc:__Z40CleanupRendererAnimationBindingInterfacev
tvc:__ZNSt3__26__treeINS_12__value_typeIN9ShaderLab16FastPropertyNameE10ColorRGBAfEENS_19__map_value_compareIS3_S5_NS_4lessIS3_EELb1EEENS_9allocatorIS5_EEE14__assign_multiINS_21__tree_const_iteratorIS5_PNS_11__tree_nodeIS5_PvEEiEEEEvT_SK_
Dfc:__Z29StdTemplateConversionFunctionIybEbPvR14SafeBinaryRead
wWa:__ZNSt3__26vectorIN15QualitySettings14QualitySettingENS_9allocatorIS2_EEE6assignIPS2_EENS_9enable_ifIXaasr21__is_forward_iteratorIT_EE5valuesr16is_constructibleIS2_NS_15iterator_traitsIS9_E9referenceEEE5valueEvE4typeES9_S9_
r_d:__Z15raycast_capsuleRKN5physx10PxGeometryERKNS_11PxTransformERKNS_6PxVec3ES8_fNS_7PxFlagsINS_9PxHitFlag4EnumEtEEjPNS_12PxRaycastHitEbPFbRSD_PvESG_
G$l:_List_1_CheckMatch_m2969804370_gshared
Kjf:__GLOBAL__sub_I_artifacts_WebGL_codegenerator_0_cpp_5479
G4l:_List_1_CheckCollection_m1671972112_gshared
GXf:_TMP_InputField_AdjustTextPositionRelativeToViewport_m3248409273
Nhl:_UnicodeEncoding_GetPreamble_m3002287178
W3e:__ZNK5physx34PxsSolverConstraintPostProcessTask7getNameEv
VYg:__ZL56Toggle_t2735377061_CustomAttributesCacheGenerator_m_IsOnP21CustomAttributesCache
Lqb:__ZN20GpuProgramParameters14AddVectorParamEPKcii15ShaderParamTypeiiiP16PropertyNamesSet
DPf:__ZN9Scripting19UnityEngineInternal15WebRequestUtils12CleanupProxyEv
zSd:__ZN5physx2Gu23distancePointBoxSquaredERKNS_6PxVec3ES3_S3_RKNS_7PxMat33EPS1_
yif:__ZN5physx9NpPhysics20MeshDeletionListener28onGuMeshFactoryBufferReleaseEPKNS_6PxBaseEtb
_Pf:__ZNK12HeaderHelper3GetERKN4core12basic_stringIcNS0_20StringStorageDefaultIcEEEE
j6a:__ZN9InputAxis8TransferI14SafeBinaryReadEEvRT_
S8:__ZNK21ExecutionOrderManager30GetCustomAwakeFromLoadQueueForEPKN5Unity4TypeE
oGe:__ZNK5physx7NpScene9getActorsENS_7PxFlagsINS_15PxActorTypeFlag4EnumEtEEPPNS_7PxActorEjj
ZOf:__Z27RegisterModule_UnityConnectv
tYo:_U3CSpawnEnemyType1U3Ec__Iterator3_MoveNext_m575867635
BSc:__Z32Material_CUSTOM_CreateWithShaderP12Il2CppObjectS0_
tBc:__ZZL31RegisterRectTransformPropertiesR22GenericPropertyBindingEN32Wrapper_RectTransformSizeDeltax013GetFloatValueEPv
a3k:_MemoryStream_Expand_m3554752073
QUk:_DateTimeFormatInfo_get_RoundtripPattern_m796050488
eOe:__ZN5physx11NodeManagerD0Ev
HUo:__ZN6il2cpp2os20ThreadLocalValueImpl8SetValueEPv
Bqj:_ScriptableObject_CreateInstance_m2611081756
k4i:_VertexShakeB_Awake_m2034102834
zyg:__ZL115TouchScreenKeyboard_t731888065_CustomAttributesCacheGenerator_TouchScreenKeyboard_Open_m3609399077____keyboardType1P21CustomAttributesCache
TLi:_InternalEnumerator_1_System_Collections_IEnumerator_get_Current_m1635397542_gshared
H3k:_Path__cctor_m3273994011
mLn:_AnalyticsEventTracker__ctor_m3064238498
l5i:_TMP_TextEventHandler_SendOnCharacterSelection_m191067394
qgn:_Collection_1_System_Collections_IList_Insert_m1105646123_gshared
pJn:_UnityWebRequest_get_isModifiable_m4181352937
tap:__ZNSt11logic_errorD2Ev
Nok:_DateTimeUtils_CountRepeat_m3396693018
rFd:__ZNK17Physics2DSettings22GetTypeVirtualInternalEv
$Yk:_Int32_System_IConvertible_ToUInt64_m2502338186
TQ:__ZN10ObjectPoolIN4FMOD12ChannelGroupENS0_13ChannelGroupIEE7SetSizeEi
ZHn:_SymmetricTransform_FinalDecrypt_m764004682
tPm:_ReadOnlyCollection_1_System_Collections_Generic_ICollectionU3CTU3E_Remove_m2225120515_gshared
jMm:_ReadOnlyCollection_1_System_Collections_IList_RemoveAt_m3030506374_gshared
uuh:_GridLayoutGroup_SetLayoutHorizontal_m2838109254
VNm:_ReadOnlyCollection_1_System_Collections_IList_Remove_m1965826685_gshared
L4c:__ZN9Scripting11UnityEngine26ParticleSystemVertexStream9InitProxyEv
WAm:_Parser_ParseGroupingConstruct_m263270497
BPo:_GC_has_other_debug_info
M_m:_Nullable_1_get_HasValue_m78435089_AdjustorThunk
XOf:__ZN11UnityEngine9Analytics22EventLimitReachedEventC2EjyyRKN4core12basic_stringIcNS2_20StringStorageDefaultIcEEEEb
Cqo:__ZN14dense_hash_mapI10KeyWrapperINSt3__24pairIPK9EventInfoP11Il2CppClassEEEj17ReflectionMapHashIS8_ENS9_14EqualsComparerINS1_8equal_toIS8_EEEENS1_9allocatorINS2_IKS9_jEEEEE15set_deleted_keyERSH_
ore:__ZNK5physx7NpCloth25getMotionConstraintConfigEv
hMm:_ReadOnlyCollection_1_System_Collections_IList_Insert_m1043619507_gshared
wwc:__Z12GUIDToStringRK9UnityGUID
_0j:_RSASslSignatureDeformatter_SetKey_m2204705853
wGo:__ZN6il2cpp6icalls8mscorlib6System4Enum12get_hashcodeEP12Il2CppObject
vT:__ZN11SoundHandleC2ERKS_
atk:_Delegate_CreateDelegate_m1051651521
ax:__ZN17AnimationPlayableC2E18DirectorPlayerType
COf:__ZN22UnityAnalyticsSettingsC2Ev
Fdo:__ZNK6il2cpp5utils11collections13ArrayValueMapIPK10Il2CppType17Il2CppInteropData26InteropDataToTypeConverterNS_8metadata14Il2CppTypeLessENS8_26Il2CppTypeEqualityComparerEE10find_firstERKS5_
$Ol:_ValueCollection_System_Collections_Generic_ICollectionU3CTValueU3E_Add_m2476460902_gshared
y1k:_FileStream_get_CanSeek_m331583577
gt:__ZNSt3__26__sortIR23DependencySortPredicatePN4core4pairIiP9BehaviourLb0EEEEEvT0_S9_T_
sui:_DSAParameters_t1885824122_marshal_pinvoke_back
c0d:__ZN5physx3Cct26CharacterControllerManager24setOverlapRecoveryModuleEb
BD:__ZN8Animator22OnGraphTopologyChangedEP8Playablei
vvl:_Kernel_MultiplyByDword_m1266935086
sLo:__ZN4utf89unchecked8utf8to16INSt3__220back_insert_iteratorINS2_12basic_stringIDsNS2_11char_traitsIDsEENS2_9allocatorIDsEEEEEEPKcEET_T0_SE_SD_
Jz:__ZN17AnimationPlayable18DeallocateBindingsEv
COh:__Z158RuntimeInvoker_Boolean_t97287965_RuntimeObject_Int32U26_t1369213839_Int32_t2950945753_Int32_t2950945753_RuntimeObject_SByte_t1669577662_ContextU26_t3937453398PFvvEPK10MethodInfoPvPS4_
x$h:__Z128RuntimeInvoker_RuntimeObject_RuntimeObject_SByte_t1669577662_SByte_t1669577662_SByte_t1669577662_SByte_t1669577662_RuntimeObjectPFvvEPK10MethodInfoPvPS4_
cJa:__ZN14RenderSettings18TransferDeprecatedI14SafeBinaryReadEEvRT_
Byo:__ZN6il2cpp2vm9Exception27RaiseNullReferenceExceptionERKNS_5utils10StringViewIDsEEP19Il2CppSequencePoint
PEn:_Event__ctor_m526447123
rSo:__ZN6il2cpp2vm14MetadataCallocEjj
hWh:__Z88RuntimeInvoker_RuntimeObject_RuntimeObject_RuntimeObject_RuntimeObject_Int32_t2950945753PFvvEPK10MethodInfoPvPS4_
Unl:_Type_ToString_m3975981286
p4:__ZN12TLSAllocatorI14StackAllocatorE8AllocateEji
CZn:_ConsumeSampleFramesNativeFunction_BeginInvoke_m342678987
R9:__ZN16ScriptingManager18GetMonoScriptCacheEi
YZc:__ZN8JSONRead21TransferSTLStyleArrayI13dynamic_arrayI11KeyframeTplIfELj0EEEEvRT_17TransferMetaFlags
xZb:__ZN20ArchiveStorageHeader13GetDataOffsetERKNS_6HeaderE
iBm:_ExpressionAssertion__ctor_m2554412824
uUc:__Z51Register_UnityEngine_Renderer_set_shadowCastingModev
Jum:_Array_Resize_TisCustomAttributeTypedArgument_t2723150157_m3021884250_gshared
mWl:_Enumerator_System_Collections_IEnumerator_get_Current_m2237476582_gshared
nvo:__ZNK6il2cpp8metadata14ArrayClassHashclERKNSt3__24pairIP11Il2CppClassjEE
Ktb:__Z18Transfer_BlittableI14SafeBinaryReadLb1EyEvRK29SerializationCommandArgumentsR31RuntimeSerializationCommandInfo
Gho:_WeakReference_Finalize_m2841826116
bdd:__ZNSt3__27__sort5IR31SortCollisionEventsByGameObjectP22ParticleCollisionEventEEjT0_S5_S5_S5_S5_T_
k7j:_NullReferenceException__ctor_m3076065613
ZZc:__ZN8JSONRead8TransferIfEEvRT_PKc17TransferMetaFlagsb
VZm:_QuickSort_1_Sort_m543223705_gshared
RVm:_Comparison_1_BeginInvoke_m2128956863_gshared
nnc:__ZN9ShaderLab7Program22ComputeSupportsShadowsEv
rAk:_Array_InternalArray__get_Item_TisChar_t3634460470_m324132692_gshared
vnc:__ZL23AddGpuProgramParametersR20GpuProgramParametersRKNSt3__26vectorIN9ShaderLab20SerializedSubProgram15MatrixParameterENS1_9allocatorIS5_EEEERKNS2_INS4_15VectorParameterENS6_ISB_EEEEiiP16PropertyNamesSet
jLn:_AnalyticsEventParamListContainer__ctor_m1995104893
Ubl:_String_System_IConvertible_ToUInt16_m2888090399
vS:__ZN11AudioSource21ApplyCachedParametersE12SoundChannel
bak:_Assembly_InternalGetType_m3065345470
ZY:__ZN13Simd4iFactoryIN6detail9FourTupleEEC2Eiiii
ODh:_ResourceSet__ctor_m3356376607
F0o:_JSONLazyCreator_get_Tag_m1333726562
Qig:__ZL56_ParameterInfo_t489405856_CustomAttributesCacheGeneratorP21CustomAttributesCache
SYa:__ZN15SerializeTraitsI33EnlightenTerrainChunksInformationE8TransferI14SafeBinaryReadEEvRS0_RT_
Kvd:__ZN6b2Body12SetTransformERK6b2Vec2f
MGc:__ZNK32RendererMaterialAnimationBinding9BindValueER6ObjectRKN11UnityEngine9Animation14GenericBindingERNS3_10BoundCurveE
Blo:__ZN15dense_hashtableINSt3__24pairIK10KeyWrapperIPK10Il2CppTypeEjEES6_N6il2cpp8metadata14Il2CppTypeHashEN14dense_hash_mapIS6_jSB_NS6_14EqualsComparerINSA_26Il2CppTypeEqualityComparerEEENS0_9allocatorIS8_EEE9SelectKeyESF_SH_E4findERS7_
CMl:_Transform_1_Invoke_m1731820209_gshared
CLa:__Z13GetIAnimationv
gSa:__ZL18stbir__support_onef
vzf:__ZN20TextRenderingPrivate8TextMesh11SetFontSizeEi
hbl:_Single_CompareTo_m189772128
M$c:__Z26Transfer_UnityEngineObjectI9JSONWriteLb0EEvRK29SerializationCommandArgumentsR31RuntimeSerializationCommandInfo
MOi:_DefaultComparer_Compare_m4042058291_gshared
bkd:__ZN14VelocityModuleD2Ev
NPa:__ZNSt3__26vectorIN4core12basic_stringIcNS1_20StringStorageDefaultIcEEEE13stl_allocatorIS5_L18MemLabelIdentifier1ELi16EEE6assignINS_11__wrap_iterIPS5_EEEENS_9enable_ifIXaasr21__is_forward_iteratorIT_EE5valuesr16is_constructibleIS5_NS_15iterator_traitsISF_E9referenceEEE5valueEvE4typeESF_SF_
rdp:dynCall_iiiifii
cHf:__ZNSt3__27__sort5IRNS_6__lessIN2UI14DepthSortEntryES3_EEPS3_EEjT0_S7_S7_S7_S7_T_
i1k:_FileLoadException_ToString_m2989457882
EYn:_AudioListener_ClearExtensionProperties_m3849891634
Smf:_UNITY_FT_DivFix
HAk:_Array_InternalArray__get_Item_TisDecimal_t2948259380_m3511003792_gshared
JM:__ZL45__ManagedRegistrationHelperFunction_AudioClipPv
UFd:__ZN17PolygonCollider2D12SetPolygon2DEP9Polygon2D
C8k:_SecurityElement_IsValidAttributeValue_m948345692
$Fc:__ZN14Texture2DArrayC2E10MemLabelId18ObjectCreationMode
Ka:invoke_vdd
Co:FUNCTION_TABLE_fiii
jvg:__ZL75g_UnityEngine_SharedInternalsModule_Assembly_CustomAttributesCacheGeneratorP21CustomAttributesCache
CJc:__Z19RegisterModule_Corev
seh:_TextMeshPro_SetLayoutDirty_m1526565725
gin:_Collection_1_SetItem_m605100262_gshared
C_i:_NetworkStream_EndWrite_m2616051554
vCc:__ZNK30SpriteRendererAnimationBinding12GetPPtrValueERKN11UnityEngine9Animation10BoundCurveE
NAf:__ZZ29InitializeTextRenderingModulevEN27cleanupAfterLoadRegistrator7ForwardEv
W9i:_Camera_ViewportToWorldPoint_Injected_m202562270
gB:__ZN27AnimationLayerMixerPlayable24ProcessAnimationLayerMixEP33AnimationPlayableEvaluationOutputP35AnimationPlayableEvaluationConstantP32AnimationPlayableEvaluationInputS1_if
jSi:_Enumerator_System_Collections_IDictionaryEnumerator_get_Entry_m3271511461_gshared
A3i:_TMPro_InstructionOverlay_Set_FrameCounter_Position_m3760834117
wTo:__ZN6il2cpp6icalls8mscorlib4Mono8Security12Cryptography18KeyPairPersistence19_IsMachineProtectedEP12Il2CppString
Fbc:__Z29PluginsIssueRenderingExtEvent26UnityRenderingExtEventTypePv
SNh:__Z116RuntimeInvoker_RuntimeObject_RuntimeObject_Int32_t2950945753_RuntimeObject_RuntimeObject_RuntimeObject_RuntimeObjectPFvvEPK10MethodInfoPvPS4_
zpi:_MessageFormatter_ReadMethodCall_m2327590823
npd:__Z19UpdateSingleRow2TplIL27ParticleSystemCurveEvalMode2ELS0_2EEvfRK11MinMaxCurveS3_RK23ParticleSystemParticlesPfbiii
DFc:__Z14RandomRotationP9Texture2DPhiiii
Xhf:__ZThn132_N5physx7profile8ZoneImplINS_28PxProfileNameProviderForwardEED1Ev
Zmm:_HashSet_1_Contains_m3173358704_gshared
dNn:_ToggleEvent__ctor_m834619998
FVj:_PKCS1_Encode_v15_m2077073129
Trb:__ZN10Instancing11DrawAPIArgsC2ERK19ShaderPropertySheetPK8Vector4fS6_S6_i
p$o:_PowerUpSpeed_Update_m2424033379
DJi:_InternalEnumerator_1_get_Current_m2305379241_AdjustorThunk
h2i:_X509ChainElementCollection_System_Collections_IEnumerable_GetEnumerator_m3829089536
NGe:__ZN5physx7NpScene27setCCDContactModifyCallbackEPNS_26PxCCDContactModifyCallbackE
tbf:__ZNK5physx17ConvexHullBuilder17ComputeGeomCenterERNS_6PxVec3E
Noj:_RectOffset_get_left_m1232181034
gwo:__ZNSt3__214__split_bufferIN6il2cpp8metadata18GenericArrayMethodERNS_9allocatorIS3_EEED2Ev
MVe:__ZN3MBPD0Ev
zqb:__ZN4gles14UseGLSLProgramER15DeviceStateGLESjbij
Jqm:_Array_InternalArray__Insert_TisKeyValuePair_2_t727985506_m2838910857_gshared
Jlp:_glDeleteProgram__wrapper
VCl:_Enumerator_System_Collections_IEnumerator_get_Current_m2223443336_gshared
b8c:__ZN11ShapeModule18MultiModeParameterIN25IParticleSystemProperties8PropertyIfNS1_11ClampRadiusEEEE8TransferI24GenerateTypeTreeTransferEEvRT_
sSa:__ZN6prcoreL18BlitFloatToIntegerERK14ImageReferenceRS0_
srk:_DBNull_System_IConvertible_ToUInt32_m3784627971
DZj:_ClientSessionCache_Add_m964342678
TJe:__ZNK5physx10PxsContext18getBounceThresholdEv
KAn:_DeflateManager__IsSmaller_m3561972906
RNc:__ZN23TransformChangeDispatch46GetAndClearChangedTransformsForMultipleSystemsEyR13dynamic_arrayI23TransformAccessReadOnlyLj0EERS0_IyLj0EEPN9profiling6MarkerE
u1b:__Z13GetIPhysics2Dv
i1:__ZN11UnityEngine15CloudWebService14RestDownloader17OnCompleteContentEv
sko:__ZN15dense_hashtableINSt3__24pairIK10KeyWrapperINS1_IPK14Il2CppAssemblyP11Il2CppClassEEEjEES9_17ReflectionMapHashIS8_EN14dense_hash_mapIS9_jSD_NS9_14EqualsComparerINS0_8equal_toIS8_EEEENS0_9allocatorISB_EEE9SelectKeyESI_SK_E15insert_noresizeERKSB_
Rrb:__ZN10Instancing11DrawAPIArgsC2Ev
ctj:_Transform_get_localScale_m129152068
xsk:_DivideByZeroException__ctor_m3496959969
WEe:__ZN5physx6shdfnd5ArrayIPvNS0_15InlineAllocatorILj256ENS0_19ReflectionAllocatorINS_2Gu31SpherePersistentContactManifoldEEEEEE15growAndPushBackERKS2_
c6e:__ZN5physx2Cm18DelegateFanoutTaskINS_2Sc5SceneEXadL_ZNS3_17finalizationPhaseEPNS_10PxBaseTaskEEEE11runInternalEv
jD:__ZN17AnimationPlayable28UpdateInternalStateRecursiveILi1ELb0EEEvPK35AnimationPlayableEvaluationConstant
NFo:__ZN6il2cpp2gcL10CleanupCCWEPvS1_
cb:invoke_vifff
Mhe:__ZN5physx6shdfnd15atomicDecrementEPVi
Ef:_emscripten_request_fullscreen
mqn:_Predicate_1_Invoke_m851618236_gshared
XKb:__ZN20LocalFileSystemWebGL6DeleteER13FileEntryDatab
Gf:_emscripten_glDisableVertexAttribArray
qKj:_Array_InternalArray__ICollection_Remove_TisSingle_t1397266774_m3361324455_gshared
xo:FUNCTION_TABLE_iiiifiiii
Ec:invoke_fifffi
IGm:_Collection_1_System_Collections_IList_Add_m2969482770_gshared
hwl:_BitConverterLE_GetBytes_m4130646282
cUb:__ZN4gles23ClearCurrentFramebufferEP7ApiGLESbbbRK10ColorRGBAffi
CB:__ZN7mecanim12statemachine20CreateStateWorkspaceEjjjRNS_6memory9AllocatorE
Cxn:_UnityEvent_1_Invoke_m3604335408_gshared
$af:__ZN5physx2Gu11HeightField13releaseMemoryEb
Rf:_emscripten_glDeleteObjectARB
kVa:__Z14DecompressDXT3iiiPKjPj
oGd:__ZN14SafeBinaryRead21TransferSTLStyleArrayI13dynamic_arrayIS1_I8Vector2fLj0EELj0EEEEvRT_17TransferMetaFlags
Y5o:_U3CRevealWordsU3Ec__Iterator1_MoveNext_m1190869961
NRh:__Z131RuntimeInvoker_Void_t1185182177_RuntimeObject_RuntimeObject_Int64_t3736567304_ObjectU26_t2146539884_SerializationInfoU26_t419328957PFvvEPK10MethodInfoPvPS4_
xbd:__ZN12LightsModule5StartER23ParticleSystemParticlesjj
Xwl:_DSAManaged_CreateSignature_m2233977444
hBk:_Array_InternalArray__get_Item_TisMaterialReference_t1952344632_m860338671_gshared
dEk:_PKCS12_RemoveCertificate_m1421555398
rGj:_Slider_FindSelectableOnLeft_m1667068522
XAn:_DeflateManager__tr_tally_m1291638630
_ja:__ZN6prcoreL17RemapGenericFloatI17TexFormatRGBAHalf18TexFormatARGBFloatEEvPKNS_9InnerInfoE
Oyd:__ZNSt3__27__sort4IRN18Overlap2DQueryBase29ColliderHitsByDepthComparitorEPP10Collider2DEEjT0_S7_S7_S7_T_
LXc:__Z14GetBuiltinSkini
RY:___cxx_global_var_init_12
AY:___cxx_global_var_init_13
PY:___cxx_global_var_init_10
QY:___cxx_global_var_init_11
am:_JS_SystemInfo_GetBrowserVersionString
leb:__ZN2UI13RectTransform23VirtualRedirectTransferER14SafeBinaryRead
wHe:__ZN5physx7NpScene17flushQueryUpdatesEv
TUo:__ZN6il2cpp2vm16GenericContainer16GetDeclaringTypeEPK22Il2CppGenericContainer
Cuj:_InputField_get_caretColor_m2973283772
$kc:__ZNSt3__26vectorIN9ShaderLab20SerializedSubProgramENS_9allocatorIS2_EEE6assignIPS2_EENS_9enable_ifIXaasr21__is_forward_iteratorIT_EE5valuesr16is_constructibleIS2_NS_15iterator_traitsIS9_E9referenceEEE5valueEvE4typeES9_S9_
Z1c:__Z18Transfer_BlittableI8JSONReadLb0E8BitFieldEvRK29SerializationCommandArgumentsR31RuntimeSerializationCommandInfo
IMk:_Char_ToString_m3588025615_AdjustorThunk
Tmm:_HashSet_1_CopyTo_m2849056227_gshared
iEn:_TMPro_EventManager_ON_MATERIAL_PROPERTY_CHANGED_m1492499340
ODb:__ZL17Transfer_GUIStyleI18StreamedBinaryReadILb1EELb0EEvRK29SerializationCommandArgumentsR31RuntimeSerializationCommandInfo
W8k:_Evidence_get_HostEvidenceList_m2705108086
nVc:__ZN9Scripting11UnityEngine15ScrollViewState9InitProxyEv
dvl:_ModulusRing_Multiply_m343333088
eff:__ZN12PhysXRaycast15InitializeClassEv
OHe:__ZN5physx7NpScene10unlockReadEv
xMg:__ZL76AnimatorTransitionInfo_t2534804151_CustomAttributesCacheGenerator_m_AnyStateP21CustomAttributesCache
Vic:__ZN9ShaderLab14SerializedPass8TransferI14SafeBinaryReadEEvRT_
gXc:__Z71Register_UnityEngine_GUILayoutUtility_INTERNAL_CALL_Internal_MoveWindowv
QV:__ZN12AudioManager16SetListenerPauseEb
XFd:__ZThn160_N17PolygonCollider2DD0Ev
SDd:__ZNSt3__26__sortIRN10ClipperLib12LocMinSorterEPNS1_12LocalMinimumEEEvT0_S6_T_
Gsd:__ZL50__ManagedRegistrationHelperFunction_ContactPoint2DPv
UOi:_DefaultComparer_Compare_m1284039696_gshared
sfh:_TextMeshProUGUI__ctor_m667198371
ga:invoke_viiiiiiiiiii
k6o:___syscall_ret
AIj:_Array_InternalArray__ICollection_Contains_TisRuntimeObject_m4067783231_gshared
ukh:_PointerEventData_set_worldNormal_m1888481930
WBm:_AnchorInfo__ctor_m46784903
oBk:_Array_InternalArray__get_Item_TisTMP_LinkInfo_t1092083476_m3566166225_gshared
jYj:_CipherSuiteCollection_get_Item_m4188309062
_in:_SslHandshakeHash_HashFinal_m2573455475
GIh:_SynchronizationAttribute_ReleaseLock_m1030353464
BHc:__ZN14qsort_internal30FindAndMovePivotToLastPositionIP8Vector2fi26PointDistanceSortPredicateEEvT_S4_T0_T1_
vJf:__Z56Register_UnityEngine_Analytics_CustomEventData_AddDoublev
U_a:__ZN11ChannelInfo8TransferI19StreamedBinaryWriteILb0EEEEvRT_
o4i:_VertexShakeB_AnimateVertexColors_m3313523349
yLo:__ZN4utf88internal13validate_nextIPKcEENS0_9utf_errorERT_S5_Rj
h4o:_JSONString_GetHashCode_m1105499309
WYg:__ZL53ToggleGroup_t123837990_CustomAttributesCacheGeneratorP21CustomAttributesCache
qte:__ZN5physx2Sc9ClothCore22setFrictionCoefficientEf
b2b:__ZN14qsort_internal13Partition3WayIP17RODataReplacementi19ROSorterReplacementEENSt3__24pairIT_S6_EES6_S6_T0_T1_
tne:__ZNK5physx9NpPhysics17getNbConvexMeshesEv
jHe:__ZNK5physx7NpScene29getContactCorrelationDistanceEv
Esc:__Z34Register_UnityEngine_Gradient_Initv
Ztj:_InputField_set_text_m1877260015
NKc:__Z15WriteLineVertexILb0EEvRPhRKN4math8float4x4ERKNS2_7_float3ERK11ColorRGBA32RKffRKNS2_7_float2E
g8c:__ZN13InitialModule8TransferI17RemapPPtrTransferEEvRT_
VHh:_Context_ToString_m1073616138
I9j:_Random_Next_m2295149237
k9c:__ZN25IParticleSystemProperties8PropertyI8Vector3fNS_3MinILi0EEEE8TransferI18StreamedBinaryReadILb0EEEEvRT_PKc
pim:_EqualityComparer_1_System_Collections_IEqualityComparer_GetHashCode_m3690690972_gshared
Ptj:_InputField_EnforceTextHOverflow_m3400115777
_cp:dynCall_viffffii
lkf:__ZN9Scripting11UnityEngine12TreeInstance9InitProxyEv
Psk:_Decimal_op_Increment_m2045993911
n6a:__ZN9InputAxis8TransferI19StreamedBinaryWriteILb0EEEEvRT_
_1f:_TMP_SpriteAsset_UpdateLookupTables_m4109332368
mOi:_DefaultComparer_Compare_m1120623116_gshared
A1d:__ZN5physx6shdfnd8SyncImpl4waitEj
SAd:__ZN14qsort_internal5QSortIPN25b2SynchronizeFixturesTask14b2DeferredMoveEiPFbRKS2_S5_EEEvT_S8_T0_T1_
bBj:_RectMask2D_get_Canvas_m9990042
D3k:_NullStream_Seek_m1914924606
auk:_Double_System_IConvertible_ToInt16_m3591921965_AdjustorThunk
jXm:_Comparison_1_Invoke_m2925518770_gshared
kld:__ZN33SizeBySpeedModulePropertyBindings13GetFloatValueERK14ParticleSystemi
sya:__ZN10GameObject23VirtualRedirectTransferER18StreamedBinaryReadILb0EE
IHn:_SymmetricTransform__ctor_m2693628991
BRc:__Z36Camera_CUSTOM_get_pixelRect_InjectedP12Il2CppObjectR5RectTIfE
pon:_X509CrlEntry__ctor_m4013514048
gh:_glFrontFace
$dd:__Z13DragUpdateTplIL27ParticleSystemCurveEvalMode4EEvRK11MinMaxCurvebbR23ParticleSystemParticlesjjRKN4math7_float4E
d8c:__ZN14ParticleSystem8TransferI17RemapPPtrTransferEEvRT_
M2l:_List_1_RemoveAt_m1474895773_gshared
dAj:_MaskUtilities_IsDescendantOrSelf_m2247511982
bJe:__ZN5physx13NpVolumeCache17getNbCachedShapesEv
Fza:__ZN12BaseRenderer21SetGlobalLayeringDataE18GlobalLayeringDataj
_4e:__ZN5physx2Sc15ArticulationSim10sleepCheckEffb
Jqa:__ZN9Scripting11UnityEngine15HideInInspector12CleanupProxyEv
M9k:_SecurityElement__cctor_m3326869319
Rzl:_Enumerator_System_Collections_IEnumerator_Reset_m3571093090_AdjustorThunk
uIn:_AesManaged_set_Key_m767972181
yji:__Z55RuntimeInvoker_Boolean_t97287965_Nullable_1_t1819850047PFvvEPK10MethodInfoPvPS4_
tXk:_Int16_System_IConvertible_ToBoolean_m1656400658_AdjustorThunk
lHf:__ZN2UI14CanvasRenderer11SyncCullingENS0_8SyncFlagE
z$i:_SocketAsyncResult_CompleteAllOnDispose_m1317216893
SKk:_Byte_System_IConvertible_ToInt64_m285584218
qqi:_ObjectManager__ctor_m1844334865
G_f:_TMP_InputField_MoveUp_m1724011253
hWf:_TMP_Dropdown_AlphaFadeList_m212163240
NRb:__ZN13GfxDeviceGLES22SetScissorRectPlatformERK5RectTIiE
pja:__ZN6prcoreL17RemapGenericFloatI17TexFormatRGBFloat18TexFormatRGBAFloatEEvPKNS_9InnerInfoE
EKe:__ZN5physx2Sc5Scene15getRenderBufferEv
iwl:_BitConverterLE_GetUIntBytes_m949779219
DRj:_Array_InternalArray__ICollection_Add_TisDictionaryEntry_t3123975638_m665385049_gshared
kxg:__ZL57BootConfigData_t3818279794_CustomAttributesCacheGeneratorP21CustomAttributesCache
X4j:_MissingMemberException__ctor_m2707802176
mGc:__ZN28ReflectionProbeAnchorManager10InitializeEv
P$n:_Canvas_get_renderMode_m841659411
tJd:__ZN16PhysicsManager2D12BeginContactEP9b2Contact
YIb:__ZN13MonoBehaviour23VirtualRedirectTransferER19StreamedBinaryWriteILb0EE
uU:__ZN9AudioClip11CreateSoundEv
IZh:__Z98RuntimeInvoker_Void_t1185182177_Single_t1397266774_Vector3U26_t3464235976_QuaternionU26_t651104941PFvvEPK10MethodInfoPvPS4_
NSa:__ZN29SerializeTraitsForStringTypesIN4core12basic_stringIcNS0_20StringStorageDefaultIcEEEEE8TransferI24GenerateTypeTreeTransferEEvRS4_RT_
yNl:_Enumerator_get_Current_m1879183223_AdjustorThunk
Mjj:_PlayerConnection_GetConnectionNativeApi_m3116196780
nmo:__ZNK15dense_hashtableINSt3__24pairIK10KeyWrapperINS1_IPK10MethodInfoP11Il2CppClassEEEjEES9_17ReflectionMapHashIS8_EN14dense_hash_mapIS9_jSD_NS9_14EqualsComparerINS0_8equal_toIS8_EEEENS0_9allocatorISB_EEE9SelectKeyESI_SK_E13find_positionERSA_
lqc:__Z10tesvertLeqP10TESSvertexS0_
Wub:__Z19TransferField_ArrayI14SafeBinaryRead27Converter_SimpleNativeClassI10RectOffsetEEvRK23StaticTransferFieldInfoR31RuntimeSerializationCommandInfoRT0_
lOf:__ZN11UnityEngine7Connect16PersistentValues13RestoreValuesER8JSONRead
jBf:__ZN9Scripting11UnityEngine8Tilemaps8TileData9InitProxyEv
gXk:_Guid_BaseToString_m3600006650
Wib:__ZN20ArchiveStorageReader31TryToReadDirectoryFromBlockDataEyPKvj
p1e:__ZNK5physx2Gu11HeightField17getHeightInternalEff
Qmj:_Quaternion_get_identity_m3722672781
gBo:__ZN6il2cpp2vmL11GetIdentityEP14Il2CppIUnknown
neo:__ZN6il2cpp2vm13MetadataCache26GetWindowsRuntimeClassNameEPK11Il2CppClass
jPo:_GC_push_gc_structures
s$j:_TlsServerCertificate_ProcessAsTls1_m819212276
DGe:__ZNK5physx7NpScene22getClientBehaviorFlagsEh
kzk:_Dictionary_2_Do_ICollectionCopyTo_TisRuntimeObject_m3942192587_gshared
_ne:__ZN5physx9NpFactory14createMaterialEfff
pZ:__ZN5physx5cloth11PhaseConfigC2Et
xpd:__Z19UpdateSingleRow2TplIL27ParticleSystemCurveEvalMode0ELS0_2EEvfRK11MinMaxCurveS3_RK23ParticleSystemParticlesPfbiii
Ozd:__ZN27b2UpdateTriggerContactsTask7TaskJobEPS_j
YSj:_Kernel_DwordDivMod_m1540317819
end:__ZN22ParticleSystemRenderer23UpdateVertexInputLayoutEv
nFe:__ZThn8_N5physx2Sc19ShapeInstancePairLLD0Ev
oYe:__ZN5physx19PxcContactSphereBoxERKNS_2Gu13GeometryUnionES3_RKNS_11PxTransformES6_RKfRNS_10PxcNpCacheERNS0_13ContactBufferE
E7m:_Enumerator_System_Collections_IEnumerator_get_Current_m1399273671_gshared
RGe:__ZNK5physx7NpScene21getBroadPhaseCallbackEh
s6d:__ZN5physx6shdfnd5ArrayIPNS_12PxConstraintENS0_19ReflectionAllocatorIS3_EEE15growAndPushBackERKS3_
Txh:_TypeBuilder_GetPropertyImpl_m3104345782
m$a:__ZNSt3__213__stable_sortIRNS_4lessI4PPtrI11SpriteAtlasEEENS_11__wrap_iterIPS4_EEEEvT0_SA_T_NS_15iterator_traitsISA_E15difference_typeEPNSD_10value_typeEi
y_k:_Int64_ToString_m2085073918_AdjustorThunk
GCk:_Enumerable_Last_TisRuntimeObject_m2895222279_gshared
zde:__ZNK5physx2Sc15ArticulationSim11checkResizeEv
Iyh:_FieldInfo_GetFieldOffset_m1356898082
frk:_DBNull_System_IConvertible_ToBoolean_m702787761
aaj:_Camera_RaycastTry_m3913529496
Xhc:__ZN10BootConfig4Data14InitFromStringEPPKcjS2_
v5:__ZN8keywords6CreateEPKc
TYd:__ZN5physx2Gu11gjkRelativeINS0_8CapsuleVENS0_11ConvexHullVEEEjRKT_RKT0_RKNS_6shdfnd3aos15PsMatTransformVERNSB_5Vec3VESG_SG_RNSB_6FloatVE
H3n:__ZL7log2_32j
nzn:_IndexedSet_1_Sort_m2612539420_gshared
Amj:_Quaternion_Inverse_Injected_m4070500351
S:Math_imul
uEj:_ScrollRect_LateUpdate_m1215231183
usa:__ZN9Scripting11UnityEngine11ContextMenu9InitProxyEv
Epd:__Z17UpdateSprites2TplIL27ParticleSystemCurveEvalMode4ELS0_4EEvfRK11MinMaxCurveS3_RK23ParticleSystemParticlesPf
N$j:_TlsServerKeyExchange_Update_m453798279
KWa:__ZN11PlayerPrefs6GetIntERKN4core12basic_stringIcNS0_20StringStorageDefaultIcEEEEi
TDl:_Enumerator_get_Current_m4258490503_gshared
qYj:_CipherSuiteCollection_System_Collections_IList_IndexOf_m1361500977
kHj:_Text_set_fontStyle_m648756124
Pzf:__Z45TextGenerator_CUSTOM_INTERNAL_get_rectExtentsP12Il2CppObjectP5RectTIfE
TL:__ZN9Scripting11UnityEngine18AssetBundleRequest12CleanupProxyEv
kok:_DateTime__ctor_m2135476686_AdjustorThunk
M2c:__ZN13GUIStyleState8TransferI8JSONReadEEvRT_
bW:__ZN11AudioSource12SetAudioClipEP9AudioClip
ypj:_RectTransform_GetLocalCorners_m823861473
bPk:_SynchronizedArrayListWrapper_GetEnumerator_m1579424644
Ukd:__ZN30VelocityModulePropertyBindings13GetFloatValueERK14ParticleSystemi
jCj:_Scrollbar_get_value_m760470106
s7:__ZN18ScriptingArguments9AddObjectE18ScriptingObjectPtr
zEf:__Z39CanvasGroup_Get_Custom_PropInteractableP12Il2CppObject
PZ:__ZN11UnityEngine15CloudWebService16SessionContainerD2Ev
OMf:__ZL38InitializeUnityConnectScriptingClassesv
z6f:_TMP_Text_GetPreferredWidth_m1104017573
ncc:__ZN13ProbeRenderer8ConvolveEbijjb
yHn:_GUIUtility_set_systemCopyBuffer_m608712289
yUb:__ZN17GenericDynamicVBOC2ER9GfxDevice13GfxBufferModejj
czd:__Z28GetPhysics2DScriptingClassesv
dYc:__ZZN10GUIManager14InitGUIManagerEvEN41PreUpdateIMGUISendQueuedEventsRegistrator7ForwardEv
JZi:_ServicePointManager_get_SecurityProtocol_m966397919
UCe:__ZNK5physx2Sc5Scene7isValidEv
DSk:_CCGregorianCalendar_day_from_fixed_m1674702403
h$:__ZN11UnityEngine15CloudWebService17SessionEventQueue10PurgeItemsEj
UIe:__ZN5physx2Sq17SceneQueryManager29setDynamicTreeRebuildRateHintEj
Scc:__ZN6Camera16StandaloneRenderENS_10RenderFlagEP6ShaderRKN4core12basic_stringIcNS3_20StringStorageDefaultIcEEEE
jYi:_X509Chain_PrepareForNextCertificate_m3691934993
B0f:_TMP_MeshInfo_ResizeMeshInfo_m1483678148_AdjustorThunk
gya:__ZN16LevelGameManager23VirtualRedirectTransferER24GenerateTypeTreeTransfer
gDb:__Z18Transfer_BlittableI18StreamedBinaryReadILb1EELb1EtEvRK29SerializationCommandArgumentsR31RuntimeSerializationCommandInfo
kNg:__ZL58EventType_t3528516131_CustomAttributesCacheGenerator_keyUpP21CustomAttributesCache
_kg:__ZL57X509Certificate_t713131622_CustomAttributesCacheGeneratorP21CustomAttributesCache
T_a:__ZN12BoneWeights48TransferI19StreamedBinaryWriteILb0EEEEvRT_
Nmb:__ZN9GfxDevice20DeallocRenderSurfaceEP17RenderSurfaceBase
oce:__ZN5physx6shdfnd5ArrayIPvNS0_19ReflectionAllocatorINS_18NpArticulationLinkEEEE4copyINS0_15InlineAllocatorILj256ES5_EEEEvRKNS1_IS2_T_EE
Esn:_TMP_XmlTagStack_1_SetDefault_m2682807324_gshared
Rqb:__ZN20GpuProgramParameters36UpdatePrepareValuesMaximumBufferSizeEv
t8l:_List_1_GetIndex_m1066515638_gshared
jWd:__ZNK5physx3Cct10Controller12getKineShapeEv
Wsl:_SimpleCollator_GetContraction_m2205549079
H4d:__ZN5physx6shdfnd4sortIPvNS0_4LessIS2_EENS0_19ReflectionAllocatorINS_2Sc18TriggerInteractionEEEEEvPT_jRKT0_RKT1_j
ppm:_Array_InternalArray__ICollection_CopyTo_TisDecimal_t2948259380_m2749946216_gshared
dBe:__ZNK5physx2Sc8BodyCore14getMaxAngVelSqEv
Dlf:__ZN20TextRenderingPrivate8FontImpl13CharacterInfo8TransferI18StreamedBinaryReadILb0EEEEvRT_
rAb:__Z29Transfer_Blittable_ArrayFieldI24GenerateTypeTreeTransferfEvRT_R9ArrayInfoRK23StaticTransferFieldInfo
Mda:__ZNSt3__26__treeINS_12__value_typeIN4core12basic_stringIcNS2_20StringStorageDefaultIcEEEES6_EENS_19__map_value_compareIS6_S7_NS_4lessIS6_EELb1EEE13stl_allocatorIS7_L18MemLabelIdentifier13ELi16EEE7destroyEPNS_11__tree_nodeIS7_PvEE
zdj:_UnityEvent_FindMethod_Impl_m2312362624
tec:__ZN19CustomRenderTexture9AddParentE4PPtrIS_E
gvb:__ZN8Gradient8TransferI14SafeBinaryReadEEvRT_
eqh:_FloatTween_AddOnChangedCallback_m2814315272
UAm:_Parser_ParseSpecial_m1961501104
$al:_Single_System_IConvertible_ToUInt64_m3299129161_AdjustorThunk
MPa:__ZNSt3__26vectorIN4core12basic_stringIcNS1_20StringStorageDefaultIcEEEE13stl_allocatorIS5_L18MemLabelIdentifier1ELi16EEE7reserveEj
p5i:_TMP_TextEventHandler_SendOnLinkSelection_m2556687928
Tmf:__ZN20TextRenderingPrivate15DynamicFontData36GetFaceForCharacterIfAvailableInFontERKNS_7FontRefERK13dynamic_arrayI4PPtrIN13TextRendering4FontEELj0EEj
lSi:_Enumerator_System_Collections_IDictionaryEnumerator_get_Key_m554883757_gshared
GWi:_IPv6Address_AsIPv4Int_m844941024
nZe:__ZN5physx2Gu32PCMConvexVsMeshContactGeneration15processTriangleEPKNS_6PxVec3EjhPKj
Ohj:_Matrix4x4_MultiplyPoint_m1575665487_AdjustorThunk
_Eh:_Marshal__cctor_m4007734770
dOo:_GC_new_free_list_inner
Qyl:_SymmetricTransform_Random_m2004892672
KNo:_GC_err_printf
yTf:__ZN9Scripting11UnityEngine2XR13InputTracking12CleanupProxyEv
_Pm:_ReadOnlyCollection_1_System_Collections_Generic_IListU3CTU3E_RemoveAt_m4242223828_gshared
S0e:__ZN5physx6shdfnd5ArrayINS_2Cm8Matrix34ENS0_19ReflectionAllocatorIS3_EEE15growAndPushBackERKS3_
lWj:_RSAManaged_DecryptValue_m1804388365
uZe:__ZN5physx2Gu32PCMConvexVsMeshContactGeneration31generatePolyDataContactManifoldERNS0_9TriangleVEjjhPNS0_21MeshPersistentContactERjRKNS_6shdfnd3aos6FloatVERNS8_5Vec3VE
tyi:_InternalEnumerator_1_System_Collections_IEnumerator_get_Current_m2980550840_AdjustorThunk
Vcf:__ZN5physx10SubSortSAH5splitEPjj
$I:__ZN25RuntimeAnimatorController8TransferI14SafeBinaryReadEEvRT_
N2c:__ZN8JSONRead8TransferI10RectOffsetEEvRT_PKc17TransferMetaFlagsb
S_:__ZN9JSONWrite8TransferIN11UnityEngine15CloudWebService14DataErrorEvent15FileErrorDetailEEEvRT_PKc17TransferMetaFlags
$gp:_emscripten_glColorPointer__wrapper
mZk:_Int32_Parse_m2087562008
cyl:_PrivateKeyInfo__ctor_m2414235375
UQd:__ZN5physx2Gu3EPA8addFacetEjjjRKNS_6shdfnd3aos6FloatVES6_
FBh:_MonoProperty_GetAccessors_m412928203
awc:__ZN5Light13SetLightDirtyEv
yP:__ZN12SoundManager20RegisterModifiedClipEP10SampleClip
mQj:_Array_InternalArray__IndexOf_TisColor_t2555686324_m3789975403_gshared
x5a:__ZN12MeshRenderer15AddAsRenderNodeER15RenderNodeQueueRK20DeprecatedSourceData
Fig:__ZL56_EventBuilder_t2558055199_CustomAttributesCacheGeneratorP21CustomAttributesCache
n6k:_SHA384Managed_processBlock_m1272529332
lS:__ZN11AudioSource4PlayEd
gQj:_Array_InternalArray__IndexOf_TisTMP_LinkInfo_t1092083476_m2097520058_gshared
LMk:_Char_ToString_m278452217_AdjustorThunk
Jyk:_Dictionary_2_Do_CopyTo_TisInt64_t3736567304_TisInt64_t3736567304_m3538125743_gshared
r1d:__ZN5physx3Cct9CCTParamsC2Ev
ibo:__ZN15dense_hashtableI10KeyWrapperIPK17Il2CppGenericInstES4_N6il2cpp8metadata21Il2CppGenericInstHashEN14dense_hash_setIS4_S7_NS4_14EqualsComparerINS6_24Il2CppGenericInstCompareEEENSt3__29allocatorIS4_EEE8IdentityESB_SE_E13set_empty_keyERKS4_
rLh:__Z63RuntimeInvoker_Char_t3634460470_Int16_t2552820387_RuntimeObjectPFvvEPK10MethodInfoPvPS4_
Wkk:_Convert_ToDouble_m2924063577
Rqe:__ZN5physx7NpCloth21setStiffnessFrequencyEf
RRe:__ZN5physx17PxcSweepBoxConvexERKNS_11PxsCCDShapeES2_PKNS_12PxsRigidBodyES5_RKNS_11PxTransformES8_S8_S8_fRNS_6PxVec3ESA_RNS_10PxcNpCacheERNS_18PxcNpThreadContextEf
kda:__Z17GetCoreModuleSpecv
i9e:__ZThn8_N5physx2Gu11HeightField14onRefCountZeroEv
$3d:__ZN5physx2Sc5Actor9setActiveEbj
IYd:__ZN12_GLOBAL__N_127SphereMeshContactGeneration15processTriangleEjRKN5physx6PxVec3ES4_S4_PKj
OTa:__ZN7Cubemap23VirtualRedirectTransferER18StreamedBinaryReadILb0EE
Vhd:__Z25UpdateOrbitalAndRadialTplIL27ParticleSystemCurveEvalMode0ELS0_0ELS0_0EEvRK11MinMaxCurveS3_S3_S3_S3_S3_S3_R23ParticleSystemParticlesjjRKN4math8float3x3ERKNS6_7affineXERKNS6_7_float4E
Ewf:_Read_CVT
v4d:__ZN5physx2Sc10NPhaseCore28reserveContactReportPairDataEjjRj
iRd:__ZN5physx2Gu22barycentricCoordinatesERKNS_6shdfnd3aos5Vec3VES5_S5_RNS2_6FloatVE
hjb:__ZN12FileAccessor4SeekEx10FileOrigin
Nu:__ZN9Scripting11UnityEngine25RuntimeAnimatorController12CleanupProxyEv
ezb:__ZL26Transfer_SimpleNativeClassI24GenerateTypeTreeTransfer17AnimationCurveTplIfELb0EEvRK29SerializationCommandArgumentsR31RuntimeSerializationCommandInfo
lkk:_Convert_ToDecimal_m1783778724
xLk:_Byte_ToString_m4063101981_AdjustorThunk
YSk:_DateTimeFormatInfo__ctor_m3106345035
gZj:_TlsServerKeyExchange_verifySignature_m3412856769
Shm:_EqualityComparer_1_System_Collections_IEqualityComparer_GetHashCode_m4137147946_gshared
Obd:__Z9UpdateTplIL27ParticleSystemCurveEvalMode2EEvRK11MinMaxCurveR23ParticleSystemParticlesjjbjRK8Vector2f
Fhn:_Collection_1_System_Collections_ICollection_CopyTo_m5285659_gshared
Pea:__ZN16LightmapSettings20DidChangeActiveSceneEP10UnitySceneS1_
aco:__ZNK15dense_hashtableI10KeyWrapperIPK17Il2CppGenericInstES4_N6il2cpp8metadata21Il2CppGenericInstHashEN14dense_hash_setIS4_S7_NS4_14EqualsComparerINS6_24Il2CppGenericInstCompareEEENSt3__29allocatorIS4_EEE8IdentityESB_SE_E12test_deletedEj
G5g:__ZL59g_AssemblyU2DCSharp_Assembly_CustomAttributesCacheGeneratorP21CustomAttributesCache
qjo:__ZN6il2cpp5utils9PathUtils8BasenameIcEENSt3__212basic_stringIT_NS3_11char_traitsIS5_EENS3_9allocatorIS5_EEEERKSA_
yR:__ZN10AudioMixer11SetupGroupsEv
Poo:__ZN6il2cpp2vmL16IsGenericCMethodEP12Il2CppObject
qv:__ZN9Scripting11UnityEngine10Animations21AnimationClipPlayable9InitProxyEv
gWc:__Z35Register_UnityEngine_Event_get_typev
h6h:__Z188RuntimeInvoker_Void_t1185182177_Vector3_t3722313464_Vector3_t3722313464_Int32U26_t1369213839_Single_t1397266774_Single_t1397266774_Single_t1397266774_Single_t1397266774_Color32_t2600501292PFvvEPK10MethodInfoPvPS4_
rpa:__ZN9Scripting11UnityEngine9Rendering18GraphicsDeviceType12CleanupProxyEv
Iyo:__ZN6il2cpp2vm9Exception23GetInvalidCastExceptionERKNS_5utils10StringViewIDsEE
A9l:_List_1_RemoveAll_m3668501215_gshared
ofp:_emscripten_glDepthRange__wrapper
U7e:__ZNK5physx13GuMeshFactory17getNbConvexMeshesEv
_md:__ZN14ParticleSystem15InitializeClassEv
s8:__Z63ThreadAndSerializationSafeCheckGetMonoBehaviourBeingTransferredv
wqa:__ZN9Scripting11UnityEngine12LightmapData9InitProxyEv
O7l:_List_1_set_Item_m4224739467_gshared
lck:_ConstructorBuilder_get_Name_m2426555260
Rzc:__Z37Register_UnityEngine_Input_GetAxisRawv
tra:__ZN9Scripting11UnityEngine12Experimental10PlayerLoop6Update12CleanupProxyEv
VAm:_Parser_ParseCharacterClass_m4285351396
pmk:_Convert_ToSByte_m2653418303
Wfk:_SyncHashtable__ctor_m2449935938
_R:__ZN11AudioSource5ResetEv
y7j:_NumberFormatter_DecHexLen_m510984344
z5k:_RSAPKCS1SignatureFormatter_SetKey_m2935054088
D1b:__ZN12ImageFilters27SetSurfaceUseResolvedBufferEP13RenderTextureb
u3f:_TMP_SubMeshUI_GetMaterial_m2056272420
Nui:_HashAlgorithm_TransformBlock_m4006041779
gsb:__ZN14SafeBinaryRead21TransferSTLStyleArrayI10vector_setI4PPtrI10MonoScriptENSt3__24lessIS4_EE13stl_allocatorIS4_L18MemLabelIdentifier79ELi16EEEEEvRT_17TransferMetaFlags
sRa:__ZN14Texture2DArray23VirtualRedirectTransferER18StreamedBinaryReadILb0EE
wil:_UTF7Encoding_GetByteCount_m209415911
ceb:__ZN2UI13RectTransform13AwakeFromLoadE17AwakeFromLoadMode
Stn:_TweenRunner_1_StartTween_m2396335759_gshared
FDm:_RegularExpression_Compile_m2385682508
l0l:_List_1_System_Collections_IList_Remove_m3790768923_gshared
OSo:__ZN6il2cpp6icalls8mscorlib6System10Reflection13MonoEventInfo14get_event_infoEP25Il2CppReflectionMonoEventP29Il2CppReflectionMonoEventInfo
Z6b:__ZN14qsort_internal30FindAndMovePivotToLastPositionIP20ShadowCasterSortDatai26ShadowCasterSortDataSorterEEvT_S4_T0_T1_
Bsb:__Z18Transfer_BlittableI14SafeBinaryReadLb1EiEvRK29SerializationCommandArgumentsR31RuntimeSerializationCommandInfo
UZm:_QuickSort_1_MedianOfThree_m3222347171_gshared
Ivm:_X509ExtensionEnumerator_get_Current_m256207749
Fvj:_InputField_MoveTextStart_m1087475594
MRk:_EventArgs__cctor_m1889823314
AIk:_Array_Sort_m182264525
Xxj:_LayoutGroup_set_padding_m282562135
__f:_TMP_InputField_GenerateHightlight_m2404012756
Wak:_Default_IsArrayAssignable_m953489228
C0o:_JSONBool_Equals_m2385715178
ynk:_Convert_ToUInt32_m668801151
gql:_UInt64_System_IConvertible_ToBoolean_m3071416000
cle:__ZN18MultiQueryCallbackIN5physx12PxOverlapHitEE6invokeERfPKNS0_2Sq13PrunerPayloadEj
LTd:__ZN5physx2Gu18gjkRelativeRayCastINS0_4BoxVES2_NS0_10ShrunkBoxVES3_EEbRT_RT0_RKNS_6shdfnd3aos15PsMatTransformVERKNS9_6FloatVERKNS9_5Vec3VESI_RSD_RSG_SK_fb
xl:_glGetStringi
wel:_DecoderExceptionFallback_CreateFallbackBuffer_m1133375601
t_m:_Nullable_1_GetHashCode_m1030690889_AdjustorThunk
TBl:_Enumerator_get_CurrentKey_m889650866_gshared
X4n:_Physics_Raycast_m3133704280
A8e:__ZThn8_N5physx2Gu10ConvexMeshD0Ev
Dch:_MaterialReferenceManager__ctor_m912257905
AIl:_Transform_1_BeginInvoke_m3155359311_gshared
bF:__ZN8Animator9WriteStepEy
fd:invoke_viiiiifffi
mBa:__ZN9Coroutine16SetCurrentMethodE18ScriptingMethodPtr
D$:__ZN11UnityEngine15CloudWebService20WebRequestRestClient18GetResponseHeadersEv
RXi:_U3CBeginAuthenticateAsClientU3Ec__AnonStorey7_U3CU3Em__8_m3748334000
RZc:__Z41Register_UnityEngine_JsonUtility_FromJsonv
evc:__ZN11PlayerPrefs8GetFloatERKN4core12basic_stringIcNS0_20StringStorageDefaultIcEEEEf
cen:_Collection_1_ConvertItem_m1743542180_gshared
cAf:__Z38Register_UnityEngine_Font_HasCharacterv
j6:__ZN13RuntimeStaticINSt3__26vectorIN4core12basic_stringIcNS2_20StringStorageDefaultIcEEEENS0_9allocatorIS6_EEEELb0EE13StaticDestroyEPv
mbc:__Z35IntersectSpherePlaneBoundsOptimizedRKN4math7_float4EPS1_i
G4k:_RNGCryptoServiceProvider__cctor_m3587754670
u2d:__ZN5physx2Sc8ShapeSim20createLowLevelVolumeEjRKNS_9PxBounds3EjNS_9AABBMgrIdE
Oca:__ZN17TransformInternal21DetachTransformThreadER18TransformHierarchyjj
nld:__ZN37InheritVelocityModulePropertyBindings13GetFloatValueERK14ParticleSystemi
Wqe:__ZNK5physx7NpCloth22getAngularInertiaScaleEv
$Zd:__ZN26IntersectAnyVsMeshCallbackILi1ELb1EE10processHitERKN5physx12PxRaycastHitERKNS1_6PxVec3ES7_S7_RfPKj
Blm:_GenericComparer_1_Compare_m2242127588_gshared
Ifn:_Collection_1_System_Collections_IList_Remove_m1232015591_gshared
uea:__Z22CleanupLODGroupManagerPv
mKe:__ZN5physx6shdfnd5ArrayINS_2Sc5Scene14SimpleBodyPairENS0_19ReflectionAllocatorIS4_EEE8recreateEj
gm:_glUniform3fv
cUo:__ZNK6il2cpp8metadata24Il2CppGenericInstCompareclERK10KeyWrapperIPK17Il2CppGenericInstES8_
SYi:_X509ChainElement_Set_m655180762
e4n:_CustomEventData_AddInt32_m548429697
SMc:__ZNK8Gradient19InitializeOptimizedER17OptimizedGradient
B5b:__ZNK16LightmapSettings31GetRealtimeLightmapDecodeValuesEv
hR:__ZN5audio5mixer12SetSuspendedERNS0_16AudioMixerMemoryEb
mdb:__ZN17PersistentManager21UnloadNonDirtyStreamsEv
_Bk:_Object_Instantiate_TisRuntimeObject_m1135049463_gshared
xSh:__Z96RuntimeInvoker_Int32_t2950945753_RuntimeObject_Int32_t2950945753_RuntimeObject_Int32_t2950945753PFvvEPK10MethodInfoPvPS4_
GLn:_AnalyticsEventTracker_OnEnable_m1121905268
eEm:_Uri_get_Parser_m3737125102
Z$n:_Canvas_get_overrideSorting_m2740418462
Nbj:_Debug_LogFormat_m309087137
PKk:_Byte_System_IConvertible_ToInt16_m4136764794_AdjustorThunk
I0a:__ZN12ImageFilters4BlitER17ShaderPassContextP7TextureP13RenderTextureiPK18SharedMaterialDataPKcP6ShaderiNS_9BlitFlagsE11CubemapFaceRK8Vector2fSH_
Pgf:__ZN5physx6shdfnd8PoolBaseINS_24NpPtrTableStorageManager8PtrBlockILi4EEENS0_19ReflectionAllocatorIS4_EEE12allocateSlabEv
gZg:__ZL69CanvasScaler_t2767979955_CustomAttributesCacheGenerator_m_ScaleFactorP21CustomAttributesCache
MGh:_ConfigHandler_CheckPath_m3079311646
r$:__ZN11UnityEngine15CloudWebService10RestClientINS0_23WebRequestRestHeaderMapEED2Ev
C5e:__ZN5physx2Sc5Scene13ccdBroadPhaseEPNS_10PxBaseTaskE
Dm:_emscripten_glDepthMask
pZe:__ZN5physx2Gu24PCMMeshContactGeneration15processContactsEhb
loi:_RemotingServices_CreateClientProxy_m3886727610
_Ua:__ZN4crnd25static_huffman_data_model22prepare_decoder_tablesEv
Hqe:__ZN5physx7NpCloth12setParticlesEPKNS_15PxClothParticleES3_
Xgf:__ZN5physx7profile8ZoneImplINS_28PxProfileNameProviderForwardEE9doAddNameEPKctb
r0j:_RecordProtocol_GetMessage_m2086135164
Uea:__Znaj
hmp:_emscripten_glEnableClientState__wrapper
YPf:__ZN20UnityWebRequestProtoI24UnityWebRequestTransport16AtomicRefCounter14RedirectHelper14ResponseHelper15DownloadHandler13UploadHandler18CertificateHandler12HeaderHelper14AsyncOperationE26Job_ExecuteUnityWebRequestEPS9_
z4:__ZN17MessageIdentifierC2EPKcNS_7OptionsEPKN5Unity4TypeES1_
Qij:_Mesh_SetTriangles_m1523451247
Qal:_Single_System_IConvertible_ToSByte_m1208276900
MBc:__ZNSt3__26__treeIPc15compare_tstringIPKcENS_9allocatorIS1_EEE25__emplace_unique_key_argsIS1_JS1_EEENS_4pairINS_15__tree_iteratorIS1_PNS_11__tree_nodeIS1_PvEEiEEbEERKT_DpOT0_
QQh:__Z105RuntimeInvoker_Void_t1185182177_RuntimeObject_RuntimeObject_RuntimeObject_RuntimeObject_Int32_t2950945753PFvvEPK10MethodInfoPvPS4_
FTe:__ZN5physxL26solveFriction4_StaticBlockEPKNS_23PxcSolverConstraintDescERNS_16PxcSolverContextE
Irm:_Array_InternalArray__Insert_TisContactPoint_t3758755253_m151422964_gshared
GW:__Z55Register_UnityEngine_AudioSource_get_spatializeInternalv
WL:__ZN14SafeBinaryRead8TransferI14ConstantStringEEvRT_PKc17TransferMetaFlags
iYe:__ZN5physx30PxcGetMaterialShapeHeightFieldEPKNS_12PxsShapeCoreES2_RNS_18PxcNpThreadContextEPNS_15PxsMaterialInfoE
G$b:__ZNK6Camera16GetStereoEnabledEv
DVh:__Z72RuntimeInvoker_Int32_t2950945753_TimeSpan_t881159249_TimeSpan_t881159249PFvvEPK10MethodInfoPvPS4_
S0j:_SendRecordAsyncResult_SetComplete_m153213906
zYa:__ZN16LightmapSettings23VirtualRedirectTransferER19StreamedBinaryWriteILb0EE
cGc:__ZN12LightManager15InitializeClassEv
l6e:__ZN5physx6shdfnd8PoolBaseINS_2Sc19ParticlePacketShapeENS0_19ReflectionAllocatorIS3_EEE12allocateSlabEv
xOa:__ZN9ShaderLab11shaderprops16GetComputeBufferEPK19ShaderPropertySheetS3_NS_16FastPropertyNameE
_Lo:__ZN6il2cpp6icalls8mscorlib6System10Reflection10MethodBase31GetMethodFromHandleInternalTypeEii
naa:__ZN23ManagedAttributeManager35CallManagedGetDefaultExecutionOrderE17ScriptingClassPtr
G7:__ZN18ScriptingArgumentsC2Ev
bQn:_Vector3_op_Equality_m4231250055
ghp:_emscripten_glBlendFuncSeparate__wrapper
VYa:__ZN15SerializeTraitsI13dynamic_arrayI7Hash128Lj0EEE19ResizeSTLStyleArrayERS2_i
dod:__ZL37ParticleGeomBillboardFacingOrVelocityIL25ParticleSystemRenderSpace4ELb1EEvRKN4math8floatNx3ES4_PS3_S4_S4_RKNS1_8float3x3ES4_S4_RKNS1_8floatNx2ES4_RS2_SC_PS2_
x0k:_FileSystemInfo__ctor_m3769019897
FBk:_Array_InternalArray__get_Item_TisContentType_t1787303396_m421427711_gshared
d1b:__ZNK25CameraStackRenderingState27GetStereoImageEffectTextureEb
nai:__Z101RuntimeInvoker_Int32_t2950945753_RuntimeObject_Single_t1397266774_Int32_t2950945753_Int32_t2950945753PFvvEPK10MethodInfoPvPS4_
MUc:__ZL52__ManagedRegistrationHelperFunction_PlayableDirectorPv
Nr:__ZN8Vector3f8TransferI14SafeBinaryReadEEvRT_
HKj:_Array_InternalArray__ICollection_Remove_TisTMP_PageInfo_t2608430633_m637965447_gshared
Xrc:__ZN13BuildSettings13GetSceneIndexERKN4core12basic_stringIcNS0_20StringStorageDefaultIcEEEE
Sp:FUNCTION_TABLE_ii
Gxa:__ZN10TagManager8TransferI18StreamedBinaryReadILb0EEEEvRT_
vof:__ZN20TextRenderingPrivate8TextMesh13AwakeFromLoadE17AwakeFromLoadMode
S2k:_MemoryStream_set_Capacity_m1773624579
ovo:__ZNK15dense_hashtableINSt3__24pairIK10KeyWrapperINS1_IP11Il2CppClassjEEES4_EES6_N6il2cpp8metadata14ArrayClassHashEN14dense_hash_mapIS6_S4_SB_NS6_14EqualsComparerINSA_17ArrayClassCompareEEENS0_9allocatorIS8_EEE9SelectKeyESF_SH_E10test_emptyEj
Pjc:__ZNSt3__26vectorIN9ShaderLab20SerializedSubProgram15StructParameterENS_9allocatorIS3_EEE8__appendEj
Qb:invoke_diiii
Lok:_DateTime_ToString_m2992030064
gZd:__ZL17sweepVolumeVsMeshPKN5physx3Cct9SweepTestEPKNS0_11TouchedMeshERNS0_12SweptContactERKNS_6PxVec3ERKNS_10PxGeometryERKNS_11PxTransformEjPKNS_10PxTriangleEj
Wt:__ZL57__ManagedRegistrationHelperFunction_AnimationClipPlayablePv
dYh:__Z95RuntimeInvoker_Void_t1185182177_RuntimeObject_RuntimeObject_SByte_t1669577662_SByte_t1669577662PFvvEPK10MethodInfoPvPS4_
E0e:__ZN5physx2Gu31checkOverlapOBB_heightFieldGeomERKNS_10PxGeometryERKNS_11PxTransformERKNS0_3BoxE
Wgc:__Z24CreateDirectoryRecursiveRKN4core12basic_stringIcNS_20StringStorageDefaultIcEEEE
tfp:b41
bmc:__ZN9ShaderLab20SerializedSubProgram8TransferI18StreamedBinaryReadILb0EEEEvRT_
sfp:b40
uXd:__ZN5physx2Gu23findRotationMatrixFromZERKNS_6PxVec3E
cS:__ZN11AudioSource23VirtualRedirectTransferER17RemapPPtrTransfer
Yw:__ZN26AnimatorControllerPlayable13GenerateGraphEv
b6:__ZN13RuntimeStaticI21ScalableBufferManagerLb0EE13StaticDestroyEPv
NCf:__ZN2UI13CanvasManager9AddCanvasEPNS_6CanvasE
y0a:__ZN9Texture3D8TransferI19StreamedBinaryWriteILb0EEEEvRT_
l2b:__ZNK6Camera22CalculateRenderingPathEv
ufp:b42
H0c:__ZN9JSONWrite8TransferI5RectTIfEEEvRT_PKc17TransferMetaFlags
$Ie:__ZN5physx13NpVolumeCache10invalidateEv
PG:__ZN11UnityEngine9Animation37SetGenericRootTransformPropertyValuesERKNS0_30AnimatorGenericBindingConstantERKN7mecanim10ValueArrayER9Transformbb
HZo:_JSONNull__ctor_m2064066130
bWb:__Z13ConvertMipmap14GraphicsFormatPKvS_Pviiii
DL:__ZN9Scripting11UnityEngine2XR5Tango24MeshReconstructionServer9InitProxyEv
Mxb:__ZL12InvokeMethodI17RemapPPtrTransferEvRK29SerializationCommandArgumentsR31RuntimeSerializationCommandInfo
yVi:_RemoteCertificateValidationCallback_Invoke_m3086073466
Wdl:_StringComparer_Compare_m991165676
quf:_tt_sbit_decoder_load_image
QMa:__Z14IsHalfRTFormat19RenderTextureFormat
Ewc:__Z38Application_Get_Custom_PropAbsoluteURLv
nNm:_ReadOnlyCollection_1_System_Collections_IList_Clear_m868794620_gshared
iXk:_Guid_ToString_m3279186591
szn:_U3CStartU3Ec__Iterator0_Dispose_m261027331_gshared
nYc:__ZNSt3__24listIN10GUIManager12SortedScriptE11memory_poolIS2_EE6__sortI13OldSortScriptEENS_15__list_iteratorIS2_PvEESA_SA_jRT_
R2d:__ZN5physx6shdfnd5ArrayIPvNS0_19ReflectionAllocatorINS_2Sc10NPhaseCore16ClothListElementEEEE15growAndPushBackERKS2_
ozl:_Enumerator_VerifyState_m1545185457_gshared
ham:_List_1_AddEnumerable_m3500350831_gshared
SVj:_PrivateKeyInfo_get_PrivateKey_m3647771102
AWl:_Enumerator_VerifyState_m2917414734_AdjustorThunk
vxo:__ZN6il2cpp6icalls8mscorlib6System9ThreadingL11ThreadStartEPv
UUl:_Enumerator_get_Current_m2579293505_gshared
jha:__ZN15DirectorManager12OnSampleTimeEv
JZn:_Extensions_CreateWebResponse_m1002900249
gwh:_TypeBuilder_check_not_created_m3652863637
OEm:_Uri_GetHashCode_m321999866
Olh:_StandaloneInputModule_UpdateModule_m450861257
fD:__ZN8Animator13ClearBindingsEv
QUm:_ReadOnlyCollection_1_System_Collections_IList_Insert_m2928873627_gshared
Ejm:_EqualityComparer_1__cctor_m314889309_gshared
Wua:__ZN12CachedReader10Align4ReadEv
jwd:__ZN15b2WorldManifold10InitializeEPK10b2ManifoldRK11b2TransformfS5_f
L6f:_TMP_Text_GetUTF32_m2283908152
fnn:_X501__cctor_m2428304915
Y$n:_Canvas_get_renderOrder_m1489855841
mMh:__Z50RuntimeInvoker_Void_t1185182177_Single_t1397266774PFvvEPK10MethodInfoPvPS4_
sDk:_X501_ToString_m4186311521
dFn:_Event_ToString_m1688862299
Asn:_TMP_XmlTagStack_1__ctor_m86903316_gshared
Fva:__ZNK9Behaviour22GetTypeVirtualInternalEv
Kle:__ZN5physx2Sc14ConstraintCore13setBreakForceEff
Sbj:_Debug_LogErrorFormat_m575266265
CSk:_CCGregorianCalendar_month_from_fixed_m4268992710
nOj:_Array_compare_TisUICharInfo_t75501106_m1310495481_gshared
$kf:__ZN20TextRenderingPrivate8FontImpl8TransferI14SafeBinaryReadEEvRT_
Wqd:__ZNSt3__27__sort4IRN10vector_mapIi22ParticleModulePropertyNS_4lessIiEENS_9allocatorINS_4pairIiS2_EEEEE13value_compareEPS7_EEjT0_SD_SD_SD_T_
SZm:_QuickSort_1_PerformSort_m2113339266_gshared
wMg:__ZL82AnimatorTransitionInfo_t2534804151_CustomAttributesCacheGenerator_m_NormalizedTimeP21CustomAttributesCache
lGe:__ZN5physx7NpScene15removeAggregateERNS_11PxAggregateEb
OMm:_ReadOnlyCollection_1_System_Collections_IList_Remove_m2624938072_gshared
dqo:__ZN14dense_hash_mapI10KeyWrapperIPK10Il2CppTypeEjN6il2cpp8metadata14Il2CppTypeHashENS4_14EqualsComparerINS6_26Il2CppTypeEqualityComparerEEENSt3__29allocatorINSB_4pairIKS4_jEEEEE13set_empty_keyERSE_
dTm:_ReadOnlyCollection_1_System_Collections_IList_Clear_m4022532825_gshared
_sm:_Array_InternalArray__set_Item_TisTMP_CharacterInfo_t3185626797_m2866937532_gshared
Wfl:_Encoding_get_ASCII_m3595602635
off:__ZZN14PhysicsManager15InitializeClassEvEN63EarlyUpdatePhysicsResetInterpolatedTransformPositionRegistrator7ForwardEv
q7c:__ZN11ShapeModule18MultiModeParameterIN25IParticleSystemProperties8PropertyIfNS1_11ClampRadiusEEEE8TransferI14SafeBinaryReadEEvRT_
xnb:__ZN9GfxDevice17ImmediateTexCoordEifff
ntj:_Transform_Translate_m1990195114
xq:FUNCTION_TABLE_viiiiffffii
vEd:__ZN10ClipperLib7Clipper13AppendPolygonEPNS_5TEdgeES2_
edk:_DerivedType_GetCustomAttributes_m3536779709
Sng:__ZL93Interlocked_t2273387594_CustomAttributesCacheGenerator_Interlocked_CompareExchange_m388540288P21CustomAttributesCache
Gxh:_MethodBase_get_IsAbstract_m428833029
J_e:__ZN5physx2GuL34fullContactsGenerationSphereConvexERKNS0_8CapsuleVERKNS0_11ConvexHullVERKNS_6shdfnd3aos12PsTransformVESB_PNS0_17PersistentContactERjRNS0_13ContactBufferEbRNS0_25PersistentContactManifoldERNS8_5Vec3VERKNS8_6FloatVEb
nyb:__Z35Transfer_Blittable_FixedBufferFieldI24GenerateTypeTreeTransferhEvRK29SerializationCommandArgumentsR31RuntimeSerializationCommandInfo
efp:_emscripten_glUniform4f__wrapper
v5f:_TMP_Text_set_isLinkedTextComponent_m313097488
EZl:_Enumerator_MoveNext_m2595190390_AdjustorThunk
F3e:__ZN5physx6shdfnd5ArrayINS_25PxcThresholdStreamElementENS0_19ReflectionAllocatorIS2_EEE8recreateEj
nQj:_Array_InternalArray__IndexOf_TisColor32_t2600501292_m3783551884_gshared
o4b:__ZNK6Camera16GetProjectionFarEv
Ss:__Z24InverseTransformRotationRK23TransformAccessReadOnlyRKN4math7_float4E
jsd:__ZN11UnityEngine9Analytics16StartupTimeEvent23SetSplashScreenTimeInfoEyyy
fon:_X509Chain_Build_m2469702749
fS:__ZN11AudioSource6UpdateEv
nPf:__Z31GetPerformanceReportingSettingsv
WQa:__ZNK14PlayableOutput11DerivesFromE17ScriptingClassPtr
$Sa:__ZN7Texture34CreateFileTextureUploadInstructionE18TextureUploadFlagsj
zIh:__ZN25GenericVirtActionInvoker06InvokeEPK10MethodInfoP12Il2CppObject
iqn:__ZN28GenericInterfaceFuncInvoker1Ib22SpriteData_t3048397587E6InvokeEPK10MethodInfoP12Il2CppObjectS0_
Xre:__ZN5physx7NpCloth21setCollisionMassScaleEf
T0e:__ZN5physx6shdfnd5ArrayINS_7PxPlaneENS0_19ReflectionAllocatorIS2_EEE8recreateEj
wXo:_U3CStartU3Ec__Iterator0_MoveNext_m720253420
jfd:__Z16UpdateOrbitalTplIL27ParticleSystemCurveEvalMode4EEvRK11MinMaxCurveS3_S3_S3_S3_S3_S3_R23ParticleSystemParticlesjjRKN4math8float3x3ERKNS6_7affineXERKNS6_7_float4E
ijf:__ZN13PhysicsModule17GetRigidBodyStateERK9RigidbodyPN8IPhysics14RigidBodyStateE
Y8f:__ZL64SerializableAttribute_t1992588303_CustomAttributesCacheGeneratorP21CustomAttributesCache
Qjb:__ZN25SingleBlockMemoryFileDataC2E10MemLabelIdPvjb
vqo:__ZN15dense_hashtableINSt3__24pairIK10KeyWrapperINS1_IPK11Il2CppImageP11Il2CppClassEEEjEES9_17ReflectionMapHashIS8_EN14dense_hash_mapIS9_jSD_NS9_14EqualsComparerINS0_8equal_toIS8_EEEENS0_9allocatorISB_EEE9SelectKeyESI_SK_E15set_deleted_keyERKSB_
RH:__ZN8Animator8TransferI14SafeBinaryReadEEvRT_
DMn:_StandardEventPayload_IsRequiredDataValid_m361738930
vdo:__ZN14dense_hash_setI10KeyWrapperIPK19Il2CppGenericMethodEN6il2cpp8metadata23Il2CppGenericMethodHashENS4_14EqualsComparerINS6_26Il2CppGenericMethodCompareEEENSt3__29allocatorIS4_EEE6insertERKS4_
bxd:__ZNK14b2CapsuleShape5CloneEP16b2BlockAllocator
YX:__ZN16BaseVideoTexture19UpdateVideoTexturesEv
EAh:_MonoField_GetValue_m3124733531
_Pk:_CollectionBase_System_Collections_IList_set_Item_m1592328081
Sqd:__ZN14ParticleSystem14UpdateFunctionEP24ParticleSystemUpdateData
g7i:_Request_GetResponse_m811000655
Nbb:__ZNK16LightmapSettings23HasLightProbeTetrahedraEv
fid:__ZNK18ColorBySpeedModule12UpdateSingleERK22ParticleSystemParticleR11ColorRGBA32
DZa:__ZN6Sprite23VirtualRedirectTransferER19StreamedBinaryWriteILb0EE
esc:__ZN2UI13RectTransform12SetAnchorMaxERK8Vector2f
pxc:__Z38Transform_CUSTOM_INTERNAL_set_positionP12Il2CppObjectRK8Vector3f
Cih:_EventTrigger_Execute_m2453060771
HWm:_Comparison_1_Invoke_m517083441_gshared
PSh:__Z253RuntimeInvoker_Int32_t2950945753_RuntimeObject_Int32_t2950945753_Int32_t2950945753_RuntimeObject_Int32_t2950945753_UInt32U26_t3735378166_UInt32U26_t3735378166_RuntimeObject_DecoderFallbackBufferU26_t3866396827_ByteU5BU5DU26_t4057885439_SByte_t1669577662PFvvEPK10MethodInfoPvPS4_
Agh:_TextMeshProUGUI_OnRectTransformDimensionsChange_m1092689425
plo:__ZNK15dense_hashtableINSt3__24pairIK10KeyWrapperINS1_IPK9FieldInfoP11Il2CppClassEEEjEES9_17ReflectionMapHashIS8_EN14dense_hash_mapIS9_jSD_NS9_14EqualsComparerINS0_8equal_toIS8_EEEENS0_9allocatorISB_EEE9SelectKeyESI_SK_E5beginEv
jJo:__ZN6il2cpp2os6Thread15CurrentThreadIdEv
QF:__ZN15SerializeTraitsIN4math4trsXEE8TransferI8BlobSizeEEvRS1_RT_
KTb:__ZN14DataBufferGLES11CopySubDataEPKS_jjj
Xe:_emscripten_glVertexPointer
Gjd:__ZN14ParticleSystem22SetUsesEmitAccumulatorEi
Ezm:_PatternCompiler_GetMachineFactory_m3758869886
E7b:__Z17GetFrustumPortionPK8Vector3fffPS_
H5d:__ZNK5physx2Gu22SupportMapRelativeImplINS0_4BoxVEE18doWarmStartSupportEiRNS_6shdfnd3aos5Vec3VE
DAo:__ZN15dense_hashtableINSt3__24pairIK10KeyWrapperIP14Il2CppIUnknownEjEES5_N6il2cpp5utils11PointerHashIS3_EEN14dense_hash_mapIS5_jSB_NS5_14EqualsComparerINS0_8equal_toIS4_EEEENS0_9allocatorIS7_EEE9SelectKeyESG_SI_E14squash_deletedEv
EKa:__ZN5Light13AwakeFromLoadE17AwakeFromLoadMode
Itl:_SimpleCollator_LastIndexOfSortKey_m2864365168
Sak:_Default_check_arguments_m3882727959
Vri:_RuntimeTypeHandle_Equals_m2857439487_AdjustorThunk
Ulb:__ZNK9GfxDevice27GetPlatformAdjustedViewportEv
DDj:_ScrollRect_get_rectTransform_m2442061719
b3j:_SynchronizedWriter_Write_m3654886230
TOm:_ReadOnlyCollection_1_System_Collections_Generic_IListU3CTU3E_set_Item_m88350439_gshared
Xaa:__ZNSt3__26vectorINS_4pairIiiEE13stl_allocatorIS2_L18MemLabelIdentifier38ELi16EEE6insertENS_11__wrap_iterIPKS2_EEOS2_
uim:_EqualityComparer_1_System_Collections_IEqualityComparer_GetHashCode_m1228373509_gshared
m4f:_TMP_Text_set_fontSharedMaterial_m1800046743
Wga:__ZNSt3__26__treeINS_12__value_typeIPvsEENS_19__map_value_compareIS2_S3_NS_4lessIS2_EELb1EEE13stl_allocatorIS3_L18MemLabelIdentifier86ELi16EEE25__emplace_unique_key_argsIS2_JNS_4pairIS2_sEEEEENSD_INS_15__tree_iteratorIS3_PNS_11__tree_nodeIS3_S2_EEiEEbEERKT_DpOT0_
old:__ZN37InheritVelocityModulePropertyBindings13SetFloatValueER14ParticleSystemif
aZm:_Func_3_Invoke_m1194147890_gshared
kCm:_Reference_Compile_m4195878675
G4m:_List_1_set_Item_m2057272351_gshared
ySm:_ReadOnlyCollection_1_System_Collections_ICollection_CopyTo_m2672196987_gshared
pKc:__ZN16StreamedResource8TransferI24GenerateTypeTreeTransferEEvRT_
$5i:_CookieJar_SetCookies_m3103073816
Zoj:_RectTransform_get_anchorMin_m2928307238
i0d:__ZN5physx3Cct10Controller13onOriginShiftERKNS_6PxVec3E
WMk:_ArrayList__ctor_m3828927650
oFa:__ZN10Matrix3x3f15InvertTransposeEv
FGn:_GUILayoutGroup_SetHorizontal_m996475327
wGn:_GUILayoutEntry__cctor_m663865902
u9c:__ZN14EmissionModule8TransferI19StreamedBinaryWriteILb0EEEEvRT_
$_b:__Z11IsBatchmodev
p2n:_Rigidbody2D_AddForce_Injected_m534098484
mSe:__ZN5physx2Gu19_gjkRelativeRayCastINS0_9TriangleVENS0_11ConvexHullVEEEbRT_RT0_RKNS_6shdfnd3aos15PsMatTransformVERKNS9_6FloatVERKNS9_5Vec3VESI_RSD_RSG_SK_f
mwb:__Z29Transfer_Blittable_ArrayFieldI14SafeBinaryRead8Vector3fEvRT_R9ArrayInfoRK23StaticTransferFieldInfo
qii:__Z84RuntimeInvoker_Boolean_t97287965_RaycastResult_t3360306849_RaycastResult_t3360306849PFvvEPK10MethodInfoPvPS4_
jo:FUNCTION_TABLE_vfii
a5a:__ZN26SkinnedMeshRendererManager31HandlePreparationBreakingChangeER19SkinnedMeshRenderer
Qlf:__ZN20TextRenderingPrivate8FontImpl18ResetCachedTextureEv
_ho:__ZN6il2cpp6icalls8mscorlib6SystemL16GetFieldFromTypeINS_5utils10functional6FilterINSt3__212basic_stringIcNS7_11char_traitsIcEENS7_9allocatorIcEEEENS4_13VmStringUtils21CaseSensitiveComparerEEEEEP21Il2CppReflectionFieldP11Il2CppClassSK_iRKT_
AXe:__ZNK5physx19ActorAABBUpdateTask7getNameEv
Nvm:_X509KeyUsageExtension_Decode_m3150759625
NOo:_GC_print_finalization_stats
jud:__ZNK12b2WheelJoint10GetAnchorBEv
kHn:_GUITargetAttribute_GetGUITargetAttrValue_m2954410352
MTl:_Dictionary_2_System_Collections_IDictionary_set_Item_m329348630_gshared
Lsc:__Z53Register_UnityEngine_Behaviour_get_isActiveAndEnabledv
IIk:_SimpleEnumerator_get_Current_m72361444
qs:__ZNSt3__26vectorIN4core12basic_stringIcNS1_20StringStorageDefaultIcEEEENS_9allocatorIS5_EEE8__appendEj
hY:__ZN13ProduceHelperI10SampleClipLb0EE7ProduceE10MemLabelId18ObjectCreationMode
Z6a:__ZN26PlayerSettingsSplashScreen8TransferI17RemapPPtrTransferEEvRT_
$vl:_ASN1_set_Value_m2803403806
fio:__ZN6il2cpp6icalls8mscorlib6SystemL17CollectTypeFieldsINS_5utils10functional10TrueFilterEEEvP11Il2CppClassPKS7_iRNSt3__26vectorIP9FieldInfoNSB_9allocatorISE_EEEERKT_
h6d:__ZN5physx3Scb5Scene20addArticulationJointERNS0_17ArticulationJointE
GPm:_ReadOnlyCollection_1_System_Collections_IList_Remove_m1976423569_gshared
XGe:__ZN5physx7NpScene14resetFilteringERNS_12PxRigidActorEPKPNS_7PxShapeEj
Jtc:__Z13GetTagManagerv
$gd:__Z25UpdateOrbitalAndRadialTplIL27ParticleSystemCurveEvalMode3ELS0_4ELS0_2EEvRK11MinMaxCurveS3_S3_S3_S3_S3_S3_R23ParticleSystemParticlesjjRKN4math8float3x3ERKNS6_7affineXERKNS6_7_float4E
kGk:_Hashtable__ctor_m1815022027
THf:__ZN14UnityAnalytics19ConfigChangedStaticEPS_RKN4core12basic_stringIcNS1_20StringStorageDefaultIcEEEER8JSONReadb
Til:_UTF8Encoding_GetChars_m1433288684
vGl:_KeyCollection_System_Collections_Generic_ICollectionU3CTKeyU3E_Remove_m2555909644_gshared
OG:__ZN11UnityEngine9Animation37HasGenericRootTransformPropertyValuesERKNS0_30AnimatorGenericBindingConstantEb
NZ:__ZN11UnityEngine15CloudWebService17CloudJobSchedulerD0Ev
vZm:_OrderedEnumerable_1_GetEnumerator_m3078559865_gshared
qab:__ZN18LoadSceneOperation7PerformEv
xMe:__ZN5physx2Sc5Scene26setSimulationEventCallbackEPNS_25PxSimulationEventCallbackEh
Frd:__ZN11UnityEngine9Analytics26PerformanceReportingConfig13ConfigChangedERKN4core12basic_stringIcNS2_20StringStorageDefaultIcEEEER8JSONRead
BKc:__Z18CalculateWorldAABBR10GameObject
hMh:__Z96RuntimeInvoker_Boolean_t97287965_RuntimeObject_RuntimeObject_Int32_t2950945753_Int32_t2950945753PFvvEPK10MethodInfoPvPS4_
XOj:_Array_IndexOf_TisUICharInfo_t75501106_m3198896198_gshared
QBf:__ZNK2UI11CanvasGroup22GetTypeVirtualInternalEv
I_j:_Context_get_Current_m2853615040
aXd:__ZL30GeomMTDCallback_CapsuleCapsuleRN5physx6PxVec3ERfRKNS_10PxGeometryERKNS_11PxTransformES5_S8_
BHe:__ZN5physx7NpScene23forceDynamicTreeRebuildEbb
tEd:__ZN10ClipperLib7Clipper14IntersectEdgesEPNS_5TEdgeES2_RNS_8IntPointE
OZd:__ZL18intersectAnyVsMeshILi0EEbPKN5physx2Gu6SphereEPKNS1_7CapsuleEPKNS1_3BoxERKNS1_13RTreeMidphaseERKNS0_11PxTransformERKNS0_11PxMeshScaleEP14LimitedResults
yYc:__Z21CleanupGlobalGUIStatev
Pnl:_Type_IsContextfulImpl_m3693603908
$Yl:_Enumerator_VerifyState_m2873941769_gshared
Zce:__ZN5physx14NpArticulation6wakeUpEv
rYb:__ZN22VertexDeclarationCache5ClearEv
Ati:_CspParameters__ctor_m3852972821
CPj:_Array_InternalArray__IndexOf_TisInt32_t2950945753_m738632427_gshared
kfc:__ZN17PersistentManager12SetPathRemapERKN4core12basic_stringIcNS0_20StringStorageDefaultIcEEEES6_
xA:__Z27ProcessRootMotionEmptyMixerP35AnimationPlayableEvaluationConstantP32AnimationPlayableEvaluationInputP33AnimationPlayableEvaluationOutput
j9b:__ZN6Camera24PrepareCullingParametersERK23CameraCullingParameters13RenderingPathR11CullResults
u9b:__Z20CullReflectionProbesR8JobFenceRK22SceneCullingParametersRK23ReflectionProbesContextPKjjPjS9_
Bab:__ZN19RuntimeSceneManager22EndIntegrateMainThreadEP10UnitySceneNS_11LoadingModeE
Iwk:_Array_Sort_TisUICharInfo_t75501106_m3474449559_gshared
eDk:_Buffer_BlockCopy_m2884209081
a5i:_SpriteSelectionEvent__ctor_m23613475
Kxm:_QuickSearch_GetShiftDistance_m2542665852
PAk:_Array_InternalArray__get_Item_TisCustomAttributeTypedArgument_t2723150157_m2639399822_gshared
nul:_BigInteger_GenerateRandom_m3141592944
iAb:__Z29Transfer_Blittable_ArrayFieldI24GenerateTypeTreeTransfer4AABBEvRT_R9ArrayInfoRK23StaticTransferFieldInfo
kVc:__ZN9Scripting11UnityEngine12StylePainter12CleanupProxyEv
cgh:_TextMeshProUGUI_OnDestroy_m1383802296
PPo:_GC_adj_bytes_allocd
Zsh:_Graphic_CacheCanvas_m1120385152
ZJ:__ZN26AnimatorOverrideController15InitializeClassEv
x9e:__ZN5physx20InternalTriangleMesh16allocateVerticesEj
xLe:__ZN5physx2Sc16InteractionScene18releaseConstraintsEb
oVc:__ZN9Scripting11UnityEngine15ScrollViewState12CleanupProxyEv
yud:__ZN13b2PulleyJoint24SolveVelocityConstraintsERK12b2SolverData
IVe:__ZN5physx6shdfnd5ArrayINS_17PxcBroadPhasePairENS0_19ReflectionAllocatorIS2_EEE8recreateEj
nNl:_Enumerator_get_Current_m1781571415_AdjustorThunk
g6o:_emscripten_GetProcAddress
La:invoke_fiiifii
B7o:_modff
r5h:__Z88RuntimeInvoker_Void_t1185182177_Vector2_t2156229523_Single_t1397266774_SByte_t1669577662PFvvEPK10MethodInfoPvPS4_
Smk:_Convert_ConvertToBase16_m2849966797
xTd:__ZThn4_N16RayRTreeCallbackILi1ELb0EED1Ev
mKa:__ZN20SphericalHarmonicsL219AddDirectionalLightERKN4math7_float3ERKNS0_7_float4E
h8e:__ZN5physx13BigConvexDataD2Ev
aha:__Z26ScheduleJobForEachInternalR8JobFencePFvPvjES1_iPFvS1_E11JobPriority
x_b:__ZZ23InitPlayerLoopCallbacksvEN41PostLateUpdateProfilerEndFrameRegistrator7ForwardEv
moc:__ZN9Scripting18RaiseMonoExceptionEPKcz
iJc:__ZN10GameObject17WillHandleMessageERK17MessageIdentifier
K8k:_StrongNamePublicKeyBlob_Equals_m3655422942
f1n:_RectTransformUtility_GetTransposed_m3952754222
NGc:__ZN9ShaderLab16FastPropertyName15InitBy28BitHashEj
g7l:_List_1_System_Collections_IList_set_Item_m4182383657_gshared
aDg:__ZL84Material_t340375123_CustomAttributesCacheGenerator_Material_GetFloatImpl_m3750846334P21CustomAttributesCache
b4l:_List_1_System_Collections_IList_Add_m2937161398_gshared
yzf:__Z34TextMesh_CUSTOM_INTERNAL_get_colorP12Il2CppObjectP10ColorRGBAf
FUf:_TMP_ColorGradient__ctor_m4278887694
rPh:__Z96RuntimeInvoker_Void_t1185182177_Int32_t2950945753_Single_t1397266774_RuntimeObject_RuntimeObjectPFvvEPK10MethodInfoPvPS4_
Eln:_AuthorityKeyIdentifierExtension_Decode_m1082741678
uAl:_Enumerator_System_Collections_IDictionaryEnumerator_get_Key_m195047678_AdjustorThunk
X$n:_Canvas_get_pixelPerfect_m333060872
D3a:__ZN17PackedFloatVector12UnpackFloatsEPfiiii
Ylo:__ZN30dense_hashtable_const_iteratorINSt3__24pairIK10KeyWrapperIPK10Il2CppTypeEjEES6_N6il2cpp8metadata14Il2CppTypeHashEN14dense_hash_mapIS6_jSB_NS6_14EqualsComparerINSA_26Il2CppTypeEqualityComparerEEENS0_9allocatorIS8_EEE9SelectKeyESF_SH_EppEv
GD:__ZN17AnimationPlayable28UpdateInternalStateRecursiveILi3ELb0EEEvPK35AnimationPlayableEvaluationConstant
rRb:__ZN13GfxDeviceGLES21DestroyComputeProgramER12ObjectHandleI18ComputeProgram_TagPvE
g1a:__ZN17GenericDynamicVBOD2Ev
_zm:_PatternCompiler_EmitIfDefined_m2075050865
Yrk:_Decimal_System_IConvertible_ToInt64_m1446427516_AdjustorThunk
yea:__ZN17UniqueIDGenerator16DestroyPureIndexEj
f7j:_NotImplementedException__ctor_m3095902440
Baa:__ZL21AppendNestedClassName17ScriptingClassPtrRN4core17string_with_labelILi1EEE
wjc:__ZN14SafeBinaryRead21TransferSTLStyleArrayINSt3__26vectorIN9ShaderLab20SerializedSubProgram12UAVParameterENS1_9allocatorIS5_EEEEEEvRT_17TransferMetaFlags
Yvo:__ZN6il2cpp8metadata13ArrayMetadata20SetupArrayInterfacesEP11Il2CppClassRKNS_2os12FastAutoLockE
Yuj:_InputField_set_inputType_m424695295
TZo:_JSON_JsonDecode_m185308781
K_:__ZN24TextDOMTransferWriteBaseI9JSONWriteE12PushMetaFlagEi
Cre:__ZN5physx7NpCloth22removeCollisionCapsuleEj
Rig:__ZL59_PropertyBuilder_t1366136710_CustomAttributesCacheGeneratorP21CustomAttributesCache
z5c:__ZN16MinMaxPolyCurves26FindMinMaxDoubleIntegratedEv
jka:__ZN6prcoreL26RemapGenericIntegerToFloatI17TexFormatARGB888815TexFormatRFloatEEvPKNS_9InnerInfoE
Ero:__ZN6il2cpp2vm17TypeNameParseInfoD2Ev
Gmm:_PrimeHelper_ToPrime_m3704362632_gshared
UO:__ZN4FMOD7Channel7setModeEj
M3e:__ZN5physx18PxsSolverStartTask16articulationTaskEv
lPn:_Vector2_get_right_m1027081661
wXa:__ZNK8Renderer8GetLayerEv
r7d:__ZN5physx6shdfnd4sortIPvNS0_4LessIS2_EENS0_19ReflectionAllocatorINS_2Cm5BlockIS2_Lj16EEEEEEEvPT_jRKT0_RKT1_j
Q3k:_Stream_Close_m771352034
JJa:__ZN12FlareManager11DeleteFlareEi
x3b:__ZNK6Camera20GetReplacementShaderEv
hle:__ZN18MultiQueryCallbackIN5physx12PxRaycastHitEE6invokeERfPKNS0_2Sq13PrunerPayloadEj
YRa:__ZL23stbir__calculate_memoryP11stbir__info
V0o:_JSONLazyCreator_get_AsDouble_m2077500284
Moj:_RectOffset_ToString_m2007443979
Pxm:_Interpreter_Close_m126356671
$Ne:__ZN5physx18PxcNpThreadContextD2Ev
gLd:__ZN9Scripting11UnityEngine14SphereCollider12CleanupProxyEv
S0a:__ZNK6Camera18GetRenderRectangleEv
XXi:_X509Chain_Reset_m1198177101
Owm:_CategoryUtils_CategoryFromName_m1352081402
RZf:_TMP_InputField_get_clipboard_m3351457038
P4c:__ZN9Scripting11UnityEngine22ParticleCollisionEvent9InitProxyEv
i$a:__ZN13sorted_vectorIN4core12basic_stringIcNS0_20StringStorageDefaultIcEEEENSt3__24lessIS4_EE13stl_allocatorIS4_L18MemLabelIdentifier81ELi16EEE4findIS4_EENS5_11__wrap_iterIPS4_EERKT_
_Hc:__Z13RegisterClassI30RuntimeInitializeOnLoadManagerEvPKc
MAm:_Parser_HandleExplicitNumericGroups_m1412234891
DBk:_Array_InternalArray__get_Item_TisRaycastHit2D_t2279581989_m2440275162_gshared
ubk:_CustomAttributeNamedArgument_Equals_m1414002036
g2c:__ZL26Transfer_SimpleNativeClassI8JSONRead10RectOffsetLb1EEvRK29SerializationCommandArgumentsR31RuntimeSerializationCommandInfo
HEf:__Z44CanvasRenderer_CUSTOM_INTERNAL_CALL_SetColorP12Il2CppObjectRK10ColorRGBAf
wFa:__Z26TransformVerticesInnerLoopILb1ELb1ELb1EEvPhRK10Matrix4x4fRK10Matrix3x3fjPKhiS8_ii25GfxTransformVerticesFlagsj
dXl:_Enumerator_System_Collections_IEnumerator_Reset_m959124362_AdjustorThunk
xIh:_CrossContextDelegate_Invoke_m3121381558
RIi:_InternalEnumerator_1_get_Current_m2204111114_AdjustorThunk
Znh:_CanvasScaler_HandleScaleWithScreenSize_m3848620697
E2b:__ZNK20DynamicPropertySheet18FindQueuedPropertyEN9ShaderLab16FastPropertyNameEN19ShaderPropertySheet12PropertyTypeE
svk:_Enum_ToObject_m121831801
icf:__ZN5physx2Gu27computeBoundsAroundVerticesERNS_9PxBounds3EjPKNS_6PxVec3E
lvh:_Image_get_hasBorder_m3423344180
W_c:__Z18Transfer_BlittableI9JSONWriteLb1EsEvRK29SerializationCommandArgumentsR31RuntimeSerializationCommandInfo
lEd:__ZN10ClipperLib8JoinHorzEPNS_5OutPtES1_S1_S1_NS_8IntPointEb
bGe:__ZNK5physx7NpScene9getLimitsEv
_If:__Z48UnityAnalyticsHandler_CUSTOM_SendCustomEventNameP12Il2CppObjectP12Il2CppString
zxc:__ZN9Transform16SetLocalRotationERK11Quaternionf
JSe:__ZNK5physx2Gu29EPASupportMapPairRelativeImplINS0_9TriangleVENS0_8CapsuleVEE9doSupportERKNS_6shdfnd3aos5Vec3VERS7_SA_SA_
TUc:__Z15CleanupGUIStylePv
x$b:__ZN13RenderManager37RenderCamerasWithScriptableRenderLoopEi
BWe:__ZN3MBP12updateObjectEjRK5IAABB
Xxc:__Z40Transform_CUSTOM_INTERNAL_get_lossyScaleP12Il2CppObjectP8Vector3f
Naj:_Color_get_white_m332174077
tae:__ZN5physx6shdfnd5ArrayINS_6PxVec3ENS0_19ReflectionAllocatorIS2_EEE15growAndPushBackERKS2_
UQb:__ZN13GfxDeviceGLES22ReleaseThreadOwnershipEv
rvc:__ZNSt3__26__treeINS_12__value_typeIN9ShaderLab16FastPropertyNameEN18UnityPropertySheet11UnityTexEnvEEENS_19__map_value_compareIS3_S6_NS_4lessIS3_EELb1EEENS_9allocatorIS6_EEE14__assign_multiINS_21__tree_const_iteratorIS6_PNS_11__tree_nodeIS6_PvEEiEEEEvT_SL_
tEo:__ZN6il2cpp2os19ReleaseSocketHandleEj
S6i:_FormPart__ctor_m2036644781
mX:__ZN11AudioModule16GetDSPSampleRateEv
zHh:_DynamicPropertyCollection_get_HasProperties_m4067429750
_Je:__ZN5physx2Sc5Scene20fireTriggerCallbacksEv
Tml:_Type_get_Attributes_m58528356
RBf:__ZN2UI11CanvasGroup23VirtualRedirectTransferER19StreamedBinaryWriteILb0EE
XRe:__ZN5physx2Gu18GJKRelativeRayCastERNS0_8CapsuleVERNS0_4BoxVERKNS_6shdfnd3aos15PsMatTransformVERKNS6_6FloatVERKNS6_5Vec3VESF_RSA_RSD_SH_fb
xDk:_Array_GetUpperBound_m4018715963
y5i:_TurretShooting_Update_m3795765435
IAc:__Z13RegisterClassI9TextAssetEvPKc
mGo:__ZN6il2cpp2os5posix15PosixWaitObjectC2ENS2_4TypeE
C1b:__ZN6Camera21PostMultiCustomRenderENS_10RenderFlagEb
drm:_Array_InternalArray__Insert_TisMonoResource_t4103430009_m1997865927_gshared
F6k:_SHA512Managed_HashFinal_m2173184560
TWb:__ZN12_GLOBAL__N_112UploadImagesEP7ApiGLESjji14GraphicsFormatPKhjS2_iiii16TextureUsageModePh
HNb:__ZN23ShaderVariantCollection13WarmupShadersEv
Y1o:_JSONNode_op_Implicit_m3389395785
GOf:__ZN11UnityEngine15PlatformWrapper20GetPlayerPrefsUInt64ERKN4core12basic_stringIcNS1_20StringStorageDefaultIcEEEEy
uzl:_Enumerator_System_Collections_IDictionaryEnumerator_get_Entry_m1355283127_AdjustorThunk
YAi:_InternalEnumerator_1_get_Current_m3840351116_gshared
$Eh:_Marshal_copy_from_unmanaged_m2834266824
iaa:__Z25GetCommonScriptingClassesv
jbb:__Z27scripting_gc_collect_unsafei
sVj:_MD5SHA1_HashFinal_m4115488658
rX:__ZN11AudioModule20SuspendVideoTexturesEv
JRj:_Array_InternalArray__ICollection_Add_TisKeyValuePair_2_t71524366_m3468275433_gshared
ABf:__ZN9Scripting11UnityEngine9CSSLayout6Native9InitProxyEv
vW:__Z59Register_UnityEngine_AudioExtensionManager_GetAudioListenerv
NAl:_Enumerator_VerifyState_m788183934_gshared
PBe:__ZN5physx13NpRigidStaticC2ERKNS_11PxTransformE
Azb:__Z26Transfer_UnityEngineObjectI24GenerateTypeTreeTransferLb0EEvRK29SerializationCommandArgumentsR31RuntimeSerializationCommandInfo
Ukk:_Convert_ToDouble_m278900635
krf:_UNITY_FT_GlyphLoader_CheckPoints
mwj:_InputField_LineDownCharacterPosition_m2798128425
hSe:__ZN5physxL20PxcSweepBoxTrianglesERKNS_11PxsCCDShapeES2_RKNS_11PxTransformES5_S5_S5_fRNS_6PxVec3ES7_RNS_10PxcNpCacheERNS_18PxcNpThreadContextERKNS_2Cm23FastVertex2ShapeScalingERNS_2Gu9TriangleVEf
Jsi:_SByte_ToString_m3584531119
y0d:__ZN5physx3Cct15ObstacleContextD0Ev
RJa:__ZN15SharedLightData7PrecalcEv
mEn:_TMPro_EventManager_ON_DRAG_AND_DROP_MATERIAL_CHANGED_m1798439884
Rza:__ZN10Matrix4x4fmLERKS_
IOn:_Vector2__ctor_m3970636864
mza:__ZN17TransformInternal12InitLocalTRSE15TransformAccessRKN4math7_float3ERKNS1_7_float4ES4_
bDb:__Z35Transfer_Blittable_FixedBufferFieldI18StreamedBinaryReadILb1EEsEvRK29SerializationCommandArgumentsR31RuntimeSerializationCommandInfo
lWf:_TMP_Dropdown_AlphaFadeList_m1824333241
CRk:_Environment_InternalGetFolderPath_m468390978
Iib:__ZN15ArchiveReadFileD0Ev
GOj:_Array_IndexOf_TisRejectHandler_t1435172309_m1153911033_gshared
NLf:__ZN11UnityEngine15PlatformWrapper18GetOperatingSystemEv
pal:_SecurityFrame_ToString_m339310712
TKe:__ZN5physx3Scb9Aggregate9syncStateERNS0_5SceneE
nSk:_Calendar__ctor_m106290643
Dsh:_FontUpdateTracker_RebuildForFont_m3134452007
h8j:_NumberFormatter_FormatDecimal_m1921932981
srd:__ZN14ParticleSystem18SyncSimulationJobsEv
mio:__ZN6il2cpp6icalls8mscorlib6System8MonoType19GetGenericArgumentsEP20Il2CppReflectionType
_Qf:__ZN29UnityWebRequestAsyncOperation15InvokeCoroutineEv
J5f:_TMP_Text_get_ignoreVisibility_m3650197610
wmd:__ZN22ParticleSystemRenderer13BoundsChangedEv
qFj:_Selectable_IsInteractable_m2611421038
Qqf:_FT_MSB
yjp:_emscripten_glReadPixels__wrapper
OEc:__ZZL23RegisterLightPropertiesR22GenericPropertyBindingEN29Wrapper_LightShadowNormalBias13GetFloatValueEPv
sTo:__ZN6il2cpp6icalls8mscorlib4Mono8Security12Cryptography18KeyPairPersistence10_CanSecureEP12Il2CppString
IIj:_Array_InternalArray__ICollection_Contains_TisParameterModifier_t1461694466_m1000453323_gshared
Bge:__ZN5physx7NpActor17resolveReferencesERNS_24PxDeserializationContextE
Ref:__ZN9Rigidbody15InitializeClassEv
Kdm:_Dictionary_2_System_Collections_ICollection_CopyTo_m4047192178_gshared
_jo:__ZN6il2cpp2os4File11GetFileStatERKNSt3__212basic_stringIcNS2_11char_traitsIcEENS2_9allocatorIcEEEEPNS0_8FileStatEPi
AIf:__ZN14UnityAnalytics22HandleCustomEventLimitERN11UnityEngine9Analytics15UserCustomEventE
s9c:__ZN13InitialModule8TransferI19StreamedBinaryWriteILb0EEEEvRT_
NBc:__ZN9TransformC2E10MemLabelId18ObjectCreationMode
Keh:_TextMeshPro_CalculateLayoutInputVertical_m3688106076
xPb:__ZN13GfxDeviceGLES14SetRasterStateEPK17DeviceRasterState
oQn:_Vector4_Equals_m1779210055
N2d:__ZN5physx6shdfnd8internal8HashBaseINS0_4PairIKPKNS_2Sc8ShapeSimENS4_10NPhaseCore16ClothListElementEEES7_NS0_4HashIS7_EENS1_11HashMapBaseIS7_SA_SD_NS0_9AllocatorEE6GetKeyESF_Lb1EE5eraseERS8_
$sf:_otv_Coverage_get_count
ACh:_ParameterModifier_t1461694466_marshal_pinvoke_back
jJi:_InternalEnumerator_1_get_Current_m1711665164_AdjustorThunk
kua:__ZN14SafeBinaryRead11EndTransferEv
god:__ZL32TransformParticleMeshAnimatedUVsILb1EEvRK16ParticleMeshDataiRK22ParticleSystemTempDataRK31ParticleSystemParticlesTempData11ColorRGBA32RK26ParticleSystemRendererDataRK21ParticleSystemModulesRKN4math7affineXERKNSG_8float3x3ERK23ParticleSystemParticlesjPPhPPf
HS:__ZN20SoundChannelInstance19set3DMinMaxDistanceEff
ivk:_Enum_System_IConvertible_ToUInt16_m4216751959
zad:__ZN11MinMaxCurve11ResetCurvesEv
_Vl:_Enumerator_System_Collections_IEnumerator_Reset_m1475773051_gshared
Iol:_UInt16_System_IConvertible_ToSByte_m2219828332_AdjustorThunk
phk:_SortedList_Remove_m2784369438
Pzc:__Z40Register_UnityEngine_Input_GetKeyDownIntv
KUa:__ZN4crnd12crn_unpacker10unpack_dxnEPPhjjj
Vaa:__ZN14SerializedFileD2Ev
hfd:__Z16UpdateOrbitalTplIL27ParticleSystemCurveEvalMode2EEvRK11MinMaxCurveS3_S3_S3_S3_S3_S3_R23ParticleSystemParticlesjjRKN4math8float3x3ERKNS6_7affineXERKNS6_7_float4E
XVc:__Z30Event_Get_Custom_PropModifiersP12Il2CppObject
E8d:__ZN5physx6shdfnd5ArrayIPvNS0_16AlignedAllocatorILj64ENS0_9AllocatorEEEE15growAndPushBackERKS2_
L1n:_Physics2D_Raycast_m2858866636
Mse:__ZN5physx6shdfnd5ArrayINS_35PxClothParticleSeparationConstraintENS0_19ReflectionAllocatorIS2_EEE6resizeEjRKS2_
ey:__ZN7mecanim9animation16CreateClipOutputEPKNS0_4ClipERNS_6memory9AllocatorE
TAj:_RawImage_get_mainTexture_m2396337033
a8c:__ZN27ParticleSystemEmissionBurst8TransferI24GenerateTypeTreeTransferEEvRT_
kko:__ZN6il2cpp2vm10Reflection17GetAssemblyObjectEPK14Il2CppAssembly
N$d:__ZN5physx3Cct12SweptCapsuleC2Ev
lic:__ZN6Shader21AwakeFromLoadThreadedEv
ero:__ZN6il2cpp2vm10Reflection12HasAttributeEP12Il2CppObjectP11Il2CppClass
eZh:__Z94RuntimeInvoker_Void_t1185182177_Vector3_t3722313464_Quaternion_t2301928331_Vector3_t3722313464PFvvEPK10MethodInfoPvPS4_
tja:__ZN6prcoreL17RemapGenericFloatI17TexFormatRGBFloat17TexFormatRGBAHalfEEvPKNS_9InnerInfoE
owc:__Z58Register_UnityEngine_PlayerConnectionInternal_PollInternalv
f2j:_StreamReader_ReadLine_m1468498645
SOn:_Vector2_GetHashCode_m3916089713_AdjustorThunk
Xff:__ZN5physx24PxcContactBoxHeightFieldERKNS_2Gu13GeometryUnionES3_RKNS_11PxTransformES6_RKfRNS_10PxcNpCacheERNS0_13ContactBufferE
mub:__ZNSt3__26vectorI8MonoPPtr13stl_allocatorIS1_L18MemLabelIdentifier1ELi16EEE8__appendEj
d2b:__ZN14qsort_internal30FindAndMovePivotToLastPositionIP17RODataReplacementi19ROSorterReplacementEEvT_S4_T0_T1_
KXb:__ZN15UniformTFMethod20IsBoneCountSupportedEi
rXe:__ZNK5physx23AggregateAABBUpdateTask7getNameEv
U7f:_TMP_Text_SetCharArray_m439917168
hrl:_UnauthorizedAccessException__ctor_m246605039
Tcp:dynCall_viidi
t7i:_Response_UnZip_m4088165753
k$m:_Predicate_1_Invoke_m2337471830_gshared
iXf:_TMP_Settings_get_defaultFontAsset_m2899293322
R7:__ZN24ScriptingMethodFiltering17FilterOnSignatureENS_18MethodSearchFilterE
M9c:__ZN11TrailModule8TransferI19StreamedBinaryWriteILb0EEEEvRT_
m7e:__ZN5physx13NpClothFabric16scaleRestlengthsEf
uIf:__ZNSt3__26__treeINS_12__value_typeIN4core12basic_stringIcNS2_20StringStorageDefaultIcEEEEN11UnityEngine9Analytics15UserCustomEvent11CustomValueEEENS_19__map_value_compareIS6_SB_NS_4lessIS6_EELb1EEE13stl_allocatorISB_L18MemLabelIdentifier6ELi16EEE7destroyEPNS_11__tree_nodeISB_PvEE
mqf:_cf2_arrstack_finalize
Dnn:_X509Certificate_VerifySignature_m3538124832
PAi:_InternalEnumerator_1_System_Collections_IEnumerator_get_Current_m1299065558_AdjustorThunk
ihl:_StringBuilder_Append_m1640838743
Y3k:_StreamAsyncResult_SetComplete_m1102187093
HDc:__ZN13MonoBehaviour19HandleNotificationsEPviR11MessageData
Ioj:_RectOffset_Init_m2028508611
wDe:__ZN5physx6shdfnd5ArrayIPNS_2Sc17ParticleSystemSimENS0_19ReflectionAllocatorIS4_EEE8recreateEj
S4m:_List_1_System_Collections_IList_Remove_m4226673807_gshared
JWj:_Alert__ctor_m3135936936
NZk:_Int64_System_IConvertible_ToInt32_m772105781
xkn:_TlsClientSettings__ctor_m3220697265
loo:__ZNK15dense_hashtableINSt3__24pairIK10KeyWrapperINS1_IPK9EventInfoP11Il2CppClassEEEjEES9_17ReflectionMapHashIS8_EN14dense_hash_mapIS9_jSD_NS9_14EqualsComparerINS0_8equal_toIS8_EEEENS0_9allocatorISB_EEE9SelectKeyESI_SK_E23find_position_with_hashERSA_j
p7o:_copysignl
RTf:__ZL45__ManagedRegistrationHelperFunction_SubsystemPv
zgl:_ForwardingDecoder_GetChars_m4228908854
iym:_InterpreterFactory_get_GroupCount_m2226373271
Ifp:b53
Ffp:b50
Gfp:b51
m$e:__ZN5physx9PxTaskMgrD0Ev
Ofp:b57
Jfp:b54
Kfp:b55
qu:__ZL45__ManagedRegistrationHelperFunction_HumanBonePv
Mgl:_Latin1Encoding_get_HeaderName_m3965337014
rEk:_X509Certificate_get_RawData_m2387471414
Qhp:_glDetachShader__wrapper
PIk:_ArrayTypeMismatchException__ctor_m3375008173
YJl:_Transform_1_BeginInvoke_m1757796657_gshared
c_n:_U3CSendWebRequestU3Ed__0_System_Collections_IEnumerator_Reset_m3019108636
c4f:_TMP_SubMeshUI_UpdateMaterial_m1590409545
Nqa:__ZN9Scripting11UnityEngine7Hash12812CleanupProxyEv
obe:__ZN5physx3Scb5Scene13addRigidNoSimINS0_11RigidStaticELb0ELb1EEEvRT_RNS0_13ObjectTrackerE
Wlb:__ZN9GfxDevice25SetShaderPropertiesSharedERK19ShaderPropertySheet
KOf:__ZN11UnityEngine7Connect20RemoteConfigSettingsC2ERKN4core12basic_stringIcNS2_20StringStorageDefaultIcEEEEPFvPS1_E18ScriptingObjectPtr
bnh:_BaseMeshEffect_get_graphic_m1852367505
OPk:_CaseInsensitiveHashCodeProvider_GetHashCode_m2168170016
Yqc:__ZN19SpriteMeshGenerator4path9clip_edgeEi
Tra:__ZN9Scripting11UnityEngine12Experimental18GlobalIllumination11LightDataGI12CleanupProxyEv
CDc:__ZL25InitializeDefaultMaterialv
AFf:__Z53Register_UnityEngine_CanvasRenderer_get_materialCountv
Twh:_PropertyBuilder_GetCustomAttributes_m3798356764
sMn:_EventTrigger_RemoveRule_m1596811726
wQi:_Comparer_1_System_Collections_IComparer_Compare_m4179495191_gshared
ucb:__ZN17PersistentManager12UnloadStreamERKN4core12basic_stringIcNS0_20StringStorageDefaultIcEEEEb
IDd:__ZN10ClipperLib11ClipperBase7AddPathERKNSt3__26vectorINS_8IntPointENS1_9allocatorIS3_EEEENS_8PolyTypeEb
Srm:_Array_InternalArray__Insert_TisUICharInfo_t75501106_m2924156520_gshared
T6h:__Z64RuntimeInvoker_Boolean_t97287965_Double_t594665363_RuntimeObjectPFvvEPK10MethodInfoPvPS4_
aGd:__ZN19CompositeCollider2D22SimplifyCompositePathsERKNSt3__26vectorINS1_IN10ClipperLib8IntPointENS0_9allocatorIS3_EEEENS4_IS6_EEEERS8_
lRj:_MonoProperty_GetterAdapterFrame_TisRuntimeObject_TisRuntimeObject_m458718082_gshared
Zvk:_Array_Sort_TisInt32_t2950945753_TisInt32_t2950945753_m3955828611_gshared
Jto:_il2cpp_unity_liveness_calculation_from_statics
X7h:__Z70RuntimeInvoker_Boolean_t97287965_CharU26_t1697032762_Int16_t2552820387PFvvEPK10MethodInfoPvPS4_
QB:__ZNK26AnimatorControllerPlayable11DerivesFromE17ScriptingClassPtr
FMi:_InternalEnumerator_1_System_Collections_IEnumerator_get_Current_m2649471526_gshared
iYa:__ZN8Renderer8TransferI17RemapPPtrTransferEEvRT_
Lek:_GenericTypeParameterBuilder_GetGenericArguments_m2988765390
GMg:__ZL55SkeletonBone_t4134054672_CustomAttributesCacheGeneratorP21CustomAttributesCache
tSa:__ZN6prcore16BlitFuncInfoSIMD19BlitFuncExecuteSIMDEPKNS_9InnerInfoEPKv
dQf:__ZN20UnityWebRequestProtoI24UnityWebRequestTransport16AtomicRefCounter14RedirectHelper14ResponseHelper15DownloadHandler13UploadHandler18CertificateHandler12HeaderHelper14AsyncOperationE9DoRequestEv
qAl:_Enumerator_System_Collections_IDictionaryEnumerator_get_Entry_m522483686_gshared
fyl:_PrivateKeyInfo_RemoveLeadingZero_m3921889925
$jl:_Thread_get_CurrentContext_m1695017876
kYf:_TMP_InputField_set_onTextSelection_m1301803435
JAd:__ZN7b2World20ClearIslandFlagsTaskEv
kzc:__Z22Input_CUSTOM_GetKeyInti
Kse:__ZNK5physx2Sc9ClothCore16getCollisionDataEPNS_22PxClothCollisionSphereEPjPNS_21PxClothCollisionPlaneES4_PNS_24PxClothCollisionTriangleE
bYf:_TMP_InputField_get_onEndEdit_m4238117701
kvd:__ZN16PhysicsManager2D19AddRigidbodyUpdatesEP11Rigidbody2D
Fcc:__Z24LookRotationToQuaternionRK8Vector3fS1_P11Quaternionf
Dcc:__ZN16ReflectionProbes9GetCameraEv
p7b:__Z23CalculateLightOcclusionRK17LightProbeContextRK29LightProbeSamplingCoordinatesi
Pwe:__ZNK5physx2Sc18ParticleSystemCore20getMaxMotionDistanceEv
Cmd:__ZN22ParticleSystemRenderer8TransferI14SafeBinaryReadEEvRT_
oDf:__ZN2UI6Canvas17SetSortingLayerIDEi
jGo:__ZN6il2cpp2vm11MethodStack23CleanupForCurrentThreadEv
xJm:_Collection_1_ConvertItem_m618594517_gshared
XIi:_InternalEnumerator_1_System_Collections_IEnumerator_get_Current_m2011757623_AdjustorThunk
Knk:_Convert_ToUInt64_m388601487
XHa:__ZN20TierGraphicsSettings8TransferI24GenerateTypeTreeTransferEEvRT_
Lco:__ZN15dense_hashtableINSt3__24pairIK10KeyWrapperIN6il2cpp5utils13dynamic_arrayIPK10Il2CppTypeLj4EEEEPFvvEEESA_NS3_8metadata19Il2CppSignatureHashEN14dense_hash_mapISA_SD_SG_NSA_14EqualsComparerINSF_22Il2CppSignatureCompareEEENS0_9allocatorISE_EEE9SelectKeyESK_SM_E16reset_thresholdsEv
mij:_Mesh_get_vertices_m3585684815
osj:_TouchScreenKeyboard_get_text_m1797464608
iQa:__ZN18UnityPropertySheet8TransferI19StreamedBinaryWriteILb0EEEEvRT_
X0o:_JSONLazyCreator_get_AsLong_m3978419979
Ou:__ZN9Scripting11UnityEngine27AnimatorControllerParameter9InitProxyEv
_ha:__ZNSt3__26__treeINS_12__value_typeIiN11TypeManager18TypeCallbackStructEEENS_19__map_value_compareIiS4_NS_4lessIiEELb1EEENS_9allocatorIS4_EEE7destroyEPNS_11__tree_nodeIS4_PvEE
Ngn:_Collection_1_set_Item_m771283566_gshared
xDa:__ZN9ShaderLab32FindBestMatchingShaderKeywordSetERK16ShaderKeywordSetRK13dynamic_arrayIS0_Lj0EEPS5_
T4o:_Benchmark03_Start_m3693625788
Ini:_RemotingProxy_get_TypeName_m4085898624
Msj:_Transform_INTERNAL_set_position_m3627767375
VEd:__ZN16PhysicsManager2D42RegisterTransformChangeInterestForColliderEP10Collider2D
K0o:_JSONLazyCreator_set_Item_m412762592
SJc:__ZNK14PlayableOutput23GetSourcePlayableUnsafeEv
IKf:__ZN11UnityEngine7Connect17XRDeviceInfoEventD0Ev
mjh:_ExecuteEvents_Execute_m3936726821
Wjg:__ZL60SoapTypeAttribute_t1750930817_CustomAttributesCacheGeneratorP21CustomAttributesCache
f_i:_NetworkStream_set_ReadTimeout_m3234003733
hQj:_Array_InternalArray__IndexOf_TisTMP_MeshInfo_t2771747634_m956969202_gshared
Oak:_Binder_ConvertArgs_m2124461494
Khc:__ZN21UnityDefaultAllocatorI17LowLevelAllocatorE10DeallocateEPv
Sip:b86
QCa:__ZN20IntermediateRenderer15AddAsRenderNodeER15RenderNodeQueueRK20DeprecatedSourceData
vJ:__ZN15PackedIntVector8TransferI14SafeBinaryReadEEvRT_
nPn:_Vector3__ctor_m3353183577_AdjustorThunk
lCi:_InternalEnumerator_1_System_Collections_IEnumerator_get_Current_m1514266661_gshared
Gee:__ZNK5physx19NpArticulationJoint20getTangentialDampingEv
m_h:__Z71RuntimeInvoker_Void_t1185182177_Int32_t2950945753_Matrix4x4_t1817901843PFvvEPK10MethodInfoPvPS4_
rVj:_MD5SHA1_Initialize_m675470944
Gom:_Array_InternalArray__ICollection_Add_TisKeyframe_t4206410242_m442111799_gshared
p2m:_List_1_CheckMatch_m3263549496_gshared
jmj:_PropertyNameUtils_PropertyNameFromString_Injected_m1259736140
OIh:_SynchronizationAttribute_EnterContext_m1660729920
$U:__ZN13AudioListener8DoUpdateEv
nWd:__ZN5physx3Cct10Controller22setUpDirectionInternalERKNS_6PxVec3E
aZc:__ZN5Unity9rapidjson13GenericReaderINS0_4UTF8IcEES3_13JSONAllocatorE9ParseTrueILj1ENS0_25GenericInsituStringStreamIS3_EENS0_15GenericDocumentIS3_S4_S4_EEEEvRT0_RT1_
nhj:__Z13bankers_roundd
O6a:__ZN14SafeBinaryRead8TransferI5RectTIfEEEvRT_PKc17TransferMetaFlags
hj:_emscripten_glGenFramebuffers
Vha:__ZN17BaseObjectManager16StaticInitializeEPv
h$i:_Socket_Shutdown_internal_m4083092300
Npa:__ZN9Scripting11UnityEngine9Profiling8Profiler12CleanupProxyEv
rFl:_KeyCollection_System_Collections_Generic_ICollectionU3CTKeyU3E_Clear_m2015011817_gshared
C$c:__Z18Transfer_BlittableI9JSONWriteLb0EyEvRK29SerializationCommandArgumentsR31RuntimeSerializationCommandInfo
uNa:__ZN13RenderTexture15ThreadedCleanupEv
u1i:_X509BasicConstraintsExtension__ctor_m3721156175
pTa:__ZN12CubemapArray23VirtualRedirectTransferER14SafeBinaryRead
byk:_Dictionary_2_Do_CopyTo_TisInt32_t2950945753_TisInt32_t2950945753_m152841990_gshared
wte:__ZNK5physx2Sc9ClothCore23getNbCollisionTrianglesEv
hy:__ZN21AnimationClipPlayable16ProcessHumanPassEPK35AnimationPlayableEvaluationConstantPK32AnimationPlayableEvaluationInputP33AnimationPlayableEvaluationOutput
a0k:_Path_GetFileName_m1354558116
Q4n:_Physics_Raycast_m4145022031
Hpe:__ZN5physx7NpShape16setFlagsInternalENS_7PxFlagsINS_11PxShapeFlag4EnumEhEE
Mgp:_emscripten_glUniform3i__wrapper
ztl:_SimpleCollator_IsPrefix_m3581642267
qoj:_Rect_Contains_m1232228501_AdjustorThunk
isc:__Z43RectTransform_CUSTOM_INTERNAL_set_sizeDeltaP12Il2CppObjectRK13Vector2fIcall
pUd:__ZN5physx2Gu30distanceSegmentTriangleSquaredERKNS_6shdfnd3aos5Vec3VES5_S5_S5_S5_RS3_S6_
WZk:_Int64_System_IConvertible_ToType_m3223988955_AdjustorThunk
yBo:__ZN15dense_hashtableINSt3__24pairIK10KeyWrapperINS1_IPKcS4_EEEiEES6_24NamespaceAndNamePairHashN14dense_hash_mapIS6_iS9_NS6_14EqualsComparerI26NamespaceAndNamePairEqualsEENS0_9allocatorIS8_EEE9SelectKeyESD_SF_E6insertERKS8_
_va:__ZN24GenerateTypeTreeTransfer18BeginArrayTransferEPKcS1_Ri17TransferMetaFlags
BBk:_Array_InternalArray__get_Item_TisPlayableBinding_t354260709_m3837494573_gshared
hn:___syscall51
Wfj:_Light_get_color_Injected_m1214570263
rPn:_Vector3_LerpUnclamped_m277788092
qzm:_MatchCollection_get_FullList_m1829231879
mn:___syscall54
FHk:_Array_GetValue_m2528415604
QRf:__Z29UnityWebRequest_CUSTOM_Createv
ztj:_Transform_INTERNAL_CALL_TransformPoint_m4261269221
eXk:_Guid_AppendShort_m791023083
N2m:_List_1__ctor_m4212503576_gshared
NZo:_U3CProcessjsonU3Ec__Iterator0_Reset_m2566776598
$gj:_Mathf_Acos_m3996105394
lrf:_cff_builder_add_point1
HCo:__ZN6il2cpp2vm5Image21GetCachedResourceDataEPK11Il2CppImageRKNSt3__212basic_stringIcNS5_11char_traitsIcEENS5_9allocatorIcEEEE
Wsb:__Z18Transfer_BlittableI14SafeBinaryReadLb0E10ColorRGBAfEvRK29SerializationCommandArgumentsR31RuntimeSerializationCommandInfo
dCj:_Scrollbar__ctor_m1852189877
dkd:__ZN21InheritVelocityModuleD2Ev
Ha:invoke_iiiiiiiiii
kW:__ZN11AudioSource25GetNumExtensionPropertiesEv
pqm:_Array_InternalArray__ICollection_CopyTo_TisUILineInfo_t4195266810_m104406798_gshared
pBc:__ZZL31RegisterRectTransformPropertiesR22GenericPropertyBindingEN32Wrapper_RectTransformAnchorMaxx013GetFloatValueEPv
Tbj:_Debug_LogErrorFormat_m3558239521
rab:__ZN18LoadSceneOperation19IntegrateTimeSlicedEi
Lvj:_InputField_ActivateInputFieldInternal_m3360893886
bT:__ZN4FMOD7SystemI11createSoundEPKcjP22FMOD_CREATESOUNDEXINFOPPNS_5SoundE
Sgc:__ZN10FileSystem19SetCurrentDirectoryERKN4core12basic_stringIcNS0_20StringStorageDefaultIcEEEE
cbj:_Component_get_gameObject_m442555142
Caa:__ZN16ScriptingManager24NotifyScriptCacheReleaseEi
TBc:__ZN23TransformChangeDispatch24RemovePermanentInterestsE15TransformAccessPKN5Unity4TypeE
pRc:__Z47Register_UnityEngine_Coroutine_ReleaseCoroutinev
mbe:__ZN10ScSceneFnsIN5physx3Scb11RigidStaticEE6insertERNS0_2Sc5SceneERS2_
rN:__ZN15AudioReverbZone13SetFMODValuesEv
hid:__ZNK17SizeBySpeedModule12UpdateSingleERK22ParticleSystemParticlebR8Vector3f
G4:__ZL19StaticDestroyShaderPv
Se:_glRenderbufferStorageMultisample
LJc:__ZN8Playable4PlayEv
zUi:_DefaultCertificatePolicy_CheckValidationResult_m3811448269
kgk:_SyncHashtable_Clone_m3726939774
aD:__ZN23AnimationPlayableOutput17SetTargetAnimatorEP8Animator
H4b:__ZN22MotionVectorRenderLoopD2Ev
Pum:_Array_Resize_TisSpriteData_t3048397587_m3443564244_gshared
jZd:__ZN5physx2Gu20sweepCCTBoxTrianglesEjPKNS_10PxTriangleEbRKNS_13PxBoxGeometryERKNS_11PxTransformERKNS_6PxVec3EfRSA_SD_RfRjPKjfNS_7PxFlagsINS_9PxHitFlag4EnumEtEE
NXd:__ZN5physx2Gu15OBBTriangleTestC2ERKNS0_3BoxE
FCd:__ZNK6b2Body13ShouldCollideEPKS_
rMg:__ZL76AnimatorTransitionInfo_t2534804151_CustomAttributesCacheGenerator_m_FullPathP21CustomAttributesCache
Hdd:__Z25EvaluateRandomGradientHDRIL12GradientMode0ELS0_0EEN4math8floatNx4ERK14MinMaxGradientRKNS1_7_float4ES8_
JYd:__ZN5physx2Gu21computeMTD_SphereMeshERNS_6PxVec3ERfRKNS0_6SphereERKNS_22PxTriangleMeshGeometryERKNS_11PxTransformE
vRj:_Array_InternalArray__ICollection_Add_TisClientCertificateType_t1004704908_m2622721177_gshared
$Cd:__ZNK21b2FindNewContactsTask13GetRangeCountEv
EJ:__ZN17PackedFloatVector8TransferI18StreamedBinaryReadILb0EEEEvRT_
Z2d:__ZN5physx2Sc10NPhaseCore15fetchFilterPairEPv
yid:__Z11StartCircleILN11ShapeModule14MultiModeValueE2EEvRS0_R23ParticleSystemParticlesRK19ParticleSystemStateRK27ParticleSystemEmissionStateRKN4math8float3x3ERKNSB_7affineXEjbj
Qcf:__ZN5physx12SubSortQuick5sort4EPjjRNS_6shdfnd5ArrayINS_11RTreeNodeNQENS2_19ReflectionAllocatorIS4_EEEERjRNS_10PxBounds3VEj
bUc:__Z37Register_UnityEngine_Screen_get_widthv
E9d:__ZN5physx6shdfnd5ArrayIPNS_2Sc8BodyCoreENS0_19ReflectionAllocatorIS4_EEE15growAndPushBackERKS4_
CEm:_Uri_get_Authority_m3816772302
gpc:__ZN22BlockMemoryCacheWriter11GetPathNameEv
rTj:_BigInteger_op_Division_m3713793389
dsj:_Touch_get_position_m3109777936
GVe:__ZN5physx16PxsBroadPhaseMBPC2ERNS_19PxcScratchAllocatorERNS_2Cm13EventProfilerERKNS_11PxSceneDescEPNS_14PxsAABBManagerE
IBh:_ParameterInfo__ctor_m3269320476
vMd:__ZN14PhysicsManager23VirtualRedirectTransferER14SafeBinaryRead
fwm:_X509SubjectKeyIdentifierExtension_FromHexChars_m3244835916
abl:_Single_CompareTo_m2785801815
LDn:_TMP_UpdateManager_InternalRegisterTextElementForLayoutRebuild_m3250317959
mmn:_PKCS12_MAC_m3355614022
Lie:__ZN5physx7NpActor14onActorReleaseEPNS_7PxActorE
a0d:__ZN5physx3Cct26CharacterControllerManager19computeInteractionsEfPNS_26PxControllerFilterCallbackE
Gq:stackAlloc
W7d:__ZN5physx6shdfnd8PoolBaseINS_2Cm5BlockIhLj256EEENS0_19ReflectionAllocatorIS4_EEE12allocateSlabEv
Tjb:__ZN25SingleBlockMemoryFileData4LockEPPv
Ekp:_glProgramParameteri__wrapper
Cuc:__Z32RectOffset_Get_Custom_PropBottomP12Il2CppObject
Pbj:_Debug_LogError_m2850623458
uSn:__ZL24UnresolvedVirtualCall_79P12Il2CppObjectPK10MethodInfo
Aic:__ZNSt3__26__treeINS_12__value_typeIN4core12basic_stringIcNS2_20StringStorageDefaultIcEEEE4PPtrI7TextureEEENS_19__map_value_compareIS6_SA_NS_4lessIS6_EELb1EEENS_9allocatorISA_EEE7destroyEPNS_11__tree_nodeISA_PvEE
fVh:__Z69RuntimeInvoker_UInt64_t4134040092_Int32_t2950945753_SByte_t1669577662PFvvEPK10MethodInfoPvPS4_
N7o:_stat
EDa:__ZN9ShaderLab10SubProgram7CompileEv
_$f:_TMP_MaterialManager_RemoveStencilMaterial_m3342642461
Mwh:_PropertyBuilder_get_CanRead_m3783190070
Gra:__ZN9Scripting11UnityEngine12Experimental9Playables21TexturePlayableOutput9InitProxyEv
iYj:_CipherSuiteCollection_System_Collections_IList_get_Item_m2175128671
fvd:__ZN15b2DistanceJoint23InitVelocityConstraintsERK12b2SolverData
kAa:__ZN6CameraD2Ev
NYe:__ZN5physx2Gu21findUniqueConvexEdgesEjPNS0_10ConvexEdgeEjPKNS0_15HullPolygonDataEPKh
RRc:__Z50Register_UnityEngine_Camera_get_pixelRect_Injectedv
KBe:__ZN5physx20NpRigidActorTemplateINS_14PxRigidDynamicEED0Ev
ra:invoke_iiiiiiiiiiii
Qok:_DateTime_System_IConvertible_ToType_m1242864300_AdjustorThunk
zTe:__ZN5physx43solveContactCoulombPreBlock_WriteBackStaticEPKNS_23PxcSolverConstraintDescEjRNS_16PxcSolverContextEPNS_25PxcThresholdStreamElementEjPi
PLi:_InternalEnumerator_1_get_Current_m2446410893_AdjustorThunk
gFa:__Z29CalculateDefaultChannelsToAdd17ShaderChannelMaskS_
wIk:_Array_Sort_m870838517
U7d:__ZN5physx2Sc5Scene23allocateConstraintBlockEj
uRh:__Z99RuntimeInvoker_RuntimeObject_RuntimeObject_RuntimeObject_StreamingContext_t3711869237_RuntimeObjectPFvvEPK10MethodInfoPvPS4_
BR:__ZN10AudioMixer12RebindOutputEv
Lki:_MethodCall_InitMethodProperty_m1333573177
Mvo:__ZNK15dense_hashtableINSt3__24pairIK10KeyWrapperIP11Il2CppClassES4_EES5_N6il2cpp8metadata16SZArrayClassHashEN14dense_hash_mapIS5_S4_SA_NS5_14EqualsComparerINS9_19SZArrayClassCompareEEENS0_9allocatorIS7_EEE9SelectKeyESE_SG_E5beginEv
Pyj:_LayoutRebuilder_PerformLayoutControl_m4241054021
Q7n:__ZN6il2cpp2vm17SetupFieldsLockedEP11Il2CppClassRKNS_2os12FastAutoLockE
sIh:_ContextAttribute_IsContextOK_m1726359618
DJl:_Transform_1_BeginInvoke_m1585047156_gshared
WR:__ZN11AudioSourceD0Ev
tVb:__ZN18GlslGpuProgramGLES13SwitchProgramEj
bMm:_ReadOnlyCollection_1_System_Collections_IEnumerable_GetEnumerator_m481167797_gshared
i9d:__ZN5physx2Sc5Actor15onElementDetachERNS0_7ElementE
hZb:__ZN20ArchiveStorageReaderC2E10MemLabelId
HLh:__Z132RuntimeInvoker_Int32_t2950945753_RuntimeObject_Int32_t2950945753_Int32_t2950945753_RuntimeObject_Int32_t2950945753_Int32_t2950945753PFvvEPK10MethodInfoPvPS4_
xld:__ZN27TrailModulePropertyBindings13SetFloatValueER14ParticleSystemif
Bkb:__ZN16MemoryFileSystem4NameEv
Qod:__Z20UpdateWholeSheet2TplIL27ParticleSystemCurveEvalMode2ELS0_0EEvfRK11MinMaxCurveS3_RK23ParticleSystemParticlesPf
nci:__Z56RuntimeInvoker_Void_t1185182177_TMP_LineInfo_t1079631636PFvvEPK10MethodInfoPvPS4_
odh:_SpriteFrame_ToString_m2349957375_AdjustorThunk
ugd:__Z22UpdateOrbitalOffsetTplIL27ParticleSystemCurveEvalMode2ELS0_4EEvRK11MinMaxCurveS3_S3_S3_S3_S3_S3_R23ParticleSystemParticlesjjRKN4math8float3x3ERKNS6_7affineXERKNS6_7_float4E
EDf:__Z37Canvas_Set_Custom_PropOverrideSortingP12Il2CppObjecth
a1h:__Z44RuntimeInvoker_RuntimeObject_Ray_t3785851493PFvvEPK10MethodInfoPvPS4_
DPc:__Z13SetCopyBufferRKN4core12basic_stringIcNS_20StringStorageDefaultIcEEEE
AQn:_Vector4_op_Implicit_m1158564884
VVd:__ZN5physx3Cct13BoxController13setHalfHeightEf
QKe:__ZN5physx3Scb13ObjectTracker5clearEv
BEk:_X509CertificateEnumerator_System_Collections_IEnumerator_get_Current_m418791713
nnf:_UNITY_FT_New_Size
ftc:__Z42ScriptingGetComponentsOfTypeFromGameObjectRK26ScriptingGetComponentsArgs
O1:__ZN19CloudServiceHandler11FlushEventsEv
med:__Z9UpdateTplIL27ParticleSystemCurveEvalMode4EEvRK11MinMaxCurveS3_S3_R23ParticleSystemParticlesjjRKN4math8float3x3ERKNS6_7_float4E
aHl:_ShimEnumerator_get_Entry_m4089930382_gshared
hXd:__ZL23GeomMTDCallback_BoxMeshRN5physx6PxVec3ERfRKNS_10PxGeometryERKNS_11PxTransformES5_S8_
VDg:__ZL73ArgumentCache_t2187958399_CustomAttributesCacheGenerator_m_ObjectArgumentP21CustomAttributesCache
qMg:__ZL65AnimatorTransitionInfo_t2534804151_CustomAttributesCacheGeneratorP21CustomAttributesCache
zxk:_Array_swap_TisRaycastResult_t3360306849_TisRaycastResult_t3360306849_m3400922624_gshared
nLd:__ZN9Scripting11UnityEngine21ControllerColliderHit9InitProxyEv
zti:_CspParameters__ctor_m2741097571
Jld:__ZN35ClampVelocityModulePropertyBindings13SetFloatValueER14ParticleSystemif
Dre:__ZNK5physx7NpCloth22getNbCollisionCapsulesEv
FQa:__ZNSt3__27__sort4IRPFbRKNS_4pairIN9ShaderLab16FastPropertyNameEN18UnityPropertySheet11UnityTexEnvEEES8_EPS6_EEjT0_SD_SD_SD_T_
kqf:_cf2_hintmap_build
Tsc:__Z11StringToIntRKN4core16basic_string_refIcEE
hzf:_Line_Up
wUl:_Dictionary_2_GetEnumerator_m1728442251_gshared
UDf:__Z44Canvas_CUSTOM_GetETC1SupportedCanvasMaterialv
H2l:_List_1_CheckIndex_m3070453556_gshared
Ze:_emscripten_glBufferSubData
f0o:_JSONArray_get_Count_m2109318844
zce:__ZN5physx6shdfnd5ArrayIPvNS0_15InlineAllocatorILj256ENS0_19ReflectionAllocatorINS_7NpShapeEEEEEE15growAndPushBackERKS2_
hKa:__ZN11HaloManager10UpdateHaloEiR9Transform11ColorRGBA32fjP6Object
Wka:__ZN6prcoreL12RemapGenericI15TexFormatRGB88817TexFormatARGB8888EEvPKNS_9InnerInfoE
Ar:__Z17CalculateGlobalRS23TransformAccessReadOnly
lAf:__Z56Register_UnityEngine_TextGenerator_GetCharactersInternalv
RRo:__ZNSt3__210__list_impIPN6il2cpp5utils10MemoryPool6RegionENS_9allocatorIS5_EEE5clearEv
Nkj:_Object_ToString_m3272709752
rVl:_LinkedList_1_OnDeserialization_m3201462664_gshared
DKb:__ZNK25PathNamePersistentManager24PathIDToPathNameInternalEi
YKi:_InternalEnumerator_1_get_Current_m1523142935_gshared
O5:__ZN33InstancedMeshIntermediateRenderer13StaticDestroyEPv
kde:__ZNK5physx14NpArticulation22computeImpulseResponseEPNS_18PxArticulationLinkERNS_6PxVec3ES4_RKNS_24PxArticulationDriveCacheERKS3_S9_
z4d:__ZN5physx2Sc19ContactReportBuffer23reallocateNotThreadSafeEjRjjj
wgb:__ZNK12HandlerChain7ToLocalERK13FileEntryDataRN4core12basic_stringIcNS3_20StringStorageDefaultIcEEEERyS9_
Nbh:_FloatTweenCallback__ctor_m4067214846
N8o:_puts
e7d:__ZN5physx2Sc5Actor19registerInteractionEPNS0_11InteractionE
I1o:_JSONNode_get_AsInt_m1705691929
qdb:__ZN22MemoryCacherReadBlocks14LockCacheBlockEjPPhS1_
sro:__ZN6il2cpp2vm14TypeNameParser17ParseAssemblyNameEv
P0a:__ZNK9GfxDevice26GetSinglePassStereoEyeMaskEv
kml:_TimeSpan_FromHours_m1109641064
bcj:_DebugLogHandler_Internal_Log_m4175774469
QSg:__ZL54EventSystem_t1003666588_CustomAttributesCacheGeneratorP21CustomAttributesCache
DLo:__ZN4utf88internal15increase_safelyIPKcEENS0_9utf_errorERT_S5_
hwg:__ZL66StaticAccessorAttribute_t2432663902_CustomAttributesCacheGeneratorP21CustomAttributesCache
PMk:_CharEnumerator_get_Current_m525608209
ujf:__ZN13PhysicsModule19CreateNxHeightFieldEPv
aVl:_Enumerator_Dispose_m2375640141_AdjustorThunk
UWf:__Z21ArrayElementTypeCheckP11Il2CppArrayPv
Ijp:_emscripten_glTexSubImage2D__wrapper
oZa:__ZN18StreamedBinaryReadILb0EE21TransferSTLStyleArrayI13dynamic_arrayI33EnlightenTerrainChunksInformationLj0EEEEvRT_17TransferMetaFlags
oeg:__ZL69DebuggerBrowsableAttribute_t1026244177_CustomAttributesCacheGeneratorP21CustomAttributesCache
tna:__ZL48__ManagedRegistrationHelperFunction_LightmapDataPv
F9o:__ZNSt3__212basic_stringIcNS_11char_traitsIcEENS_9allocatorIcEEE6appendEjc
NHb:__Z13TransferFieldI18StreamedBinaryReadILb0EELb0E16Converter_StringEvRK23StaticTransferFieldInfoR31RuntimeSerializationCommandInfoRT1_
CUc:__Z27Random_Get_Custom_PropValuev
jub:__Z14resize_trimmedINSt3__26vectorI8MonoPPtr13stl_allocatorIS2_L18MemLabelIdentifier1ELi16EEEEEvRT_j
Hf:_TTF_RenderText_Solid
zch:_MaterialReference__ctor_m707623603_AdjustorThunk
Ufd:__Z25UpdateOrbitalAndRadialTplIL27ParticleSystemCurveEvalMode1ELS0_4ELS0_3EEvRK11MinMaxCurveS3_S3_S3_S3_S3_S3_R23ParticleSystemParticlesjjRKN4math8float3x3ERKNS6_7affineXERKNS6_7_float4E
W4l:_List_1__ctor_m3947764094_gshared
eKd:__Z56Register_UnityEngine_Physics2D_Raycast_Internal_Injectedv
mNl:_Enumerator_get_Current_m1781571415_gshared
rDm:_Parser_IsIgnorePatternWhitespace_m2107132682
xIf:__ZN14UnityAnalytics15Internal_CreateE18ScriptingObjectPtr
GVi:_HttpRequestCreator_Create_m400548686
LOf:__ZN11UnityEngine7Connect16PersistentValuesC2Ev
mUm:_ReadOnlyCollection_1_System_Collections_IList_Insert_m134149130_gshared
g$c:__Z18Transfer_BlittableI9JSONWriteLb0E5RectTIiEEvRK29SerializationCommandArgumentsR31RuntimeSerializationCommandInfo
mul:_BigInteger_get_Rng_m4216817480
XJj:_Array_InternalArray__ICollection_Remove_TisDateTime_t3738529785_m2250893026_gshared
E_f:_TMP_InputField_FindtNextWordBegin_m2277747684
hPb:__Z15IsIEEE754Format14GraphicsFormat
cNf:__ZN22BaseUnityConnectClient17RestoreValuesFileEv
Txb:__Z19TransferField_ArrayI17RemapPPtrTransfer27Converter_UnityEngineObjectEvRK23StaticTransferFieldInfoR31RuntimeSerializationCommandInfoRT0_
yQk:_KeyNotFoundException__ctor_m541499307
HFe:__ZNK5physx2Sc7BodySim13isConnectedToERKNS0_8RigidSimERb
XLj:_SetPropertyUtility_SetStruct_TisSpriteState_t1362986479_m665096788_gshared
aMh:__Z61RuntimeInvoker_Single_t1397266774_RuntimeObject_RuntimeObjectPFvvEPK10MethodInfoPvPS4_
bKj:_Array_InternalArray__ICollection_Remove_TisIntPtr_t_m3807208150_gshared
tMd:__ZN14PhysicsManager23VirtualRedirectTransferER17RemapPPtrTransfer
pFi:_InternalEnumerator_1_get_Current_m2316281569_AdjustorThunk
Rjk:_DateTime__ctor_m1095105629
yQb:__ZN13GfxDeviceGLES15UploadTexture2DE9TextureID16TextureDimensionPKhiii14GraphicsFormati18TextureUploadFlags16TextureUsageMode
yB:__ZN7mecanim9animation25CreateControllerWorkspaceEPKNS0_18ControllerConstantERNS_6memory9AllocatorE
REn:_Event_Cleanup_m2477919477
sQ:__ZN4FMOD6System9createDSPEP20FMOD_DSP_DESCRIPTIONPPNS_3DSPE
hog:__ZL87Thread_t2300836069_CustomAttributesCacheGenerator_Thread_GetCompressedStack_m2923422412P21CustomAttributesCache
t1j:_SslClientStream_get_ClientCertificates_m998716871
yC:__ZN7mecanim9animation26DestroyControllerWorkspaceEPNS0_19ControllerWorkspaceERNS_6memory9AllocatorE
CO:__ZN4FMOD8ChannelI11EndCallbackEv
tXc:__ZN8GUIStyle14SetDefaultFontEPN13TextRendering4FontE
K7c:__ZN11ForceModule8TransferI24GenerateTypeTreeTransferEEvRT_
bZi:_X509Chain_GetAuthorityKeyIdentifier_m2237883181
qWa:__ZN15QualitySettings23VirtualRedirectTransferER24GenerateTypeTreeTransfer
WRi:_Enumerator_get_CurrentValue_m3786270648_AdjustorThunk
Wpi:_ObjectReader_ReadValue_m3145979203
UL:__ZN9Scripting11UnityEngine24AssetBundleCreateRequest9InitProxyEv
zZe:__ZN5physx2Gu32PCMConvexVsMeshContactGeneration35generateTriangleFullContactManifoldERNS0_9TriangleVEjPKjhRKNS0_13PolygonalDataEPNS0_16SupportLocalImplIS2_EEPNS0_12SupportLocalEPNS0_21MeshPersistentContactERjRKNS_6shdfnd3aos6FloatVERNSI_5Vec3VE
UBm:_AnchorInfo__ctor_m3523994803
bRc:__Z59Register_UnityEngine_MonoBehaviour_Internal_CancelInvokeAllv
NXg:__ZL68Scrollbar_t1494447233_CustomAttributesCacheGenerator_m_NumberOfStepsP21CustomAttributesCache
N$k:_BinaryWriter_Dispose_m1020700223
_ao:__ZN30dense_hashtable_const_iteratorINSt3__24pairIK10KeyWrapperIPK19Il2CppGenericMethodEPK26Il2CppGenericMethodIndicesEES6_N6il2cpp8metadata23Il2CppGenericMethodHashEN14dense_hash_mapIS6_SA_SE_NS6_14EqualsComparerINSD_26Il2CppGenericMethodCompareEEENS0_9allocatorISB_EEE9SelectKeyESI_SK_EppEv
pPe:__ZNK16OBBAABBTest_SIMDclERKN5physx2Sq9BucketBoxE
m2o:_U3CU3Ec__Iterator1_MoveNext_m1707411510
Rmf:_UNITY_FT_Request_Metrics
tAo:__ZN6il2cpp6icalls8mscorlib6System10Reflection10MonoMethod29get_IsGenericMethodDefinitionEP22Il2CppReflectionMethod
Nuo:__ZN6il2cpp2vm6Thread21AllocThreadStaticDataEi
vzo:__ZN6il2cpp2vm13LivenessState5ResetEv
HQc:__Z50Register_UnityEngine_Quaternion_AngleAxis_Injectedv
mGa:__ZL12CopyChannelsj17ShaderChannelMaskRA4_K10StreamInfoRA12_K11ChannelInfoPKhS3_S7_Ph
Qak:_Default_SelectMethod_m469311730
sfj:_Input_get_mousePosition_m1616496925
LKo:__ZN30dense_hashtable_const_iteratorINSt3__24pairIK10KeyWrapperIPK19Il2CppGenericMethodEP10MethodInfoEES6_N6il2cpp8metadata23Il2CppGenericMethodHashEN14dense_hash_mapIS6_S9_SD_NS6_14EqualsComparerINSC_26Il2CppGenericMethodCompareEEENS0_9allocatorISA_EEE9SelectKeyESH_SJ_EppEv
eql:_UInt32_ToString_m2066897296_AdjustorThunk
oJn:_UnityWebRequest_InternalSetCustomMethod_m3670745235
Xdb:__ZN24GenerateTypeTreeTransfer19TransferSTLStyleMapINSt3__23mapI4PPtrI6ShaderEN4core12basic_stringIcNS6_20StringStorageDefaultIcEEEENS1_4lessIS5_EENS1_9allocatorINS1_4pairIKS5_SA_EEEEEEEEvRT_17TransferMetaFlags
BCd:__ZN26b2ClearBodyIslandFlagsTask7ExecuteEv
PQk:_Enumerator_Reset_m4274366540
F_c:__Z18Transfer_BlittableI9JSONWriteLb0E8Vector3fEvRK29SerializationCommandArgumentsR31RuntimeSerializationCommandInfo
Fg:_emscripten_glUniform4i
Yqd:__ZNSt3__227__insertion_sort_incompleteIRN10vector_mapIi22ParticleModulePropertyNS_4lessIiEENS_9allocatorINS_4pairIiS2_EEEEE13value_compareEPS7_EEbT0_SD_T_
btf:_otv_FeatureList_validate
Zjj:_PlayerConnection_RegisterDisconnection_m2618599213
kmd:__ZN22ParticleSystemRenderer5ResetEv
E_d:__ZN16RayRTreeCallbackILi0ELb1EED2Ev
Sf:_emscripten_glUniform4f
iab:__ZN6Object22CheckInstanceIDsLoadedEPii
Nnm:_KeyValuePair_2_ToString_m4221841369_gshared
nk:___unlock
Rgj:_Material_GetFloat_m2836278142
jsf:_otv_validate
mfc:__ZN13sorted_vectorINSt3__24pairIN4core12basic_stringIcNS2_20StringStorageDefaultIcEEEES6_EEN10vector_mapIS6_S6_27compare_tstring_insensitiveIS6_E13stl_allocatorIS7_L18MemLabelIdentifier38ELi16EEE13value_compareESD_E9erase_oneIS6_EEjRKT_
Dyj:_U3CDelayedSetDirtyU3Ec__Iterator0_Reset_m160466733
$7k:_X509Certificate_Equals_m3784196370
F6m:_List_1__ctor_m3376067838_gshared
Mtl:_SimpleCollator_QuickIndexOf_m2519071357
FS:__ZN20SoundChannelInstance19setReverbPropertiesEP29FMOD_REVERB_CHANNELPROPERTIES
j3f:_TMP_Text_get_isUsingBold_m2634188658
N7k:_X509Certificate_Equals_m861530042
O5k:_SHA1Internal_ProcessFinalBlock_m1403775421
g8m:_Queue_1_System_Collections_ICollection_CopyTo_m3452613063_gshared
gTf:__ZN9Scripting11UnityEngine5Video11VideoPlayer12CleanupProxyEv
jcm:_Dictionary_2_pick_value_m3046842943_gshared
Ayc:__Z40Register_UnityEngine_Transform_IsChildOfv
D$d:__ZN5physx3Cct17CapsuleController15setClimbingModeENS_21PxCapsuleClimbingMode4EnumE
qRe:__ZN5physx6shdfnd9atomicAddEPVii
szk:_TMP_TextInfo_Resize_TisTMP_PageInfo_t2608430633_m4169282398_gshared
RNi:_InternalEnumerator_1_get_Current_m2356858238_AdjustorThunk
Zvc:__Z45Register_UnityEngine_Display_GetSystemExtImplv
sz:__ZN7mecanim14ValueArrayLoopILb1EEEvRKNS_10ValueArrayES3_RKNS_14ValueArrayMaskERS1_f
vyl:_RSAManaged_ImportParameters_m1844641996
_Le:__ZN5physx6shdfnd5ArrayINS_3Scb13MaterialEventENS0_19ReflectionAllocatorIS3_EEE6resizeEjRKS3_
xAl:_Enumerator_System_Collections_IDictionaryEnumerator_get_Value_m3325938730_AdjustorThunk
iz:__ZN7mecanim9animation23TransformValuesFromClipEiiiRKNS_10ValueArrayERKNS0_10ClipOutputERKNS0_12ClipBindingsERS1_RNS_14ValueArrayMaskEb
fpd:__Z19UpdateSingleRow2TplIL27ParticleSystemCurveEvalMode4ELS0_4EEvfRK11MinMaxCurveS3_RK23ParticleSystemParticlesPfbiii
nXe:__ZNK5physx14SingleAABBTask25updateNumFastMovingShapesEv
URl:_Dictionary_2_ContainsKeyValuePair_m946052134_gshared
Zxk:_Dictionary_2_Do_CopyTo_TisChar_t3634460470_TisRuntimeObject_m2750283517_gshared
KPl:_ValueCollection_System_Collections_ICollection_get_SyncRoot_m2738303336_gshared
aAf:__Z45Register_UnityEngine_Font_Internal_CreateFontv
oKd:__GLOBAL__sub_I_Runtime_Dynamics_0_cpp
yQl:_ValueCollection_System_Collections_ICollection_get_SyncRoot_m1114275063_gshared
WWk:_Guid_Equals_m1866984197
_Lb:__Z11StringToKeyRKN4core12basic_stringIcNS_20StringStorageDefaultIcEEEE
jcf:__ZN5physx17ConvexMeshBuilder16computeGaussMapsEv
C9j:_PlatformNotSupportedException__ctor_m1787918017
Lfa:__ZN13RuntimeStaticI15DirectorManagerLb0EE16StaticInitializeEPv
UDm:_Uri_HexEscape_m1589417657
mRm:_ReadOnlyCollection_1_System_Collections_ICollection_CopyTo_m2643246984_gshared
O5a:__ZN11TimeManager6UpdateEv
yNb:__ZN6Shader18LoadDefaultShadersEv
nde:__ZNK5physx2Sc16ArticulationCore22computeImpulseResponseERNS0_8BodyCoreERNS_6PxVec3ES5_RKNS_9PxcFsDataERKS4_SA_
Q_e:__ZN5physx21PxsBodyTransformVaultC2Ev
Lnh:_CanvasScaler_get_fallbackScreenDPI_m2811935689
ot:__ZNK16ParentConstraint18GetTranslationAxisEv
KYe:__ZL6IsInYZffPPK10VertexInfo
ddf:__ZN5physx19TriangleMeshBuilderD0Ev
U7o:_fflush
Ebb:__ZN17LightProbeContext4InitERK16LightmapSettingsRK14RenderSettings
uqj:_SceneManager_Internal_ActiveSceneChanged_m3676176255
$tk:_Double_System_IConvertible_ToInt16_m3591921965
Z$a:__ZN9Texture3DD2Ev
Xld:__Z35ParticleSystemRenderer_RenderMeshesIL21SpriteMaskInteraction2EEvRK15RenderNodeQueuej16VertexInputMasksi
O$f:_TMP_MaterialManager__cctor_m4114053909
fjk:_Convert_ToChar_m2796006345
Rrm:_Array_InternalArray__Insert_TisContentType_t1787303396_m3566390691_gshared
Cpe:__ZN5physx2CmlsERNS0_12RenderOutputERKNS0_10DebugArrowE
Udd:__Z18MagnitudeUpdateTplIL27ParticleSystemCurveEvalMode2EEvRK11MinMaxCurveR23ParticleSystemParticlesjjRKN4math7_float4E
dOk:_ArrayListWrapper_GetEnumerator_m2336495952
Lac:__Z34ProcessIndexListIsNodeVisibleStep2RK22SceneCullingParametersPK9SceneNodePK4AABBR9IndexList
vIb:__ZN10MonoScriptD2Ev
lqa:__ZN9Scripting11UnityEngine10Networking16PlayerConnection16PlayerConnection12CleanupProxyEv
bYb:__ZN19ConstantBuffersGLES8UpdateCBE5CbKeyPKvj
yzc:__Z39Input_CUSTOM_INTERNAL_get_mousePositionP8Vector3f
pqi:_SerializationCallbacks_GetMethodsByAttribute_m2095490433
Puf:_tt_cmap13_char_next
VSg:__ZL117EventSystem_t1003666588_CustomAttributesCacheGenerator_EventSystem_t1003666588____lastSelectedGameObject_PropertyInfoP21CustomAttributesCache
T_b:__ZN9ShaderLab4Pass16SetupPassOptionsEv
Vh:_JS_Sound_ReleaseInstance
R5i:_CookieAccessInfo__ctor_m997702428
luo:_il2cpp_type_equals
yWk:_Guid_CheckArray_m921056615
UGh:_ConfigHandler_ReadLifetine_m208994800
WSh:__Z96RuntimeInvoker_IntPtr_t_SByte_t1669577662_SByte_t1669577662_RuntimeObject_BooleanU26_t4125257963PFvvEPK10MethodInfoPvPS4_
O5e:__ZN5physx16PxsCCDBlockArrayINS_13PxsCCDOverlapELi128EE8pushBackEv
Jwo:__ZN6il2cpp6icalls8mscorlib6System7Runtime15InteropServices7Marshal19copy_from_unmanagedEiiP11Il2CppArrayi
q5c:__ZL25CalculateCurveRangesValueRKN4math7_float2ERK17AnimationCurveTplIfE
$wc:__Z21Resources_CUSTOM_LoadP12Il2CppStringP12Il2CppObject
xn:FUNCTION_TABLE_diddi
jyo:__ZN6il2cpp6icalls8mscorlib6System5Array8FastCopyEP11Il2CppArrayiS5_ii
M9e:__ZN5physx2Gu12TriangleMesh7releaseEv
Ruc:__Z42Register_UnityEngine_RectOffset_get_bottomv
Q_m:_Nullable_1_Equals_m179237491_gshared
sOe:__ZN5physx14PxsAABBManagerD2Ev
_vb:__ZN9BoundsInt8TransferI14SafeBinaryReadEEvRT_
Y3b:__Z20DoDeferredRenderLoopRK17RenderLoopContextR13dynamic_arrayI16RenderObjectDataLj0EES5_RK11CullResultsRP13RenderTextureSB_Pb
Bhp:_emscripten_glUniform1f__wrapper
Kbp:dynCall_di
Ocj:_BaseInvokableCall_AllowInvoke_m878393606
cOe:__ZN5physx16PxsIslandManagerD2Ev
EZo:_JSONNull_CreateOrGet_m2870123563
rZh:__Z77RuntimeInvoker_Quaternion_t2301928331_Vector3_t3722313464_Vector3_t3722313464PFvvEPK10MethodInfoPvPS4_
n_c:__Z28RegisterModule_JSONSerializev
iKf:__ZThn1168_N18UnityConnectClientD1Ev
hVh:__Z67RuntimeInvoker_Byte_t1134296376_SByte_t1669577662_SByte_t1669577662PFvvEPK10MethodInfoPvPS4_
HTe:__ZN5physx21solveFriction_BStaticERKNS_23PxcSolverConstraintDescERNS_16PxcSolverContextE
reb:__ZN2UI13RectTransform8TransferI14SafeBinaryReadEEvRT_
y$c:__Z35Transfer_Blittable_FixedBufferFieldI9JSONWriteaEvRK29SerializationCommandArgumentsR31RuntimeSerializationCommandInfo
Gkd:__ZN34ColorBySpeedModulePropertyBindings13GetFloatValueERK14ParticleSystemi
b9i:_Behaviour_get_enabled_m753527255
ywc:__Z20IsHumanControllingUsv
Reg:__ZL51TextInfo_t3810425522_CustomAttributesCacheGeneratorP21CustomAttributesCache
Osc:__ZN10systeminfo21GetPersistentDataPathEv
hKf:__ZThn1168_N18UnityConnectClient18OnAdsIdRequestDoneERKN4core12basic_stringIcNS0_20StringStorageDefaultIcEEEEbS6_
XPb:__ZN13GfxDeviceGLES17DestroyGpuProgramEPK10GpuProgram
Iep:_emscripten_glDepthRangef__wrapper
mtm:_Array_InternalArray__set_Item_TisRaycastResult_t3360306849_m730888808_gshared
tsb:__Z44InitializeTransferFunctionScriptingTraitsForI18StreamedBinaryReadILb0EEEvR31TransferFunctionScriptingTraits
q6b:__ZNSt3__218__insertion_sort_3IR23CompareReflectionProbesP31RuntimeReflectionProbeBlendInfoEEvT0_S5_T_
byb:__ZN12NativeBufferI27Converter_SimpleNativeClassI8GradientEE15SetupForWritingER9ArrayInfo
Uul:_Kernel_RightShift_m2207393597
Fia:__ZNSt3__213__stable_sortIRNS_4lessIN4core12basic_stringIcNS2_20StringStorageDefaultIcEEEEEENS_11__wrap_iterIPS6_EEEEvT0_SC_T_NS_15iterator_traitsISC_E15difference_typeEPNSF_10value_typeEi
L_g:__ZL48Shadow_t773074319_CustomAttributesCacheGeneratorP21CustomAttributesCache
J4:__ZN12_GLOBAL__N_113StaticDestroyEPv
OWc:__ZNK8GUIStyle4DrawER8GUIStateRK5RectTIfER10GUIContentbbbb
mkp:_glTexParameteriv__wrapper
$Ek:_SmallXmlParser_Read_m3485223434
Imp:_glUnmapBuffer__wrapper
oFn:_GUISkin_MakeCurrent_m3239192349
f3c:__ZN8JSONRead21TransferSTLStyleArrayINSt3__26vectorI8Gradient13stl_allocatorIS3_L18MemLabelIdentifier1ELi16EEEEEEvRT_17TransferMetaFlags
P7a:__ZNSt3__218__insertion_sort_3IRNS_6__lessINS_4pairIPKN5Unity4TypeE7Hash128EES8_EEPS8_EEvT0_SC_T_
Ouj:_InputField_set_onValueChanged_m3658917578
Zpd:__Z9UpdateTplIL22MinMaxGradientEvalMode0EL12GradientMode0ELS1_1EEvRK23ParticleSystemParticlesP11ColorRGBA32RK14MinMaxGradientRK23OptimizedMinMaxGradientRK8Vector2f
Lzb:__ZN10RectOffset8TransferI24GenerateTypeTreeTransferEEvRT_
f$k:_BinaryReader__ctor_m2266204403
_ra:__ZN9Scripting11UnityEngine6Events14UnityEventBase9InitProxyEv
zJd:__ZNK10Collider2D15GetAttachedBodyEv
uXl:_Enumerator_VerifyState_m3047769867_AdjustorThunk
Xyb:__Z18Transfer_BlittableI24GenerateTypeTreeTransferLb1E5RectTIiEEvRK29SerializationCommandArgumentsR31RuntimeSerializationCommandInfo
yzm:_Enumerator_System_Collections_IEnumerator_Reset_m24787251
qCf:__ZN2UI13CanvasManager19RemoveDirtyRendererEPNS_6CanvasEPNS_14CanvasRendererE
Toe:__ZN5physx7NpShape18setQueryFilterDataERKNS_12PxFilterDataE
x6o:_isspace
ioi:_BinaryFormatter__ctor_m2620705134
wad:__ZN14MinMaxGradient5ResetE26ParticleSystemGradientMode
wje:__ZN5physx2Sc8ShapeSim18onRestOffsetChangeEv
B0e:__ZN5physx20PxcNpCacheStreamPair5resetEv
kBc:__ZZL31RegisterRectTransformPropertiesR22GenericPropertyBindingEN39Wrapper_RectTransformAnchoredPositiony113SetFloatValueEPvf
V1:__ZN11UnityEngine15CloudWebService17WebFileDownloaderINS0_20WebRequestRestClientENS0_23WebRequestRestHeaderMapEED2Ev
sc:invoke_vi
WN:__ZN12AudioManager8InitFMODE15FMOD_OUTPUTTYPE
LEd:__ZNSt3__26vectorINS0_IN10ClipperLib8IntPointENS_9allocatorIS2_EEEENS3_IS5_EEE7reserveEj
l5c:__ZN14ParticleSystem17RemoveFromManagerEv
zbd:__ZNK14RotationModule16UpdateProceduralERK19ParticleSystemStateR23ParticleSystemParticlesRKN4math7_float4E
qc:invoke_vd
GAa:__ZNK6Camera19GetStereoViewMatrixE15StereoscopicEye
xwm:_Regex_get_RightToLeft_m2317867572
wca:__ZNK10GameObject8IsActiveEv
UTc:__Z34Component_Get_Custom_PropTransformP12Il2CppObject
iad:__ZN21InheritVelocityModule5ResetEv
_aj:_Color32_ToString_m403383053
kVb:__ZN18GfxFramebufferGLES23SetupDefaultFramebufferEPP17RenderSurfaceBaseS2_N2gl6HandleILNS3_10ObjectTypeE9EEE
eBd:__ZN22b2IslandDiscreteSolverC2EiiiPP6b2BodyPP9b2ContactPP7b2JointP10b2VelocityP10b2PositionRK10b2TimeStepR7b2World
R8d:__ZN5physx2Sq16computeWorldAABBERKNS_3Scb5ShapeERKNS1_5ActorE
Bqh:_DefaultControls_CreateDropdown_m3286664171
T$a:__ZN13ScreenManager18RequestOrientationE17ScreenOrientation
S_f:_TMP_InputField_SendOnFocusLost_m19485086
n8n:__ZN6il2cpp2vm5Class12SetupMethodsEP11Il2CppClass
XWe:__ZN5physx14PxsAABBManager31updateAggregateBPOverlapRecordsEv
TNc:__Z39DeleteLastPathNameComponentWithAnySlashRKN4core12basic_stringIcNS_20StringStorageDefaultIcEEEE
bYc:__ZN10GUIManager14InitGUIManagerEv
Uol:_UInt16_Equals_m642257745
lLj:_SetPropertyUtility_SetStruct_TisChar_t3634460470_m1103802132_gshared
fHk:_Array_System_Collections_IList_IndexOf_m3301661616
rak:_AssemblyFileVersionAttribute__ctor_m3720707642
cEh:_RuntimeResourceSet_CloneDisposableObjectIfPossible_m2725520898
Gwc:__Z18GetApplicationInfov
oTo:__ZN6il2cpp5utils9Exception26FormatInvalidCastExceptionEPK11Il2CppClassS4_
xXc:__Z37Register_UnityEngine_GUIStyle_Cleanupv
Ya:invoke_iiifii
Vjp:b113
aSc:__Z26Mesh_CUSTOM_SetIndicesImplP12Il2CppObjecti16GfxPrimitiveTypeP11Il2CppArrayihi
GFj:_SliderEvent__ctor_m3149452941
jEk:_DeriveBytes__cctor_m1212925033
znl:_Type_IsAssignableFrom_m3195021585
ith:_Graphic_OnDisable_m1097930217
Rio:__ZN6il2cpp6icalls8mscorlib6System8MonoType13IsPointerImplEP20Il2CppReflectionType
Gj:_emscripten_glFramebufferRenderbuffer
m9b:__ZN19CullingGroupManager17CullAndSendEventsERK22SceneCullingParametersiRK13CullingOutputRK8JobFence
QAf:__ZNK19TextRenderingModule8TMGenGetERK11UTF16StringPN13TextRendering4FontE10TextAnchorN5Unity13TextAlignmentEfffbb11ColorRGBA32fiii
Zya:__ZN9Transform30EnsureTransformHierarchyExistsEv
Qml:_Type_FilterName_impl_m2651733559
ILe:__ZN5physx2Sc14ConstraintCore15getPxConstraintEv
mNd:__ZNK8Collider12GetRigidbodyEv
Chi:__Z68RuntimeInvoker_Int32_t2950945753_Int32_t2950945753_Int64_t3736567304PFvvEPK10MethodInfoPvPS4_
rp:FUNCTION_TABLE_viiiiiiii
Swc:__Z46Register_UnityEngine_Application_get_isPlayingv
c0i:_TcpClient_Close_m3817529922
sh:___cxa_find_matching_catch_4
fPc:__ZN13MonoBehaviour13StopCoroutineEPKc
_ec:__ZNSt3__26vectorINS_4pairIN4core12basic_stringIcNS2_20StringStorageDefaultIcEEEEPK17MessageIdentifierEENS_9allocatorISA_EEE12__move_rangeEPSA_SE_SE_
xmd:__ZThn32_N22ParticleSystemRendererD1Ev
e2b:__ZN14qsort_internal17MedianOfThreeSwapIP17RODataReplacement19ROSorterReplacementEEvT_S4_S4_T0_
dcl:_String_Split_m3646115398
qad:__ZN15CollisionModule5ResetEv
J1f:_TMP_SpriteAnimator__ctor_m889713553
d7n:__ZNK15dense_hashtableINSt3__24pairIK10KeyWrapperIPK22Il2CppGenericParameterEP11Il2CppClassEES6_N6il2cpp5utils11PointerHashIS4_EEN14dense_hash_mapIS6_S9_SE_NS6_14EqualsComparerINS0_8equal_toIS5_EEEENS0_9allocatorISA_EEE9SelectKeyESJ_SL_E3endEv
Zzb:__Z29Transfer_Blittable_ArrayFieldI24GenerateTypeTreeTransfer11ColorRGBA32EvRT_R9ArrayInfoRK23StaticTransferFieldInfo
aib:__ZN17ArchiveFileSystem10ToAbsoluteEPKc
VHc:__Z13RegisterClassI11PreloadDataEvPKc
z4n:_BoxCollider_set_center_m1086194996
IKj:_Array_InternalArray__ICollection_Remove_TisTMP_WordInfo_t3331066303_m2995748367_gshared
IRc:__Z35Camera_CUSTOM_RaycastTry2D_InjectedP12Il2CppObjectRK3Rayfi
jMf:__ZN19UnityConnectService15GetPlayerUserIdEv
tbm:_Dictionary_2_ContainsKey_m2382293057_gshared
RPj:_Array_InternalArray__IndexOf_TisSByte_t1669577662_m4156538463_gshared
pEn:_TMPro_EventManager_ON_TEXT_CHANGED_m2697522843
oE:__ZN7mecanim6CRCKeyENS_7eStringE
_0i:_X509EnhancedKeyUsageExtension_Decode_m3726500073
Yuc:__ZL12SetPrefValueRKN4core12basic_stringIcNS_20StringStorageDefaultIcEEEERK9PrefValue
C0a:__ZN19ShaderPropertySheet20ReservePropertyCountEj
jLo:__ZN6il2cpp5utils11StringUtils6PrintfEPKcz
awo:__ZNSt3__26vectorIN6il2cpp8metadata18GenericArrayMethodENS_9allocatorIS3_EEE7reserveEj
OQa:__ZN15NameToObjectMapI6ShaderNSt3__23mapI4PPtrIS0_EN4core12basic_stringIcNS5_20StringStorageDefaultIcEEEENS1_4lessIS4_EENS1_9allocatorINS1_4pairIKS4_S9_EEEEEENS1_8multimapIS9_S4_NSA_IS9_EENSC_INSD_IKS9_S4_EEEEEEE4FindERSK_
MSa:__ZN24GenerateTypeTreeTransfer21TransferResourceImageE19ActiveResourceImagePKcR13StreamingInfoPvjiPKN5Unity4TypeE
MSc:__Z28Material_CUSTOM_GetFloatImplP12Il2CppObjecti
vbd:__ZN13InitialModule18GenerateProceduralERK27ParticleSystemReadOnlyStateR23ParticleSystemParticlesRK10Matrix4x4fRK8Vector3fRK24ParticleSystemEmitReplayRj
WDo:__ZN6il2cpp2vm6Object5CloneEP12Il2CppObject
x9c:__ZN11ColorModule8TransferI19StreamedBinaryWriteILb0EEEEvRT_
Egf:__ZN5physx6shdfnd8PoolBaseINS_24NpPtrTableStorageManager8PtrBlockILi16EEENS0_19ReflectionAllocatorIS4_EEED2Ev
qTo:__ZN6il2cpp6icalls8mscorlib6System9Threading5Mutex20CreateMutex_internalEbP12Il2CppStringPb
xDg:__ZL47Time_t2420636075_CustomAttributesCacheGeneratorP21CustomAttributesCache
i8n:__ZN6il2cpp2vm5Class12GetFinalizerEP11Il2CppClass
pbj:_Coroutine_Finalize_m1957108547
pfh:_TextMeshPro_ClearSubMeshObjects_m3827462987
GHn:_KeyBuilder_Key_m2503211157
DIa:__ZNSt3__212__deque_baseI18ReflectionProbeJobNS_9allocatorIS1_EEED2Ev
JD:__ZN11UnityEngine9Animation27DestroyAnimationSetBindingsEPNS0_20AnimationSetBindingsERN7mecanim6memory9AllocatorE
mjc:__ZN15dense_hashtableINSt3__24pairIKiN4core17string_with_labelILi1EEEEEi18SInt32HashFunctionN14dense_hash_mapIiS5_S7_NS0_8equal_toIiEE13stl_allocatorIS6_L18MemLabelIdentifier1ELi16EEE9SelectKeyESA_SD_E13set_empty_keyERKS6_
mje:__ZN5physx2Sc9ShapeCore23setSimulationFilterDataERKNS_12PxFilterDataE
fbj:_Component_GetComponentInChildren_m388868270
gmm:_GenericEqualityComparer_1_Equals_m1705889345_gshared
fK:__ZN8Animator12CleanupClassEv
SAl:_Enumerator_System_Collections_IDictionaryEnumerator_get_Entry_m670766806_gshared
eWf:_TMP_Dropdown_Show_m3726566356
wVi:_FtpWebRequest__cctor_m699542155
DKk:_Byte_System_IConvertible_ToBoolean_m2888023769
H5f:_TMP_Text_get_enableCulling_m1648718058
l8f:_TMP_Text_ConvertToFloat_m497393997
dif:__ZN5physx7profile12MemoryBufferINS0_21WrapperNamedAllocatorEE5writeIyEEvRKT_
x_o:_U3CDelayLoadLevelU3Ec__Iterator0_MoveNext_m3119807189
PQm:_ReadOnlyCollection_1_System_Collections_IList_Insert_m2797533731_gshared
O_i:_NetworkStream_Write_m172181053
zTi:_NameObjectCollectionBase_GetEnumerator_m3677320185
jac:__Z24CalculateSpotLightBoundsffRK10Matrix4x4fR15SpotLightBounds
wMa:__ZNK13RenderTexture21GetShadowSamplingModeEv
CZ:__ZN23CloudWebServicesManager23VirtualRedirectTransferER14SafeBinaryRead
hEk:_PKCS12_AddCertificate_m3857004455
Bed:__ZNK11NoiseModule14CalculateNoiseILi3ELb1ELb0EEEvR23ParticleSystemParticlesRK27ParticleSystemReadOnlyStatejjRKN4math7_float4E
Moi:_WellKnownClientTypeEntry_ToString_m1119458503
KJb:__Z19ShouldTransferFieldR32SerializationCommandQueueBuilder17ScriptingClassPtriR18TransferField_InfoRK20CoreScriptingClasses
i$b:__ZN13RenderManager13RenderCamerasEiPFvvE
kVl:_LinkedList_1_VerifyReferencedNode_m3460801984_gshared
dRc:__Z48Register_UnityEngine_MonoBehaviour_InvokeDelayedv
QHi:_InternalEnumerator_1_get_Current_m4221658127_gshared
r9k:_SecurityElement_IsValidText_m1346599242
Grb:__ZN26SinglePassStereoSupportExt21SetStereoMatrixCommonE21MonoOrStereoscopicEye24BuiltinShaderMatrixParamRK10Matrix4x4f
cR:__ZN5audio5mixer22UpdateAudioMixerMemoryERKNS0_18AudioMixerConstantERNS0_16AudioMixerMemoryEfPN4FMOD6SystemEf
BVo:__ZN6il2cpp6icalls6System6System3Net7Sockets15SocketException15WSAGetLastErrorEv
Qjf:__ZL21InitializeCachedStripPv
Mcm:_Dictionary_2_System_Collections_Generic_ICollectionU3CSystem_Collections_Generic_KeyValuePairU3CTKeyU2CTValueU3EU3E_Add_m3652125112_gshared
Udc:__ZN19CustomRenderTexture16GetRenderTextureEv
yxo:__ZN6il2cpp6icalls8mscorlib6System9Threading6Thread23GetCachedCurrentCultureEP12Il2CppThread
V9c:__ZN25IParticleSystemProperties8PropertyI8Vector3fNS_3MinILi0EEEE8TransferI19StreamedBinaryWriteILb0EEEEvRT_PKc
Iza:__ZNK6Camera22GetWorldToCameraMatrixEv
$Fo:__ZN6il2cpp2vm12GenericClass11IsValueTypeEP18Il2CppGenericClass
Yhc:__ZN13ScreenManager24SetIsFullscreenImmediateEb
WIb:__ZN13MonoBehaviour7SetNameEPKc
F4j:_Math_Acos_m2076003797
cli:_MethodDictionary_IsOverridenKey_m946843558
DOe:__ZN5physx6shdfnd8PoolBaseINS_2Sc26ActorPairContactReportDataENS0_19ReflectionAllocatorIS3_EEE15disposeElementsEv
vzn:_U3CStartU3Ec__Iterator0_MoveNext_m4270440387_gshared
uco:__ZN10KeyWrapperIN6il2cpp5utils13dynamic_arrayIPK10Il2CppTypeLj4EEEEC2ERKS7_
WNb:__ZN17InstancingBatcher22FindCBUpperBoundKonstsEv
UHf:__ZN11UnityEngine9Analytics15AnalyticsConfig13ConfigChangedERKN4core12basic_stringIcNS2_20StringStorageDefaultIcEEEER8JSONRead
Eab:__ZN18AwakeFromLoadQueue5ClearEv
i2k:_FileStream_SetLength_m99749826
C7e:__ZN5physx6shdfnd5ArrayIfNS0_19ReflectionAllocatorIfEEE8recreateEj
F8b:__ZNSt3__27__sort5IR15ReflProbeSorterPP15ReflectionProbeEEjT0_S6_S6_S6_S6_T_
Aga:__ZN8Playable10DisconnectEPS_i
slk:_Convert_ToInt16_m4174439391
nl:_glGenTransformFeedbacks
Q9a:__ZN13LoadOperationD2Ev
jTe:__ZN5physx20PxsSolverCoreGeneral6createEv
Sld:__ZN29TriggerModulePropertyBindings13AddPropertiesER10vector_mapIi22ParticleModulePropertyNSt3__24lessIiEENS2_9allocatorINS2_4pairIiS1_EEEEE
FFk:_AttrListImpl_GetValue_m3657391095
uXo:_EnvMapAnimator_Start_m2826563342
Spm:_Array_InternalArray__ICollection_CopyTo_TisSpriteData_t3048397587_m2502737758_gshared
Q4d:__ZL29GeomOverlapCallback_SphereBoxRKN5physx10PxGeometryERKNS_11PxTransformES2_S5_PNS_2Gu12TriggerCacheE
Jvc:__Z48Register_UnityEngine_Material_set_shaderKeywordsv
l7m:_List_1_CheckIndex_m3933537097_gshared
GQa:__ZNSt3__27__sort5IRPFbRKNS_4pairIN9ShaderLab16FastPropertyNameEN18UnityPropertySheet11UnityTexEnvEEES8_EPS6_EEjT0_SD_SD_SD_SD_T_
oTb:__ZNK7ApiGLES18GetExtensionStringEv
M6m:_List_1_System_Collections_IList_IndexOf_m2444653486_gshared
Chp:_emscripten_glVertexAttrib1f__wrapper
Yfb:__ZNK12HandlerChain4SizeERK13FileEntryData
Eq:FUNCTION_TABLE_iiiiiiiii
Zqe:__ZN5physx7NpCloth15setInertiaScaleEf
ORm:_ReadOnlyCollection_1_System_Collections_Generic_ICollectionU3CTU3E_Remove_m4177779688_gshared
kta:__ZN9Scripting11UnityEngine14AnimationCurve9InitProxyEv
ptd:__Z22GetPhysicsGroundBody2Dv
qMk:_Char_IsLetter_m3996985877
b8m:_Queue_1_Peek_m2302800625_gshared
Cag:__ZL51Delegate_t1188392813_CustomAttributesCacheGeneratorP21CustomAttributesCache
Laf:__ZN5physx6shdfnd4sortIPvNS0_4LessIS2_EENS0_19ReflectionAllocatorIN17PxcPoolMallocData10PoolData16EEEEEvPT_jRKT0_RKT1_j
sPd:__Z19sweepBox_SphereGeomRKN5physx10PxGeometryERKNS_11PxTransformERKNS_2Gu3BoxERKNS_6PxVec3EfRNS_10PxSweepHitENS_7PxFlagsINS_9PxHitFlag4EnumEtEEf
mOo:_GC_allochblk
EAe:__ZN5physx14NpRigidDynamic17setAngularDampingEf
iqm:_Array_InternalArray__ICollection_CopyTo_TisKeyframe_t4206410242_m2132255743_gshared
Dmp:_glCheckFramebufferStatus__wrapper
G8e:__ZNK5physx13GuMeshFactory15getHeightFieldsEPPNS_13PxHeightFieldEjj
z8a:__ZNSt3__26vectorIN30RuntimeInitializeOnLoadManager15ClassMethodInfoE13stl_allocatorIS2_L18MemLabelIdentifier13ELi16EEE7reserveEj
bbm:_Dictionary_2_System_Collections_ICollection_CopyTo_m3143696177_gshared
cOh:__Z103RuntimeInvoker_Void_t1185182177_Int32_t2950945753_Int32_t2950945753_Int32_t2950945753_SByte_t1669577662PFvvEPK10MethodInfoPvPS4_
nVm:_ReadOnlyCollection_1_System_Collections_IEnumerable_GetEnumerator_m3203429155_gshared
SDe:__ZN5physx2Cm20visualizeJointFramesERNS0_12RenderOutputEfRKNS_11PxTransformES5_
sYe:__ZN5physx22PxcContactPlaneCapsuleERKNS_2Gu13GeometryUnionES3_RKNS_11PxTransformES6_RKfRNS_10PxcNpCacheERNS0_13ContactBufferE
nUc:__Z36Renderer_Get_Custom_PropSortingOrderP12Il2CppObject
Hlo:__ZNK15dense_hashtableINSt3__24pairIK10KeyWrapperIPK10Il2CppTypeEjEES6_N6il2cpp8metadata14Il2CppTypeHashEN14dense_hash_mapIS6_jSB_NS6_14EqualsComparerINSA_26Il2CppTypeEqualityComparerEEENS0_9allocatorIS8_EEE9SelectKeyESF_SH_E13find_positionERS7_
mMa:__ZN7Texture5ResetEv
Xti:_DESTransform_BSwap_m2723001589
_wd:__ZNK14b2CapsuleShape7RayCastEP15b2RayCastOutputRK14b2RayCastInputRK11b2Transformi
OHh:_Context_get_HasDynamicSinks_m3952434387
Bgl:_Latin1Encoding_GetByteCount_m1145650505
myb:__Z18Transfer_BlittableI24GenerateTypeTreeTransferLb1EhEvRK29SerializationCommandArgumentsR31RuntimeSerializationCommandInfo
vWo:_CollisionCheckerSpeedPowerUp_OnCollisionEnter2D_m3577183495
mek:_GenericTypeParameterBuilder_GetPropertyImpl_m2584778600
nFb:__Z13TransferFieldI18StreamedBinaryReadILb1EELb0E16Converter_StringEvRK23StaticTransferFieldInfoR31RuntimeSerializationCommandInfoRT1_
z$d:__ZN5physx3Cct17CapsuleController9setRadiusEf
qPc:__ZNK16TypeTreeIterator10ByteOffsetEv
YIn:_DownloadHandler_GetContentType_m4249877960
icp:dynCall_iiifii
kfa:__ZnwjRKSt9nothrow_t
BH:__ZN8Animator11ClearObjectEv
iYo:_U3CDelayLoadLevelU3Ec__Iterator2_Reset_m2152999569
u2f:_TMP_StyleSheet_LoadStyleDictionaryInternal_m3968472499
qOd:__ZN9Rigidbody17MainThreadCleanupEv
BGk:_ApplicationException__ctor_m2557611022
nPa:__ZN14SafeBinaryRead19TransferSTLStyleMapINSt3__23mapI39DeprecatedFastPropertyNameSerializationN18UnityPropertySheet11UnityTexEnvENS1_4lessIS3_EENS1_9allocatorINS1_4pairIKS3_S5_EEEEEEEEvRT_17TransferMetaFlags
fRc:__Z45Register_UnityEngine_MonoBehaviour_IsInvokingv
l4m:_List_1_CheckMatch_m579516778_gshared
qBb:__ZL26Transfer_SimpleNativeClassI19StreamedBinaryWriteILb0EE17AnimationCurveTplIfELb0EEvRK29SerializationCommandArgumentsR31RuntimeSerializationCommandInfo
eNb:__Z43GiveManagedDebuggerChanceToAttachIfRequiredv
zKk:_Buffer_ByteLengthInternal_m1388208719
Qne:__ZN5physx9NpPhysics26unregisterDeletionListenerERNS_18PxDeletionListenerE
mPc:__Z35UnregisterSerializationCacheBuilderPFv17ScriptingClassPtrR23CachedSerializationDataRbE
yPo:_GC_reclaim_uninit
VUf:_TMP_Text_set_richText_m3566742252
baa:__ZNSt3__26__treeINS_12__value_typeIPKc18ScriptingMethodPtrEENS_19__map_value_compareIS3_S5_14CStringCompareLb1EEE13stl_allocatorIS5_L18MemLabelIdentifier1ELi16EEE25__emplace_unique_key_argsIS3_JRKNS_21piecewise_construct_tENS_5tupleIJOS3_EEENSH_IJEEEEEENS_4pairINS_15__tree_iteratorIS5_PNS_11__tree_nodeIS5_PvEEiEEbEERKT_DpOT0_
_Zk:_Int64_System_IConvertible_ToUInt32_m109903525_AdjustorThunk
Uvh:_MethodToken_Equals_m460628456_AdjustorThunk
mDa:__Z30GetBuiltinVectorParamArraySize24BuiltinShaderVectorParam
gna:__ZL46__ManagedRegistrationHelperFunction_SpriteBonePv
fMa:__ZN13RenderTextureC2E10MemLabelId18ObjectCreationMode
cYk:_Int32_GetFormatException_m519586683
ong:__ZL46StringBuilder_t_CustomAttributesCacheGeneratorP21CustomAttributesCache
BJd:__ZN16b2ContactManagerC2Ev
uTc:__Z60Register_UnityEngine_ScriptableObject_CreateScriptableObjectv
KBk:_Array_InternalArray__get_Item_TisVector2_t2156229523_m2502961026_gshared
OXa:__ZN21RendererUpdateManager11AddRendererER8Renderer
qge:__ZNK5physx18NpArticulationLink15getArticulationEv
ctb:__Z35Transfer_Blittable_FixedBufferFieldI14SafeBinaryReadsEvRK29SerializationCommandArgumentsR31RuntimeSerializationCommandInfo
skk:_Decimal_ThrowAtPos_m1170269346
kjk:_Convert_ToDateTime_m3802186295
kLo:__ZN6il2cpp5utils11StringUtils11Utf16ToUtf8EPKDs
N9a:__ZN18StreamedBinaryReadILb0EE21TransferSTLStyleArrayINSt3__26vectorIN15ResourceManager10DependencyE13stl_allocatorIS5_L18MemLabelIdentifier52ELi16EEEEEEvRT_17TransferMetaFlags
Vzo:__ZN6il2cpp6icalls8mscorlib6System4Type18internal_from_nameEP12Il2CppStringbb
Oql:_UInt64_CompareTo_m1614517204_AdjustorThunk
b2:__ZN11UnityEngine15CloudWebService26CloudServiceEventWithParamC2EPKcNS0_15CloudEventFlagsE
F_b:__ZZ23InitPlayerLoopCallbacksvEN52PreLateUpdateScriptRunBehaviourLateUpdateRegistrator7ForwardEv
Mac:__Z33IntersectAABBPlaneBoundsOptimizedRK4AABBPKN4math7_float4Ei
isn:_TMP_XmlTagStack_1_CurrentItem_m3008106825_gshared
UUk:_DateTimeFormatInfo_FillAllDateTimePatterns_m2683124783
jmb:__ZN9GfxDevice19EndGeometryJobFrameEv
BFn:_GUILayoutUtility_Layout_m1159951704
Xtj:_InputField_get_shouldActivateOnSelect_m3055465770
Ixm:_Interpreter_CreateMark_m468807491
gyb:__ZN27Converter_SimpleNativeClassI17AnimationCurveTplIfEE17ScriptingToNativeER18ScriptingObjectPtrPS1_
Nvk:_Array_Sort_TisRejectHandler_t1435172309_TisRejectHandler_t1435172309_m3084298889_gshared
Pml:_Type__cctor_m2371893800
Tge:__ZN5physx2Sc15CoreInteraction17isCoreInteractionEPNS0_11InteractionE
dUo:__ZN6il2cpp8metadata24Il2CppGenericInstCompare7CompareERK10KeyWrapperIPK17Il2CppGenericInstES8_
Yhf:__ZThn132_N5physx7profile8ZoneImplINS_28PxProfileNameProviderForwardEED0Ev
WVd:__ZN5physx3Cct13BoxController17setHalfSideExtentEf
Yih:_ExecuteEvents_Execute_m3049310229
rx:__ZN27AnimationLayerMixerPlayable21UpdateLayerParametersEv
etn:_TMP_XmlTagStack_1_PreviousItem_m4169616904_AdjustorThunk
KDg:__ZL84Object_t631007953_CustomAttributesCacheGenerator_Object_DestroyImmediate_m2288369078P21CustomAttributesCache
xqa:__ZN9Scripting11UnityEngine12LightmapData12CleanupProxyEv
bA:__ZN7mecanim9animation16CopyMotionOutputEPKNS0_18AnimationNodeStateEPS1_bbRKNS_6bitsetILj83EEE
Z5c:__ZN21InheritVelocityModule8TransferI14SafeBinaryReadEEvRT_
YPm:_ReadOnlyCollection_1_System_Collections_Generic_IListU3CTU3E_Insert_m276044716_gshared
Jyc:__ZNK17AnimationCurveTplIfE8EvaluateEfPNS0_5CacheE
KZb:__Z31ManagerContextInitializeClassesv
XRm:_ReadOnlyCollection_1_System_Collections_IList_Contains_m2650112051_gshared
Vok:_DateTime_System_IConvertible_ToUInt64_m2275741153
yck:_DerivedType_create_unmanaged_type_m747846525
tnf:_UNITY_FT_List_Finalize
q3b:__Z20LightAttenuateApproxRKfS0_
C9:__ZN9Scripting30SetCachedPtrOnScriptingWrapperE18ScriptingObjectPtrP6Object
Lz:__ZN17AnimationPlayable17SetInternalWeightEf
Xxm:_RepeatContext_get_IsMinimum_m3640286252
$Fe:__ZNK5physx7NpScene8getFlagsEv
dDn:_TMP_TextInfo_ClearMeshInfo_m908134423
Jqi:_ObjectRecord_ChainFixup_m1889316362
YJa:__ZN18BlockRangeInternal16PopLastNodeIndexEP10BlockRangeji
$Mo:__ZN6il2cpp2vm13CachedCCWBaseINS0_13ManagedObjectEE6AddRefEv
imh:_TouchInputModule_UpdateModule_m2582897964
d3a:__ZN4MeshD0Ev
qTf:__ZL42RequestRecreateEyeTexturesBeforeNextUpdatev
KI:__ZNK26AnimatorOverrideController13GetBehavioursEv
sCa:__ZNK6Camera20IsCurrentlyRenderingEv
hz:__ZN21AnimationClipPlayable23ProcessRootMotionNoClipEPK35AnimationPlayableEvaluationConstantPK32AnimationPlayableEvaluationInputP33AnimationPlayableEvaluationOutput
_Ef:__Z36CanvasRenderer_CUSTOM_SetPopMaterialP12Il2CppObjectS0_i
F2i:_U3CDisplayTextMeshProFloatingTextU3Ec__Iterator0_Reset_m4082400674
F$c:__Z18Transfer_BlittableI9JSONWriteLb0EdEvRK29SerializationCommandArgumentsR31RuntimeSerializationCommandInfo
Usf:_otv_u_O_O_u_O_O
SAa:__ZN6Camera8TransferI19StreamedBinaryWriteILb0EEEEvRT_
ork:_DBNull_System_IConvertible_ToSByte_m3533624679
FGa:__ZThn252_N31CanvasBatchIntermediateRenderer14OnAssetDeletedEv
S6o:_wctomb
Ofo:__ZN6il2cpp6icalls6System6System3Net7SocketsL22convert_address_familyENS4_13AddressFamilyE
hBi:_InternalEnumerator_1_System_Collections_IEnumerator_get_Current_m3575233890_AdjustorThunk
_ci:__Z67RuntimeInvoker_Void_t1185182177_Int32_t2950945753_Double_t594665363PFvvEPK10MethodInfoPvPS4_
xll:_TimeSpan__ctor_m3689759052
Rvc:__Z27Camera_CUSTOM_GetAllCamerasP11Il2CppArray
zPm:_ReadOnlyCollection_1_System_Collections_IEnumerable_GetEnumerator_m471575929_gshared
R8c:__ZN11ForceModule8TransferI18StreamedBinaryReadILb0EEEEvRT_
Kd:___cxa_rethrow
A9e:__ZN5physx20InternalTriangleMesh17allocateFaceRemapEv
tCh:_ParameterInfo_GetCustomAttributes_m2376494592
j1c:__Z18Transfer_BlittableI8JSONReadLb1EhEvRK29SerializationCommandArgumentsR31RuntimeSerializationCommandInfo
bth:_Graphic_get_canvasRenderer_m315509948
Ihn:_Collection_1_System_Collections_IList_Contains_m3397768605_gshared
Vyd:__ZN18Overlap2DQueryBase13ReportFixtureEP9b2Fixture
iUk:_CultureInfo_construct_internal_locale_from_name_m3254739477
Y0j:_RSASslSignatureDeformatter_VerifySignature_m1061897602
odc:__ZN13MonoBehaviour8SetClassE17ScriptingClassPtr18ScriptingObjectPtr
gHe:__ZNK5physx7NpScene26getBounceThresholdVelocityEv
nok:_DateTime__ctor_m2956360140_AdjustorThunk
GNe:__ZN5physx6shdfnd8PoolBaseINS_2Sc12SimStateDataENS0_19ReflectionAllocatorIS3_EEE15disposeElementsEv
brm:_Array_InternalArray__Insert_TisLabelFixup_t858502054_m171542753_gshared
jNi:_InternalEnumerator_1_System_Collections_IEnumerator_get_Current_m3539708496_AdjustorThunk
Egb:__ZN20LocalFileSystemPosix4ReadER13FileEntryDatayyPvPy
f7b:__ZNSt3__211__sift_downIRN23ForwardShaderRenderLoop18RenderObjectSorterILb0EEEP21ForwardRenderPassDataEEvT0_S7_T_NS_15iterator_traitsIS7_E15difference_typeES7_
c8k:_SecurityPermission__ctor_m1462427327
eep:dynCall_iiiiiiffiiiiiiiiiffffiiii
kJb:__ZN13MonoBehaviour5DoGUIENS_13GUILayoutTypeEii
WFh:_ChannelData_get_ClientProviders_m594662942
jK:__ZZN8Animator15InitializeClassEvEN43FunctorImpl_438kDidModifyAnimatorController4CallEPviR11MessageData
Jxm:_QuickSearch_GetChar_m1297698557
Bwa:__ZNK12TLSAllocatorI14StackAllocatorE8ContainsEPKv
R5a:__ZN11TimeManager8TransferI18StreamedBinaryReadILb0EEEEvRT_
r9e:__ZNK5physx13GuMeshFactory19getNbTriangleMeshesEv
e3b:__ZL8AddLightRK12ActiveLightsRK8Vector3fiR13dynamic_arrayI11CulledLightLj0EE
xjk:_DateTime__ParseEnum_m253019513
snk:_Convert_ToUInt32_m2194577773
q3a:__ZN14BlendShapeData8TransferI14SafeBinaryReadEEvRT_
aQd:__ZN5physx2Gu15getPolygonIndexERKNS0_13PolygonalDataEPNS0_12SupportLocalERKNS_6shdfnd3aos5Vec3VE
Qce:__ZN5physx14NpArticulation24setSolverIterationCountsEjj
eRk:_Hashtable_Remove_m4032631466
Owl:_DSAManaged_GenerateKeyPair_m2236915969
B2e:__ZN5physx36normalizePartitionsWithArticulationsERNS_6shdfnd5ArrayIjNS0_19ReflectionAllocatorIjEEEEPNS_23PxcSolverConstraintDescEPKNS_13PxcSolverBodyEjjS5_Pjj
vSa:__ZN7Texture25ReloadFromStorageIfNeededEPvb
hPj:_Array_InternalArray__IndexOf_TisBoolean_t97287965_m1161209222_gshared
zao:__ZNK15dense_hashtableINSt3__24pairIK10KeyWrapperIP9FieldInfoEiEES5_N6il2cpp5utils11PointerHashIS3_EEN14dense_hash_mapIS5_iSB_NS5_14EqualsComparerINS0_8equal_toIS4_EEEENS0_9allocatorIS7_EEE9SelectKeyESG_SI_E3endEv
$fe:__ZN5physx18NpArticulationLink17setLinearVelocityERKNS_6PxVec3Eb
WSo:__ZN6il2cpp2os12Cryptography24OpenCryptographyProviderEv
BKe:__ZN5physx2Sq17SceneQueryManager17processSimUpdatesEv
ROk:_SynchronizedArrayListWrapper_Clear_m2191301493
nxf:_Update_Max
syo:__ZN6il2cpp6icalls8mscorlib6SystemL15ThrowNoWideningEv
lce:__ZN5physx6shdfnd5ArrayIPvNS0_19ReflectionAllocatorINS_13NpRigidStaticEEEE15growAndPushBackERKS2_
Gxc:__ZNK23TransformChangeDispatch24GetChangeMaskForInterestENS_12InterestTypeE
HI:__ZN26AnimatorOverrideController23GetAnimationSetBindingsEv
_ed:__Z14UpdateSpeedTplIL27ParticleSystemCurveEvalMode4EEvRK11MinMaxCurveR23ParticleSystemParticlesjj
Qxc:__Z45Transform_CUSTOM_INTERNAL_CALL_TransformPointP12Il2CppObjectRK8Vector3fRS1_
LBl:_Enumerator_VerifyState_m1203790900_gshared
IJe:__ZN5physx10PxsContext25setVisualizationParameterENS_24PxVisualizationParameter4EnumEf
uhc:__ZL10KeyHandleriPK23EmscriptenKeyboardEventPv
FPa:__ZNSt3__26__treeINS_12__value_typeI39DeprecatedFastPropertyNameSerializationfEENS_19__map_value_compareIS2_S3_NS_4lessIS2_EELb1EEENS_9allocatorIS3_EEE7destroyEPNS_11__tree_nodeIS3_PvEE
oQc:__Z41Quaternion_CUSTOM_FromToRotation_InjectedRK8Vector3fS1_R11Quaternionf
LPd:__ZN24ConvexVsHeightfieldSweepC2ERN5physx2Gu15HeightFieldUtilERKNS1_14ConvexHullDataERKNS0_11PxMeshScaleERKNS0_11PxTransformESC_RKNS0_6PxVec3EfNS0_7PxFlagsINS0_9PxHitFlag4EnumEtEEfbb
nvf:_tt_cmap4_char_index
Rmh:_AspectRatioFitter_GetParentSize_m3159144324
mal:_SecurityFrame_get_Assembly_m2874566710
M$l:_List_1_CheckIndex_m2294585491_gshared
C7m:_Enumerator_System_Collections_IEnumerator_Reset_m1487823313_gshared
ggb:__ZNK12HandlerChain8IsHiddenERK13FileEntryData
elb:__ZNSt3__26__treeINS_12__value_typeIN4core12basic_stringIcNS2_20StringStorageDefaultIcEEEEPN16MemoryFileSystem4NodeEEENS_19__map_value_compareIS6_SA_NS_4lessIS6_EELb1EEE13stl_allocatorISA_L18MemLabelIdentifier55ELi16EEE25__emplace_unique_key_argsIS6_JNS_4pairIKS6_S9_EEEEENSK_INS_15__tree_iteratorISA_PNS_11__tree_nodeISA_PvEEiEEbEERKT_DpOT0_
wxb:__ZL26Transfer_SimpleNativeClassI17RemapPPtrTransfer10RectOffsetLb0EEvRK29SerializationCommandArgumentsR31RuntimeSerializationCommandInfo
DCc:__ZN16GraphicsSettings12CleanupClassEv
Wlk:_Decimal_op_Explicit_m438967917
kZh:__Z154RuntimeInvoker_Vector3_t3722313464_Vector3_t3722313464_Vector3_t3722313464_Vector3U26_t3464235976_Single_t1397266774_Single_t1397266774_Single_t1397266774PFvvEPK10MethodInfoPvPS4_
fod:__ZL30CalculateMeshParticleTransformIL25ParticleSystemRenderSpace4EEvRN4math7affineXERNS1_8float3x3ERKNS1_7_float3EiRKS2_SA_SA_S8_RK23ParticleSystemParticlesRK21ParticleSystemModulesRK26ParticleSystemVector3Array
QYa:__ZN21EnlightenSceneMapping16BuildRemapTablesEv
iEd:__ZN10ClipperLib14PointInPolygonERKNS_8IntPointEPNS_5OutPtE
Iuj:_InputField_set_selectionColor_m2084640295
hem:_Dictionary_2_ToTValue_m3082461587_gshared
iDa:__ZNK9ShaderLab20ShaderBlendStateDesc15ToGfxBlendStateEPK19ShaderPropertySheetS3_R13GfxBlendState
YDl:_Enumerator_System_Collections_IEnumerator_get_Current_m1747693366_AdjustorThunk
jDj:_ScrollRectEvent__ctor_m1107027632
mD:__ZN11UnityEngine9AnimationL22GenericBindingCallbackEPvS1_i
xG:__ZN12_GLOBAL__N_121ProcessAnimationBeginER35AnimationPlayableEvaluationConstantR32AnimationPlayableEvaluationInputR33AnimationPlayableEvaluationOutput
hoc:__ZN9ShaderLab9IntShaderC2Ev
Rhd:__Z25UpdateOrbitalAndRadialTplIL27ParticleSystemCurveEvalMode0ELS0_3ELS0_3EEvRK11MinMaxCurveS3_S3_S3_S3_S3_S3_R23ParticleSystemParticlesjjRKN4math8float3x3ERKNS6_7affineXERKNS6_7_float4E
Yio:__ZN6il2cpp6icalls8mscorlib6SystemL9IsPrivateEPK9EventInfo
xSo:__ZN6il2cpp6icalls8mscorlib6System10Reflection4Emit11TypeBuilder20setup_internal_classEP27Il2CppReflectionTypeBuilderS7_
Abf:__ZN5physx11AdjacenciesD2Ev
xZo:_JSONObject__ctor_m1214723509
iEe:__ZN5physx6shdfnd8PoolBaseINS_2Sc24ElementInteractionMarkerENS0_19ReflectionAllocatorIS3_EEE12allocateSlabEv
hPe:__ZN5physx2Sq16BucketPrunerCore11shiftOriginERKNS_6PxVec3E
Fqb:__ZNSt3__26vectorIN20GpuProgramParameters14ConstantBufferENS_9allocatorIS2_EEE21__push_back_slow_pathIRKS2_EEvOT_
YQo:_GC_set_push_other_roots
$Xo:_U3CDelayU3Ec__Iterator1_MoveNext_m664946359
KPj:_Array_InternalArray__IndexOf_TisILTokenInfo_t2325775114_m2602704009_gshared
$ih:_ExecuteEvents_Execute_m3613826831
Xbh:_KerningPair__ctor_m98952632
t6i:_Response_GetHeader_m2833907858
rhl:_StringBuilder_AppendFormat_m3255666490
z7c:__ZN27ParticleSystemReadOnlyState8TransferI24GenerateTypeTreeTransferEEvRT_
BZc:__ZN5Unity9rapidjson6WriterI16TempBufferWriterNS0_4UTF8IcEES4_13JSONAllocatorE11WriteUint64Ey
rYc:__ZN13GUIStateScope3EndER16GUIKeyboardStateR8GUIStatePN5IMGUI19NamedKeyControlListE
Tak:_Default_GetBetterMethod_m3232777160
hyh:_TypeBuilder_GetGenericArguments_m2872156836
Pud:__ZN16b2PrismaticJoint24SolveVelocityConstraintsERK12b2SolverData
WJe:__ZN5physx6shdfnd5ArrayIPNS_3Scb5ShapeENS0_19ReflectionAllocatorIS4_EEE6resizeEjRKS4_
x0d:__ZN5physx3Cct15ObstacleContextD2Ev
P6n:__ZN13Il2CppHashMapIPK22Il2CppGenericParameterP11Il2CppClassN6il2cpp5utils11PointerHashIS1_EENSt3__28equal_toIS2_EENS9_9allocatorINS9_4pairIK10KeyWrapperIS2_ES4_EEEEEC2EjRKS8_RKSB_
B2c:__ZN8JSONRead21TransferSTLStyleArrayI31ArrayOfManagedObjectsTransfererEEvRT_17TransferMetaFlags
qhb:__Z15CreateDirectoryRKN4core12basic_stringIcNS_20StringStorageDefaultIcEEEE
X4a:__Z21CalculateGlobalMatrix23TransformAccessReadOnly
iyh:_TypeBuilder_GetGenericTypeDefinition_m1632720438
mRj:_MonoProperty_StaticGetterAdapterFrame_TisRuntimeObject_m4131530968_gshared
qIj:_Array_InternalArray__ICollection_Contains_TisLink_t544317964_m163190451_gshared
Nqk:_DateTimeOffset_System_IComparable_CompareTo_m176229495_AdjustorThunk
igj:_ManagedStreamHelpers_ValidateLoadFromStream_m580138133
z7a:__ZNK13BuildSettings22GetTypeVirtualInternalEv
A:tempBigIntD
dwn:__ZN30GenericInterfaceActionInvoker1I17Scene_t2348375561E6InvokeEPK10MethodInfoP12Il2CppObjectS0_
QCn:_ZlibBaseStream_Seek_m1748085148
Aog:__ZL56AppDomainSetup_t123196401_CustomAttributesCacheGeneratorP21CustomAttributesCache
sQe:__ZN5physx2Cm10FanoutTaskC2EPKc
p5m:_List_1_CheckIndex_m2250397830_gshared
QMe:__ZNK5physx2Sc5Scene17prefetchForRemoveERKNS0_8BodyCoreE
Tcl:_String_LastIndexOf_m578673845
Col:_UInt16_System_IConvertible_ToInt16_m2337134904_AdjustorThunk
Wjj:_PlayerEditorConnectionEvents_UnregisterManagedCallback_m400366024
K9d:__ZN5physx2Sc8RigidSimD2Ev
Vnc:__ZN9ShaderLab20SerializedSubProgram14ConstantBufferC2EOS1_
Zwh:_PropertyBuilder_GetSetMethod_m128670376
tym:_Interval_get_Empty_m3617514670
p4f:_TMP_Text_get_fontMaterial_m2328223889
dak:_Assembly_GetName_m981771927
khi:__Z92RuntimeInvoker_RuntimeObject_Int32_t2950945753_SByte_t1669577662_RuntimeObject_RuntimeObjectPFvvEPK10MethodInfoPvPS4_
zB:__ZN7mecanim12statemachine24CreateStateMachineOutputEPKNS0_20StateMachineConstantEjRNS_6memory9AllocatorE
skd:__ZN15CollisionModuleD0Ev
iJe:__ZNK5physx13NpVolumeCache7raycastERKNS_6PxVec3ES3_fRNS_13PxHitCallbackINS_12PxRaycastHitEEENS_7PxFlagsINS_9PxHitFlag4EnumEtEERKNS_17PxQueryFilterDataEPNS_21PxQueryFilterCallbackE
Fmb:__ZNK9GfxDevice27GetActiveRenderSurfaceWidthEv
JUg:__ZL114StandaloneInputModule_t2760469101_CustomAttributesCacheGenerator_StandaloneInputModule_ForceAutoSelect_m2837047882P21CustomAttributesCache
P_e:__ZN5physx16PxsIslandManagerC2EjRNS_19PxcScratchAllocatorEPNS_2Cm13EventProfilerE
BLf:__ZN11UnityEngine15PlatformWrapper28GetCleanGraphicsFixedVersionEv
iAj:_MaskableGraphic_RecalculateClipping_m1772937317
irc:__ZN4core8hash_mapI12TriangleEdgei16TriangleEdgeHashNSt3__28equal_toIS1_EEEixERKS1_
g4j:_UnmanagedMemoryStream_SetLength_m3752964620
yjn:_SslStreamBase_RaiseLocalPrivateKeySelection_m4112368540
r$i:_Socket_GetSocketOption_obj_internal_m3909434119
dso:__ZN6il2cpp2vm4Type7GetTypeEPK10Il2CppType
GXe:__ZN5physx13ActorAABBTask11runInternalEv
trc:__ZN16SpriteRenderData28PrepareRenderingDataIfNeededEv
XEi:_InternalEnumerator_1_get_Current_m165106323_AdjustorThunk
Old:__ZN14ParticleSystem18SetSimulationSpeedEf
bil:_UTF32Encoding_GetByteCount_m3610769032
hX:__ZN11AudioModule16SetListenerPauseEb
QKk:_Byte_System_IConvertible_ToInt32_m3495522413
y$b:__Z16FindCameraStacksRKNSt3__24listI4PPtrI6CameraENS_9allocatorIS3_EEEERNS_6vectorI11CameraStackNS4_ISA_EEEE
vzm:_MatchCollection_CopyTo_m3807326147
HVf:_TMP_Dropdown_set_itemImage_m674703308
IYa:__ZN10GISettings8TransferI14SafeBinaryReadEEvRT_
zo:FUNCTION_TABLE_vifff
Kvi:_MD5CryptoServiceProvider__ctor_m3271163125
pec:__ZN19CustomRenderTexture12ClearGPUDataEv
UWh:__Z130RuntimeInvoker_Int32_t2950945753_IntPtr_t_RuntimeObject_Int32_t2950945753_Int32_t2950945753_Int32_t2950945753_Int32U26_t1369213839PFvvEPK10MethodInfoPvPS4_
ZWk:_Guid_Equals_m3683678873
vMa:__ZN13RenderTexture13ApplySettingsEv
Gpi:_ObjectReader_RegisterObject_m1853376334
nwh:_ModuleBuilderTokenGenerator_GetToken_m2588853565
Pgd:__Z25UpdateOrbitalAndRadialTplIL27ParticleSystemCurveEvalMode2ELS0_0ELS0_0EEvRK11MinMaxCurveS3_S3_S3_S3_S3_S3_R23ParticleSystemParticlesjjRKN4math8float3x3ERKNS6_7affineXERKNS6_7_float4E
SJk:_Boolean_System_IConvertible_ToDecimal_m3176932461_AdjustorThunk
L6b:__ZNSt3__26__treeINS_12__value_typeIi17ShadowCachingDataEENS_19__map_value_compareIiS3_NS_4lessIiEELb1EEE13stl_allocatorIS3_L18MemLabelIdentifier66ELi16EEE25__emplace_unique_key_argsIiJNS_4pairIiS2_EEEEENSD_INS_15__tree_iteratorIS3_PNS_11__tree_nodeIS3_PvEEiEEbEERKT_DpOT0_
Lf:_JS_Sound_SetListenerPosition
so:FUNCTION_TABLE_fiffi
GEf:__Z55Register_UnityEngine_CanvasGroup_get_ignoreParentGroupsv
C4n:_BoxCollider_INTERNAL_set_size_m404545260
i5a:__ZN12EventManager11RemoveEventEP10EventEntryPFvPvS2_iES2_
Tqe:__ZN5physx7NpCloth21setLinearInertiaScaleENS_6PxVec3E
idb:__ZNK8Material16MarkDependenciesER27GarbageCollectorThreadState
NFj:_Slider_set_handleRect_m1101657556
_qk:_DateTimeOffset_ToString_m3985341516_AdjustorThunk
bNd:__ZN5Unity10FastCookerD2Ev
I$c:__ZL17Transfer_GUIStyleI9JSONWriteLb0EEvRK29SerializationCommandArgumentsR31RuntimeSerializationCommandInfo
Com:_Array_InternalArray__ICollection_Add_TisContactPoint_t3758755253_m4220022016_gshared
l4b:__Z28GetHaloVertexPositionsStereoP8Vector3fRKS_S2_f
bef:__ZN17TriggerStayStates20executeDeferredEraseEv
hka:__ZN6prcoreL27StretchGenericFloatBilinearI15TexFormatRGHalfEEvPKNS_9InnerInfoE
ZI:__Z16return_effectiveRK21AnimationClipOverride
gKn:_UnityWebRequest_get_responseCode_m1090830473
h4b:__ZN9DepthPass7PrepareER6CameraRK13dynamic_arrayI16RenderObjectDataLj0EERK15RenderNodeQueueRK17ShaderReplaceDatab
$ho:__ZN6il2cpp6icalls8mscorlib6SystemL16CheckMemberMatchI9FieldInfoNS_5utils10functional6FilterINSt3__212basic_stringIcNS8_11char_traitsIcEENS8_9allocatorIcEEEENS5_13VmStringUtils21CaseSensitiveComparerEEEEEbPKT_PK11Il2CppClassSN_iRKT0_
Wqa:__ZN9Scripting11UnityEngine12Experimental3U2D10SpriteBone9InitProxyEv
JNa:__ZNK15PlayableMethods18InvokePrepareFrameER18ScriptingObjectPtrRK9HPlayableP18ScriptingFrameData
aJ:__ZN14SafeBinaryRead21TransferSTLStyleArrayI13dynamic_arrayI21AnimationClipOverrideLj0EEEEvRT_17TransferMetaFlags
Yyh:_MemberInfoSerializationHolder_Serialize_m2002453739
ZWe:__ZN5physx14PxsAABBManager22processAggregateSingleERKNS_19AggregateSortedDataERKNS_9AggregateEjPNS_2Cm10BitMapBaseINS_6shdfnd9AllocatorEEE
fY:__Z13RegisterClassI12AudioManagerEvPKc
VFb:__Z18Transfer_BlittableI18StreamedBinaryReadILb0EELb1E9BoundsIntEvRK29SerializationCommandArgumentsR31RuntimeSerializationCommandInfo
OYg:__ZL71SpriteState_t1362986479_CustomAttributesCacheGenerator_m_DisabledSpriteP21CustomAttributesCache
iNf:__ZN22BaseUnityConnectClient28UpdateConfigFromServerStaticEPv
MYi:_PublicKey_DecodeDSA_m3490622362
mxc:__Z49Register_UnityEngine_Resources_GetBuiltinResourcev
K$e:__ZN5physx2Sc17ParticleSystemSim20scheduleCollisionCpuERNS0_16InteractionSceneERKNS_6shdfnd5ArrayIPS1_NS4_19ReflectionAllocatorIS6_EEEERNS_10PxBaseTaskE
Fnl:_Type_GetMethod_m1479779718
avf:_tt_cmap10_char_index
lll:_WaitHandle__cctor_m4242752477
Xjn:_TlsException__ctor_m3242533711
vlc:__ZN15SerializeTraitsINSt3__24pairIN4core12basic_stringIcNS2_20StringStorageDefaultIcEEEE4PPtrI7TextureEEEE8TransferI24GenerateTypeTreeTransferEEvRSA_RT_
Wgk:_SortedList__ctor_m3676552745
r7n:__ZN15dense_hashtableINSt3__24pairIK10KeyWrapperIPK22Il2CppGenericParameterEP11Il2CppClassEES6_N6il2cpp5utils11PointerHashIS4_EEN14dense_hash_mapIS6_S9_SE_NS6_14EqualsComparerINS0_8equal_toIS5_EEEENS0_9allocatorISA_EEE9SelectKeyESJ_SL_E3endEv
sW:__ZN11AudioSource24ClearExtensionPropertiesE12PropertyName
lGa:__ZN14VertexDataInfo12UpdateFormatEj17ShaderChannelMaskS0_RK19VertexStreamsLayoutRK20VertexChannelsLayout
zmc:__ZN9ShaderLab22SerializedBindChannels8TransferI19StreamedBinaryWriteILb0EEEEvRT_
Jvb:__ZN15SerializeTraitsI5RectTIiEE8TransferI14SafeBinaryReadEEvRS1_RT_
eXc:__ZN5IMGUI20MoveWindowFromLayoutER8GUIStateiRK5RectTIfE
Knf:_UNITY_FT_Stream_ReadUShort
mPa:__ZNSt3__26__treeINS_12__value_typeIN4core12basic_stringIcNS2_20StringStorageDefaultIcEEEES6_EENS_19__map_value_compareIS6_S7_NS_4lessIS6_EELb1EEE13stl_allocatorIS7_L18MemLabelIdentifier1ELi16EEE7destroyEPNS_11__tree_nodeIS7_PvEE
Lbk:_AssemblyBuilder_get_Location_m384539722
Akl:_Thread_get_ManagedThreadId_m1068113671
gUb:__Z13IsDepthFormat14GraphicsFormat
U6a:__ZN12AspectRatios8TransferI24GenerateTypeTreeTransferEEvRT_
h6j:_MonoType_GetFields_m4176012508
bok:_CurrentSystemTimeZone_GetTimeZoneData_m2641861607
Ag:_emscripten_glUniform1fv
Q1e:__ZL28removeBrokenEdgesFromIslandsPKjjS0_jS0_RKN5physx11NodeManagerERNS1_11EdgeManagerERNS1_13IslandManagerERNS1_2Cm10BitMapBaseINS1_6shdfnd9AllocatorEEEPSD_
Clh:_StandaloneInputModule_set_inputActionsPerSecond_m4057208843
YMb:__ZN19RuntimeSceneManager18LoadSceneAsyncIntoER10UnitySceneRKN4core12basic_stringIcNS2_20StringStorageDefaultIcEEEENS_11LoadingModeEb
DEn:_TMPro_ExtensionMethods_Compare_m906380237
Iui:_HashAlgorithm_ComputeHash_m2044824070
Do:FUNCTION_TABLE_iifff
HYc:__ZN11IMGUIModule12AddGUIScriptER8ListNodeI13MonoBehaviourE
Pa:invoke_difi
yFn:_GUILayoutUtility_BeginWindow_m2240221150
hip:_glDeleteSamplers__wrapper
Mea:__ZL50StaticRegisterSceneLoadedCallback_LightmapSettingsPv
Mih:_EventTrigger_OnScroll_m1105023111
NSi:_HybridDictionary_set_Item_m2997363718
Mn:FUNCTION_TABLE_iiffi
HNi:_InternalEnumerator_1_get_Current_m1477715453_AdjustorThunk
qre:__ZNK5physx7NpCloth24getSeparationConstraintsEPNS_35PxClothParticleSeparationConstraintE
Gql:_UInt64_System_IConvertible_ToUInt32_m2784653358
STb:__ZN21GLESGpuProgramApplier11ApplyVectorERKN20GpuProgramParameters14ValueParameterEPK8Vector4ft
r9b:__Z17PrepareSceneNodesP11CullResults
dsi:_SByte_System_IConvertible_ToDecimal_m2548745278
Sof:_cff_size_done
V9b:__ZN29ExtractProjectionPlanesHelperILb1EE5ApplyERK10Matrix4x4fP5Plane
s2e:__ZN5physx6shdfnd5ArrayINS_17PxcSolverBodyDataENS0_16AlignedAllocatorILj128ENS0_19ReflectionAllocatorIS2_EEEEE6resizeEjRKS2_
qDc:__ZN13ProduceHelperI7CubemapLb0EE7ProduceE10MemLabelId18ObjectCreationMode
Hec:__ZN6Camera34UpdatePreviousViewProjectionMatrixEv
JOa:__ZN9ShaderLab11ShaderState25RemoveUnsupportedProgramsEPK6Shader
ITc:__Z44Register_UnityEngine_Object_DestroyImmediatev
chj:_Mathf_Abs_m3281243566
e3j:_SynchronizedWriter_WriteLine_m1552352268
Nbp:dynCall_viiiiifi
itc:__Z26scripting_class_has_parent17ScriptingClassPtrS_
Qef:__ZN13ProduceHelperI9RigidbodyLb0EE7ProduceE10MemLabelId18ObjectCreationMode
yda:__ZN13RuntimeStaticI21AssetReferenceStorageLb0EE16StaticInitializeEPv
DYk:_Int32_System_IConvertible_ToByte_m3832391412_AdjustorThunk
MW:__Z71Register_UnityEngine_AudioSource_INTERNAL_CALL_ClearExtensionPropertiesv
lH:__ZNK8Animator20IsInMatchTargetStateEv
JGi:_InternalEnumerator_1_System_Collections_IEnumerator_get_Current_m4088805473_gshared
jqa:__ZN9Scripting11UnityEngine5Plane12CleanupProxyEv
wn:FUNCTION_TABLE_viiifiii
aXc:__Z36Register_UnityEngine_GUI_set_changedv
WHh:_Context_GetServerContextSinkChain_m3154465897
d1h:__Z81RuntimeInvoker_Int32_t2950945753_Ray_t3785851493_RuntimeObject_Single_t1397266774PFvvEPK10MethodInfoPvPS4_
tDn:_TMP_TextUtilities_FindIntersectingCharacter_m1441274992
rGn:_GUIStyle_get_fixedHeight_m2868324709
Add:__Z11EvaluateHDRIL12GradientMode1ELS0_1EEN4math8floatNx4ERK14MinMaxGradientRKNS1_7_float4ES8_
_Ka:__ZN17LightBakingOutput8TransferI24GenerateTypeTreeTransferEEvRT_
Lqe:__ZN5physx7NpCloth13setTargetPoseERKNS_11PxTransformE
GSo:__GLOBAL__sub_I_Il2CppCodeRegistration_cpp
FA:__ZN7mecanim28TransformValueArrayBlendNodeEiiiRKNS_10ValueArrayERKNS_14ValueArrayMaskERS0_RS3_RNS_16ValueArrayWeightEf
Tck:_DerivedType_MakeGenericType_m100846339
E1l:_List_1_GetIndex_m3112872964_gshared
crh:_Dropdown_set_value_m1048320169
o4n:_CustomEventData_Finalize_m1724721833
eIa:__ZN20TierGraphicsSettings8TransferI18StreamedBinaryReadILb0EEEEvRT_
aZk:_Int32_System_IConvertible_ToUInt64_m2502338186_AdjustorThunk
Fha:__Z33CleanupCubemapGPUUtilityMaterialsPv
USc:__Z43Register_UnityEngine_Material_EnableKeywordv
ySi:_Enumerator_VerifyState_m3771386402_AdjustorThunk
yYk:_Int16_ToString_m2072232391_AdjustorThunk
IYl:_Enumerator_VerifyState_m169680537_AdjustorThunk
Jqo:__ZN14dense_hash_mapI10KeyWrapperINSt3__24pairIPK12PropertyInfoP11Il2CppClassEEEj17ReflectionMapHashIS8_ENS9_14EqualsComparerINS1_8equal_toIS8_EEEENS1_9allocatorINS2_IKS9_jEEEEE13set_empty_keyERSH_
gD:__ZN8Animator28BuildControllerPlayableCacheEv
Q5f:_TMP_Text_set_mappingUvLineOffset_m3800869425
bAc:__Z45Register_UnityEngine_Input_get_touchSupportedv
FLf:__ZN11UnityEngine15PlatformWrapper28GetTextureFormatSupportFlagsEv
Itf:_sfnt_is_postscript
Rni:_RemotingConfiguration_RegisterWellKnownClientType_m1237674062
Eta:__ZN9Scripting5Unity11Collections8LowLevel6Unsafe42NativeDisableUnsafePtrRestrictionAttribute9InitProxyEv
RDm:_Uri_EscapeString_m3864445955
Apf:_cf2_setError
a_a:__ZN14SafeBinaryRead21TransferSTLStyleArrayI13dynamic_arrayI12BoneWeights4Lj16EEEEvRT_17TransferMetaFlags
mBn:_DeflateManager_set_WantRfc1950HeaderBytes_m1713352086
eul:_SortKeyBuffer_GetOptimizedLength_m1735248204
e_b:__ZZ23InitPlayerLoopCallbacksvEN35PreUpdateSendMouseEventsRegistrator7ForwardEv
tCa:__ZNK6Camera25GetNormalizedViewportRectEP13RenderTextureb
drh:_Dropdown_Awake_m3140021404
V3l:_List_1_set_Item_m816645719_gshared
Qh:_glDisable
ZMa:__ZN13RenderTexture8TransferI24GenerateTypeTreeTransferEEvRT_
YOn:_Vector2_get_sqrMagnitude_m837837635
FLo:__ZN6il2cpp5utils11StringUtils15StringDuplicateEPKDsj
pwm:_Regex_Match_m4145799399
Dz:__ZN17AnimationPlayable17ProcessRootMotionEP35AnimationPlayableEvaluationConstantP32AnimationPlayableEvaluationInputP33AnimationPlayableEvaluationOutput
Ycl:_String_IsNullOrEmpty_m2969720369
v$n:_TextGenerator_GetPreferredHeight_m3514897836
euf:_UNITY_tt_face_load_hmtx
xul:_BigInteger_LowestSetBit_m3082714978
Oqm:_Array_InternalArray__Insert_TisKeyValuePair_2_t2530217319_m1769848997_gshared
xRd:__ZN5physx10getInverseERNS_7PxMat33ERNS_6PxVec3ERKS0_RKS2_
o2k:_MonoIO_Read_m1129074620
ckp:b118
cWl:_Enumerator_System_Collections_IEnumerator_get_Current_m3937040232_AdjustorThunk
Q1o:_JSONNode_get_AsArray_m2046997399
t$b:__ZNK8Material12GetPassCountEv
f5k:_RSAParameters_t1728406613_marshal_pinvoke
yym:_Interval_IsDisjoint_m1532171337_AdjustorThunk
Ujp:b112
Qap:_bitshift64Ashr
Wjp:b114
Xjp:b115
akp:b116
bkp:b117
_fo:__ZN6il2cpp6icalls6System6System3Net7SocketsL32end_point_info_to_socket_addressERKNS_2os12EndPointInfoE
ycp:dynCall_diii
izj:_LayoutUtility_GetFlexibleWidth_m22831835
ppi:_BinaryFormatter__ctor_m971003555
nyi:_ArrayReadOnlyList_1_ReadOnlyError_m865416608_gshared
lbc:__Z18AddGroupToWorkloadR26BlockRangeBalancedWorkloadjR13dynamic_arrayI10BlockRangeLj0EERS1_IjLj0EE
ZPk:_CollectionBase_System_Collections_IList_get_Item_m3743372945
V3k:_Stream_ReadByte_m4291052673
_8k:_Evidence_GetEnumerator_m302914965
VUa:__ZN4crnd12crn_unpacker22decode_alpha_endpointsEv
N4n:_Physics_Raycast_m1896872038
W7m:_Queue_1__ctor_m2068090025_gshared
Jac:__Z23CullDynamicObjectsUmbraPK4AABBPKN5Umbra15OcclusionBufferER9IndexList
xjn:_SslStreamBase_RaiseRemoteCertificateValidation2_m2908038766
ovf:_tt_cmap4_char_next
ndd:__ZN11ForceModule6UpdateERK27ParticleSystemReadOnlyStateRK19ParticleSystemStateR23ParticleSystemParticlesjjRKN4math7_float4E
bLh:__Z50RuntimeInvoker_Boolean_t97287965_Int16_t2552820387PFvvEPK10MethodInfoPvPS4_
gga:__ZN17DirectorFrameTime14ResetDSPValuesEv
Ich:_MaterialReferenceManager_AddSpriteAssetInternal_m2549235028
Gkk:_Convert_ToDecimal_m1233667008
fHd:__ZN17CapsuleCollider2D23VirtualRedirectTransferER18StreamedBinaryReadILb0EE
VNf:__ZN22UnityAnalyticsSettings10SetEnabledEb
EO:__ZN4FMOD7Channel11setPositionEjj
Y0k:_FileInfo__ctor_m1254204251
Ii:_glBindSampler
_Xj:_ClientContext_get_ClientHelloProtocol_m1654639078
bhe:__ZN5physx2Sc8BodyCore20clearSpatialVelocityEbb
Mi:_glGetVertexAttribiv
hOl:_Enumerator_System_Collections_IEnumerator_get_Current_m1975949486_gshared
$zm:_PatternCompiler_EmitSub_m193323684
YMe:__ZN5physx6shdfnd5ArrayINS_9PxBounds3ENS0_15InlineAllocatorILj192ENS0_19ReflectionAllocatorIS2_EEEEE8recreateEj
Kta:__ZN9Scripting5Unity11Collections8LowLevel6Unsafe49NativeContainerSupportsDeferredConvertListToArray9InitProxyEv
O2c:__ZN8JSONRead8TransferIbEEvRT_PKc17TransferMetaFlagsb
B4d:__ZN5physx6shdfnd5ArrayIPvNS0_19ReflectionAllocatorINS_2Sc24ElementInteractionMarkerEEEE4copyINS0_15InlineAllocatorILj256ES6_EEEEvRKNS1_IS2_T_EE
vml:_TimeSpan_ToString_m1128692466
Doe:__ZNK5physx7NpShape15getGeometryTypeEv
qIn:_AesManaged_CreateEncryptor_m2294080233
dwk:_Array_Sort_TisRuntimeObject_TisRuntimeObject_m879120523_gshared
$En:_Event_GetHashCode_m3559153592
I6i:_FormDataStream_set_Position_m3030724785
Hll:_TimeSpan_get_Milliseconds_m3438015508
e$i:_Socket_SetSocketOption_internal_m2890815837
WNo:_GC_promote_black_lists
ijk:_Convert_ToChar_m3757390865
C3c:__Z29Transfer_Blittable_ArrayFieldI8JSONRead8Vector4fEvRT_R9ArrayInfoRK23StaticTransferFieldInfo
Weh:_TextMeshPro_GetSharedMaterials_m3782928491
H2h:__Z88RuntimeInvoker_RuntimeObject_RuntimeObject_SByte_t1669577662_RuntimeObject_RuntimeObjectPFvvEPK10MethodInfoPvPS4_
Np:FUNCTION_TABLE_vd
Pp:FUNCTION_TABLE_vi
o5:__ZN13RuntimeStaticI37UnityShaderCompilerExtPluginConfigureLb0EE16StaticInitializeEPv
nUo:__ZNSt3__26vectorINS_12basic_stringIDsNS_11char_traitsIDsEENS_9allocatorIDsEEEENS4_IS6_EEE18__construct_at_endEj
rNc:__ZN10systeminfo24GetRuntimePlatformStringEv
shl:_StringBuilder_AppendFormat_m2403596038
wui:_DSASignatureDeformatter_SetHashAlgorithm_m3186995552
jOm:_ReadOnlyCollection_1_System_Collections_Generic_ICollectionU3CTU3E_Clear_m2772202961_gshared
mUe:__ZN5physxL25solveContact4_StaticBlockEPKNS_23PxcSolverConstraintDescERNS_16PxcSolverContextE
D_o:_MainMenu_PlayGame_m1630219755
Ihl:_UnicodeEncoding_GetString_m332467280
ZK:__ZNK8Animator17HasBoundPlayablesEv
zFd:__ZN17Physics2DSettings8TransferI24GenerateTypeTreeTransferEEvRT_
u4c:__ZN5Unity9rapidjson13GenericReaderINS0_4UTF8IcEES3_13JSONAllocatorE10ParseFalseILj0ENS0_19GenericStringStreamIS3_EENS0_15GenericDocumentIS3_S4_S4_EEEEvRT0_RT1_
Vjl:_SynchronizationContext_SetSynchronizationContext_m1249070039
d$d:__ZNK5physx3Cct17CapsuleController15getFootPositionEv
uMk:_Char_IsPunctuation_m3984409211
jqk:_DateTime_ToFileTimeUtc_m398715979_AdjustorThunk
b5m:_List_1_AddEnumerable_m1267044261_gshared
xPh:__Z99RuntimeInvoker_Void_t1185182177_RuntimeObject_Int32_t2950945753_SByte_t1669577662_SByte_t1669577662PFvvEPK10MethodInfoPvPS4_
Eti:_KeySizes__ctor_m3113946058
wZc:__ZN5Unity9rapidjson12PrettyWriterI16TempBufferWriterNS0_4UTF8IcEES4_13JSONAllocatorE10StartArrayEv
yqd:__ZN14qsort_internal30FindAndMovePivotToLastPositionIP22ParticleRibbonSortDataiNSt3__27greaterIS1_EEEEvT_S6_T0_T1_
nta:__ZN9Scripting11UnityEngine16AndroidJNIHelper12CleanupProxyEv
Aa:invoke_iiifiii
opj:_RectTransform_INTERNAL_get_pivot_m2970933031
Xvn:_UnityAction_1_Invoke_m927447181_gshared
Dyo:__ZN6il2cpp2vm9Exception11FromNameMsgEPK11Il2CppImagePKcS6_S6_
go:FUNCTION_TABLE_fiiifii
tUe:__ZN5physx25solveContact_BStaticBlockEPKNS_23PxcSolverConstraintDescEjRNS_16PxcSolverContextE
tK:__ZN10HumanTrait15InitializeClassEv
fha:__Z14GetTimeManagerv
Zaj:_Color32_op_Implicit_m213813866
Toj:_RectOffset_set_top_m713260669
DHc:__ZneRK20SpriteTilingPropertyS1_
H7i:_StreamedWWWForm_AddField_m2764275903
JQf:__ZN19TransportJavaScript7CleanupEv
z4h:__Z198RuntimeInvoker_Int32_t2950945753_RuntimeObject_Int32_t2950945753_Int32_t2950945753_Int32_t2950945753_RuntimeObject_RuntimeObject_RuntimeObject_RuntimeObject_RuntimeObject_RuntimeObject_RuntimeObjectPFvvEPK10MethodInfoPvPS4_
xwc:__Z12GUIDToStringRK9UnityGUIDPc
Zda:__ZN15FileSystemEntry4LockE12FileLockModeP12FileAccessor
Foa:__ZN9Scripting11UnityEngine10Vector3Int12CleanupProxyEv
elp:_emscripten_glDrawArrays__wrapper
jZk:_Int32_Equals_m2976157357
w$h:__Z110RuntimeInvoker_Int32_t2950945753_Int32_t2950945753_Int32_t2950945753_Int32U26_t1369213839_Int32U26_t1369213839PFvvEPK10MethodInfoPvPS4_
xSd:__ZL4facejjjRN5physx6PxVec3ERKS0_S3_S3_PfRf
gKe:__ZN5physx6shdfnd5ArrayIPNS_2Sc14ConstraintCoreENS0_19ReflectionAllocatorIS4_EEE6resizeEjRKS4_
Jln:_BasicConstraintsExtension_Encode_m2009213240
pS:__ZN11AudioSource22UnmuteActiveVideoSinksEv
Pkn:_TlsException__ctor_m3717683709
CLo:__ZN4utf88internal20is_overlong_sequenceIiEEbjT_
Vbo:__ZN6il2cpp2vm13MetadataCache8RegisterEPK22Il2CppCodeRegistrationPK26Il2CppMetadataRegistrationPK20Il2CppCodeGenOptions
j3e:__ZL18getFrictionPatchesRN5physx26PxcFrictionPatchStreamPairERNS_20PxcCorrelationBufferEPKhjRKNS_11PxTransformES8_f
F8j:_NumberFormatter_AppendExponent_m1258666517
_ld:__Z39ParticleSystemRenderer_RenderBillboardsIL21SpriteMaskInteraction2EEvRK15RenderNodeQueuej16VertexInputMasksi
atc:__Z41Register_UnityEngine_Cursor_get_lockStatev
C5b:__Z14SetupLightmapsRK8Vector4fS1_R17ShaderPassContext
hpo:__ZN14dense_hash_mapI10KeyWrapperIPK14Il2CppAssemblyEPK22Il2CppMonoAssemblyNameN6il2cpp5utils11PointerHashIS2_EENS4_14EqualsComparerINSt3__28equal_toIS3_EEEENSD_9allocatorINSD_4pairIKS4_S7_EEEEE13set_empty_keyERSJ_
cOa:__ZL20InitializeGUIShadersv
TWk:_Guid_CompareTo_m243656946
_Gc:__Z20DestroyObjectDelayedP6Objectf
l3:__ZN20DynamicHeapAllocatorI17LowLevelAllocatorED0Ev
yJf:__ZL56__ManagedRegistrationHelperFunction_AnalyticsSessionInfoPv
RDd:__ZN10ClipperLib11ClipperBase5ResetEv
J1h:__Z159RuntimeInvoker_Boolean_t97287965_Vector3U26_t3464235976_Vector3U26_t3464235976_RaycastHitU26_t2429360258_Single_t1397266774_Int32_t2950945753_Int32_t2950945753PFvvEPK10MethodInfoPvPS4_
gIc:__ZN11TimeManagerC2E10MemLabelId18ObjectCreationMode
hMd:__ZN8Collider16RecreateColliderEPK9Rigidbody
K2b:__ZN9DepthPassD2Ev
Npd:__Z17UpdateSprites2TplIL27ParticleSystemCurveEvalMode2ELS0_1EEvfRK11MinMaxCurveS3_RK23ParticleSystemParticlesPf
gO:__ZN11AudioFilter6GetDSPEv
TOn:_Vector2_Equals_m832062989
nCn:_InflateManager_Reset_m1530978206
gjf:__ZN13PhysicsModule31GetColliderComponentsInChildrenERK10GameObjectbbR13dynamic_arrayIPN5Unity9ComponentELj0EE
Rle:__ZN5physx2Sc14ConstraintCore9setBodiesEPNS0_9RigidCoreES3_
ICj:_Scrollbar_OnDrag_m4289602768
i8:__ZN19RuntimeSceneManager14CanUnloadSceneEP10UnityScene
N2b:__Z22ExtractRenderNodeQueueRK11CullResults15ExtractionFlagsR15RenderNodeQueue
Jvk:_Array_Sort_TisProgressHandler_t926933139_m2260778159_gshared
Rgf:__ZN5physx6shdfnd8PoolBaseINS_24NpPtrTableStorageManager8PtrBlockILi64EEENS0_19ReflectionAllocatorIS4_EEE12allocateSlabEv
_Q:__ZN24AudioScriptBufferManagerC2Ev
Lrd:__ZN11UnityEngine9Analytics18SceneLoadTimeEvent12ToJsonStringER9JSONWrite
dwd:__ZN22FindParticleCollisions22ProcessFoundCollisionsERKfRK13dynamic_arrayI15BatchedRaycastsLj0EERS2_I20BatchedRaycastResultLj0EERS2_I21BatchedColliderResultLj0EE
umf:__ZNSt3__26vectorIh13stl_allocatorIhL18MemLabelIdentifier1ELi16EEE8__appendEj
LLi:_InternalEnumerator_1_System_Collections_IEnumerator_get_Current_m3854084659_AdjustorThunk
UZc:__ZN8JSONRead32GetValueForKeyWithNameConversionEPKN5Unity9rapidjson12GenericValueINS1_4UTF8IcEE13JSONAllocatorEEPKc
qxi:_U3CGetEnumeratorU3Ec__Iterator0_System_Collections_IEnumerator_get_Current_m283764921_gshared
D_f:_TMP_InputField_LineUpCharacterPosition_m629994903
KSk:_CultureInfo_get_IcuName_m2258611679
A_c:__Z18Transfer_BlittableI9JSONWriteLb0EfEvRK29SerializationCommandArgumentsR31RuntimeSerializationCommandInfo
LMa:__Z21GetAsyncUploadManagerv
B2i:_U3CDisplayTextMeshProFloatingTextU3Ec__Iterator0_MoveNext_m3975366013
yk:_emscripten_glDetachShader
k1h:__Z129RuntimeInvoker_Int32_t2950945753_Vector3U26_t3464235976_Vector3U26_t3464235976_Single_t1397266774_Int32_t2950945753_RuntimeObjectPFvvEPK10MethodInfoPvPS4_
Iyj:_LayoutRebuilder_ReapplyDrivenProperties_m2581469389
Efn:_Collection_1_System_Collections_IList_Add_m3881957746_gshared
HRj:_Array_InternalArray__ICollection_Add_TisKeyValuePair_2_t4237331251_m2475361212_gshared
