kd:_glClearStencil
yum:_Array_Resize_TisByte_t1134296376_m80436779_gshared
uol:_UInt16_System_IConvertible_ToChar_m2096055221_AdjustorThunk
hAj:_MaskableGraphic_OnCanvasHierarchyChanged_m1780820310
cLj:_Array_TrueForAll_TisRuntimeObject_m1084992726_gshared
$Rd:__ZN5physx2Gu19gjkLocalPenetrationINS0_8CapsuleVENS0_17ShrunkConvexHullVEEEjRKT_RKT0_RKNS_6shdfnd3aos6FloatVERNSB_5Vec3VESG_SG_RSC_PhSI_Rhb
qie:__ZN5physx2Sc27ConstraintProjectionManager29removeFromPendingGroupUpdatesERNS0_13ConstraintSimE
TRg:__ZL95CanvasRenderer_t2598313366_CustomAttributesCacheGenerator_CanvasRenderer_SetMaterial_m824577244P21CustomAttributesCache
HGo:__ZN6il2cpp2vm5Array13GetByteLengthEP11Il2CppArray
usm:_Array_InternalArray__set_Item_TisDateTime_t3738529785_m1331437427_gshared
FHn:_KeyBuilder_get_Rng_m3373220441
hEh:_CompilerGeneratedAttribute__ctor_m3151881902
qPf:__ZN15DownloadHandler7OnAbortEv
V5e:__ZN5physx15PxsCCDSweepTaskD0Ev
yAa:__Z30GetIntermediateRendererManagerv
mZm:_U3CCreateWhereIteratorU3Ec__Iterator1D_1_System_Collections_Generic_IEnumeratorU3CTSourceU3E_get_Current_m1909387290_gshared
cVa:__Z21SourceMipLevelForBlitiiii
CGa:__ZN31CanvasBatchIntermediateRenderer15AddAsRenderNodeER15RenderNodeQueueRK20DeprecatedSourceData
myk:_Dictionary_2_Do_ICollectionCopyTo_TisInt32_t2950945753_m2590022749_gshared
Fll:_TimeSpan_get_Hours_m550761902
YNg:__ZL72GUISkin_t1244372282_CustomAttributesCacheGenerator_m_verticalSliderThumbP21CustomAttributesCache
cnc:__ZN9ShaderLab9SubShader15FindNamedPassesERKN4core12basic_stringIcNS1_20StringStorageDefaultIcEEEER13dynamic_arrayIPNS_4PassELj0EE
ywm:_Capture_get_Index_m745081289
gFg:__ZL63PlayableOutputHandle_t4208053793_CustomAttributesCacheGeneratorP21CustomAttributesCache
B0:__ZN11UnityEngine15CloudWebService26CloudServiceEventWithParam12ToJsonStringER9JSONWrite
Nnh:_CanvasScaler_get_defaultSpriteDPI_m871626936
_Kf:__ZN11UnityEngine7Connect14AppUpdateEventD0Ev
pwc:__Z59Register_UnityEngine_PlayerConnectionInternal_DisconnectAllv
Ibg:__ZL66RuntimeArray_CustomAttributesCacheGenerator_Array_Sort_m3287581440P21CustomAttributesCache
sLn:_AnalyticsEventTracker_SendEvent_m1365958832
sMe:__ZNK5physx2Sc5Scene24getContactModifyCallbackEv
l4:__ZdlPv
Nt:__ZN11UnityEngine9Animation28GenericAnimationBindingCacheD2Ev
zPe:__ZN5physx2Sq10AABBPruner10addObjectsEPjPKNS_9PxBounds3EPKNS0_13PrunerPayloadEj
Ron:_X509Store_LoadCrl_m1881903843
RKo:__ZN15dense_hashtableINSt3__24pairIK10KeyWrapperIPK19Il2CppGenericMethodEP10MethodInfoEES6_N6il2cpp8metadata23Il2CppGenericMethodHashEN14dense_hash_mapIS6_S9_SD_NS6_14EqualsComparerINSC_26Il2CppGenericMethodCompareEEENS0_9allocatorISA_EEE9SelectKeyESH_SJ_E13set_empty_keyERKSA_
Hwk:_Array_Sort_TisUICharInfo_t75501106_TisUICharInfo_t75501106_m722747892_gshared
auo:_il2cpp_runtime_unhandled_exception_policy_set
DPk:_CaseInsensitiveComparer__ctor_m2101975011
jOh:__Z67RuntimeInvoker_Byte_t1134296376_Int32_t2950945753_Int32_t2950945753PFvvEPK10MethodInfoPvPS4_
NMh:__Z53RuntimeInvoker_UInt32_t2560061978_Decimal_t2948259380PFvvEPK10MethodInfoPvPS4_
VJm:_ReadOnlyCollection_1_System_Collections_ICollection_get_SyncRoot_m1285464749_gshared
jc:invoke_viiiifiiiiif
Xcc:__Z18RestoreRenderStateR20CameraRenderOldStateR17ShaderPassContext
lDb:__Z18Transfer_BlittableI18StreamedBinaryReadILb1EELb1E5RectTIfEEvRK29SerializationCommandArgumentsR31RuntimeSerializationCommandInfo
_yb:__Z18Transfer_BlittableI24GenerateTypeTreeTransferLb0E11ColorRGBA32EvRK29SerializationCommandArgumentsR31RuntimeSerializationCommandInfo
Tgj:_Material_GetVector_m2472259403
dIb:__Z25scripting_class_from_name17ScriptingImagePtrPKcS1_
pCn:_InflateManager_Initialize_m107944087
lrm:_Array_InternalArray__Insert_TisSingle_t1397266774_m3161726127_gshared
Wsn:_TMP_XmlTagStack_1_Add_m479786267_AdjustorThunk
Kqo:__ZN14dense_hash_mapI10KeyWrapperINSt3__24pairIPK12PropertyInfoP11Il2CppClassEEEj17ReflectionMapHashIS8_ENS9_14EqualsComparerINS1_8equal_toIS8_EEEENS1_9allocatorINS2_IKS9_jEEEEE15set_deleted_keyERSH_
XJb:__Z29scripting_class_enum_basetype17ScriptingClassPtr
P2d:__ZN5physx6shdfnd8PoolBaseINS_2Sc10NPhaseCore16ClothListElementENS0_19ReflectionAllocatorIS4_EEE17releaseEmptySlabsEv
Eef:__Z20GetPhysicsModuleSpecv
TWc:__ZN6IDList10BeginOnGUIEv
LKj:_Array_InternalArray__ICollection_Remove_TisColor_t2555686324_m1658001816_gshared
zza:__ZNK12BaseRenderer18GetRenderNodeCountEv
wvd:__ZN16PhysicsManager2D7RaycastERK3RayfiR12RaycastHit2D
MXn:__ZN30GenericInterfaceActionInvoker1IP24SingleU5BU5D_t1444911251E6InvokeEPK10MethodInfoP12Il2CppObjectS1_
x6e:__ZN5physx2Sc14ConstraintCore10breakApartEv
Nwh:_PropertyBuilder_get_CanWrite_m2657562188
PKh:__Z143RuntimeInvoker_Boolean_t97287965_RuntimeObject_Int32_t2950945753_RuntimeObject_SByte_t1669577662_UInt64U26_t1265593412_ExceptionU26_t3600731591PFvvEPK10MethodInfoPvPS4_
xma:__ZL43__ManagedRegistrationHelperFunction_TexturePv
k3f:_TMP_SubMesh_UpdateMeshPadding_m2529023756
nPj:_Array_InternalArray__IndexOf_TisKeyValuePair_2_t625878672_m2693022864_gshared
CNi:_InternalEnumerator_1_get_Current_m1477715453_gshared
L2i:_TMP_ExampleScript_01_Update_m1912934944
nXl:_Enumerator__ctor_m2827156589_AdjustorThunk
Ogb:__ZNK20LocalFileSystemPosix6ParentERK13FileEntryDataRN4core12basic_stringIcNS3_20StringStorageDefaultIcEEEE
Eyg:__ZL118TouchScreenKeyboard_t731888065_CustomAttributesCacheGenerator_TouchScreenKeyboard_Open_m3609399077____textPlaceholder6P21CustomAttributesCache
gdf:__ZN5physx7Cooking20loadTriangleMeshDescERKNS_18PxTriangleMeshDescERNS_19TriangleMeshBuilderE
Lhn:_Collection_1_System_Collections_IList_Remove_m1476284619_gshared
jsl:_ContractionComparer__ctor_m3439667810
p9l:_List_1_Find_m279961672_gshared
QAg:__ZL51AIUpdate_t2336814084_CustomAttributesCacheGeneratorP21CustomAttributesCache
D5k:_SHA1CryptoServiceProvider__ctor_m4195188793
Dqo:__ZN15dense_hashtableINSt3__24pairIK10KeyWrapperINS1_IPK9EventInfoP11Il2CppClassEEEjEES9_17ReflectionMapHashIS8_EN14dense_hash_mapIS9_jSD_NS9_14EqualsComparerINS0_8equal_toIS8_EEEENS0_9allocatorISB_EEE9SelectKeyESI_SK_E15set_deleted_keyERKSB_
Lpa:__ZN9Scripting11UnityEngine9Profiling8Recorder12CleanupProxyEv
nrg:__ZL64MissingFieldException_t1989070983_CustomAttributesCacheGeneratorP21CustomAttributesCache
Ish:_Graphic_get_defaultGraphicMaterial_m3107284931
BSe:__ZNK5physx2Gu29EPASupportMapPairRelativeImplINS0_9TriangleVENS0_4BoxVEE6getDirEv
lHb:__ZN18StreamedBinaryReadILb0EE21TransferSTLStyleArrayI13dynamic_arrayI11ColorRGBA32Lj0EEEEvRT_17TransferMetaFlags
zrh:_Dropdown_Hide_m504034854
K8j:_NumberFormatter_NumberToString_m264078176
sqa:__ZN9Scripting11UnityEngine20ManagedStreamHelpers9InitProxyEv
kPn:_Vector2_get_up_m2647420593
MTb:__ZN7ApiGLES17CopyBufferSubDataEjjlll
Opm:_Array_InternalArray__ICollection_CopyTo_TisUInt64_t4134040092_m691431926_gshared
qhn:__ZN23InterfaceActionInvoker2Ii22OrderBlock_t1585977831E6InvokeEjP11Il2CppClassP12Il2CppObjectiS0_
eWi:_IPAddress_ToString_m1181734207
K2o:_KeyEnumerator_get_Current_m485720715
_zf:__Z48Register_UnityEngine_TextMesh_INTERNAL_get_colorv
fhl:_StringBuilder_Append_m1965104174
ZYc:__ZN5Unity9rapidjson15GenericDocumentINS0_4UTF8IcEE13JSONAllocatorS4_E11ParseStreamILj1ES3_NS0_25GenericInsituStringStreamIS3_EEEERS5_RT1_
U8n:__ZNSt3__26vectorIPK10Il2CppTypeNS_9allocatorIS3_EEE7reserveEj
Rhm:_EqualityComparer_1__cctor_m3766928733_gshared
ilm:_GenericComparer_1__ctor_m2809113506_gshared
mok:_DateTime__ctor_m2956360140
FX:__ZN11AudioModule26SetDefaultMicrophoneDriverEPv
eve:__ZNK5physx15NpActorTemplateINS_15PxParticleFluidEE22getClientBehaviorFlagsEv
QSj:_Kernel_modInverse_m652700340
wRa:__ZNK14Texture2DArray26CanReuploadDataToGfxDeviceEv
xvn:_InvokableCall_3_remove_Delegate_m1676240702_gshared
j0g:__ZL69TMP_Dropdown_t3024694699_CustomAttributesCacheGenerator_m_CaptionTextP21CustomAttributesCache
LRg:__ZL57CanvasRenderer_t2598313366_CustomAttributesCacheGeneratorP21CustomAttributesCache
Xxa:__ZN17GlobalGameManager23VirtualRedirectTransferER17RemapPPtrTransfer
Evf:_sfnt_stream_close
TEb:__ZN18StreamedBinaryReadILb1EE8TransferI13dynamic_arrayIsLj0EEEEvRT_PKc17TransferMetaFlags
n$l:_List_1_System_Collections_Generic_ICollectionU3CTU3E_get_IsReadOnly_m1990628894_gshared
$Xc:__ZN5IMGUI18RepaintModalWindowER8GUIState
f9m:_Collection_1_InsertItem_m578029531_gshared
b7f:_TMP_Text_SetFontBaseMaterial_m3898558333
LSi:_HybridDictionary_get_IsSynchronized_m2987560362
GAi:_InternalEnumerator_1_Dispose_m2258333122_AdjustorThunk
wDa:__ZNK15dense_hashtableINSt3__24pairIKN9ShaderLab7Program23ShaderKeywordSetAndHashEPKNS2_10SubProgramEEES4_NS3_24ShaderKeywordHashFunctorEN14dense_hash_mapIS4_S8_SA_NS0_8equal_toIS4_EE13stl_allocatorIS9_L18MemLabelIdentifier67ELi16EEE9SelectKeyESD_SG_E23find_position_with_hashERS5_j
i7h:__Z59RuntimeInvoker_Boolean_t97287965_ArraySegment_1_t2229370775PFvvEPK10MethodInfoPvPS4_
hTk:_CompareInfo_Finalize_m404687489
YZa:__Z23SetSpriteMeshIndexCountP14SharedMeshDataj
bjl:_UTF8Decoder_GetChars_m1236346907
kXf:_TMP_FontAsset_HasCharacters_m3087390417
OKg:__ZL99AudioSource_t3935305588_CustomAttributesCacheGenerator_AudioSource_t3935305588____clip_PropertyInfoP21CustomAttributesCache
TKo:__ZN6il2cpp8metadata13GenericMethod9GetMethodEPK19Il2CppGenericMethod
vs:__ZNSt3__26vectorIN4core12basic_stringIcNS1_20StringStorageDefaultIcEEEENS_9allocatorIS5_EEE7reserveEj
_ak:_Default_SelectProperty_m1220817815
Oni:_RemotingConfiguration_IsRemotelyActivatedClientType_m4117048589
ytj:_Transform_TransformPoint_m226827784
Xzn:_ListPool_1_Get_m738675669_gshared
oEo:__ZNSt3__26__treeINS_12__value_typeIjN6il2cpp2os17SocketHandleEntryEEENS_19__map_value_compareIjS5_NS_4lessIjEELb1EEENS_9allocatorIS5_EEE25__emplace_unique_key_argsIjJNS_4pairIKjS4_EEEEENSE_INS_15__tree_iteratorIS5_PNS_11__tree_nodeIS5_PvEEiEEbEERKT_DpOT0_
LPb:__ZN13GfxDeviceGLES11SetViewportERK5RectTIiE
spd:__Z19UpdateSingleRow2TplIL27ParticleSystemCurveEvalMode3ELS0_2EEvfRK11MinMaxCurveS3_RK23ParticleSystemParticlesPfbiii
fah:__ZL135U3CAnimateVertexColorsU3Ec__Iterator0_t956521787_CustomAttributesCacheGenerator_U3CAnimateVertexColorsU3Ec__Iterator0__ctor_m3442072150P21CustomAttributesCache
ceh:_TextMeshPro_set_sortingOrder_m8809902
gTc:__Z24Time_Get_Custom_PropTimev
bae:__ZN5physx3Scb5Scene14addRigidStaticERNS0_11RigidStaticEb
Ee:_emscripten_glDepthRange
qjn:_SslStreamBase_BeginNegotiateHandshake_m4180435790
Hkf:__ZN9Scripting11UnityEngine10UILineInfo12CleanupProxyEv
mXd:__ZN5physx2Gu24contactConvexHeightfieldERKNS0_13GeometryUnionES3_RKNS_11PxTransformES6_RKfRNS0_5CacheERNS0_13ContactBufferE
u7d:__ZN5physx6shdfnd5ArrayIPvNS0_19ReflectionAllocatorINS_2Cm5BlockIS2_Lj8EEEEEE15growAndPushBackERKS2_
ofc:__ZNSt3__26vectorINS_4pairIN4core12basic_stringIcNS2_20StringStorageDefaultIcEEEES6_EE13stl_allocatorIS7_L18MemLabelIdentifier38ELi16EEE12__move_rangeEPS7_SC_SC_
Djc:__Z14resize_trimmedINSt3__26vectorIN9ShaderLab20SerializedSubProgram12UAVParameterENS0_9allocatorIS4_EEEEEvRT_j
dZc:__ZN5Unity9rapidjson13GenericReaderINS0_4UTF8IcEES3_13JSONAllocatorE11ParseObjectILj1ENS0_25GenericInsituStringStreamIS3_EENS0_15GenericDocumentIS3_S4_S4_EEEEvRT0_RT1_
rLc:__Z10DestripifyPKjjRNSt3__26vectorIj13stl_allocatorIjL18MemLabelIdentifier1ELi16EEEE
$lh:_StandaloneInputModule_GetRawMoveVector_m2737091079
Nsn:_TMP_XmlTagStack_1_Pop_m3298593939_AdjustorThunk
oYg:__ZL62Selectable_t3250028441_CustomAttributesCacheGenerator_m_ColorsP21CustomAttributesCache
$jk:_Convert_ToDateTime_m2616935982
YRb:__ZThn10632_N13GfxDeviceGLES22SetScissorRectPlatformERK5RectTIiE
Zjn:_SslStreamBase_EndWrite_m4073224031
rca:__ZNSt3__218__insertion_sort_3IRNS_6__lessI14ObjectLoadDataS2_EEPS2_EEvT0_S6_T_
ZMg:__ZL92Event_t2956885303_CustomAttributesCacheGenerator_Event_Internal_GetMousePosition_m1101229675P21CustomAttributesCache
_9l:_List_1_System_Collections_ICollection_get_SyncRoot_m1244917400_gshared
Tma:__ZL50__ManagedRegistrationHelperFunction_PostLateUpdatePv
FUa:__ZN4crndL20crnd_default_reallocEPvjPjbS0_
Ofi:__Z54RuntimeInvoker_CustomAttributeNamedArgument_t287865710PFvvEPK10MethodInfoPvPS4_
aGg:__ZL122SupportedRenderingFeatures_t353898663_CustomAttributesCacheGenerator_U3CrendererSupportsReflectionProbesU3Ek__BackingFieldP21CustomAttributesCache
DXe:__ZN5physx24PxsComputeAABBLocalSpaceERKNS_18PxcAABBDataDynamicERNS_9PxBounds3E
CHj:_Array_get_swapper_TisProgressHandler_t926933139_m2329401730_gshared
e$a:__ZN18SpriteAtlasManager19AddRequestingSpriteE4PPtrI6SpriteE
wqn:_Predicate_1_EndInvoke_m3987519925_gshared
rJc:__Z20IsValidRealtimeLightRK15SharedLightData9LightTypej
oOg:__ZL102GUIStyle_t3956901511_CustomAttributesCacheGenerator_GUIStyle_INTERNAL_CALL_GetRectOffsetPtr_m152975056P21CustomAttributesCache
nS:__ZNK4PPtrI9AudioClipEptEv
j4j:_UnmanagedMemoryStream_Write_m930787521
acc:__ZN23ScriptableRenderContextC2Ev
muh:_GridLayoutGroup_get_spacing_m2409263614
RAa:__ZN4PPtrI13RenderTextureE8TransferI18StreamedBinaryReadILb0EEEEvRT_
E4l:_List_1_CheckIndex_m581273900_gshared
txf:_UNITY_FT_Stream_GetChar
pGn:_GUIStyle_get_fixedWidth_m2576616348
lAn:_ObjectPool_1_get_countAll_m819305395_gshared
MDb:__Z18Transfer_BlittableI18StreamedBinaryReadILb1EELb1EdEvRK29SerializationCommandArgumentsR31RuntimeSerializationCommandInfo
G1m:_List_1_ToArray_m190175978_gshared
U8j:_NumberFormatter_NumberToString_m655666043
bLk:_Byte_System_IConvertible_ToUInt64_m371883985_AdjustorThunk
gRj:_Enumerable_ThenByDescending_TisRuntimeObject_TisInt32_t2950945753_m267759832_gshared
y3i:_TMPro_InstructionOverlay__ctor_m2020557448
bQe:__ZN5physx6shdfnd8internal8HashBaseINS0_4PairIKNS_2Sq13PrunerPayloadEjEES5_NS0_4HashIS5_EENS1_11HashMapBaseIS5_jS9_NS0_9AllocatorEE6GetKeyESB_Lb1EE5eraseERS6_
cKb:__Z26BuildSerializationCacheFor17ScriptingClassPtrRb
Grn:_FastAction_2_Call_m3751671956_gshared
fih:_EventSystem_get_firstSelectedGameObject_m1576206896
Jbh:_FloatTween_TweenValue_m554509216
HVb:__ZN7ApiGLES15BlitFramebufferEN2gl6HandleILNS0_10ObjectTypeE9EEENS0_15FramebufferReadES3_S3_iiiiiiiiNS0_15FramebufferTypeE
V7e:__ZN5physx13GuMeshFactory16createConvexMeshERNS_13PxInputStreamE
Zgf:__ZN5physx6shdfnd8internal8HashBaseINS0_4PairIKPKcjEES5_NS0_4HashIS5_EENS1_11HashMapBaseIS5_jS9_NS_7profile26WrapperReflectionAllocatorIjEEE6GetKeyESD_Lb1EE6createERS6_Rb
BWh:__Z112RuntimeInvoker_RuntimeObject_RuntimeObject_RuntimeObject_RuntimeObject_RuntimeObject_RuntimeObject_RuntimeObjectPFvvEPK10MethodInfoPvPS4_
RMi:_InternalEnumerator_1_System_Collections_IEnumerator_get_Current_m3553395619_AdjustorThunk
keg:__ZL70AssemblyVersionCompatibility_t766556580_CustomAttributesCacheGeneratorP21CustomAttributesCache
AEg:__ZL60ReadOnlyAttribute_t3518714744_CustomAttributesCacheGeneratorP21CustomAttributesCache
Uuj:_InputField_get_lineType_m2468966434
Tjm:_EqualityComparer_1__cctor_m818408565_gshared
kmi:_ServerContextTerminatorSink__ctor_m2519287841
p_n:_RequestHelper_set_Uri_m1421599463
Joh:_ColorBlock_set_highlightedColor_m2089444414_AdjustorThunk
k9h:__Z59RuntimeInvoker_Boolean_t97287965_X509ChainStatus_t133602714PFvvEPK10MethodInfoPvPS4_
_Ul:_Enumerator_MoveNext_m880141662_AdjustorThunk
g_h:__Z52RuntimeInvoker_Boolean_t97287965_Vector3_t3722313464PFvvEPK10MethodInfoPvPS4_
v4f:_TMP_Text_get_alpha_m1443805135
O_j:_Context_EndSwitchingSecurityParameters_m4148956166
Esf:_otv_PairPos_validate
mog:__ZL63ThreadStateException_t3003788475_CustomAttributesCacheGeneratorP21CustomAttributesCache
iVi:_EndPoint_Create_m1199447448
aA:__ZN7mecanim9animation14CopyHumanPosesEPKNS0_18AnimationNodeStateEPS1_RKNS_6bitsetILj83EEE
foh:__ZN23InterfaceActionInvoker1IiE6InvokeEjP11Il2CppClassP12Il2CppObjecti
Kio:__ZN6il2cpp6icalls8mscorlib6SystemL8IsStaticEPK12PropertyInfo
hLb:__Z9InitInputv
Wpo:__ZN30dense_hashtable_const_iteratorINSt3__24pairIK10KeyWrapperIPK22Il2CppGenericParameterEPK24MonoGenericParameterInfoEES6_N6il2cpp5utils11PointerHashIS4_EEN14dense_hash_mapIS6_SA_SF_NS6_14EqualsComparerINS0_8equal_toIS5_EEEENS0_9allocatorISB_EEE9SelectKeyESK_SM_E30advance_past_empty_and_deletedEv
F_f:_TMP_InputField_FindtPrevWordBegin_m2238803771
dza:__ZN17TransformInternal36OnScaleChangedCalculateTransformTypeE15TransformAccess
T7e:__ZNK5physx13GuMeshFactory15getConvexMeshesEPPNS_12PxConvexMeshEjj
gmo:__ZN6il2cpp2gc19AppendOnlyGCHashMapINSt3__24pairIPK10MethodInfoP11Il2CppClassEEP22Il2CppReflectionMethod17ReflectionMapHashIS9_ENS2_8equal_toIS9_EEE3AddERKS9_SB_
Nkb:__ZN16MemoryFileSystem6DeleteER13FileEntryDatab
fRh:__Z81RuntimeInvoker_Void_t1185182177_RuntimeObject_Int64_t3736567304_Int32_t2950945753PFvvEPK10MethodInfoPvPS4_
Q5l:_List_1_set_Item_m1979164443_gshared
ERj:_Array_InternalArray__ICollection_Add_TisLink_t3209266973_m77922316_gshared
NRa:__ZL21BlitScaleStbImageImplRK14ImageReferenceRS_NS_10ColorSpaceE
G3g:__ZL70TMP_Text_t2599618874_CustomAttributesCacheGenerator_m_characterSpacingP21CustomAttributesCache
yme:__ZN5physx10NpMaterial17setStaticFrictionEf
ied:__Z9UpdateTplIL27ParticleSystemCurveEvalMode0EEvRK11MinMaxCurveS3_S3_R23ParticleSystemParticlesjjRKN4math8float3x3ERKNS6_7_float4E
uHe:__ZNK5physx7NpScene18getStaticStructureEv
su:__ZL48__ManagedRegistrationHelperFunction_SkeletonBonePv
$fh:_TextMeshProUGUI_OnEnable_m1040268881
SGe:__ZNK5physx7NpScene19getFilterShaderDataEv
$uj:_InputField_get_keyboardType_m1248105267
Qub:__Z29Transfer_Blittable_ArrayFieldI14SafeBinaryReadyEvRT_R9ArrayInfoRK23StaticTransferFieldInfo
uS:__ZN20SoundChannelInstance15setChannelGroupEPN4FMOD12ChannelGroupE
F0g:__ZL66TMP_FontAsset_t364381626_CustomAttributesCacheGenerator_m_fontInfoP21CustomAttributesCache
txm:_Match__ctor_m2425511580
Axl:_KeyPairPersistence_Remove_m1876145547
lfg:__ZL63FileNotFoundException_t225391025_CustomAttributesCacheGeneratorP21CustomAttributesCache
zhe:__ZN5physx2Sc19ShapeInstancePairLL26onPoseChangedWhileSleepingEv
eNj:_Array_InternalArray__IEnumerable_GetEnumerator_TisTMP_LineInfo_t1079631636_m1406321289_gshared
P1g:__ZL140U3CMouseDragOutsideRectU3Ec__Iterator1_t2283961069_CustomAttributesCacheGenerator_U3CMouseDragOutsideRectU3Ec__Iterator1_Dispose_m2308839382P21CustomAttributesCache
Iad:__ZN12LightsModule13AwakeFromLoadEP14ParticleSystemRK27ParticleSystemReadOnlyState
L$f:_TMP_LinkInfo_GetLinkText_m1788600626_AdjustorThunk
KRe:__ZN5physx22PxcSweepCapsuleCapsuleERKNS_11PxsCCDShapeES2_PKNS_12PxsRigidBodyES5_RKNS_11PxTransformES8_S8_S8_fRNS_6PxVec3ESA_RNS_10PxcNpCacheERNS_18PxcNpThreadContextEf
Xc:invoke_vifffii
zGb:__Z35Transfer_Blittable_FixedBufferFieldI18StreamedBinaryReadILb0EEaEvRK29SerializationCommandArgumentsR31RuntimeSerializationCommandInfo
g6h:__Z89RuntimeInvoker_Void_t1185182177_Single_t1397266774_Single_t1397266774_Color32_t2600501292PFvvEPK10MethodInfoPvPS4_
jcl:_String_IndexOf_m3406607758
E$d:__ZNK5physx3Cct17CapsuleController21getHalfHeightInternalEv
fjb:__ZNK25MultiBlocksMemoryFileData5CloneEv
bJk:_AsyncCallback_BeginInvoke_m2710486612
GQo:_GC_add_ext_descriptor
xko:__ZNK15dense_hashtableINSt3__24pairIK10KeyWrapperINS1_IPK14Il2CppAssemblyP11Il2CppClassEEEjEES9_17ReflectionMapHashIS8_EN14dense_hash_mapIS9_jSD_NS9_14EqualsComparerINS0_8equal_toIS8_EEEENS0_9allocatorISB_EEE9SelectKeyESI_SK_E23find_position_with_hashERSA_j
YOd:__ZN5physx21PxQueryFilterCallbackD2Ev
_zk:_LayoutGroup_SetProperty_TisSingle_t1397266774_m793506911_gshared
LRo:__ZN6il2cpp2os14WindowsRuntime22GetRestrictedErrorInfoEv
lti:_CryptoConfig_CreateFromName_m1538277313
Bkp:_glInvalidateFramebuffer__wrapper
Izi:_InternalEnumerator_1_get_Current_m3073360606_gshared
pib:__ZN17ArchiveFileSystem11CreateAsDirER13FileEntryData
_4d:__ZL30GeomOverlapCallback_CapsuleBoxRKN5physx10PxGeometryERKNS_11PxTransformES2_S5_PNS_2Gu12TriggerCacheE
sXi:_SslStream_BeginAuthenticateAsClient_m1917750745
Dbp:dynCall_iiiiiiiiiiii
Yq:__ZN9Scripting11UnityEngine2AI18NavMeshBuildSource9InitProxyEv
y8f:_TMP_Text_DrawUnderlineMesh_m1146477450
ZJf:__ZN18UnityConnectClient16IsServiceEnabledEv
KXl:_Enumerator_System_Collections_IEnumerator_Reset_m3951708793_gshared
ysa:__ZN9Scripting11UnityEngine10ColorGamut9InitProxyEv
llb:__ZN22VertexDeclarationCacheD0Ev
gFj:_Selectable_set_interactable_m3105888815
RGa:__ZL26KeywordSetToStringDontSortRKNSt3__26vectorIN4core12basic_stringIcNS1_20StringStorageDefaultIcEEEENS_9allocatorIS5_EEEERS5_
mja:__ZN6prcoreL17RemapGenericFloatI16TexFormatRGFloat17TexFormatRGBAHalfEEvPKNS_9InnerInfoE
vU:__ZN12AudioManager22CreateFMODSoundFromWWWEP10IWWWStream15FMOD_SOUND_TYPE17FMOD_SOUND_FORMATjjbbP10SampleClip
LGc:__ZNK32RendererMaterialAnimationBinding15GenerateBindingERKN4core12basic_stringIcNS0_20StringStorageDefaultIcEEEEbRN11UnityEngine9Animation14GenericBindingE
LCh:_TargetException__ctor_m4172127019
Lhd:__Z25UpdateOrbitalAndRadialTplIL27ParticleSystemCurveEvalMode0ELS0_2ELS0_0EEvRK11MinMaxCurveS3_S3_S3_S3_S3_S3_R23ParticleSystemParticlesjjRKN4math8float3x3ERKNS6_7affineXERKNS6_7_float4E
B0m:_List_1_CheckCollection_m274117203_gshared
RSg:__ZL70EventSystem_t1003666588_CustomAttributesCacheGenerator_m_FirstSelectedP21CustomAttributesCache
mVl:_LinkedList_1_Clear_m2711926805_gshared
Eaa:__ZN8Remapper23GetOrGenerateInstanceIDERK26SerializedObjectIdentifier
Krk:_Decimal_System_IConvertible_ToByte_m1059182322
vph:_ColorTween_get_startColor_m3792586410_AdjustorThunk
yfb:__ZN17FileSystemHandler10AtomicMoveER13FileEntryDataS1_
nQg:__ZL106Physics_t2310948930_CustomAttributesCacheGenerator_Physics_Raycast_m3101461809____queryTriggerInteraction5P21CustomAttributesCache
S4g:__ZL105TrackableField_t1772682203_CustomAttributesCacheGenerator_TrackableField__ctor_m3758796351____validTypes0P21CustomAttributesCache
upi:_BinaryFormatter_get_SurrogateSelector_m2111882017
ROl:_ValueCollection_System_Collections_Generic_IEnumerableU3CTValueU3E_GetEnumerator_m1386883788_gshared
PCk:_X509CertificateCollection__ctor_m3365535796
ypb:__ZN11TextureData17GetImageReferenceEii
S9h:__Z82RuntimeInvoker_Int32_t2950945753_Int16_t2552820387_Int16_t2552820387_RuntimeObjectPFvvEPK10MethodInfoPvPS4_
xih:_EventSystem_ToString_m3779610692
s0j:_RecordProtocol_BeginReceiveRecord_m295321170
o_a:__ZN6Sprite8TransferI24GenerateTypeTreeTransferEEvRT_
rEn:_TMPro_EventManager_ON_TEXTMESHPRO_UGUI_PROPERTY_CHANGED_m531824844
Rmi:_SoapTypeAttribute_get_IsInteropXmlType_m629667929
yyc:__Z48Register_UnityEngine_Transform_SetAsFirstSiblingv
tFi:_InternalEnumerator_1_System_Collections_IEnumerator_get_Current_m694606607_gshared
aCk:_Resources_Load_TisRuntimeObject_m3577225874_gshared
t_a:__ZN7SubMesh8TransferI24GenerateTypeTreeTransferEEvRT_
Qee:__ZNK5physx19NpArticulationJoint28getTwistLimitContactDistanceEv
sxn:_UnityEvent_1_FindMethod_Impl_m2511430237_gshared
lDm:_Literal_IsComplex_m4067122560
Y5n:_NativeTypeAttribute__ctor_m133676646
Kwi:_Action_2__ctor_m1537761784_gshared
Vwc:__Z48Register_UnityEngine_Application_get_absoluteURLv
oWd:__ZN5physx3Cct10Controller6setPosERKNS_14PxExtendedVec3E
KYb:__ZN19GfxThreadableDevice20SetShadersThreadableEPP10GpuProgramPPK20GpuProgramParametersPKPKh
JGm:_Collection_1_System_Collections_IList_Contains_m296643274_gshared
TXd:__ZN5physx2GuL14testFaceNormalERKNS0_13PolygonalDataES3_PNS0_12SupportLocalES5_RKNS_6shdfnd3aos15PsMatTransformVESA_RKNS7_6FloatVERSB_RjRNS7_5Vec3VENS0_13FeatureStatusERSI_
T$k:_DirectoryInfo__ctor_m126519516
bzh:_MethodBase_GetMethodFromIntPtr_m3014201362
VIi:_InternalEnumerator_1_System_Collections_IEnumerator_get_Current_m2011757623_gshared
BRm:__ZN21InterfaceFuncInvoker1I19Color32_t2600501292iE6InvokeEjP11Il2CppClassP12Il2CppObjecti
TKi:_InternalEnumerator_1_get_Current_m2315302778_AdjustorThunk
pCm:_Reference_get_CapturingGroup_m3861468528
KNh:__Z40RuntimeInvoker_TypeAttributes_t113483779PFvvEPK10MethodInfoPvPS4_
Z0k:_FileInfo_InternalRefresh_m2894054257
Vxc:__ZN9Transform23SetSiblingIndexInternalEib
n1m:_List_1_Clear_m1143167521_gshared
DMm:_ReadOnlyCollection_1_System_Collections_Generic_IListU3CTU3E_get_Item_m1043040529_gshared
k0c:__ZN9JSONWrite8TransferI13dynamic_arrayIaLj0EEEEvRT_PKc17TransferMetaFlags
e5d:__ZL32GeomOverlapCallback_ConvexConvexRKN5physx10PxGeometryERKNS_11PxTransformES2_S5_PNS_2Gu12TriggerCacheE
JIm:_Collection_1_SetItem_m794903769_gshared
y$i:_SocketAsyncResult_t2080034863_marshal_pinvoke_cleanup
lcm:_Dictionary_2_Resize_m1924695631_gshared
xhk:_Enumerator_MoveNext_m635366482
GEk:_X509Extension_Equals_m1222951829
qy:__ZN7mecanim5human12HumanPoseSubERNS0_9HumanPoseERKS1_S4_
bvn:_InvokableCall_2_add_Delegate_m1005690394_gshared
Lii:__Z37RuntimeInvoker_Enumerator_t1789501480PFvvEPK10MethodInfoPvPS4_
bQj:_Array_InternalArray__IndexOf_TisTextAlignmentOptions_t4036791236_m4075827900_gshared
Hyn:_UnityEvent_3_RemoveListener_m3362577121_gshared
MMk:_Char_GetTypeCode_m2433327340_AdjustorThunk
ptb:__Z18Transfer_BlittableI14SafeBinaryReadLb0E10Matrix4x4fEvRK29SerializationCommandArgumentsR31RuntimeSerializationCommandInfo
tJb:__Z24GetFixedBehaviourManagerv
tag:__ZL69IntPtr_t_CustomAttributesCacheGenerator_IntPtr_op_Equality_m408849716P21CustomAttributesCache
zho:__ZN6il2cpp2vm10ThreadPool4WaitEP17Il2CppAsyncResultPPv
$Dk:_PKCS12_Encrypt_m2617413749
Bon:_X509Crl_VerifySignature_m1377612461
UFk:_Activator_CreateInstance_m94526014
J6o:_vfprintf
BYc:__ZN10GUIManager12AddGUIScriptER8ListNodeI13MonoBehaviourE
goa:__ZL53__ManagedRegistrationHelperFunction_StackTraceUtilityPv
Nhk:_Stack_Clear_m2010200235
BQa:__ZL13SortTexByNameRKNSt3__24pairIN9ShaderLab16FastPropertyNameEN18UnityPropertySheet11UnityTexEnvEEES7_
opf:_cf2_getVStore
mkh:_PointerEventData_set_pointerPressRaycast_m1363193059
_1b:__ZN20DynamicPropertySheetD0Ev
L8l:_List_1_get_Item_m718437397_gshared
nFh:_SafeHandle_Dispose_m4229010569
sfc:__ZN14SafeBinaryRead17RegisterConverterEPKcS1_PFbPvRS_E
Ywg:__ZL77RuntimePlatform_t4159857903_CustomAttributesCacheGenerator_OSXDashboardPlayerP21CustomAttributesCache
X2:__ZN35RegisterRuntimeInitializeAndCleanup8RegisterEPFvPvES2_iS0_
vAe:__ZNK5physx19NpRigidBodyTemplateINS_14PxRigidDynamicEE17getRigidBodyFlagsEv
Zdk:_FieldBuilder_SetValue_m828035213
rCg:__ZL81RectOffset_t1369453676_CustomAttributesCacheGenerator_RectOffset_Init_m2028508611P21CustomAttributesCache
h2o:_U3CU3Ec__Iterator0_System_Collections_IEnumerator_get_Current_m3904563485
lTm:_ReadOnlyCollection_1_System_Collections_IList_get_IsFixedSize_m733459177_gshared
$Ed:__ZN4PPtrI17PhysicsMaterial2DE8TransferI18StreamedBinaryReadILb0EEEEvRT_
IYm:__ZN28GenericInterfaceFuncInvoker0IfE6InvokeEPK10MethodInfoP12Il2CppObject
Qag:__ZL72Enum_t4135868527_CustomAttributesCacheGenerator_Enum_ToObject_m121962870P21CustomAttributesCache
KCk:__ZN23InterfaceActionInvoker2IP24ObjectU5BU5D_t2843939325iE6InvokeEjP11Il2CppClassP12Il2CppObjectS1_i
ORe:__ZN5physx25PxcSweepConvexHeightfieldERKNS_11PxsCCDShapeES2_PKNS_12PxsRigidBodyES5_RKNS_11PxTransformES8_S8_S8_fRNS_6PxVec3ESA_RNS_10PxcNpCacheERNS_18PxcNpThreadContextEf
wTc:__Z21Object_CUSTOM_DestroyP12Il2CppObjectf
Pxg:__ZL99SetupCoroutine_t2062820429_CustomAttributesCacheGenerator_SetupCoroutine_InvokeMoveNext_m3199342729P21CustomAttributesCache
J_b:__ZN8Material26ResetAllCachedMaterialDataEP6Shader
cVh:__Z63RuntimeInvoker_Void_t1185182177_RuntimeObject_Int16_t2552820387PFvvEPK10MethodInfoPvPS4_
Fxf:_UNITY_TT_Get_MM_Var
Iqi:_ObjectManager_AddFixup_m2154325362
fQi:_Comparer_1__cctor_m3761458313_gshared
Pqk:_DateTimeOffset_CompareTo_m1350732322_AdjustorThunk
ba:invoke_diddi
RCf:__ZNK2UI6Canvas13GetRenderModeEv
ddj:_PersistentCall__ctor_m1217622171
dOj:_Array_compare_TisCustomAttributeTypedArgument_t2723150157_m1384644047_gshared
r8o:_unlink
kzl:_StrongName_get_TokenAlgorithm_m1794722022
Asb:__Z18Transfer_BlittableI14SafeBinaryReadLb0EiEvRK29SerializationCommandArgumentsR31RuntimeSerializationCommandInfo
cfo:__ZN6il2cpp2vm13MetadataCache30GetPropertyDefinitionFromIndexEi
NHn:_SymmetricTransform_Transform_m1683494363
zze:__ZN5physx14NpRigidDynamic7releaseEv
aNf:__ZN22BaseUnityConnectClient17InitializeSessionERKN4core12basic_stringIcNS0_20StringStorageDefaultIcEEEES6_N19CloudServiceHandler13InitModeFlagsE
xdg:__ZL56KeyCollection_t4251528776_CustomAttributesCacheGeneratorP21CustomAttributesCache
h0h:__Z74RuntimeInvoker_RuntimeObject_Int32_t2950945753_RuntimeObject_RuntimeObjectPFvvEPK10MethodInfoPvPS4_
bOe:__ZN5physx6shdfnd8PoolBaseINS_21PxsBodyTransformVault13PxsBody2WorldENS0_19ReflectionAllocatorIS3_EEE15disposeElementsEv
B6m:_List_1_get_Item_m200663048_gshared
hmi:_ReturnMessage_get_Exception_m3375728265
z0f:_TMP_MeshInfo__ctor_m3699236577_AdjustorThunk
yFi:_InternalEnumerator_1_MoveNext_m3664960764_AdjustorThunk
gPc:__ZN13MonoBehaviour34StopCoroutineFromEnumeratorManagedE18ScriptingObjectPtr
Rxg:__ZL57DebugLogHandler_t826086171_CustomAttributesCacheGeneratorP21CustomAttributesCache
O_f:_TMP_InputField_Append_m3961630412
M9l:_List_1__ctor_m1345008423_gshared
Gvf:_gray_raster_reset
Bu:__ZN9Scripting11UnityEngine9HumanBone12CleanupProxyEv
uUd:__ZN5physx2Gu30computeCapsule_TriangleMeshMTDERKNS_22PxTriangleMeshGeometryERKNS_11PxTransformERNS0_8CapsuleVEffbRNS_10PxSweepHitE
Ird:__ZN11UnityEngine9Analytics18SceneLoadTimeEvent12SetSceneLoadERKN4core12basic_stringIcNS2_20StringStorageDefaultIcEEEEiyyyy
U8a:__ZN30RuntimeInitializeOnLoadManager8TransferI18StreamedBinaryReadILb0EEEEvRT_
Ijk:_DateTimeOffset__ctor_m2084804982
L0n:_CanvasRenderer_GetMaterial_m3822557591
ZWo:_EnemyScript_OnCollisionEnter2D_m1977666951
$tf:_UNITY_tt_face_load_pclt
msb:__ZN9profiling17ScriptingProfiler31UpdateRegisteredScriptingEventsEv
stc:__ZL34GetComponentsImplementationRecurseILb1ELi0ELi2EEbR10GameObjectbRK17CompareParametersRK39GetComponentsImplementation_ReturnValue
Oyk:_Dictionary_2_Do_ICollectionCopyTo_TisRuntimeObject_m2206321454_gshared
EJn:_UnityWebRequest_set_downloadHandler_m970510352
aEd:__ZN10ClipperLib7Clipper24InsertLocalMinimaIntoAELEx
DCa:__ZN4PPtrI5FlareE8TransferI14SafeBinaryReadEEvRT_
rgj:_Material_GetTexture_m3545614349
oFe:__ZThn8_N5physx2Sc19ShapeInstancePairLL10onActivateEj
w$a:__ZN13ScreenManager22SetResolutionImmediateEii14FullscreenModei
MLh:__Z64RuntimeInvoker_RuntimeObject_Int32_t2950945753_Int16_t2552820387PFvvEPK10MethodInfoPvPS4_
N9c:__ZN16CustomDataModule8TransferI19StreamedBinaryWriteILb0EEEEvRT_
Trh:_U3CDelayedDestroyDropdownListU3Ec__Iterator0_System_Collections_IEnumerator_get_Current_m1619733476
Zvl:_ASN1_get_Length_m1923878580
Nim:_EqualityComparer_1__cctor_m4244842342_gshared
t1b:__ZNK6Camera18WorldToScreenPointERK8Vector3fPb
VXe:__ZN5physx2Cm12DelegateTaskINS_10PxsContextEXadL_ZNS2_28mergeCMDiscreteUpdateResultsEPNS_10PxBaseTaskEEEE11runInternalEv
Gqj:_SendMouseEvents_DoSendMouseEvents_m2140870850
NHf:__ZN14UnityAnalyticsD0Ev
Dcf:__ZN5physx19TriangleMeshBuilder10importMeshERKNS_18PxTriangleMeshDescERKNS_15PxCookingParamsEb
cAm:_PatternCompiler_EmitJump_m3915926156
gPb:__Z18IsCompressedFormat14GraphicsFormat
aPc:__ZNK13MonoBehaviour6GetDSPEv
$qi:_SerializationEntry_get_Name_m1530029541_AdjustorThunk
QAh:_MonoMethod_GetBaseDefinition_m2844667474
Xll:__Z33il2cpp_codegen_check_add_overflowxx
I8:__ZNSt3__227__insertion_sort_incompleteIRPFbRKN18AwakeFromLoadQueue4ItemES4_EPS2_EEbT0_S9_T_
H0h:__Z71RuntimeInvoker_Boolean_t97287965_AnimatorControllerPlayable_t1015767841PFvvEPK10MethodInfoPvPS4_
exg:__ZL73RuntimePlatform_t4159857903_CustomAttributesCacheGenerator_MetroPlayerARMP21CustomAttributesCache
c$k:_InvalidOperationException__ctor_m1685032583
cdo:__ZN14dense_hash_mapI10KeyWrapperIN6il2cpp5utils13dynamic_arrayIPK10Il2CppTypeLj4EEEEPFvvENS1_8metadata19Il2CppSignatureHashENS8_14EqualsComparerINSB_22Il2CppSignatureCompareEEENSt3__29allocatorINSG_4pairIKS8_SA_EEEEE15set_deleted_keyERSJ_
Eml:_TimeSpan_op_Subtraction_m3592306516
sEn:_TMPro_EventManager_ON_COMPUTE_DT_EVENT_m4224094755
xyo:__ZN6il2cpp2vm9Exception25RaiseOutOfMemoryExceptionERKNS_5utils10StringViewIDsEEP19Il2CppSequencePoint
kji:__Z94RuntimeInvoker_RuntimeObject_Single_t1397266774_Single_t1397266774_RuntimeObject_RuntimeObjectPFvvEPK10MethodInfoPvPS4_
Qkm:_EqualityComparer_1_System_Collections_IEqualityComparer_GetHashCode_m1517903420_gshared
Ase:__ZN5physx6shdfnd5ArrayINS_18PxClothFabricPhaseENS0_19ReflectionAllocatorIS2_EEE8recreateEj
XYa:__ZN26EnlightenSystemInformation8TransferI14SafeBinaryReadEEvRT_
aad:__ZN13InitialModule5ResetEv
KQm:_ReadOnlyCollection_1_System_Collections_IList_Add_m3968477706_gshared
I9a:__ZN24GenerateTypeTreeTransfer8TransferINSt3__26vectorIN15ResourceManager10DependencyE13stl_allocatorIS4_L18MemLabelIdentifier52ELi16EEEEEEvRT_PKc17TransferMetaFlags
Jrg:__ZL59StringComparison_t3657712135_CustomAttributesCacheGeneratorP21CustomAttributesCache
R3i:_VertexJitter_ON_TEXT_CHANGED_m106761234
Z2h:__Z119RuntimeInvoker_Void_t1185182177_RuntimeObject_Single_t1397266774_Single_t1397266774_SByte_t1669577662_Int32_t2950945753PFvvEPK10MethodInfoPvPS4_
YBa:__ZN27PerObjectLightCullingOutputD2Ev
bIe:__ZN5physx2Sq17SceneQueryManager11shiftOriginERKNS_6PxVec3E
l5a:__ZN12MeshRendererD0Ev
GV:__ZN12AudioManager35GetCurrentSpatializerDefinitionNameEv
kSd:__ZN5physx2Gu16sweepBoxTriangleERKNS_10PxTriangleERKNS_9PxBounds3ERKNS_6PxVec3ES9_RS7_SA_Rf
rsj:_TouchScreenKeyboard_get_active_m4267591905
voa:__ZN9Scripting11UnityEngine14WaitForSeconds9InitProxyEv
lzi:_InternalEnumerator_1__ctor_m2515715560_AdjustorThunk
spo:__ZNK15dense_hashtableINSt3__24pairIK10KeyWrapperIPK14Il2CppAssemblyEPK22Il2CppMonoAssemblyNameEES6_N6il2cpp5utils11PointerHashIS4_EEN14dense_hash_mapIS6_SA_SF_NS6_14EqualsComparerINS0_8equal_toIS5_EEEENS0_9allocatorISB_EEE9SelectKeyESK_SM_E8min_sizeEjj
pi:_utime
ndf:__ZN5physx10writeChunkEaaaaRNS_14PxOutputStreamE
tCm:_BalancingGroup_Compile_m2575117193
Lho:__ZN6il2cpp6icalls8mscorlib6System8MonoType18IsGenericParameterEPK10Il2CppType
Uro:__ZNSt3__26vectorIN6il2cpp2vm17TypeNameParseInfoENS_9allocatorIS3_EEE8allocateEj
Gu:__ZN9Scripting11UnityEngine22AnimatorTransitionInfo9InitProxyEv
NHh:_Context_NotifyDynamicSinks_m1841702879
izm:_Mark_get_Index_m3048692661_AdjustorThunk
Zkn:_TlsServerSettings_get_CertificateRequest_m842655670
gbo:__ZN15dense_hashtableI10KeyWrapperIPK17Il2CppGenericInstES4_N6il2cpp8metadata21Il2CppGenericInstHashEN14dense_hash_setIS4_S7_NS4_14EqualsComparerINS6_24Il2CppGenericInstCompareEEENSt3__29allocatorIS4_EEE8IdentityESB_SE_ED2Ev
Rn:FUNCTION_TABLE_viiiiif
zqm:_Array_InternalArray__Insert_TisRejectHandler_t1435172309_m1864675154_gshared
nPi:_DefaultComparer_Compare_m3931992727_gshared
Ao:FUNCTION_TABLE_viiiiii
tNi:_InternalEnumerator_1_System_Collections_IEnumerator_get_Current_m1847780851_AdjustorThunk
r1o:_JSONNode_Add_m988733008
DGn:_GUILayoutUtility_get_spaceStyle_m3392862907
WYk:_Int32_System_IConvertible_ToType_m3009233912_AdjustorThunk
Jjk:_DateTimeOffset__ctor_m74032857
u6j:_MonoType_IsPrimitiveImpl_m2401722705
qje:__ZN5physx2Sc9RigidCore13onShapeChangeERNS0_9ShapeCoreENS_7PxFlagsINS0_21ShapeChangeNotifyFlag4EnumEjEENS4_INS_11PxShapeFlag4EnumEhEE
VEk:_SmallXmlParser_Error_m3899025466
IH:__ZN7mecanim9animation22DestroyAvatarWorkspaceEPNS0_15AvatarWorkspaceERNS_6memory9AllocatorE
RGh:_ConfigHandler_ParseElement_m3124222564
xnl:_Type_type_is_assignable_from_m76737532
AVc:__ZN9Scripting11UnityEngine14GUILayoutGroup12CleanupProxyEv
gAj:_MaskableGraphic_ParentMaskStateChanged_m1092090553
Zwe:__ZN5physx6shdfnd5ArrayIPvNS0_15InlineAllocatorILj256ENS0_19ReflectionAllocatorINS_2Sc19ParticlePacketShapeEEEEEE15growAndPushBackERKS2_
sUe:__ZN5physx17solveContactBlockEPKNS_23PxcSolverConstraintDescEjRNS_16PxcSolverContextE
wdf:__ZN5physx6shdfnd10FoundationD2Ev
XQa:__ZN14PlayableOutput17SetSourcePlayableEP8Playable
M8a:__ZNSt3__26vectorIN4core12basic_stringIcNS1_20StringStorageDefaultIcEEEE13stl_allocatorIS5_L18MemLabelIdentifier13ELi16EEE8__appendEj
T5d:__ZN5physx9NpFactory21releaseConnectorArrayEPNS_16NpConnectorArrayE
jH:__ZN7mecanim9animation29MotionOutputGetDeltaTransformEPKNS0_12MotionOutputE
Vxa:__ZN17GlobalGameManager23VirtualRedirectTransferER19StreamedBinaryWriteILb0EE
Hrd:__ZN27PerformanceReportingManager21OnSceneTimingCallbackERK15SceneLoadTimingRKN4core12basic_stringIcNS3_20StringStorageDefaultIcEEEE
Aln:_ValidationResult_get_ErrorCode_m1533688152
wxc:__Z43Transform_CUSTOM_INTERNAL_get_localRotationP12Il2CppObjectP11Quaternionf
zOe:__ZN5physx2Sc10NPhaseCoreD2Ev
c7d:__ZN5physx2Sc7BodySim18onConstraintDetachEv
bRo:__ZN6il2cpp6icalls8mscorlib6System10Reflection4Emit13ModuleBuilder13RegisterTokenEP29Il2CppReflectionModuleBuilderP12Il2CppObjecti
Kfh:_TextMeshProUGUI_set_maskOffset_m1831053298
qZi:_X509Certificate2_GetValueAsString_m1348462142
fko:__ZN6il2cpp2os4File9SetLengthEPNS0_10FileHandleExPi
vEc:__ZZL23RegisterLightPropertiesR22GenericPropertyBindingEN20Wrapper_LightColorr013SetFloatValueEPvf
vGg:__ZL63SpriteBone_t303320096_CustomAttributesCacheGenerator_m_ParentIdP21CustomAttributesCache
wLl:_Transform_1_EndInvoke_m2716226219_gshared
y4j:_Math_Max_m4189907297
Ui:_emscripten_glGetTexParameteriv
tma:__ZL49__ManagedRegistrationHelperFunction_ComputeBufferPv
YGe:__ZN5physx7NpScene8simulateEfPNS_10PxBaseTaskEPvjb
Uhp:_glGenTextures__wrapper
DNd:__ZN5physx2Gu13GeometryUnion3setERKNS_10PxGeometryE
Phl:_UnicodeEncoding_GetHashCode_m354003420
_jc:__ZN9ShaderLab20SerializedSubProgram14ConstantBufferaSERKS1_
uGd:__ZN9Polygon2D8TransferI18StreamedBinaryReadILb0EEEEvRT_
Khd:__Z25UpdateOrbitalAndRadialTplIL27ParticleSystemCurveEvalMode0ELS0_1ELS0_4EEvRK11MinMaxCurveS3_S3_S3_S3_S3_S3_R23ParticleSystemParticlesjjRKN4math8float3x3ERKNS6_7affineXERKNS6_7_float4E
gMg:__ZL74SharedBetweenAnimatorsAttribute_t2857104338_CustomAttributesCacheGeneratorP21CustomAttributesCache
Evk:_Enum_Equals_m3617313991
gbg:__ZL69RuntimeArray_CustomAttributesCacheGenerator_Array_SetValue_m394135409P21CustomAttributesCache
T7h:__Z74RuntimeInvoker_Boolean_t97287965_LineTypeU26_t2430394419_Int32_t2950945753PFvvEPK10MethodInfoPvPS4_
TNa:__ZN8PlayableD0Ev
mh:emscriptenWebGLGetBufferBinding
VN:__ZN12AudioManager8TransferI19StreamedBinaryWriteILb0EEEEvRT_
x0n:_CanvasGroup_IsRaycastLocationValid_m2128397950
JFj:_Slider_UpdateCachedReferences_m3259451627
Vtg:__ZL63X509ChainStatusFlags_t1026973125_CustomAttributesCacheGeneratorP21CustomAttributesCache
tTh:__Z50RuntimeInvoker_Double_t594665363_Double_t594665363PFvvEPK10MethodInfoPvPS4_
aSh:__Z60RuntimeInvoker_Void_t1185182177_StreamingContext_t3711869237PFvvEPK10MethodInfoPvPS4_
M_g:__ZL62Shadow_t773074319_CustomAttributesCacheGenerator_m_EffectColorP21CustomAttributesCache
Pbm:_Dictionary_2_System_Collections_ICollection_get_SyncRoot_m2718487944_gshared
pwo:__ZN15dense_hashtableINSt3__24pairIK10KeyWrapperINS1_IP11Il2CppClassjEEES4_EES6_N6il2cpp8metadata14ArrayClassHashEN14dense_hash_mapIS6_S4_SB_NS6_14EqualsComparerINSA_17ArrayClassCompareEEENS0_9allocatorIS8_EEE9SelectKeyESF_SH_E6insertERKS8_
ojk:_DateTimeOffset__ctor_m1464148220
Wrh:_U3CShowU3Ec__AnonStorey1_U3CU3Em__0_m2340880019
dNf:__ZN22BaseUnityConnectClient38PrepareConfigRequestOnMainThreadStaticEPS_
WEj:_Selectable_OnSetProperty_m1693943217
A4l:_List_1_GetIndex_m2300811709_gshared
KGc:__ZNK32RendererMaterialAnimationBinding12GetPPtrValueERKN11UnityEngine9Animation10BoundCurveE
KFb:__Z18Transfer_BlittableI18StreamedBinaryReadILb0EELb0E8Vector2fEvRK29SerializationCommandArgumentsR31RuntimeSerializationCommandInfo
ege:__ZN5physx18NpArticulationLink10clearForceENS_11PxForceMode4EnumE
lel:_ASCIIEncoding_GetString_m58523364
xdm:_Dictionary_2__ctor_m4248073191_gshared
nUd:__ZN5physx2Gu30distanceSegmentTriangleSquaredERKNS_6PxVec3ES3_S3_S3_S3_PfS4_S4_
lGf:__ZN2UI11CanvasGroup12CleanupClassEv
uln:_TlsStream_Flush_m3793197834
x5l:_List_1_GetIndex_m2832472557_gshared
Afb:__ZN22LocalFileSystemHandler9MakeLocalER13FileEntryDatab
uMo:__ZN6il2cpp2vm8Profiler10AllocationEP12Il2CppObjectP11Il2CppClass
TDm:_Uri_IsHexEncoding_m3290929897
hWg:__ZL61Graphic_t1660335611_CustomAttributesCacheGenerator_m_MaterialP21CustomAttributesCache
Dia:__Z13FormatOrderedPKcz
fzi:_InternalEnumerator_1_System_Collections_IEnumerator_get_Current_m3925261124_AdjustorThunk
Qug:__ZL91Enumerable_t538148348_CustomAttributesCacheGenerator_Enumerable_ThenByDescending_m141410882P21CustomAttributesCache
mjo:__ZN6il2cpp2vm8basepathEPKc
vLi:_InternalEnumerator_1_get_Current_m1506120701_AdjustorThunk
Cqe:__ZNK5physx15NpActorTemplateINS_7PxClothEE12getAggregateEv
uFj:_Selectable_IsPressed_m907486548
clf:__ZN14SafeBinaryRead21TransferSTLStyleArrayI10vector_mapINSt3__24pairIttEEfN20TextRenderingPrivate8FontImpl14KerningCompareENS2_9allocatorINS3_IS4_fEEEEEEEvRT_17TransferMetaFlags
BZj:_TlsServerFinished__ctor_m1445633918
W8j:_NumberFormatter_FastIntegerToString_m390846811
lzj:__ZN21InterfaceFuncInvoker0IfE6InvokeEjP11Il2CppClassP12Il2CppObject
j4a:__ZN14CompressedMesh10GetQualityE15MeshCompression
R8b:__ZN25DeferredRenderLoopScratchD0Ev
SA:__ZN27AnimationLayerMixerPlayable14SetInputWeightEif
TZh:__Z83RuntimeInvoker_Void_t1185182177_RuntimeObject_Single_t1397266774_Single_t1397266774PFvvEPK10MethodInfoPvPS4_
Rjh:_PhysicsRaycaster_Raycast_m776323695
wdh:_TextContainer_GetAnchorPosition_m4045774284
my:__ZN7mecanim9animation17EvaluateHumanPoseERKNS0_18ClipMuscleConstantERKNS0_15ClipMuscleInputEPKfRKNS0_12MotionOutputERNS_5human9HumanPoseE
Arm:_Array_InternalArray__Insert_TisTMP_LinkInfo_t1092083476_m719690151_gshared
TQe:__ZNK5physx2Cm12DelegateTaskINS_13PxsCCDContextEXadL_ZNS2_14postCCDAdvanceEPNS_10PxBaseTaskEEEE7getNameEv
$so:_il2cpp_class_get_parent
aRf:__ZN21DownloadHandlerBufferD0Ev
j$g:__ZL131U3CSendWebRequestU3Ed__0_t1093541222_CustomAttributesCacheGenerator_U3CSendWebRequestU3Ed__0_System_IDisposable_Dispose_m3774734000P21CustomAttributesCache
KTg:__ZL92PointerEventData_t3807901092_CustomAttributesCacheGenerator_U3CscrollDeltaU3Ek__BackingFieldP21CustomAttributesCache
jjc:__ZN15dense_hashtableINSt3__24pairIKiN4core17string_with_labelILi1EEEEEi18SInt32HashFunctionN14dense_hash_mapIiS5_S7_NS0_8equal_toIiEE13stl_allocatorIS6_L18MemLabelIdentifier1ELi16EEE9SelectKeyESA_SD_E9copy_fromERKSG_j
xbk:_CustomAttributeNamedArgument_GetHashCode_m2317130892
d9a:__ZN15ResourceManagerD0Ev
Lim:_EqualityComparer_1_get_Default_m990790318_gshared
wBj:_GetRayIntersectionAllCallback__ctor_m391992746
JDa:__ZN22CreateGpuProgramOutputD2Ev
Oci:__Z76RuntimeInvoker_Void_t1185182177_Int32_t2950945753_KeyValuePair_2_t4237331251PFvvEPK10MethodInfoPvPS4_
E0d:__ZNK5physx3Cct15ObstacleContext14getNbObstaclesEv
J4n:_ControllerColliderHit_t240592346_marshal_pinvoke_cleanup
WAb:__Z18Transfer_BlittableI19StreamedBinaryWriteILb0EELb1EsEvRK29SerializationCommandArgumentsR31RuntimeSerializationCommandInfo
Nyk:_Dictionary_2_Do_ICollectionCopyTo_TisInt64_t3736567304_m855156891_gshared
Lpd:__Z17UpdateSprites2TplIL27ParticleSystemCurveEvalMode2ELS0_3EEvfRK11MinMaxCurveS3_RK23ParticleSystemParticlesPf
Elg:__ZL52HMACSHA512_t923916539_CustomAttributesCacheGeneratorP21CustomAttributesCache
oaf:__ZN5physx6shdfnd8PoolBaseINS_11NpAggregateENS0_19ReflectionAllocatorIS2_EEE12allocateSlabEv
ize:__ZN5physx16NpParticleSystem23setParticleReadDataFlagENS_22PxParticleReadDataFlag4EnumEb
Zgd:__Z25UpdateOrbitalAndRadialTplIL27ParticleSystemCurveEvalMode3ELS0_4ELS0_0EEvRK11MinMaxCurveS3_S3_S3_S3_S3_S3_R23ParticleSystemParticlesjjRKN4math8float3x3ERKNS6_7affineXERKNS6_7_float4E
evn:_InvokableCall_2_Invoke_m1013424127_gshared
xpj:__ZN23InterfaceActionInvoker1IP25RectTransform_t3704657025E6InvokeEjP11Il2CppClassP12Il2CppObjectS1_
F5k:_SHA1CryptoServiceProvider_Finalize_m1793183797
_7i:_AnimationCurve_get_keys_m1672862131
Lmm:_HashSet_1_System_Collections_Generic_ICollectionU3CTU3E_CopyTo_m408073502_gshared
Txe:__ZN5physx7NpScene26removeFromParticleBaseListERNS_14PxParticleBaseE
$Bn:_InflateBlocks_Process_m2809097491
ite:__ZN5physx2Sc9ClothCore23setSelfCollisionIndicesEPKjj
Pfb:__ZN12HandlerChain4OpenER13FileEntryData14FilePermission16FileAutoBehavior
Fom:_Array_InternalArray__ICollection_Add_TisPlayerLoopSystem_t105772105_m1930641144_gshared
Gdi:__Z72RuntimeInvoker_Void_t1185182177_Int32_t2950945753_RaycastHit_t1056001966PFvvEPK10MethodInfoPvPS4_
Zpg:__ZL79Convert_t2465617642_CustomAttributesCacheGenerator_Convert_ToUInt16_m1147931813P21CustomAttributesCache
kmo:__ZN15dense_hashtableINSt3__24pairIK10KeyWrapperINS1_IPK10MethodInfoP11Il2CppClassEEEjEES9_17ReflectionMapHashIS8_EN14dense_hash_mapIS9_jSD_NS9_14EqualsComparerINS0_8equal_toIS8_EEEENS0_9allocatorISB_EEE9SelectKeyESI_SK_E6insertERKSB_
IM:__ZL55__ManagedRegistrationHelperFunction_AudioPlayableOutputPv
Trd:__ZN27PerformanceReportingManager29OnSceneLoadedAfterAwakeStaticEPS_iR18AwakeFromLoadQueueN19RuntimeSceneManager11LoadingModeE
ZXo:_GameController_SpawnBackgroundSpaceShip_m1444121968
KHk:_Array_SetValue_m394135409
OWm:__ZN28GenericInterfaceFuncInvoker2IiffE6InvokeEPK10MethodInfoP12Il2CppObjectff
Mba:__ZN14FileCacherReadD2Ev
Zbb:__ZN13RendererScene23UpdatePreviousFrameDataEii
pjj:_MonoBehaviour_StopCoroutine_m615723318
_sc:__Z50Register_UnityEngine_CullingGroup_FinalizerFailurev
yko:__ZNK15dense_hashtableINSt3__24pairIK10KeyWrapperINS1_IPK14Il2CppAssemblyP11Il2CppClassEEEjEES9_17ReflectionMapHashIS8_EN14dense_hash_mapIS9_jSD_NS9_14EqualsComparerINS0_8equal_toIS8_EEEENS0_9allocatorISB_EEE9SelectKeyESI_SK_E10test_emptyEj
qCk:_Mesh_GetAllocArrayFromChannel_TisVector2_t2156229523_m1057679375_gshared
X6c:__Z32TransferEnumWithNameForceIntSizeI14SafeBinaryReadN8UVModule4ModeEEvRT_RT0_PKc17TransferMetaFlags
ACa:__ZNK4PPtrI5FlareEcvPS0_Ev
eVi:_IPHostEntry_get_AddressList_m1351062776
JB:__ZN26AnimatorControllerPlayable6MemoryD2Ev
uii:__Z56RuntimeInvoker_Int32_t2950945753_SpriteState_t1362986479PFvvEPK10MethodInfoPvPS4_
AAi:_InternalEnumerator_1__ctor_m4227797183_gshared
_$l:_List_1_get_Item_m280817263_gshared
_Sn:__ZL25UnresolvedVirtualCall_111P12Il2CppObjectS0_S0_iaPK10MethodInfo
aoc:__ZN12ShaderErrors11ShaderErrorC2EOS0_
t9o:__ZNKSt3__221__basic_string_commonILb1EE20__throw_out_of_rangeEv
rRe:__ZN5physx10PxsCCDPair12updateShapesEv
uOh:__Z78RuntimeInvoker_Boolean_t97287965_RuntimeObject_RuntimeObject_Int32_t2950945753PFvvEPK10MethodInfoPvPS4_
Ego:_UpdatedEventHandler_Invoke_m1320302085
Lfh:_TextMeshProUGUI_UpdateMask_m1876478509
oBo:__ZNK15dense_hashtableINSt3__24pairIK10KeyWrapperIP14Il2CppIUnknownEjEES5_N6il2cpp5utils11PointerHashIS3_EEN14dense_hash_mapIS5_jSB_NS5_14EqualsComparerINS0_8equal_toIS4_EEEENS0_9allocatorIS7_EEE9SelectKeyESG_SI_E12test_deletedERK24dense_hashtable_iteratorIS7_S5_SB_SK_SG_SI_E
AAn:_Adler_Adler32_m2918808405
iU:__ZN9AudioClip23VirtualRedirectTransferER18StreamedBinaryReadILb0EE
EI:__ZN26AnimatorOverrideController23VirtualRedirectTransferER24GenerateTypeTreeTransfer
$5m:_List_1_AddEnumerable_m2724989594_gshared
y0l:_List_1_AddRange_m1807884661_gshared
c7m:_List_1_Contains_m2043463915_gshared
$Ni:_ArraySegment_1_get_Array_m2601536033_AdjustorThunk
Ite:__ZN5physx2Sc9ClothCore22removeCollisionCapsuleEj
R1h:__Z82RuntimeInvoker_Vector2_t2156229523_Vector2_t2156229523_RuntimeObject_RuntimeObjectPFvvEPK10MethodInfoPvPS4_
tRc:__Z70Register_UnityEngine_Playables_PlayableHandle_GetPlayableType_Injectedv
JNl:_Enumerator_get_Current_m2708222222_AdjustorThunk
GNb:__ZNK4PPtrI23ShaderVariantCollectionEcvPS0_Ev
k8d:__ZN5physx16PxsIslandManager25setArticulationLinkHandleEjPvRKNS_20PxsIslandManagerHookIjLj4294967295EEE
tk:_glCopyTexSubImage2D
SGc:__ZNK24RendererAnimationBinding13GetFloatValueERKN11UnityEngine9Animation10BoundCurveE
qdd:__ZNK21RotationBySpeedModule6UpdateERK27ParticleSystemReadOnlyStateRK19ParticleSystemStateR23ParticleSystemParticlesRKN4math7_float4Ejj
NMm:_ReadOnlyCollection_1_System_Collections_IList_Insert_m1104620799_gshared
X$:__ZNK15DownloadHandler14HasPendingDataEv
_Rl:_Dictionary_2__ctor_m2856239275_gshared
DOn:_UnitySynchronizationContext_ExecuteTasks_m1310741010
l4k:_RIPEMD160Managed_CompressFinal_m497690796
OKb:__ZN18ScreenManagerWebGL13SetShowCursorEb
XBi:_InternalEnumerator_1_MoveNext_m1773160976_gshared
LYb:__ZN13DrawImmediateC2ER9GfxDevice
hGa:__ZN18VertexChannelsInfoC2ERA12_K11ChannelInfo
cmk:_Convert_ToInt64_m2849840611
CDf:__ZN2UI13CanvasManager14GetRenderOrderEPKNS_6CanvasE
$he:__ZN5physx6shdfnd5ArrayIPNS_3Scb5ShapeENS0_15InlineAllocatorILj16ENS0_19ReflectionAllocatorIS4_EEEEE15growAndPushBackERKS4_
ltb:__Z18Transfer_BlittableI14SafeBinaryReadLb0E5RectTIfEEvRK29SerializationCommandArgumentsR31RuntimeSerializationCommandInfo
_8j:_NumberFormatter_NumberToString_m2562899600
jxe:__ZNK5physx2Sc18ParticleSystemCore15getParticleMassEv
V6k:_SymmetricAlgorithm_get_FeedbackSize_m3666584308
bNj:_Array_InternalArray__IEnumerable_GetEnumerator_TisTMP_CharacterInfo_t3185626797_m2871718332_gshared
Msf:_otv_u_C_x_Ox
XKd:__ZL44__ManagedRegistrationHelperFunction_ColliderPv
opb:__ZN18AsyncUploadManager19AsyncResourceUploadER9GfxDeviceii9TextureID
ebg:__ZL70RuntimeArray_CustomAttributesCacheGenerator_Array_GetValue_m1062368071P21CustomAttributesCache
Iip:_emscripten_glGenVertexArrays__wrapper
Rrl:_Version_Clone_m1749041863
YHl:_ShimEnumerator_get_Key_m4155849607_gshared
N6g:__ZL126U3CSpawnWormholesU3Ec__Iterator8_t3493837421_CustomAttributesCacheGenerator_U3CSpawnWormholesU3Ec__Iterator8__ctor_m3311551030P21CustomAttributesCache
nSa:__ZN6prcoreL21CreateRemapAnyBlitterE13TextureFormatS0_
oWj:_RSAManaged_ExportParameters_m1754454264
bNc:__ZN17AnimationCurveTplIfE16StripInvalidKeysEv
qKk:_Boolean_Equals_m535526264_AdjustorThunk
Fhi:__Z71RuntimeInvoker_KeyValuePair_2_t71524366_Int32_t2950945753_RuntimeObjectPFvvEPK10MethodInfoPvPS4_
nZm:_U3CCreateWhereIteratorU3Ec__Iterator1D_1_System_Collections_IEnumerator_get_Current_m2550921559_gshared
OOf:__ZN13dynamic_arrayIiLj0EE6insertEPiPKiS3_
B4m:_List_1_TrimExcess_m3801445587_gshared
MDf:__ZNK2UI6Canvas17GetSortingLayerIDEv
Wmk:_Convert_ToUInt16_m3116648921
rOc:__ZL12HashLen0to16PKcj
Cyd:__ZN14Raycast2DQuery8RunQueryEb
qYa:__ZN8Renderer24SetupNewRendererForSceneEv
snl:_Type_internal_from_name_m1721940673
juo:_il2cpp_type_get_class_or_element_class
pxk:_Array_swap_TisCustomAttributeTypedArgument_t2723150157_TisCustomAttributeTypedArgument_t2723150157_m365781156_gshared
xRk:_Environment_get_TickCount_m2088073110
wki:_RemotingServices_GetMethodBaseFromName_m3194612939
G4f:_TMP_Text_set_tintAllSprites_m2515828743
O1c:__Z35Transfer_Blittable_FixedBufferFieldI8JSONReadtEvRK29SerializationCommandArgumentsR31RuntimeSerializationCommandInfo
wCa:__ZN4PPtrI7TextureE8TransferI14SafeBinaryReadEEvRT_
P0e:__ZN5physx2Sc8ClothSim16addCollisionMeshEPKNS0_8ShapeSimE
QJc:__ZN14PlayableOutput6HandleEv
CZa:__ZNK6Sprite22GetTypeVirtualInternalEv
Kra:__ZN9Scripting11UnityEngine12Experimental9Playables22MaterialEffectPlayable9InitProxyEv
TMf:__ZNSt3__26__treeINS_12__value_typeIN4core12basic_stringIcNS2_20StringStorageDefaultIcEEEEN11UnityEngine7Connect19RemoteSettingsValueEEENS_19__map_value_compareIS6_SA_NS_4lessIS6_EELb1EEE13stl_allocatorISA_L18MemLabelIdentifier6ELi16EEE16__construct_nodeIJNS_4pairIS6_S9_EEEEENS_10unique_ptrINS_11__tree_nodeISA_PvEENS_22__tree_node_destructorISF_ISP_LSG_6ELi16EEEEEEDpOT_
uo:FUNCTION_TABLE_iiiiiiiiiiiiii
vUh:__Z60RuntimeInvoker_RuntimeObject_Int16_t2552820387_RuntimeObjectPFvvEPK10MethodInfoPvPS4_
R5e:__ZN5physx6shdfnd5ArrayIPKNS_10PxsCCDBodyENS0_19ReflectionAllocatorIS4_EEE8recreateEj
Den:_Collection_1_InsertItem_m353733697_gshared
xKi:_InternalEnumerator_1_MoveNext_m683739489_gshared
Vhe:__ZN5physx6shdfnd4sortINS_2Cm19PreallocatingRegionENS0_4LessIS3_EENS0_19ReflectionAllocatorIS3_EEEEvPT_jRKT0_RKT1_j
cPf:__ZN19UnityConnectService18OnPlayerQuitStaticEPS_
Hjl:_SynchronizationLockException__ctor_m3407855920
Rgk:_SyncQueue_ToArray_m1004054973
Dtf:_UNITY_tt_get_cmap_info
Syi:_InternalEnumerator_1__ctor_m3504696505_gshared
SYm:__ZN21InterfaceFuncInvoker0IjE6InvokeEjP11Il2CppClassP12Il2CppObject
K1j:_SslClientStream_RaiseServerCertificateValidation_m3477149273
$zb:__Z29Transfer_Blittable_ArrayFieldI24GenerateTypeTreeTransfer5RectTIiEEvRT_R9ArrayInfoRK23StaticTransferFieldInfo
GIa:__ZN16ReflectionProbes8ScheduleEN18ReflectionProbeJob7JobTypeEP15ReflectionProbei
FZj:_ClientSessionInfo_KeepAlive_m1020179566
Z1o:_JSONNode_op_Implicit_m15872920
u7m:_List_1_ToArray_m4056539300_gshared
veg:__ZL51Calendar_t1661121569_CustomAttributesCacheGeneratorP21CustomAttributesCache
UWi:__ZN28GenericInterfaceFuncInvoker5IP26X509Certificate_t713131622P12Il2CppObjectP8String_tP37X509CertificateCollection_t3399372417S1_P24StringU5BU5D_t1281789340E6InvokeEPK10MethodInfoS3_S3_S5_S7_S1_S9_
Uca:__ZN16MessageForwarder13HandleMessageEPviR11MessageData
ohb:__Z18IsDirectoryCreatedRKN4core12basic_stringIcNS_20StringStorageDefaultIcEEEE
g8k:_String_FormatHelper_m3913915042
rAe:__ZN5physx19NpRigidBodyTemplateINS_14PxRigidDynamicEE20setRigidDynamicFlagsENS_7PxFlagsINS_15PxRigidBodyFlag4EnumEhEE
IBf:__ZN2UI13CanvasManagerD2Ev
Hqd:__ZZN14ParticleSystem15InitializeClassEvEN52PreLateUpdateParticleSystemBeginUpdateAllRegistrator7ForwardEv
Q9n:__ZN15dense_hashtableINSt3__24pairIK10KeyWrapperIPKcEP11Il2CppClassEES5_N6il2cpp5utils11StringUtils12StringHasherIS4_EEN14dense_hash_mapIS5_S8_SE_NS5_14EqualsComparerINSB_13VmStringUtils21CaseSensitiveComparerEEENS0_9allocatorIS9_EEE9SelectKeyESJ_SL_E15set_deleted_keyERKS9_
$2h:__Z38RuntimeInvoker_ContentType_t1787303396PFvvEPK10MethodInfoPvPS4_
NLm:_ReadOnlyCollection_1_Contains_m1700717617_gshared
EKh:__Z141RuntimeInvoker_Boolean_t97287965_RuntimeObject_Int32_t2950945753_RuntimeObject_SByte_t1669577662_Int64U26_t200113976_ExceptionU26_t3600731591PFvvEPK10MethodInfoPvPS4_
vbk:_CustomAttributeData_GetHashCode_m3727773664
unf:_UNITY_FT_GlyphLoader_Done
eia:__ZNSt3__23mapIiN11TypeManager18TypeCallbackStructENS_4lessIiEENS_9allocatorINS_4pairIKiS2_EEEEEixERS7_
rOg:__ZL89GUIStyle_t3956901511_CustomAttributesCacheGenerator_GUIStyle_get_stretchWidth_m3556443132P21CustomAttributesCache
EKc:__ZN9Polygon2D16CheckConsistencyEv
Orh:_U3CDelayedDestroyDropdownListU3Ec__Iterator0__ctor_m912479353
aze:__ZN5physx22NpParticleBaseTemplateINS_16PxParticleSystemENS_16NpParticleSystemEE20setMaxMotionDistanceEf
Krb:__ZNK17InstancingBatcher15RenderInstancesERK19ShaderPropertySheetRKNS_22RenderInstancesConfigsERK11MeshBuffersRK16DrawBuffersRange16VertexInputMasks
Htk:_StackTrace_get_FrameCount_m344690939
Aba:__ZN13dynamic_arrayIcLj0EE6insertEPcPKcS3_
QPm:_ReadOnlyCollection_1_CopyTo_m2330334359_gshared
dnj:_Quaternion_GetHashCode_m2636680144_AdjustorThunk
usn:_TMP_XmlTagStack_1_Push_m1847519558_gshared
N1k:_FileStream_BeginRead_m2419864669
x4i:_VertexZoom_Awake_m1446594597
$Ue:__ZN5physx18ComputeSortedListsEPNS_2Cm10BitMapBaseINS_6shdfnd9AllocatorEEEjjPKjPPNS_8SapBox1DES7_PjSB_jRKNS_2Gu4AxesESB_RjSB_SG_RbSH_
JHj:_Array_get_swapper_TisRuntimeObject_m1378919517_gshared
ZUg:__ZL108U3CStartU3Ec__Iterator0_t1249263001_CustomAttributesCacheGenerator_U3CStartU3Ec__Iterator0__ctor_m1316384627P21CustomAttributesCache
Duf:_tt_cmap14_char_var_index
IGb:__Z35Transfer_Blittable_FixedBufferFieldI18StreamedBinaryReadILb0EEdEvRK29SerializationCommandArgumentsR31RuntimeSerializationCommandInfo
R1n:_Physics2D_Raycast_m1700114981
Zvj:_Selectable_OnPointerDown_m1086067264
Iyf:_psh_globals_new
orh:_Dropdown_SetupTemplate_m628218778
hjl:_Thread_GetCompressedStack_m2923422412
bXj:__ZN28GenericInterfaceFuncInvoker2IbP26X509Certificate_t713131622P22Int32U5BU5D_t385246372E6InvokeEPK10MethodInfoP12Il2CppObjectS1_S3_
Phj:_Matrix4x4_MultiplyPoint3x4_m4145063176
b1i:_X509BasicConstraintsExtension_ToString_m1809935297
ulb:__ZN9GfxDevice20SetMaxBufferedFramesEi
xof:__ZNK20TextRenderingPrivate8TextMesh22GetTypeVirtualInternalEv
Izn:_TweenRunner_1_StartTween_m1055628540_gshared
ium:_Array_qsort_TisUIVertex_t4057497605_TisUIVertex_t4057497605_m678708019_gshared
Ozk:_Mesh_SetArrayForChannel_TisVector4_t3319028937_m3058558403_gshared
htd:__ZN10Collider2D19WakeAllBodyContactsEv
Gzk:_GameObject_GetComponents_TisRuntimeObject_m1246177135_gshared
$Q:__ZN24AudioScriptBufferManagerD2Ev
k7n:__ZNSt3__218uninitialized_fillIPNS_4pairIK10KeyWrapperIPK22Il2CppGenericParameterEP11Il2CppClassEESA_EEvT_SC_RKT0_
N4j:_MethodAccessException__ctor_m3542088436
Ngc:__Z23ConvertIntegerToTypePtrIsEbPvR14SafeBinaryRead
ev:__ZN9Scripting11UnityEngine10Animations26AnimatorControllerPlayable9InitProxyEv
Wud:__ZN12b2MouseJoint11ShiftOriginERK6b2Vec2
ide:__ZNK5physx14NpArticulation17releaseDriveCacheERNS_24PxArticulationDriveCacheE
W8n:__ZN6il2cpp2vm5Class12HasAttributeEP11Il2CppClassS3_
MNk:_ArrayListWrapper_get_Capacity_m51087796
Exj:_LayoutElement_get_minHeight_m4160507569
mNf:__ZN11UnityEngine7Connect13ConfigHandler13ConfigChangedERKN4core12basic_stringIcNS2_20StringStorageDefaultIcEEEEb
Uch:_MaterialReferenceManager_TryGetSpriteAssetInternal_m3148505359
aim:_EqualityComparer_1_System_Collections_IEqualityComparer_GetHashCode_m2230215241_gshared
Qyg:__ZL91Quaternion_t2301928331_CustomAttributesCacheGenerator_Quaternion_FromToRotation_m3769621427P21CustomAttributesCache
oZg:__ZL60ContentSizeFitter_t3850442145_CustomAttributesCacheGeneratorP21CustomAttributesCache
bRk:_Hashtable_Contains_m2145146412
dwg:__ZL64UnmarshalledAttribute_t1517743549_CustomAttributesCacheGeneratorP21CustomAttributesCache
KAh:_MonoGenericCMethod__ctor_m1374831274
wla:__ZN6prcoreL29inner_stretch_rgb565_bilinearEPKNS_9InnerInfoE
iBl:_Enumerator__ctor_m1195706188_AdjustorThunk
jte:__ZNK5physx2Sc9ClothCore25getSelfCollisionStiffnessEv
Fbd:__Z13UpdateSizeTplIL27ParticleSystemCurveEvalMode3EEvRK11MinMaxCurveR23ParticleSystemParticlesbjj
UFo:__ZN6il2cpp2vm12GenericClass12SetupMethodsEP11Il2CppClass
tFa:__Z26TransformVerticesInnerLoopILb0ELb0ELb1EEvPhRK10Matrix4x4fRK10Matrix3x3fjPKhiS8_ii25GfxTransformVerticesFlagsj
HTo:__ZN6il2cpp2os9FastMutex4LockEv
TCn:_ZlibBaseStream__ReadAndValidateGzipHeader_m3819338223
lYk:_Int32_FindCurrency_m3541026887
Gym:_Interval_CompareTo_m3282557545
Qjp:_pthread_cond_wait__wrapper
Y7b:__ZNK14RenderSettings19GetFlatAmbientColorEv
OEa:__ZN8DrawUtil24DrawMeshRawFromNodeQueueERK15RenderNodeQueuej16VertexInputMasksi
W7a:__ZN18StreamedBinaryReadILb0EE21TransferSTLStyleArrayI10vector_mapIPKN5Unity4TypeE7Hash128NSt3__24lessIS6_EENS8_9allocatorINS8_4pairIS6_S7_EEEEEEEvRT_17TransferMetaFlags
PC:__ZNK27StateMachineBehaviourPlayer15IsSenderEnabledEv
Nmo:__ZN6il2cpp2gc19AppendOnlyGCHashMapINSt3__24pairIPK11Il2CppImageP11Il2CppClassEEP22Il2CppReflectionModule17ReflectionMapHashIS9_ENS2_8equal_toIS9_EEE11TryGetValueERKS9_PSB_
RYg:__ZL58Text_t1901882714_CustomAttributesCacheGenerator_m_FontDataP21CustomAttributesCache
tek:_GenericTypeParameterBuilder_IsPrimitiveImpl_m1952010459
HOm:_ReadOnlyCollection_1_CopyTo_m3474153465_gshared
UIn:_DownloadHandler_get_text_m2427232382
ypn:_RijndaelManagedTransform_TransformBlock_m1610137419
tzl:_Enumerator_System_Collections_IDictionaryEnumerator_get_Entry_m1355283127_gshared
qyc:__Z40Register_UnityEngine_Transform_SetParentv
Gmg:__ZL94WindowsIdentity_t2948242406_CustomAttributesCacheGenerator_WindowsIdentity_Dispose_m3466258450P21CustomAttributesCache
j5i:_TMP_TextEventHandler_Awake_m3560580738
ERa:__ZN14Texture2DArray17UploadToGfxDeviceEv
mLm:_ReadOnlyCollection_1_IndexOf_m1402369841_gshared
WEn:_Event_set_displayIndex_m1342258734
SP:__Z14FMODMemoryFreePvjPKc
AJg:__ZL100RectTransform_t3704657025_CustomAttributesCacheGenerator_RectTransform_INTERNAL_get_rect_m3130887130P21CustomAttributesCache
Hkh:_PointerEventData_ToString_m238029461
Dra:__ZN9Scripting11UnityEngine12Experimental10PlayerLoop11FixedUpdate12CleanupProxyEv
OXk:_Int16_System_IConvertible_ToType_m3672347013
SQn:_NetFxCoreExtensions_GetMethodInfo_m444570327
Bij:_Mesh_SetNormals_m2521889643
i1f:_TMP_Settings_get_missingGlyphCharacter_m3560139616
Bvf:_tt_cmap0_validate
ccg:__ZL107ArrayReadOnlyList_1_t221793636_CustomAttributesCacheGenerator_ArrayReadOnlyList_1_GetEnumerator_m2012327150P21CustomAttributesCache
Vpf:_cf2_glyphpath_moveTo
XWo:_EnemyScript_Start_m2844579575
UKe:__ZN5physx3Scb4Body9syncStateEv
R5g:__ZL109GameController_t2330501625_CustomAttributesCacheGenerator_GameController_SpawnBackgroundSpaceShip_m1444121968P21CustomAttributesCache
v$g:__ZL65TextMeshPro_t2393593166_CustomAttributesCacheGenerator_m_rendererP21CustomAttributesCache
DGd:__ZNK13BoxCollider2D22GetTypeVirtualInternalEv
Xvd:__Z6b2FreePv10MemLabelId
gQc:__Z51Register_UnityEngine_Texture_get_texelSize_Injectedv
vrj:_StackTraceUtility_SetProjectFolder_m830524047
she:__ZN5physx12PxsRigidBody23updatePoseDependenciesVERNS_10PxsContextE
nz:__ZN7mecanim23TransformValueArrayLoopEiiiRKN4math4trsXES3_RNS_10ValueArrayEf
UZj:_ClientSessionInfo_Finalize_m2165787049
aYc:__ZN5IMGUI14GUIWindowStateD2Ev
RYj:_ClientContext_Clear_m1774063253
_Lc:__ZN4Mesh17SetIndicesComplexEPKvjj16GfxPrimitiveTypeij
Lod:__Z20UpdateWholeSheet2TplIL27ParticleSystemCurveEvalMode1ELS0_0EEvfRK11MinMaxCurveS3_RK23ParticleSystemParticlesPf
P5f:_TMP_Text_get_mappingUvLineOffset_m762916951
xpk:_DateTime_AddSeconds_m332574389_AdjustorThunk
LQg:__ZL81Physics_t2310948930_CustomAttributesCacheGenerator_Physics_RaycastAll_m2266459302P21CustomAttributesCache
UKk:_Byte_System_IConvertible_ToSByte_m1869482168
Rrh:_U3CDelayedDestroyDropdownListU3Ec__Iterator0_MoveNext_m213723240
NMb:__Z21PlayerStartFirstSceneb
oG:__ZN7mecanim5human10RetargetToEPKNS0_5HumanEPKNS0_9HumanPoseES6_RKN4math4trsXEPS4_PNS_8skeleton13SkeletonPoseTIS8_EESF_
gz:__ZN7mecanim9animation8SeekClipERKNS0_12StreamedClipERNS0_18StreamedClipMemoryEf
Lbn:_Collection_1_Add_m2420538118_gshared
u7i:_Request_Send_m3316085126
Jej:_GameObject_Internal_AddComponentWithType_m3797731663
dn:_emscripten_glIsTexture
y6h:__Z93RuntimeInvoker_Single_t1397266774_Vector3_t3722313464_Vector3_t3722313464_Vector3_t3722313464PFvvEPK10MethodInfoPvPS4_
c_l:_List_1__ctor_m2190796336_gshared
SUn:__ZL25UnresolvedVirtualCall_211P12Il2CppObject22UILineInfo_t4195266810S1_PK10MethodInfo
Kl:_emscripten_glHint
fIn:_Check_SourceAndPredicate_m2332465641
IPg:__ZL74ContactFilter2D_t3805203441_CustomAttributesCacheGenerator_useOutsideDepthP21CustomAttributesCache
Wag:__ZL70RuntimeArray_CustomAttributesCacheGenerator_Array_get_Length_m21610649P21CustomAttributesCache
rxf:_ft_var_readpackeddeltas
qFg:__ZL80Logger_t274032455_CustomAttributesCacheGenerator_U3ClogEnabledU3Ek__BackingFieldP21CustomAttributesCache
Rem:_Dictionary_2_Clear_m1938428402_gshared
R4i:_U3CWarpTextU3Ec__Iterator0_MoveNext_m859178164
Dbh:_FloatTween_set_duration_m2869502762
hDb:__Z35Transfer_Blittable_FixedBufferFieldI18StreamedBinaryReadILb1EEtEvRK29SerializationCommandArgumentsR31RuntimeSerializationCommandInfo
Cpl:_UInt32_System_IConvertible_ToInt64_m2261037378
gn:_SDL_UpperBlit
z5e:__ZN5physx2Cm12DelegateTaskINS_2Sc5SceneEXadL_ZNS3_13ccdBroadPhaseEPNS_10PxBaseTaskEEEED0Ev
f1l:_List_1_System_Collections_IList_Add_m49923158_gshared
BIa:__Z35GetTextureDecodeValuesWithIntensity16TextureUsageMode17TextureColorSpace10ColorSpacef
aBm:_Parser_ParseRepetitionBounds_m1246581246
IJj:_Array_InternalArray__ICollection_Remove_TisChar_t3634460470_m4143749387_gshared
ZYb:__ZN15dense_hashtableINSt3__24pairIK9TextureIDiEES2_14GfxGenericHashIS2_EN14GfxDoubleCacheIS2_iS6_NS0_8equal_toIS2_EEN31GfxDoubleCacheConcurrencyPolicy11LocklessGetE42GfxDoubleCacheDefaultEmptyDeletedGeneratorIS2_EE9SelectKeyES9_13stl_allocatorIS4_L18MemLabelIdentifier24ELi16EEE14squash_deletedEv
yAc:__Z13RegisterClassI14Texture2DArrayEvPKc
WYf:_TMP_InputField_get_readOnly_m494535143
WWe:__ZN5physx14PxsAABBManager21processAggregatePairsEPKNS_19AggregateSortedDataE
Sud:__ZNK12b2MouseJoint10GetAnchorAEv
ZCb:__Z18Transfer_BlittableI18StreamedBinaryReadILb1EELb0E9BoundsIntEvRK29SerializationCommandArgumentsR31RuntimeSerializationCommandInfo
$Sk:_GregorianCalendar__ctor_m979779718
j1j:_SslClientStream__ctor_m2402546929
CJb:__ZN14SafeBinaryRead20OverrideRootTypeNameEPKc
nTi:_DictionaryNodeEnumerator_get_Entry_m2309234501
V6n:__ZNK10KeyWrapperIPK22Il2CppGenericParameterE14EqualsComparerINSt3__28equal_toIS2_EEEclERKS3_SA_
Qba:__ZN14FileCacherRead16UnlockCacheBlockEj
vYl:_Enumerator_Dispose_m951715887_AdjustorThunk
NGo:__ZN6il2cpp2os10SocketImpl13GetHostByNameERKNSt3__212basic_stringIcNS2_11char_traitsIcEENS2_9allocatorIcEEEERS8_RNS2_6vectorIS8_NS6_IS8_EEEESF_
UUf:_TMP_Text_set_extraPadding_m286773043
Rci:__Z76RuntimeInvoker_Void_t1185182177_Int32_t2950945753_KeyValuePair_2_t2245450819PFvvEPK10MethodInfoPvPS4_
dJ:__ZN26AnimatorOverrideController8TransferI24GenerateTypeTreeTransferEEvRT_
u1k:_IsolatedStorageException__ctor_m1022659452
qke:__ZNK5physx12NpBatchQuery23getFilterShaderDataSizeEv
_5:__ZN10InstancingL21OnGraphicsCapsChangedEv
Iwb:__Z18Transfer_BlittableI17RemapPPtrTransferLb1E8Vector3fEvRK29SerializationCommandArgumentsR31RuntimeSerializationCommandInfo
Yhg:__ZL61ClassInterfaceType_t4029497327_CustomAttributesCacheGeneratorP21CustomAttributesCache
oDg:__ZL101SystemInfo_t3561985952_CustomAttributesCacheGenerator_SystemInfo_GetOperatingSystemFamily_m1440411909P21CustomAttributesCache
nll:_WaitHandle_get_Handle_m3260446580
qZl:_Enumerator_VerifyState_m1745883925_AdjustorThunk
u4i:_U3CAnimateVertexColorsU3Ec__Iterator0_Dispose_m1243804753
wd:_emscripten_glUniform1f
A8g:__ZL107U3CStartU3Ec__Iterator0_t2216151886_CustomAttributesCacheGenerator_U3CStartU3Ec__Iterator0_Reset_m816692654P21CustomAttributesCache
Puo:__ZN6il2cpp2vm6Thread28GetThreadStaticDataForThreadEiP12Il2CppThread
a7c:__ZN14SafeBinaryRead21TransferSTLStyleArrayI13dynamic_arrayIN8UVModule10SpriteDataELj0EEEEvRT_17TransferMetaFlags
hif:__ZN5physx7profile11EventBufferINS_24PxDefaultContextProviderENS_6shdfnd6MutexTINS0_26WrapperReflectionAllocatorIhEEEENS0_14ScopedLockImplIS7_EENS_24PxProfileNullEventFilterEE10doAddEventINS0_17RelativeStopEventEEEvhtRKT_
CMh:__Z75RuntimeInvoker_Int32_t2950945753_DecimalU26_t3714369516_Int64U26_t200113976PFvvEPK10MethodInfoPvPS4_
fof:__Z20ParseImageParametersR11UTF16StringRiRN20TextRenderingPrivate16TextFormatChangeE
dZg:__ZL55CanvasScaler_t2767979955_CustomAttributesCacheGeneratorP21CustomAttributesCache
THm:_Collection_1_RemoveItem_m2942561924_gshared
grl:_UIntPtr_ToString_m984583492_AdjustorThunk
Bd:_emscripten_glUniform1i
a4o:_JSONString_get_Tag_m2633482921
wyb:__Z18Transfer_BlittableI24GenerateTypeTreeTransferLb1EN4math12int3_storageEEvRK29SerializationCommandArgumentsR31RuntimeSerializationCommandInfo
wG:__ZN12_GLOBAL__N_119PreProcessAnimationER35AnimationPlayableEvaluationConstantR17AnimationPlayable
A4e:__ZN5physx2Sc19ShapeInstancePairLL23postIslandGenSecondPassEv
rMd:__ZN14PhysicsManager23VirtualRedirectTransferER19StreamedBinaryWriteILb0EE
Bmo:__ZN15dense_hashtableINSt3__24pairIK10KeyWrapperINS1_IPK10MethodInfoP11Il2CppClassEEEjEES9_17ReflectionMapHashIS8_EN14dense_hash_mapIS9_jSD_NS9_14EqualsComparerINS0_8equal_toIS8_EEEENS0_9allocatorISB_EEE9SelectKeyESI_SK_E12expand_arrayEjN21dense_hash_map_traits17integral_constantIbLb0EEE
Jfh:_TextMeshProUGUI_get_maskOffset_m421670010
q_:__ZN11UnityEngine15CloudWebService16SessionContainer20RestoreSessionHeaderERKN4core12basic_stringIcNS2_20StringStorageDefaultIcEEEES8_RNS0_13SessionHeaderE
Aif:__ZN5physx26PxPhysicsInsertionCallbackD2Ev
wPf:__ZN22UnityWebRequestManager13BackendRetainEv
hLc:__ZN8Material28ApplyMaterialPropertyDrawersEv
iQe:__ZN5physx2Sq16BucketPrunerCore12updateObjectERKNS_9PxBounds3ERKNS0_13PrunerPayloadE
N3e:__ZN5physx18PxsDynamicsContext23atomIntegrationParallelEfPKPNS_11PxsBodyCoreEPKPNS_12PxsRigidBodyEjPKNS_2Cm13SpatialVectorEPNS_13PxcSolverBodyEPNS_17PxcSolverBodyDataEPSA_RjSI_RNS_10PxBaseTaskE
eCl:_Enumerator_Dispose_m1360775770_AdjustorThunk
A7n:__ZN24dense_hashtable_iteratorINSt3__24pairIK10KeyWrapperIPK22Il2CppGenericParameterEP11Il2CppClassEES6_N6il2cpp5utils11PointerHashIS4_EEN14dense_hash_mapIS6_S9_SE_NS6_14EqualsComparerINS0_8equal_toIS5_EEEENS0_9allocatorISA_EEE9SelectKeyESJ_SL_E30advance_past_empty_and_deletedEv
$v:__ZN11UnityEngine9Animation27CreateAvatarBindingConstantER9TransformPKN7mecanim9animation14AvatarConstantERNS3_6memory9AllocatorE
xUi:_MonoTODOAttribute__ctor_m1298576268
Ozj:_MaskableGraphic_get_onCullStateChanged_m3331479633
KQh:__Z151RuntimeInvoker_RuntimeObject_Int32_t2950945753_RuntimeObject_ObjectU5BU5DU26_t712384779_RuntimeObject_RuntimeObject_RuntimeObject_ObjectU26_t2146539884PFvvEPK10MethodInfoPvPS4_
ZHf:__ZN8JSONRead19TransferSTLStyleMapINSt3__23mapIN4core12basic_stringIcNS3_20StringStorageDefaultIcEEEEN11UnityEngine9Analytics16LimitEventConfigENS1_4lessIS7_EE13stl_allocatorINS1_4pairIKS7_SA_EEL18MemLabelIdentifier6ELi16EEEEEEvRT_17TransferMetaFlags
rPc:__ZN9BlobWriteC2ER13dynamic_arrayIhLj16EE24TransferInstructionFlags19BuildTargetPlatform
JQg:__ZL81Physics_t2310948930_CustomAttributesCacheGenerator_Physics_RaycastAll_m2709753186P21CustomAttributesCache
DHg:__ZL77Input_t1431474628_CustomAttributesCacheGenerator_Input_GetAxisRaw_m2316819917P21CustomAttributesCache
Y9:__ZN14MessageHandler3GetEv
Shg:__ZL70ReliabilityContractAttribute_t502331440_CustomAttributesCacheGeneratorP21CustomAttributesCache
pyi:_InternalEnumerator_1__ctor_m1359891754_AdjustorThunk
sej:_SupportedRenderingFeatures_FallbackMixedLightingModeByRef_m3859171964
Qd:_emscripten_glAttachShader
Cqc:__Z16tesedgeIntersectP10TESSvertexS0_S0_S0_S0_
_3:__Z40DebugStringToFilePostprocessedStacktraceRK21DebugStringToFileData
s4g:__ZL77U3CPrivateImplementationDetailsU3E_t3057255366_CustomAttributesCacheGeneratorP21CustomAttributesCache
Sjl:_SendOrPostCallback_EndInvoke_m2485163446
rlc:__ZNSt3__26vectorIN4core12basic_stringIcNS1_20StringStorageDefaultIcEEEENS_9allocatorIS5_EEE6assignIPS5_EENS_9enable_ifIXaasr21__is_forward_iteratorIT_EE5valuesr16is_constructibleIS5_NS_15iterator_traitsISC_E9referenceEEE5valueEvE4typeESC_SC_
o_d:__ZN5physx2Gu19GetRaycastFuncTableEv
TJn:_UploadHandler_Dispose_m3057340132
a4i:_VertexShakeA_Start_m1684282329
EXa:__ZThn32_N8Renderer15AddAsRenderNodeER15RenderNodeQueueRK20DeprecatedSourceData
vVb:__ZN13dynamic_arrayIN18GlslGpuProgramGLES9GLProgramELj0EE6insertEPS1_jRKS1_
Eug:__ZL84Enumerable_t538148348_CustomAttributesCacheGenerator_Enumerable_ElementAt_m255591664P21CustomAttributesCache
Pmk:_Convert_ToString_m2142825503
Q9f:__ZL76String_t_CustomAttributesCacheGenerator_String_Concat_m1809518182____values0P21CustomAttributesCache
Usb:__Z18Transfer_BlittableI14SafeBinaryReadLb0E11QuaternionfEvRK29SerializationCommandArgumentsR31RuntimeSerializationCommandInfo
AGd:__ZN13BoxCollider2D16CheckConsistencyEv
s4e:__ZN5physx17EdgeChangeManager23cleanupBrokenEdgeEventsEPKNS_4EdgeE
qGb:__Z18Transfer_BlittableI18StreamedBinaryReadILb0EELb1E12PropertyNameEvRK29SerializationCommandArgumentsR31RuntimeSerializationCommandInfo
I3:_tlsf_walk_heap
zQh:__Z49RuntimeInvoker_Void_t1185182177_OpCode_t123070264PFvvEPK10MethodInfoPvPS4_
g3d:__ZN5physx2Sc35ParticleElementRbElementInteraction7destroyEbj
Ewo:__ZNK15dense_hashtableINSt3__24pairIK10KeyWrapperIP11Il2CppClassES4_EES5_N6il2cpp8metadata16SZArrayClassHashEN14dense_hash_mapIS5_S4_SA_NS5_14EqualsComparerINS9_19SZArrayClassCompareEEENS0_9allocatorIS7_EEE9SelectKeyESE_SG_E10test_emptyERK24dense_hashtable_iteratorIS7_S5_SA_SI_SE_SG_E
Cjo:__ZN6il2cpp2vm7Runtime6InvokeEPK10MethodInfoPvPS5_PP15Il2CppException
WZh:__Z69RuntimeInvoker_Void_t1185182177_Int32_t2950945753_HitInfo_t3229609740PFvvEPK10MethodInfoPvPS4_
oMg:__ZL59AnimatorClipInfo_t3156717155_CustomAttributesCacheGeneratorP21CustomAttributesCache
tnk:_Convert_ToUInt32_m3592050311
Ab:invoke_vif
uzk:_Component_GetComponents_TisRuntimeObject_m2416546752_gshared
Bb:invoke_vid
$Gi:_InternalEnumerator_1__ctor_m2202456613_AdjustorThunk
Wzf:__Z38Register_UnityEngine_TextMesh_get_fontv
Db:invoke_vii
X0b:__ZNK12ImageFilters8DoRenderER17ShaderPassContextP13RenderTextureS3_RKNSt3__26vectorI11ImageFilterNS4_9allocatorIS6_EEEE
lJe:__ZN5physx13NpVolumeCacheD2Ev
g7f:_TMP_Text_SetVertexColorGradient_m1499765483
Iwa:__ZN12TLSAllocatorI14StackAllocatorE16ThreadInitializeEP13BaseAllocator
ZRh:__Z82RuntimeInvoker_Boolean_t97287965_SByte_t1669577662_RuntimeObject_SByte_t1669577662PFvvEPK10MethodInfoPvPS4_
vWi:_IPEndPoint_Serialize_m504081642
Flb:__ZN9GfxDevice32UpdateStereoViewProjectionMatrixE21MonoOrStereoscopicEye
J$l:_List_1_GetEnumerator_m668609203_gshared
n1e:__ZThn8_N5physx2Sc35ParticleElementRbElementInteraction12onDeactivateEj
I0:__Z29GetCloudWebServicesModuleSpecv
NEf:__Z41CanvasRenderer_CUSTOM_DisableRectClippingP12Il2CppObject
Bcm:_Dictionary_2__ctor_m1324730059_gshared
Z5j:_MonoType_GetConstructorImpl_m441167626
G4o:_U3CStartU3Ec__Iterator0_Reset_m816692654
eTe:__ZN5physx16PxsThreadContextC2EPNS_10PxsContextE
vma:__ZL45__ManagedRegistrationHelperFunction_CoroutinePv
hMf:__ZNSt3__26__treeINS_12__value_typeIN4core12basic_stringIcNS2_20StringStorageDefaultIcEEEE14CallbackArray3IRKS6_R8JSONReadbEEENS_19__map_value_compareIS6_SD_NS_4lessIS6_EELb1EEE13stl_allocatorISD_L18MemLabelIdentifier6ELi16EEE4findIS6_EENS_15__tree_iteratorISD_PNS_11__tree_nodeISD_PvEEiEERKT_
Qen:_Collection_1_IsFixedSize_m3709118201_gshared
Sjb:__ZN25SingleBlockMemoryFileDataD0Ev
ZL:__ZNSt3__26vectorI14ConstantStringNS_9allocatorIS1_EEE6assignINS_11__wrap_iterIPS1_EEEENS_9enable_ifIXaasr21__is_forward_iteratorIT_EE5valuesr16is_constructibleIS1_NS_15iterator_traitsISA_E9referenceEEE5valueEvE4typeESA_SA_
CVm:_ReadOnlyCollection_1_CopyTo_m586367390_gshared
pWd:__ZN5physx3Cct10Controller4moveERNS0_11SweptVolumeERKNS_6PxVec3EffRKNS_19PxControllerFiltersEPKNS_17PxObstacleContextEb
l_:__ZN11UnityEngine15CloudWebService16SessionContainer21ConvertFromFolderTimeERKN4core12basic_stringIcNS2_20StringStorageDefaultIcEEEEPjPt
Xdh:_TextContainer_OnDisable_m1100107207
Wab:__Z15UnloadGameScenev
Eub:__ZNSt3__26vectorI8GUIStyle13stl_allocatorIS1_L18MemLabelIdentifier1ELi16EEE7reserveEj
jPm:_ReadOnlyCollection_1_Contains_m3869904379_gshared
Exo:__ZN6il2cpp6icalls8mscorlib6System9Threading6Thread27GetSerializedCurrentCultureEP12Il2CppThread
WNj:__ZN21InterfaceFuncInvoker2IibbE6InvokeEjP11Il2CppClassP12Il2CppObjectbb
p_j:_Context_set_ReadSequenceNumber_m2154909392
tpn:_RijndaelTransform_SubByte_m3037693507
uom:_Array_InternalArray__ICollection_Add_TisTMP_LinkInfo_t1092083476_m2596765647_gshared
yCc:__Z31CalculateHierarchyTransformType23TransformAccessReadOnly
sP:__ZN4FMOD8ChannelI11setPositionEjj
zfj:_Input_INTERNAL_CALL_GetTouch_m3481893561
nDd:__ZN10Collider2D12SetPolygon2DEP9Polygon2D
Mze:__ZN5physx15NpActorTemplateINS_14PxRigidDynamicEE17setDominanceGroupEh
JOo:_GC_set_fl_marks
S9d:__ZN5physx6shdfnd8PoolBaseINS_2Sc12SimStateDataENS0_19ReflectionAllocatorIS3_EEE17releaseEmptySlabsEv
Quh:_Image__ctor_m2551076292
Ilb:__ZN9GfxDevice17SetStereoViewportE15StereoscopicEyeRK5RectTIiE
YAn:_Tree_DistanceCode_m3077210417
Wha:__ZN17BaseObjectManager13StaticDestroyEPv
Hfm:_DefaultComparer_GetHashCode_m1018059730_gshared
B2:__GLOBAL__sub_I_Runtime_Graphics_Mesh_1_cpp
och:_KerningTable_RemoveKerningPair_m3737762598
xEh:_ClassInterfaceAttribute__ctor_m637338123
Pzd:__ZN27b2UpdateTriggerContactsTask8FinalizeEv
QQd:__ZN5physx2Gu22closestPtPointTriangleEPNS_6shdfnd3aos5Vec3VES4_S4_Rj
aV:__ZN12AudioManager14UpdateListenerERK8Vector3fS2_S2_S2_
Yag:__ZL70RuntimeArray_CustomAttributesCacheGenerator_Array_get_Rank_m3448755881P21CustomAttributesCache
Pje:__ZN5physx2Cm8PtrTableC2Ev
F2k:_FileSystemInfo_get_FullName_m3468398407
WPn:_Vector3_get_forward_m3100859705
uN:__ZN4FMOD6Reverb13setPropertiesEPK22FMOD_REVERB_PROPERTIES
xve:__ZNK5physx22NpParticleBaseTemplateINS_15PxParticleFluidENS_15NpParticleFluidEE14getRestitutionEv
J2b:__ZN9DepthPass13PrepareSubsetEjRK10RenderNodeifRK17ShaderReplaceData
oWe:__ZN5physx16PxsBroadPhaseMBP6updateEjjRKNS_23PxcBroadPhaseUpdateDataEPNS_10PxBaseTaskE
Dne:__ZN5physx9NpPhysics18createRigidDynamicERKNS_11PxTransformE
G4d:__ZN5physx6shdfnd5ArrayIPvNS0_19ReflectionAllocatorINS_2Sc18TriggerInteractionEEEE15growAndPushBackERKS2_
F5f:_TMP_Text_get_isOrthographic_m424304365
hkc:__ZN9ShaderLab20SerializedSubProgram16TextureParameter8TransferI14SafeBinaryReadEEvRT_
ILh:__Z82RuntimeInvoker_Int32_t2950945753_RuntimeObject_Int32_t2950945753_Int32_t2950945753PFvvEPK10MethodInfoPvPS4_
VTj:_ASN1__ctor_m3517592395
rtf:_otv_BaseCoord_validate
jMc:__Z35SetMeshComponentFromArrayFromScriptR4Mesh30InternalScriptingShaderChannel34InternalScriptingVertexChannelTypei17ScriptingArrayPtri
Otc:__Z18ExtractTagThrowingR11ICallString
lIa:__ZN4PPtrI6ShaderE8TransferI19StreamedBinaryWriteILb0EEEEvRT_
ZRj:_Array_InternalArray__ICollection_Add_TisCustomAttributeNamedArgument_t287865710_m4157175270_gshared
Zfh:_TextMeshProUGUI_UpdateFontAsset_m4196244475
rTd:__ZN5physx2Gu17intersectRayAABB2ERKNS_6shdfnd3aos5Vec3VES5_S5_S5_RKNS2_6FloatVERS6_S9_
os:__ZN4core20StringStorageDefaultIcE6assignEPKcj
Iql:_UInt64_System_IConvertible_ToUInt64_m2135047981_AdjustorThunk
Tcn:_Collection_1_System_Collections_IEnumerable_GetEnumerator_m1376351129_gshared
Hoe:__ZNK5physx7NpShape17getSphereGeometryERNS_16PxSphereGeometryE
hTj:_BigInteger_ModPow_m3776562770
v7g:__ZL85Scoreboard_t4002975821_CustomAttributesCacheGenerator_Scoreboard_get_Score_m459727822P21CustomAttributesCache
WZd:__ZL18intersectAnyVsMeshILi1EEbPKN5physx2Gu6SphereEPKNS1_7CapsuleEPKNS1_3BoxERKNS1_13RTreeMidphaseERKNS0_11PxTransformERKNS0_11PxMeshScaleEP14LimitedResults
S5f:_TMP_Text_set_renderMode_m3516136471
iMf:__ZNSt3__26__treeINS_12__value_typeIN4core12basic_stringIcNS2_20StringStorageDefaultIcEEEE14CallbackArray3IRKS6_R8JSONReadbEEENS_19__map_value_compareIS6_SD_NS_4lessIS6_EELb1EEE13stl_allocatorISD_L18MemLabelIdentifier6ELi16EEE25__emplace_unique_key_argsIS6_JNS_4pairIS6_SC_EEEEENSN_INS_15__tree_iteratorISD_PNS_11__tree_nodeISD_PvEEiEEbEERKT_DpOT0_
Ecj:_ArgumentCache_get_unityObjectArgumentAssemblyTypeName_m3450114170
YEc:__ZN15SharedLightDataC2E10MemLabelId
nNk:_ArrayList_IndexOf_m305368842
W6m:_List_1_Add_m2996644200_gshared
_7d:__ZN5physx6shdfnd5ArrayIPvNS0_15InlineAllocatorILj256ENS0_19ReflectionAllocatorINS_2Cm5BlockIhLj128EEEEEEEE15growAndPushBackERKS2_
Jcc:__ZN6Camera6SetFarEf
fpi:_FormatterConverter_ToBoolean_m1680758923
gdp:dynCall_viiiiiiii
HYo:_U3CSpawnEnemyType2WaveU3Ec__Iterator7_Reset_m444857884
LJj:_Array_InternalArray__ICollection_Remove_TisKeyValuePair_2_t1383673463_m2503620538_gshared
gla:__ZN6prcoreL12RemapGenericI17TexFormatABGR888817TexFormatARGB8888EEvPKNS_9InnerInfoE
fxa:__ZN11GameManager17MainThreadCleanupEv
Khk:_Stack_get_Count_m2258661097
Vfd:__Z25UpdateOrbitalAndRadialTplIL27ParticleSystemCurveEvalMode1ELS0_4ELS0_2EEvRK11MinMaxCurveS3_S3_S3_S3_S3_S3_R23ParticleSystemParticlesjjRKN4math8float3x3ERKNS6_7affineXERKNS6_7_float4E
uEf:__Z50Register_UnityEngine_UISystemProfilerApi_EndSamplev
Vam:_Dictionary_2_System_Collections_ICollection_get_SyncRoot_m2020472285_gshared
M9o:__ZNKSt3__212basic_stringIcNS_11char_traitsIcEENS_9allocatorIcEEE4findEcj
y_f:_TMP_InputField_PageDownCharacterPosition_m1882261777
BJl:__ZN23GenericVirtFuncInvoker2I25KeyValuePair_2_t727985506ixE6InvokeEPK10MethodInfoP12Il2CppObjectix
aMi:_InternalEnumerator_1_System_Collections_IEnumerator_Reset_m1775752715_AdjustorThunk
K1n:_Physics2D_Raycast_m2082490717
Awg:__ZL91Application_t1852185770_CustomAttributesCacheGenerator_Application_get_isPlaying_m100394690P21CustomAttributesCache
gfm:_DefaultComparer_GetHashCode_m1852619184_gshared
OGh:_ConfigHandler_OnProcessingInstruction_m4212209262
hDd:__ZN10Collider2D12AddToManagerEv
Rad:__ZN14ParticleSystem10ResetSeedsEv
hqi:_SerializationCallbacks_GetSerializationCallbacks_m2939476649
ire:__ZNK5physx7NpCloth24getParticleAccelerationsEPNS_6PxVec4E
Gqb:__ZNSt3__26vectorIN20GpuProgramParameters19AtomicCounterBufferENS_9allocatorIS2_EEE21__push_back_slow_pathIRKS2_EEvOT_
dwf:_UNITY_tt_slot_init
r_b:__ZZ23InitPlayerLoopCallbacksvEN41PostLateUpdateUpdateResolutionRegistrator7ForwardEv
DGl:_KeyCollection_GetEnumerator_m1168803204_gshared
fIb:__Z25scripting_array_class_get17ScriptingClassPtrj
zye:__ZN5physx22NpParticleBaseTemplateINS_16PxParticleSystemENS_16NpParticleSystemEE20lockParticleReadDataEv
VT:__ZNK10SampleClip22GetTypeVirtualInternalEv
Amb:__ZN9GfxDevice20DestroyRenderSurfaceER12ObjectHandleI17RenderSurface_TagP17RenderSurfaceBaseE
Hhk:_Stack__ctor_m2602729586
VKh:__Z77RuntimeInvoker_Byte_t1134296376_RuntimeObject_Int32_t2950945753_RuntimeObjectPFvvEPK10MethodInfoPvPS4_
ixc:__Z35Resources_CUSTOM_GetBuiltinResourceP12Il2CppObjectP12Il2CppString
OYk:_Int32_System_IConvertible_ToInt32_m265310525_AdjustorThunk
DIk:_Array_slow_swapper_m4116724811
Bbc:__ZN12_GLOBAL__N_15qAsinEff
hcj:_Display__ctor_m3105658851
Mfk:_HashValues_get_IsSynchronized_m3461082747
xCi:_InternalEnumerator_1_System_Collections_IEnumerator_get_Current_m2629988057_AdjustorThunk
Jwa:__ZN12TLSAllocatorI14StackAllocatorE13ThreadCleanupEv
Drj:_SystemInfo_GetOperatingSystem_m2857477099
z0a:__ZN14SafeBinaryRead21TransferSTLStyleArrayI13dynamic_arrayI8Vector4fLj0EEEEvRT_17TransferMetaFlags
CP:__Z18GetAudioManagerPtrv
Brl:_ValueType_InternalEquals_m1384040357
uZj:_Context_get_HandshakeMessages_m3655705111
lMo:__ZThn4_N6il2cpp2vm13ComObjectBase16MarshalInterfaceEP13Il2CppIStreamRK10Il2CppGuidPvjS7_j
Mhi:__Z74RuntimeInvoker_DictionaryEntry_t3123975638_RuntimeObject_SByte_t1669577662PFvvEPK10MethodInfoPvPS4_
Zhc:__Z27FindActiveTransformWithPathPKc
X5l:_List_1_System_Collections_IEnumerable_GetEnumerator_m3790284976_gshared
FSm:_ReadOnlyCollection_1_System_Collections_IList_Remove_m4169110229_gshared
gpl:_UInt16_ToString_m3020002356
ZEe:__ZN5physx16PxsIslandManager14setEdgeRigidCMERKNS_20PxsIslandManagerHookIjLj4294967295EEEPNS_17PxsContactManagerE
Qyj:_LayoutRebuilder_LayoutComplete_m68578143
n6n:_RequiredByNativeCodeAttribute__ctor_m119855101
wza:__ZN12BaseRendererD0Ev
Egc:__Z29StdTemplateConversionFunctionIbyEbPvR14SafeBinaryRead
ppn:_RijndaelManaged_GenerateKey_m1736287430
f9g:__ZL143U3CStartU3Ec__Iterator0_t3341539328_CustomAttributesCacheGenerator_U3CStartU3Ec__Iterator0_System_Collections_IEnumerator_get_Current_m22834162P21CustomAttributesCache
Vce:__ZN5physx14NpArticulation25setStabilizationThresholdEf
GQn:_WaitForSeconds_t1699091251_marshal_pinvoke
wTg:__ZL90PointerEventData_t3807901092_CustomAttributesCacheGenerator_U3ClastPressU3Ek__BackingFieldP21CustomAttributesCache
R5k:_SHA1Internal_Initialize_m499810128
N8e:__ZN5physx2Gu11HeightField7releaseEv
Q4b:__ZNK6Camera7GetNearEv
eek:_GenericTypeParameterBuilder_GetConstructorImpl_m863833310
AEl:_Enumerator_get_Current_m3687673883_AdjustorThunk
bDf:__ZN2UI13CanvasManager8SortListEv
cVb:__ZN7ApiGLES11UnmapBufferEjN2gl12BufferTargetE
CMo:__ZN6il2cpp5utilsL24Utf32CharToSurrogatePairEjRA2_Ds
sUa:__Z25GetNextAllowedTextureSizeib13TextureFormat
YKb:__ZN20LocalFileSystemWebGL4CopyER13FileEntryDataS1_
r1:__ZN19CloudServiceHandler6RetainEv
RXo:_GameController_SpawnPowerUpWaves_m3905404505
MUo:__ZN6il2cpp2os9Semaphore4WaitEb
Ttd:__ZN15b2FrictionJointD0Ev
TNm:_ReadOnlyCollection_1_System_Collections_IList_IndexOf_m198887188_gshared
PBk:_Component_GetComponent_TisRuntimeObject_m2906321015_gshared
$Vc:__Z36Event_CUSTOM_Internal_SetNativeEventPv
Thl:_UTF32Encoding_GetBytes_m3180303867
d7m:_List_1_CopyTo_m4034402519_gshared
Q0e:__ZN5physx2Sc8ClothSim23addCollisionHeightfieldEPKNS0_8ShapeSimE
YNj:__ZN21InterfaceFuncInvoker2IihhE6InvokeEjP11Il2CppClassP12Il2CppObjecthh
W7l:_List_1_System_Collections_IList_Add_m1651178974_gshared
_cb:__Z34scripting_liveness_calculation_endPv
zLk:_Char_GetDataTablePointers_m754571594
TIo:__ZN6il2cpp2os6ThreadC2Ev
pxi:_U3CGetEnumeratorU3Ec__Iterator0_System_Collections_Generic_IEnumeratorU3CTU3E_get_Current_m1566629109_gshared
FEl:_KeyCollection_System_Collections_Generic_ICollectionU3CTKeyU3E_Remove_m4129843823_gshared
wFc:__ZN28ReflectionProbeAnchorManager7CleanupEv
H2m:_List_1_set_Capacity_m725662605_gshared
brk:_DateTimeOffset_get_UtcDateTime_m1021718282_AdjustorThunk
Fla:__ZN16memory_pool_implILi64EE15AutoPoolWrapper12UninitializeEPv
OCn:_ZlibBaseStream_Close_m3571334171
By:__ZN21AnimationClipPlayable22ProcessAnimationNoClipEPK35AnimationPlayableEvaluationConstantPK32AnimationPlayableEvaluationInputP33AnimationPlayableEvaluationOutput
SGo:__ZNK6il2cpp2os10SocketImpl12GetLastErrorEv
KSi:_HybridDictionary_get_Count_m1166314536
sAn:_CRC32_get_Crc32Result_m2869070385
pln:_TlsStream_Write_m1412844442
q1c:__Z18Transfer_BlittableI8JSONReadLb0E8Vector3fEvRK29SerializationCommandArgumentsR31RuntimeSerializationCommandInfo
dLg:__ZL84TextMesh_t1536577757_CustomAttributesCacheGenerator_TextMesh_set_fontSize_m147394684P21CustomAttributesCache
Chj:_Matrix4x4__ctor_m53065545_AdjustorThunk
quo:__ZN6il2cpp2vm6Thread6DetachEP12Il2CppThread
Sln:_GeneralNames_get_DNSNames_m3788548987
n5l:_List_1_AddCollection_m2026039026_gshared
Xyf:_Render_Single_Pass
R4o:_Benchmark03__ctor_m2259752292
zge:__ZNK5physx18NpArticulationLink13isSubordinateEv
pLj:_SetPropertyUtility_SetStruct_TisContentType_t1128941285_m1600165170_gshared
R8h:__Z58RuntimeInvoker_Boolean_t97287965_KeyValuePair_2_t625878672PFvvEPK10MethodInfoPvPS4_
Xqi:_SerializationEntry_t648286436_marshal_pinvoke
Oma:__ZL56__ManagedRegistrationHelperFunction_TextureMixerPlayablePv
nw:__ZN7mecanim8skeleton30SkeletonBuildReverseIndexArrayEPiPKiPKNS0_8SkeletonES6_
whd:__Z22UpdateOrbitalOffsetTplIL27ParticleSystemCurveEvalMode0ELS0_0EEvRK11MinMaxCurveS3_S3_S3_S3_S3_S3_R23ParticleSystemParticlesjjRKN4math8float3x3ERKNS6_7affineXERKNS6_7_float4E
wWc:__Z19GetGUIBlendMaterialv
Qgm:_DefaultComparer_GetHashCode_m177499767_gshared
B4j:_Math_Round_m3018379666
VSh:__Z41RuntimeInvoker_Boolean_t97287965_IntPtr_tPFvvEPK10MethodInfoPvPS4_
IJo:__ZN6il2cpp2os10ThreadImpl5SleepEjb
JPi:_Comparer_1__cctor_m269133611_gshared
IQc:__Z53Register_UnityEngine_Quaternion_LookRotation_Injectedv
CVe:__ZN5physx14SapPairManager12shrinkMemoryEv
oBn:_DeflateManager_Initialize_m2148547130
ZMf:__ZN22BaseUnityConnectClient12IsNewSessionEv
GNg:__ZL82LayoutCache_t78309876_CustomAttributesCacheGenerator_LayoutCache__ctor_m3885940174P21CustomAttributesCache
$Bh:__ZN28GenericInterfaceFuncInvoker0IP12Il2CppObjectE6InvokeEPK10MethodInfoS1_
Ycf:__ZN5physx6shdfnd8internal7median3IjKNS_19SortBoundsPredicateEEEvPT_iiRT0_
xLj:_PlayableHandle_IsPlayableOfType_TisRuntimeObject_m503495943_AdjustorThunk
UUn:__ZL25UnresolvedVirtualCall_213P12Il2CppObject20UIVertex_t4057497605S1_PK10MethodInfo
iip:_glBindSampler__wrapper
zZb:__ZNSt3__26vectorIN20ArchiveStorageHeader12StorageBlockE13stl_allocatorIS2_L18MemLabelIdentifier55ELi16EEE8__appendEj
xg:_emscripten_set_mouseup_callback
Uic:__Z14resize_trimmedINSt3__26vectorIN9ShaderLab14SerializedPassENS0_9allocatorIS3_EEEEEvRT_j
shj:_Mathf_Clamp_m3350697880
rob:__ZN9GfxDevice27SetRandomWriteTargetTextureEi9TextureID
Hdm:_Dictionary_2_System_Collections_Generic_ICollectionU3CSystem_Collections_Generic_KeyValuePairU3CTKeyU2CTValueU3EU3E_Contains_m3033743418_gshared
kSh:__Z165RuntimeInvoker_Void_t1185182177_UInt32U26_t3735378166_Int32_t2950945753_UInt32U26_t3735378166_Int32_t2950945753_Int32_t2950945753_Int32_t2950945753_Int32_t2950945753PFvvEPK10MethodInfoPvPS4_
d5l:_List_1_System_Collections_IList_Remove_m3140917266_gshared
Dfl:_Encoding_get_DecoderFallback_m1525880676
$jg:__ZL59ITrackingHandler_t1244553475_CustomAttributesCacheGeneratorP21CustomAttributesCache
Y4h:__Z73RuntimeInvoker_Color32_t2600501292_Color32_t2600501292_Single_t1397266774PFvvEPK10MethodInfoPvPS4_
uui:_DSASignatureDeformatter__ctor_m2759753186
LHe:__ZN5physx7NpScene22removeBroadPhaseRegionEj
Z4d:__ZL34GeomOverlapCallback_CapsuleCapsuleRKN5physx10PxGeometryERKNS_11PxTransformES2_S5_PNS_2Gu12TriggerCacheE
HGm:_Collection_1_System_Collections_IEnumerable_GetEnumerator_m801406918_gshared
RKb:__ZNK18ScreenManagerWebGL8GetWidthEv
TGe:__ZNK5physx7NpScene23getFilterShaderDataSizeEv
iIl:_Transform_1_Invoke_m1211838035_gshared
Rll:_TimeSpan_get_TotalHours_m306507525_AdjustorThunk
ST:__ZN10SampleClipD2Ev
zek:_GenericTypeParameterBuilder_get_AssemblyQualifiedName_m2323022482
Pqn:_Predicate_1_Invoke_m2389850270_gshared
l9g:__ZL129U3CRevealCharactersU3Ec__Iterator0_t860191687_CustomAttributesCacheGenerator_U3CRevealCharactersU3Ec__Iterator0__ctor_m4163835966P21CustomAttributesCache
Z3j:_UnmanagedMemoryStream_get_CanSeek_m2636857629
nIg:__ZL90PlayerPrefs_t3518992213_CustomAttributesCacheGenerator_PlayerPrefs_TrySetFloat_m2507302512P21CustomAttributesCache
scb:__Z13GetGISettingsv
Kqc:__ZN19SpriteMeshGenerator7contourERNSt3__26vectorINS_6vertexENS0_9allocatorIS2_EEEERiRf
b1:__ZN11UnityEngine15CloudWebService20WebRequestRestClientC2Ev
Erf:_cff_cmap_unicode_init
Bzf:__Z31Font_CUSTOM_Internal_CreateFontP12Il2CppObjectP12Il2CppString
bma:__ZL60__ManagedRegistrationHelperFunction_AssemblyIsEditorAssemblyPv
Tba:__ZN14FileCacherRead13GetFileLengthEv
own:_UnityAction_1_EndInvoke_m542551745_gshared
tdn:_Collection_1_IsValidItem_m3080586124_gshared
YLg:__ZL64DownloadHandler_t2937767557_CustomAttributesCacheGenerator_m_PtrP21CustomAttributesCache
prh:_DropdownItem_set_text_m3702712387
zoh:_ClipperRegistry_Register_m2407166513
l8o:_readlink
foo:__ZN15dense_hashtableINSt3__24pairIK10KeyWrapperINS1_IPK9EventInfoP11Il2CppClassEEEjEES9_17ReflectionMapHashIS8_EN14dense_hash_mapIS9_jSD_NS9_14EqualsComparerINS0_8equal_toIS8_EEEENS0_9allocatorISB_EEE9SelectKeyESI_SK_E12resize_deltaEjj
Pzh:_MonoCMethod_Invoke_m2700167622
Rfk:_KeyMarker__cctor_m2590194914
tcd:__ZN14ParticleSystem38UpdateModulesPostSimulationIncrementalER24ParticleSystemUpdateDataR23ParticleSystemParticlesjRKf
USo:__ZN6il2cpp8metadata14Il2CppTypeHash4HashEPK10Il2CppType
XTo:__ZN6il2cpp2os13SemaphoreImplC2Eii
S0l:_List_1_Sort_m2867357390_gshared
U3l:_List_1_get_Item_m3345800295_gshared
Omk:_Convert_ToString_m1282703378
PEd:__ZNSt3__26vectorIN10ClipperLib8IntPointENS_9allocatorIS2_EEE21__push_back_slow_pathIS2_EEvOT_
t2a:__ZNK6Sprite9GetBoundsE8Vector2fbb
LBa:__ZNK19RenderEventsContext21CleanupCommandBuffersEv
w$n:_TextGenerator_PopulateWithErrors_m1222498386
aAl:_Enumerator_get_Current_m465000956_AdjustorThunk
b6l:_List_1_System_Collections_Generic_ICollectionU3CTU3E_get_IsReadOnly_m507350231_gshared
DSb:__ZN11ContextGLES6CreateEi
wZd:__ZN5physx6shdfnd5ArrayINS_10PxTriangleENS0_19ReflectionAllocatorIS2_EEE15growAndPushBackERKS2_
q0n:_WillRenderCanvases_BeginInvoke_m1804779886
ipj:_RectTransform_INTERNAL_set_anchoredPosition_m939517950
Ham:_List_1_set_Capacity_m3382070520_gshared
oxj:_U3CMouseDragOutsideRectU3Ec__Iterator1_Dispose_m267465418
Dsk:_Decimal_CompareTo_m3502307243_AdjustorThunk
fHb:__Z19TransferField_ArrayI18StreamedBinaryReadILb0EE27Converter_SimpleNativeClassI17AnimationCurveTplIfEEEvRK23StaticTransferFieldInfoR31RuntimeSerializationCommandInfoRT0_
bxa:__ZN14StackAllocator16FrameMaintenanceEb
ZYd:__ZL11SweepBoxBoxPKN5physx3Cct9SweepTestEPKNS0_11SweptVolumeEPKNS0_11TouchedGeomERKNS_14PxExtendedVec3ERKNS_6PxVec3ERNS0_12SweptContactE
XWa:__Z18ReadStringFromFilePN4core17string_with_labelILi1EEERKNS_12basic_stringIcNS_20StringStorageDefaultIcEEEE
j0c:__ZN9JSONWrite8TransferI13dynamic_arrayIjLj0EEEEvRT_PKc17TransferMetaFlags
Bca:__ZNK10GameObject20QueryComponentByTypeEPKN5Unity4TypeE
Wrk:_Decimal_System_IConvertible_ToInt32_m1488426794_AdjustorThunk
l0g:__ZL66TMP_Dropdown_t3024694699_CustomAttributesCacheGenerator_m_ItemTextP21CustomAttributesCache
d5j:_MonoCustomAttrs_IsUserCattrProvider_m2878058089
Irj:_TextAsset_ToString_m2170047097
PWg:__ZL71InputField_t3762917431_CustomAttributesCacheGenerator_m_HideMobileInputP21CustomAttributesCache
JKn:_UploadHandler_Finalize_m3322774190
bTa:__ZN11TextureData5ResetEv
nuc:__Z53Register_UnityEngine_GameObject_get_activeInHierarchyv
r7k:_ToBase64Transform_InternalTransformFinalBlock_m360524956
OFk:_ActivationContext_Dispose_m2038725770
kXn:__ZL25UnresolvedVirtualCall_339P12Il2CppObjecti19Vector2_t2156229523PK10MethodInfo
ywb:__Z35Transfer_Blittable_FixedBufferFieldI17RemapPPtrTransferiEvRK29SerializationCommandArgumentsR31RuntimeSerializationCommandInfo
H7:__ZL30InitializeCoreScriptingClassesv
pTm:_ReadOnlyCollection_1_Contains_m1699971074_gshared
gIa:__ZN15SerializeTraitsI12fixed_bitsetILi28EjEE8TransferI18StreamedBinaryReadILb0EEEEvRS1_RT_
uh:_glBlitFramebuffer
zib:__ZN17ArchiveFileSystem5TouchER13FileEntryData
xPe:__ZN5physx2Sq10AABBPrunerC2Eb
emo:__ZN6il2cpp2vm10Reflection15GetMethodObjectEPK10MethodInfoP11Il2CppClass
KGl:_KeyCollection_System_Collections_Generic_IEnumerableU3CTKeyU3E_GetEnumerator_m818204647_gshared
twb:__Z35Transfer_Blittable_SingleValueFieldI14SafeBinaryReadhEvRT_R17GeneralMonoObjectRK23StaticTransferFieldInfo
pOc:__ZN4core8hash_setINS_4pairIKy9PlaneDataLb0EEENS_9hash_pairIN32PlaneColliderCache_dense_hashmap17UInt64HashFunctorES2_S3_EENS_10equal_pairINSt3__28equal_toIyEES2_S3_EEE4growEv
LTg:__ZL97PointerEventData_t3807901092_CustomAttributesCacheGenerator_U3CuseDragThresholdU3Ek__BackingFieldP21CustomAttributesCache
mve:__ZN5physx22NpParticleBaseTemplateINS_15PxParticleFluidENS_15NpParticleFluidEE13setVelocitiesEjRKNS_16PxStrideIteratorIKjEERKNS4_IKNS_6PxVec3EEE
DFf:__Z47Register_UnityEngine_CanvasRenderer_GetMaterialv
qOc:__ZN4core8hash_setINS_4pairIKy9PlaneDataLb0EEENS_9hash_pairIN32PlaneColliderCache_dense_hashmap17UInt64HashFunctorES2_S3_EENS_10equal_pairINSt3__28equal_toIyEES2_S3_EEE4growEi
$7c:__ZN24GenerateTypeTreeTransfer8TransferI13dynamic_arrayIN8UVModule10SpriteDataELj0EEEEvRT_PKc17TransferMetaFlags
tpm:_Array_InternalArray__ICollection_CopyTo_TisInt64_t3736567304_m2845057751_gshared
jTa:__ZNK12CubemapArray22GetTypeVirtualInternalEv
RRb:__ZN13GfxDeviceGLES25SetStereoConstantPlatformEijRK10Matrix4x4f
x9m:_Collection_1_System_Collections_IList_Add_m842425514_gshared
Xo:FUNCTION_TABLE_vif
Yo:FUNCTION_TABLE_vid
Byk:_Dictionary_2_Do_CopyTo_TisInt32_t2950945753_TisRuntimeObject_m213146570_gshared
_o:FUNCTION_TABLE_vii
jdb:__Z40scripting_liveness_calculation_from_root18ScriptingObjectPtrPv
MVg:__ZL67OptionDataList_t1438173104_CustomAttributesCacheGenerator_m_OptionsP21CustomAttributesCache
NLg:__ZL102UnityWebRequest_t463507806_CustomAttributesCacheGenerator_UnityWebRequest_get_isModifiable_m4181352937P21CustomAttributesCache
Qjd:__ZN13InitialModuleD2Ev
Kbm:_Dictionary_2_System_Collections_IDictionary_get_Item_m2163779460_gshared
njg:__ZL65IContributeDynamicSink_t2255997386_CustomAttributesCacheGeneratorP21CustomAttributesCache
CNa:__ZN7Texture23VirtualRedirectTransferER24GenerateTypeTreeTransfer
zmf:_UNITY_FT_Set_Transform
JGc:__ZNK32RendererMaterialAnimationBinding12SetPPtrValueERKN11UnityEngine9Animation10BoundCurveEi
L1a:__ZN14SpriteRenderer16CheckConsistencyEv
Nhp:_glDeleteFramebuffers__wrapper
Yan:_Collection_1_System_Collections_IList_get_IsFixedSize_m2620019318_gshared
GOh:__Z220RuntimeInvoker_Boolean_t97287965_RuntimeObject_Int32U26_t1369213839_Int32_t2950945753_Int32_t2950945753_Int32_t2950945753_RuntimeObject_SByte_t1669577662_Int32_t2950945753_ContractionU26_t961830454_ContextU26_t3937453398PFvvEPK10MethodInfoPvPS4_
nCg:__ZL73Rect_t2360479859_CustomAttributesCacheGenerator_Rect_get_zero_m4034156123P21CustomAttributesCache
gUe:__ZN5physx37solveFrictionCoulombPreBlock_ConcludeEPKNS_23PxcSolverConstraintDescEjRNS_16PxcSolverContextE
Teg:__ZL78TextInfo_t3810425522_CustomAttributesCacheGenerator_TextInfo_Clone_m3838580862P21CustomAttributesCache
Opf:_cff_blend_build_vector
QUf:_TMP_DefaultControls_CreateScrollbar_m4251525859
jGi:_InternalEnumerator_1_MoveNext_m1015797184_gshared
Pze:__ZNK5physx15NpActorTemplateINS_14PxRigidDynamicEE14getOwnerClientEv
cRh:__Z91RuntimeInvoker_Void_t1185182177_RuntimeObject_RuntimeObject_RuntimeObject_Int32_t2950945753PFvvEPK10MethodInfoPvPS4_
XBh:_GetterAdapter_Invoke_m3767885970
Lbm:_Dictionary_2_System_Collections_IDictionary_set_Item_m977858099_gshared
Eon:_X509Extension_get_Oid_m4107042796
EGj:_SpriteState_set_pressedSprite_m3368686500_AdjustorThunk
RTn:__ZL25UnresolvedVirtualCall_156P12Il2CppObject17Color_t2555686324faaPK10MethodInfo
Mdl:_String_CreateString_m2818852475
IXl:_Enumerator_get_Current_m335492761_AdjustorThunk
GHc:__Z22GenerateBoxTilingShapeP22GenerateTilingAreaInfo
ZYa:__ZN28EnlightenRendererInformation8TransferI14SafeBinaryReadEEvRT_
$0n:_CanvasRenderer_get_hasMoved_m2236392341
tke:__ZN5physx12NpBatchQuery13getUserMemoryEv
Tjj:_MessageEvent__ctor_m1231650089
jfb:__ZNK15Lz4Decompressor16DecompressMemoryEPKvPjPvS2_
yuf:_UNITY_tt_face_build_cmaps
M4j:_MemberAccessException__ctor_m3713703094
kzh:_MethodBase_get_ContainsGenericParameters_m2144492325
Sfg:__ZL117GenericTypeParameterBuilder_t1988827940_CustomAttributesCacheGenerator_GenericTypeParameterBuilder_Equals_m3260957994P21CustomAttributesCache
Joc:__ZN4core8hash_mapINS_12basic_stringIcNS_20StringStorageDefaultIcEEEE10vector_setI4PPtrI11SpriteAtlasENSt3__24lessIS8_EE13stl_allocatorIS8_L18MemLabelIdentifier81ELi16EEENS_4hashIS4_EENS9_8equal_toIS4_EEEixERKS4_
NHd:__ZN11Rigidbody2D8TransferI24GenerateTypeTreeTransferEEvRT_
QRn:__ZL24UnresolvedVirtualCall_47P12Il2CppObject20DateTime_t3738529785PK10MethodInfo
U1g:__ZL84U3CRemoveStencilMaterialU3Ec__AnonStorey2_t2443477048_CustomAttributesCacheGeneratorP21CustomAttributesCache
nQa:__Z35UnityPropertySheet_MakeSortedColorsRKNSt3__23mapIN9ShaderLab16FastPropertyNameE10ColorRGBAfNS_4lessIS2_EENS_9allocatorINS_4pairIKS2_S3_EEEEEER10vector_mapIS2_S3_S5_NS6_INS7_IS2_S3_EEEEE
Asg:__ZL72PKCS12_t4101533061_CustomAttributesCacheGenerator_U3CU3Ef__switchU24map8P21CustomAttributesCache
m0l:_List_1_System_Collections_Generic_ICollectionU3CTU3E_get_IsReadOnly_m3004284512_gshared
Vtf:_UNITY_tt_face_load_os2
ZZm:_SortContext_1__ctor_m1830173245_gshared
qGd:__ZN17PolygonCollider2D8TransferI24GenerateTypeTreeTransferEEvRT_
oqm:_Array_InternalArray__ICollection_CopyTo_TisUICharInfo_t75501106_m4268526610_gshared
sAe:__ZN5physx19NpRigidBodyTemplateINS_14PxRigidDynamicEE16setRigidBodyFlagENS_15PxRigidBodyFlag4EnumEb
O7d:__ZN5physx6shdfnd8PoolBaseINS_2Sc19ConstraintGroupNodeENS0_19ReflectionAllocatorIS3_EEE17releaseEmptySlabsEv
Ovb:__Z29Transfer_Blittable_ArrayFieldI14SafeBinaryRead8Vector4fEvRT_R9ArrayInfoRK23StaticTransferFieldInfo
CHo:__GLOBAL__sub_I_BoehmGC_cpp
AI:__ZNK26AnimatorOverrideController22GetTypeVirtualInternalEv
xff:__ZNSt3__27__sort4IRNS_6__lessI24InterpolationDepthHandleS2_EEPS2_EEjT0_S6_S6_S6_T_
VCk:_PKCS12_Compare_m2975811353
Jyi:_InternalEnumerator_1__ctor_m2406468324_AdjustorThunk
Vil:_UTF8Encoding_GetMaxCharCount_m3762459613
pyg:__ZL81Shader_t4151988712_CustomAttributesCacheGenerator_Shader_PropertyToID_m1030499873P21CustomAttributesCache
kwh:_ModuleBuilder_RegisterToken_m4166846047
qWd:__ZN5physx3Cct8SweptBoxD2Ev
geh:_TextMeshPro_get_transform_m2127581678
i_b:__ZZ23InitPlayerLoopCallbacksvEN51PostLateUpdateUpdateCustomRenderTexturesRegistrator7ForwardEv
dRe:__ZN5physx2Cm12DelegateTaskINS_13PxsCCDContextEXadL_ZNS2_12postCCDSweepEPNS_10PxBaseTaskEEEED0Ev
ZAj:_RawImage_OnPopulateMesh_m1115858855
gQh:__Z74RuntimeInvoker_MonoFileType_t221779374_IntPtr_t_MonoIOErrorU26_t1548853198PFvvEPK10MethodInfoPvPS4_
Afo:__ZN6il2cpp2vm13MetadataCache25GetStringLiteralFromIndexEi
nGk:_Hashtable_ToPrime_m33531354
_y:__ZN7mecanim9animation12EvaluateClipEPKNS0_4ClipEPKNS0_9ClipInputEPNS0_10ClipMemoryEPNS0_10ClipOutputE
nHm:_Collection_1_IsSynchronized_m1117613618_gshared
iQf:__ZN20UnityWebRequestProtoI24UnityWebRequestTransport16AtomicRefCounter14RedirectHelper14ResponseHelper15DownloadHandler13UploadHandler18CertificateHandler12HeaderHelper14AsyncOperationE19Task_FinishRedirectEPv
Ebl:_String__ctor_m1926862525
P0d:__ZN5physx3Cct9SweepTest15onObstacleAddedEjPKNS_17PxObstacleContextERKNS_6PxVec3ES7_f
y5d:__ZN5physx2Gu10SupportMapD2Ev
lol:_TypeInitializationException__ctor_m3546444694
xxc:__ZNK9Transform16GetLocalRotationEv
iEl:_Enumerator_System_Collections_IEnumerator_Reset_m4278714428_gshared
iZa:__ZN4PPtrI11LightProbesE8TransferI18StreamedBinaryReadILb0EEEEvRT_
d0:__ZN11UnityEngine15CloudWebService23WebRequestUploadHandler17ConsumeUploadDataEj
oho:__ZNSt3__214__split_bufferI6pollfdRNS_9allocatorIS1_EEEC2EjjS4_
wGh:_CrossAppDomainData_get_DomainID_m3516796532
Hfe:__ZNK5physx15NpActorTemplateINS_18PxArticulationLinkEE22getClientBehaviorFlagsEv
V2k:_MemoryStream_set_Position_m3169779190
Dbc:__ZN13RenderManager29SetCurrentCameraAndStackStateEP6CameraP25CameraStackRenderingState
qQg:__ZL77Physics_t2310948930_CustomAttributesCacheGenerator_Physics_Raycast_m630863594P21CustomAttributesCache
wjh:_ExecuteEvents_get_scrollHandler_m2659345019
Cxa:__ZNSt3__26__treeINS_12__value_typeIjN4core12basic_stringIcNS2_20StringStorageDefaultIcEEEEEENS_19__map_value_compareIjS7_NS_4lessIjEELb1EEE13stl_allocatorIS7_L18MemLabelIdentifier7ELi16EEE7destroyEPNS_11__tree_nodeIS7_PvEE
HLj:_SetPropertyUtility_SetStruct_TisInt32_t2950945753_m1101767463_gshared
Lzk:_Mesh_SetArrayForChannel_TisColor32_t2600501292_m4048852508_gshared
xwo:__ZN15dense_hashtableINSt3__24pairIK10KeyWrapperINS1_IP11Il2CppClassjEEES4_EES6_N6il2cpp8metadata14ArrayClassHashEN14dense_hash_mapIS6_S4_SB_NS6_14EqualsComparerINSA_17ArrayClassCompareEEENS0_9allocatorIS8_EEE9SelectKeyESF_SH_E12resize_deltaEjj
Ji:_JS_WebRequest_Release
yDg:__ZL85Time_t2420636075_CustomAttributesCacheGenerator_Time_t2420636075____time_PropertyInfoP21CustomAttributesCache
IRi:_Enumerator_System_Collections_IEnumerator_Reset_m2031362704_AdjustorThunk
Ife:__ZNK5physx15NpActorTemplateINS_18PxArticulationLinkEE12getAggregateEv
N_:__ZN11UnityEngine15CloudWebService14DataErrorEventD0Ev
_9m:_Collection_1_ConvertItem_m525844156_gshared
Uzo:__ZN6il2cpp6icalls8mscorlib6System4Type20internal_from_handleEi
Flm:_GenericEqualityComparer_1__ctor_m1453861043_gshared
lvg:__ZL72RequiredByNativeCodeAttribute_t4130846357_CustomAttributesCacheGeneratorP21CustomAttributesCache
eKk:_Boolean_System_IConvertible_ToUInt16_m3465173538_AdjustorThunk
cad:__ZN14EmissionModule5ResetEv
r8l:_List_1_CheckMatch_m2532733861_gshared
rHh:_Context__ctor_m254302079
gRe:__ZN5physx13PxsCCDContext12postCCDSweepEPNS_10PxBaseTaskE
Ira:__ZN9Scripting11UnityEngine12Experimental9Playables20TextureMixerPlayable9InitProxyEv
Byl:_KeyGeneratedEventHandler_EndInvoke_m3057317531
dWa:__ZN19ShaderPropertySheet16SetArrayPropertyEN9ShaderLab16FastPropertyNameENS_12PropertyTypeEPKvj
TCj:_Selectable_FindSelectable_m2348614027
L3b:__ZN22PerThreadPageAllocatorC2Ev
ncn:_Collection_1_System_Collections_IList_Remove_m1265898254_gshared
Xph:_FloatTween_get_duration_m1227071020
rRf:__ZN16UploadHandlerRaw17ConsumeUploadDataEj
Yrh:_DropdownItem_OnPointerEnter_m1492957598
Edf:__ZN5physx6shdfnd10Foundation19AlignCheckAllocator28deregisterAllocationListenerERNS_20PxAllocationListenerE
hfe:__ZN5physx2Sc21ArticulationJointCore12setChildPoseERKNS_11PxTransformE
lCh:_ParameterInfo_get_ParameterType_m4197803362
DPh:__Z91RuntimeInvoker_Void_t1185182177_Int32U26_t1369213839_Int32U26_t1369213839_Int32_t2950945753PFvvEPK10MethodInfoPvPS4_
Msa:__ZN9Scripting11UnityEngine9BoundsInt9InitProxyEv
e6n:_StaticAccessorAttribute_set_Type_m2333258271
RWc:__ZN8GUIState8EndOnGUIEv
oLf:__ZN11UnityEngine15PlatformWrapper16GetApplicationIdEv
Lxo:__ZN6il2cpp6icalls8mscorlib6System2IO6MonoIO16get_ConsoleErrorEv
kwf:_UNITY_TT_Get_VMetrics
qLh:__Z49RuntimeInvoker_Char_t3634460470_Int16_t2552820387PFvvEPK10MethodInfoPvPS4_
vTe:__ZN5physx33solveContactCoulombBlockWriteBackEPKNS_23PxcSolverConstraintDescEjRNS_16PxcSolverContextEPNS_25PxcThresholdStreamElementEjPi
ejm:_EqualityComparer_1__ctor_m2283513024_gshared
COk:_SimpleEnumerator__cctor_m2844299657
l4j:_LocalDataStoreSlot__ctor_m4104083971
num:_Array_qsort_TisVector3_t3722313464_m4117329442_gshared
YSm:_ReadOnlyCollection_1_System_Collections_Generic_IListU3CTU3E_RemoveAt_m3849058645_gshared
eYn:_AudioSource_ReadExtensionName_m725112169
Snn:_X509CertificateEnumerator_System_Collections_IEnumerator_Reset_m2039524926
i$e:__ZN5physx9PxTaskMgr17submitUnnamedTaskERNS_6PxTaskENS_10PxTaskType4EnumE
yVh:__Z128RuntimeInvoker_Void_t1185182177_RuntimeObject_BooleanU26_t4125257963_SByte_t1669577662_Int32U26_t1369213839_Int32U26_t1369213839PFvvEPK10MethodInfoPvPS4_
$Na:__ZN7Texture21GetMasterTextureLimitEv
RNl:_Enumerator_Dispose_m3503748991_AdjustorThunk
i6a:__ZN13dynamic_arrayI9InputAxisLj0EE18resize_initializedEj12ResizePolicy
vdc:__Z12CanAddScriptR10GameObject17ScriptingClassPtrPS1_S2_
lMn:_FieldWithTarget_get_paramName_m3501478659
L1h:__Z103RuntimeInvoker_Boolean_t97287965_RuntimeObject_Vector2_t2156229523_RuntimeObject_Vector3U26_t3464235976PFvvEPK10MethodInfoPvPS4_
EWm:_Comparison_1_BeginInvoke_m3263247262_gshared
B6:__ZN9ShaderLabL25StaticInitializeShaderLabEPv
$Oe:__ZNK5physx2Sq12BucketPruner5sweepERKNS0_9ShapeDataERKNS_6PxVec3ERfRNS0_14PrunerCallbackE
U:Math_max
fhn:_Collection_1_System_Collections_IList_get_Item_m3426129749_gshared
yZg:__ZL64HorizontalLayoutGroup_t2586782146_CustomAttributesCacheGeneratorP21CustomAttributesCache
HSn:__ZL24UnresolvedVirtualCall_92P12Il2CppObjectPK10MethodInfo
sKn:_UnityWebRequest_SerializeFormSections_m557418047
Yso:_il2cpp_class_get_methods
Nci:__Z75RuntimeInvoker_Void_t1185182177_Int32_t2950945753_KeyValuePair_2_t625878672PFvvEPK10MethodInfoPvPS4_
eUl:_Dictionary_2_make_pair_m891994456_gshared
E4c:__GLOBAL__sub_I_artifacts_WebGL_codegenerator_0_cpp_3493
Pqj:_HitInfo_SendMessage_m1343099429_AdjustorThunk
zyb:__Z18Transfer_BlittableI24GenerateTypeTreeTransferLb0EN4math12int2_storageEEvRK29SerializationCommandArgumentsR31RuntimeSerializationCommandInfo
mIn:_AesManaged_GenerateKey_m2004209814
uSf:__Z64Register_UnityEngine_Networking_UnityWebRequest_get_isModifiablev
ebl:_Single_CompareTo_m2785801815_AdjustorThunk
$Io:__ZN6il2cpp2os6Thread16GetCurrentThreadEv
GMf:__ZN11UnityEngine7Connect20RemoteConfigSettings10UnregisterEv
X_l:_List_1_TrimExcess_m2202650502_gshared
Trm:_Array_InternalArray__Insert_TisUILineInfo_t4195266810_m3191124053_gshared
ypc:__ZN10GameObject13ComponentPair15SetComponentPtrEPN5Unity9ComponentE
$fp:_glBlitFramebuffer__wrapper
Lif:__ZN5physx6shdfnd8internal8HashBaseINS0_4PairIKPKNS0_14NamedAllocatorEPKcEES6_NS0_4HashIS6_EENS1_11HashMapBaseIS6_S9_SC_NS0_20NonTrackingAllocatorEE6GetKeyESE_Lb1EE15reserveInternalEj
jVg:__ZL75U3COnFinishSubmitU3Ec__Iterator0_t3413438900_CustomAttributesCacheGeneratorP21CustomAttributesCache
Ixa:__ZN10TagManager8TransferI19StreamedBinaryWriteILb0EEEEvRT_
Fcb:__ZN11PreloadData23VirtualRedirectTransferER18StreamedBinaryReadILb0EE
b$a:__ZN13sorted_vectorI4PPtrI11SpriteAtlasENSt3__24lessIS2_EE13stl_allocatorIS2_L18MemLabelIdentifier1ELi16EEE21sort_clear_duplicatesEv
Izl:_Enumerator_VerifyCurrent_m2516497577_AdjustorThunk
Tng:__ZL58ManualResetEvent_t451242010_CustomAttributesCacheGeneratorP21CustomAttributesCache
YVg:__ZL60FontData_t746620069_CustomAttributesCacheGenerator_m_MinSizeP21CustomAttributesCache
lHl:_ShimEnumerator_Reset_m1479883403_gshared
hta:__ZN9Scripting11UnityEngine24AssemblyIsEditorAssembly12CleanupProxyEv
HLk:_Char_System_IConvertible_ToDateTime_m3564102661
v7f:_TMP_Text_UpdateVertexData_m4153248617
sWn:__ZL25UnresolvedVirtualCall_293P12Il2CppObjectPK10MethodInfo
zM:__ZN13RuntimeStaticINSt3__26vectorI12WebCamDeviceNS0_9allocatorIS2_EEEELb0EE13StaticDestroyEPv
AZa:__ZN6Sprite17MainThreadCleanupEv
afg:__ZL55BinaryWriter_t3992595042_CustomAttributesCacheGeneratorP21CustomAttributesCache
mgp:_glBlendFuncSeparate__wrapper
jIg:__ZL116PlayerConnectionInternal_t3892293164_CustomAttributesCacheGenerator_PlayerConnectionInternal_SendMessage_m2378413408P21CustomAttributesCache
sR:__ZN10AudioMixer14UpdateMuteSoloEv
Laa:__Z17GetMonoManagerPtrv
XCa:__ZN12BaseRenderer25FlattenSharedMaterialDataILb0EEEbRKS_R22PerThreadPageAllocatorR10RenderNode
Xme:__ZN5physx6shdfnd5ArrayINS_3Scb13MaterialEventENS0_19ReflectionAllocatorIS3_EEE15growAndPushBackERKS3_
_ya:__ZN9Transform35SetLocalPositionWithoutNotificationERKN4math7_float3Ey
EOg:__ZL87GUIUtility_t1868551600_CustomAttributesCacheGenerator_U3CguiIsExitingU3Ek__BackingFieldP21CustomAttributesCache
yzg:__ZL101MonoBehaviour_t3962482529_CustomAttributesCacheGenerator_MonoBehaviour_StartCoroutine_Auto_m594129169P21CustomAttributesCache
Kj:_JS_Eval_ClearTimeout
Mrg:__ZL64ThreadStaticAttribute_t3840787420_CustomAttributesCacheGeneratorP21CustomAttributesCache
arb:__ZN7ApiGLES16SetPatchVerticesEi
aK:__ZZN26AnimatorOverrideController15InitializeClassEvEN30FunctorImpl_86kDidModifyMotion4CallEPviR11MessageData
PCm:_CharacterClass_Compile_m3296067317
D9d:__ZN5physx2Sc5Scene11onBodySleepEPNS0_7BodySimE
DIo:__ZN6il2cpp2gc16GarbageCollector16InvokeFinalizersEv
g3n:_OnOverrideControllerDirtyCallback_EndInvoke_m2432606376
TKk:_Byte_System_IConvertible_ToInt64_m285584218_AdjustorThunk
eoj:_Rect_get_size_m477575021_AdjustorThunk
p7n:__ZN6il2cpp2vm5Class20FromGenericParameterEPK22Il2CppGenericParameter
$Oj:_Array_IndexOf_TisVector3_t3722313464_m4284163268_gshared
ZWd:__ZL28GeomMTDCallback_PlaneCapsuleRN5physx6PxVec3ERfRKNS_10PxGeometryERKNS_11PxTransformES5_S8_
MSl:_Dictionary_2_ContainsKeyValuePair_m2384174870_gshared
pha:__ZN15GlobalCallbacksC2Ev
Jki:_MethodCall_System_Runtime_Remoting_Messaging_IInternalMessage_set_Uri_m1919576807
ivd:__ZN7b2World10CreateBodyEPK9b2BodyDef
yRi:_Comparer_1_System_Collections_IComparer_Compare_m2016223770_gshared
Kfl:_Encoding_GetBytes_m3823106599
F_g:__ZL57BaseMeshEffect_t2440176439_CustomAttributesCacheGeneratorP21CustomAttributesCache
uUh:__Z74RuntimeInvoker_DateTime_t3738529785_DateTime_t3738529785_Int32_t2950945753PFvvEPK10MethodInfoPvPS4_
lof:_UNITY_FT_New_Memory_Face
JUl:_KeyValuePair_2__ctor_m727165395_AdjustorThunk
xme:__ZNK5physx10NpMaterial18getDynamicFrictionEv
fKf:__ZN22BaseUnityConnectClient18QueueAppStartEventERN11UnityEngine15CloudWebService26CloudServiceEventWithParamE
Jhn:_Collection_1_System_Collections_IList_IndexOf_m3271188411_gshared
WIn:_DownloadHandler_GetText_m600283602
Ufn:_Collection_1_GetEnumerator_m3580195637_gshared
M$o:_Seed_GetSpecialCharacter_m1465474016
Tlf:__ZN20TextRenderingPrivate21TextMeshGeneratorImpl5FlushEv
G2k:_MonoIO_GetFileStat_m678141354
ksf:_UNITY_FT_Load_Sfnt_Table
XLm:_ReadOnlyCollection_1_System_Collections_Generic_ICollectionU3CTU3E_Remove_m1363008147_gshared
lVf:__Z15CastclassSealedP12Il2CppObjectP11Il2CppClass
Lwc:__ZN15ApplicationInfo14GetSandboxTypeEv
xbh:_FloatTween_set_startValue_m962630631_AdjustorThunk
sne:__ZN5physx9NpPhysics16createConvexMeshERNS_13PxInputStreamE
Awb:__Z18Transfer_BlittableI17RemapPPtrTransferLb1EhEvRK29SerializationCommandArgumentsR31RuntimeSerializationCommandInfo
ssk:_Decimal_IsZero_m4250358244_AdjustorThunk
Y3j:_UnmanagedMemoryStream_get_CanRead_m3770815400
jcc:__ZN16ReflectionProbes40UpdateRealtimeReflectionProbesTimeslicedEv
QZa:__ZN14SafeBinaryRead21TransferSTLStyleArrayI13dynamic_arrayI8Vector2fLj0EEEEvRT_17TransferMetaFlags
Gqm:_Array_InternalArray__Insert_TisKeyValuePair_2_t1383673463_m1372785123_gshared
yCo:__ZNSt3__26__treeINS_12__value_typeIP24Il2CppReflectionAssemblyPvEENS_19__map_value_compareIS3_S5_NS_4lessIS3_EELb1EEENS_9allocatorIS5_EEE16__insert_node_atEPNS_16__tree_node_baseIS4_EERSF_SF_
Kik:_Decimal_u64_m3374804932
Q8d:__ZN5physx2Sq17SceneQueryManager8addShapeERKNS_7NpShapeERKNS_12PxRigidActorEbPNS_9PxBounds3E
Eol:_UInt16_System_IConvertible_ToInt32_m1950778303_AdjustorThunk
i8a:__ZNK30RuntimeInitializeOnLoadManager22GetTypeVirtualInternalEv
gOj:__ZN21InterfaceFuncInvoker2IiffE6InvokeEjP11Il2CppClassP12Il2CppObjectff
wco:__ZN15dense_hashtableINSt3__24pairIK10KeyWrapperIN6il2cpp5utils13dynamic_arrayIPK10Il2CppTypeLj4EEEEPFvvEEESA_NS3_8metadata19Il2CppSignatureHashEN14dense_hash_mapISA_SD_SG_NSA_14EqualsComparerINSF_22Il2CppSignatureCompareEEENS0_9allocatorISE_EEE9SelectKeyESK_SM_E12resize_deltaEjj
dGc:__ZN16ReflectionProbes15InitializeClassEv
X_:__ZN13dynamic_arrayIN11UnityEngine15CloudWebService14DataErrorEvent15FileErrorDetailELj0EE18resize_initializedEj12ResizePolicy
Tag:__ZL71Enum_t4135868527_CustomAttributesCacheGenerator_Enum_Format_m2588135982P21CustomAttributesCache
lud:__ZNK12b2WheelJoint17GetReactionTorqueEf
Odo:__ZNK15dense_hashtableINSt3__24pairIK10KeyWrapperIPK11Il2CppClassEPKcEES6_N6il2cpp5utils11PointerHashIS3_EEN14dense_hash_mapIS6_S9_SE_NS6_14EqualsComparerINS0_8equal_toIS5_EEEENS0_9allocatorISA_EEE9SelectKeyESJ_SL_E12test_deletedEj
IQm:_ReadOnlyCollection_1_System_Collections_ICollection_CopyTo_m2527663815_gshared
LWl:_Enumerator_VerifyState_m1375238439_AdjustorThunk
tBo:__ZN6il2cpp2vm5Image9GetCorlibEv
_Pn:_Vector3_get_left_m2428419009
w$f:_U3CMouseDragOutsideRectU3Ec__Iterator1_Dispose_m2308839382
dGo:__ZN6il2cpp2vm11MethodStack17GetStackFramesRawEv
rhg:__ZL50Pointer_t2088917139_CustomAttributesCacheGeneratorP21CustomAttributesCache
zqe:__ZNK5physx15NpActorTemplateINS_7PxClothEE14getOwnerClientEv
ybb:__ZN16LightmapSettings11UnshareDataEv
cTe:__ZNK5physx2Gu29EPASupportMapPairRelativeImplINS0_8CapsuleVES2_E9doSupportERKNS_6shdfnd3aos5Vec3VERS6_S9_S9_
jjh:_ExecuteEvents_Execute_m113814934
Lda:__ZN13RuntimeStaticINSt3__23mapIN4core12basic_stringIcNS2_20StringStorageDefaultIcEEEES6_NS0_4lessIS6_EE13stl_allocatorINS0_4pairIKS6_S6_EEL18MemLabelIdentifier13ELi16EEEELb0EE13StaticDestroyEPv
qbj:_Coroutine_ReleaseCoroutine_m947702340
Ocf:__ZN5physx10SubSortSAH5sort4EPjjRNS_6shdfnd5ArrayINS_11RTreeNodeNQENS2_19ReflectionAllocatorIS4_EEEERjjPS4_
mAl:_Enumerator_System_Collections_IEnumerator_get_Current_m2979767597_AdjustorThunk
Yvn:__ZN30GenericInterfaceActionInvoker1I17Color_t2555686324E6InvokeEPK10MethodInfoP12Il2CppObjectS0_
Svi:_MD5CryptoServiceProvider_ProcessFinalBlock_m2241588515
bEj:_ScrollRect_GetBounds_m449872505
Ik:_glIsVertexArray
khd:__Z25UpdateOrbitalAndRadialTplIL27ParticleSystemCurveEvalMode3ELS0_2ELS0_1EEvRK11MinMaxCurveS3_S3_S3_S3_S3_S3_R23ParticleSystemParticlesjjRKN4math8float3x3ERKNS6_7affineXERKNS6_7_float4E
bYk:_Int16_Parse_m2276856944
nGi:_InternalEnumerator_1__ctor_m3443175323_AdjustorThunk
EBf:__ZL42__ManagedRegistrationHelperFunction_CanvasPv
Xua:__ZN5Unity9Component8TransferI18StreamedBinaryReadILb0EEEEvRT_
Wgg:__ZL131CustomAttributeData_t1084486650_CustomAttributesCacheGenerator_CustomAttributeData_t1084486650____ConstructorArguments_PropertyInfoP21CustomAttributesCache
ha:invoke_fff
a8o:_mbsinit
OKj:_Array_InternalArray__ICollection_Remove_TisContactPoint2D_t3390240644_m284878234_gshared
Oep:b14
Fif:__ZN5physx2Sc7PhysicsC2ERKNS_17PxTolerancesScaleERKNS_14PxvOffsetTableE
bQc:__Z34RenderTexture_Get_Custom_PropWidthP12Il2CppObject
vff:__ZNSt3__26__sortIRNS_6__lessI24InterpolationDepthHandleS2_EEPS2_EEvT0_S6_T_
vCf:__ZN2UI6Canvas17MainThreadCleanupEv
$ka:__ZN6prcoreL12RemapGenericI17TexFormatARGB155517TexFormatRGBA8888EEvPKNS_9InnerInfoE
i9n:__ZN13Il2CppHashMapIPK19Il2CppGenericMethodPK26Il2CppGenericMethodIndicesN6il2cpp8metadata23Il2CppGenericMethodHashENS7_26Il2CppGenericMethodCompareENSt3__29allocatorINSA_4pairIK10KeyWrapperIS2_ES5_EEEEEC2EjRKS8_RKS9_
UPi:_Comparer_1__ctor_m2785105123_gshared
Uxh:_TypeBuilder_HasElementTypeImpl_m1871001960
jal:_SecurityFrame__ctor_m2140076703_AdjustorThunk
nvm:_Array_Resize_TisVector2_t2156229523_m3382835435_gshared
ehm:_DefaultComparer_Equals_m2458578172_gshared
urb:__ZN7ApiGLES13CreateProgramEv
gKa:__ZN11HaloManager7AddHaloEv
h7i:__ZN23InterfaceActionInvoker1IP11Exception_tE6InvokeEjP11Il2CppClassP12Il2CppObjectS1_
kvj:_InputField_set_caretPositionInternal_m3823580651
lBl:_Enumerator_VerifyState_m4003066746_gshared
EUa:__ZN4crnd12crn_unpackerD2Ev
PM:__ZN9Scripting11UnityEngine12Experimental5Audio19AudioSampleProvider9InitProxyEv
Zk:_emscripten_glTexImage2D
gQi:_Comparer_1_System_Collections_IComparer_Compare_m2537217645_gshared
WEa:__ZN16MeshVertexFormat20GetVertexDeclarationER9GfxDevice16VertexInputMasksPKS_
w7:__ZN18ScriptingArguments9AddStringEPKc
SPo:_setup_header
HMk:_Char_ToString_m3588025615
KLj:_SetPropertyUtility_SetStruct_TisAspectMode_t3417192999_m1565063249_gshared
Zdn:_Collection_1_get_Count_m2853642267_gshared
VQm:_ReadOnlyCollection_1_System_Collections_IList_get_IsReadOnly_m375760151_gshared
bTe:__ZNK5physx2Gu29EPASupportMapPairRelativeImplINS0_8CapsuleVES2_E18doWarmStartSupportEiiRNS_6shdfnd3aos5Vec3VES7_S7_
Hwl:_CryptoConvert_ToCapiKeyBlob_m3371450375
XRa:__ZL23stbir__resize_arbitraryPvPKviiiS_iiiffffPfiij14stbir_datatype12stbir_filterS4_10stbir_edgeS5_16stbir_colorspace
Oad:__ZN23ParticleSystemParticles13array_reserveEj
JAn:_DeflateManager_pqdownheap_m900267611
Jqc:__ZN19SpriteMeshGenerator4maskC2EP11ColorRGBA32iihj
Tyb:__Z18Transfer_BlittableI24GenerateTypeTreeTransferLb1E8Vector4fEvRK29SerializationCommandArgumentsR31RuntimeSerializationCommandInfo
Sep:b18
s4i:_U3CAnimateVertexColorsU3Ec__Iterator0_System_Collections_Generic_IEnumeratorU3CobjectU3E_get_Current_m3219239971
il:_pthread_detach
Lgo:__ZN6il2cpp2vm19SocketPollingThread7RunLoopEv
Esh:_FontUpdateTracker_UntrackText_m1981515690
$1m:_List_1_System_Collections_ICollection_get_SyncRoot_m1937857346_gshared
v4g:__ZL64AnalyticsEventTracker_t2285229262_CustomAttributesCacheGeneratorP21CustomAttributesCache
iOe:__ZN5physx11EdgeManager6resizeEj
Tid:__Z16EmitterStoreDataRKN4math8float3x3ERKNS_7affineXER23ParticleSystemParticlesRK19ParticleSystemStatejRNS_8floatNx3ESC_RKNS_4pix4ER5RandNfffbb
VJc:__ZN15DirectorManager20ScheduleGraphDestroyERK14HPlayableGraph
WHb:__ZNSt3__213__stable_sortIRN10vector_mapI17ScriptingClassPtrPKN5Unity4TypeENS_4lessIS2_EENS_9allocatorINS_4pairIS2_S6_EEEEE13value_compareENS_11__wrap_iterIPSB_EEEEvT0_SJ_T_NS_15iterator_traitsISJ_E15difference_typeEPNSM_10value_typeEi
zhi:__Z92RuntimeInvoker_RuntimeObject_Int32_t2950945753_Int64_t3736567304_RuntimeObject_RuntimeObjectPFvvEPK10MethodInfoPvPS4_
f3m:_List_1_AddEnumerable_m1284696147_gshared
hWi:_IPAddress_Equals_m1823478787
HNl:_Enumerator_MoveNext_m1673259783_AdjustorThunk
bIh:_Context_CreateNewContext_m3053563976
Udh:_TextContainer_get_rectTransform_m3829128540
yCg:__ZL83RectOffset_t1369453676_CustomAttributesCacheGenerator_RectOffset_set_top_m713260669P21CustomAttributesCache
GBn:_ZlibBaseStream__ctor_m2328519018
Slc:__ZN9ShaderLab25SerializedTextureProperty8TransferI24GenerateTypeTreeTransferEEvRT_
Ixk:_Array_swap_TisVector2_t2156229523_TisVector2_t2156229523_m345092822_gshared
GHl:_ShimEnumerator_Reset_m227785477_gshared
YKm:_ReadOnlyCollection_1_System_Collections_IList_Contains_m2935297083_gshared
Yoo:__ZN6il2cpp2gc19AppendOnlyGCHashMapINSt3__24pairIPK14Il2CppAssemblyP11Il2CppClassEEP24Il2CppReflectionAssembly17ReflectionMapHashIS9_ENS2_8equal_toIS9_EEEC2Ev
Cuf:_tt_cmap14_char_next
FBb:__Z18Transfer_BlittableI19StreamedBinaryWriteILb0EELb0EdEvRK29SerializationCommandArgumentsR31RuntimeSerializationCommandInfo
bBe:__ZN5physx2Sc5Scene12removeStaticERNS0_10StaticCoreERNS_6shdfnd11InlineArrayIPKNS0_9ShapeCoreELj64ENS4_19ReflectionAllocatorIS8_EEEEb
r2:__GLOBAL__sub_I_Runtime_Camera_RenderLoops_2_cpp
I4m:_List_1__ctor_m404557453_gshared
ewa:__ZN11NamedObject8TransferI18StreamedBinaryReadILb0EEEEvRT_
LXb:__ZNK17GPUSkinPoseBuffer12GetBoneCountEv
Xao:__ZNK15dense_hashtableINSt3__24pairIK10KeyWrapperIPK19Il2CppGenericMethodEPK26Il2CppGenericMethodIndicesEES6_N6il2cpp8metadata23Il2CppGenericMethodHashEN14dense_hash_mapIS6_SA_SE_NS6_14EqualsComparerINSD_26Il2CppGenericMethodCompareEEENS0_9allocatorISB_EEE9SelectKeyESI_SK_E5beginEv
Vcj:_InvokableCall_remove_Delegate_m1376110510
aRk:_Hashtable_Clear_m3112193608
Dil:_UTF8Encoding_InternalGetByteCount_m771565606
_Ao:__ZNK15dense_hashtableINSt3__24pairIK10KeyWrapperIP14Il2CppIUnknownEjEES5_N6il2cpp5utils11PointerHashIS3_EEN14dense_hash_mapIS5_jSB_NS5_14EqualsComparerINS0_8equal_toIS4_EEEENS0_9allocatorIS7_EEE9SelectKeyESG_SI_E12test_deletedEj
o2c:__Z18Transfer_BlittableI8JSONReadLb1EyEvRK29SerializationCommandArgumentsR31RuntimeSerializationCommandInfo
$6l:_List_1_System_Collections_IList_Remove_m3654336679_gshared
yHg:__ZL51GUILayer_t2783472903_CustomAttributesCacheGeneratorP21CustomAttributesCache
zdg:__ZL56IDictionary_2_t3177279192_CustomAttributesCacheGeneratorP21CustomAttributesCache
YEa:__ZN9GfxDevice20GetVertexDeclarationERK18VertexChannelsInfoNS_30VertexDeclarationMRUCacheIndexE
XMj:_Array_InternalArray__IEnumerable_GetEnumerator_TisUInt64_t4134040092_m1382862496_gshared
Fl:_emscripten_glMatrixMode
jMh:__Z100RuntimeInvoker_Boolean_t97287965_RuntimeObject_Int32_t2950945753_RuntimeObject_DoubleU26_t1739162597PFvvEPK10MethodInfoPvPS4_
kAj:_MaskableGraphic_UnityEngine_UI_IClippable_get_gameObject_m1739855597
CVk:_NumberFormatInfo_get_RawPercentGroupSizes_m97703232
Iw:__ZN8Animator23VirtualRedirectTransferER18StreamedBinaryReadILb0EE
QWk:_Guid__ctor_m3562600567_AdjustorThunk
E1:__ZN19CloudServiceHandler19StopEventDispatcherEv
I8e:__ZN5physx13GuMeshFactory17createHeightFieldERNS_13PxInputStreamE
kEe:__ZN5physx2Sc10NPhaseCore25createShapeInstancePairLLERNS0_8ShapeSimES3_NS_7PxFlagsINS_10PxPairFlag4EnumEtEE
eOd:__ZN8Collider11PoseChangedEb
e1f:_TMP_Settings_get_enableKerning_m2305860424
Aok:_DateTime_System_IConvertible_ToInt16_m3239820399
f_:__ZN11UnityEngine15CloudWebService14DataDispatcher16PrepareDataBlockERNS0_16SessionContainerE
kYb:__ZN18GfxFramebufferGLES5ClearE13GfxClearFlagsRK10ColorRGBAffib
pFe:__ZThn8_N5physx2Sc19ShapeInstancePairLL12onDeactivateEj
PNj:_Array_compare_TisProgressHandler_t926933139_m465927472_gshared
H7l:_List_1_Sort_m2163953164_gshared
yqi:_ObjectManager_DoFixups_m3038765937
d2f:_TMP_SpriteAsset_SearchForSpriteByUnicodeInternal_m1359718671
vGb:__ZL26Transfer_SimpleNativeClassI18StreamedBinaryReadILb0EE10RectOffsetLb0EEvRK29SerializationCommandArgumentsR31RuntimeSerializationCommandInfo
kFi:_InternalEnumerator_1_get_Current_m2316281569_gshared
t2b:__ZL12DepthPassJobPN21GfxDeviceAsyncCommand10ArgScratchEPKNS_3ArgE
jkc:__ZNSt3__26vectorIN9ShaderLab20SerializedSubProgram16TextureParameterENS_9allocatorIS3_EEE6assignINS_11__wrap_iterIPS3_EEEENS_9enable_ifIXaasr21__is_forward_iteratorIT_EE5valuesr16is_constructibleIS3_NS_15iterator_traitsISC_E9referenceEEE5valueEvE4typeESC_SC_
hjj:_MonoBehaviour_IsInvoking_m3285132449
KMl:_Transform_1_EndInvoke_m1701794896_gshared
CZc:__ZN5Unity9rapidjson6WriterI16TempBufferWriterNS0_4UTF8IcEES4_13JSONAllocatorE11WriteDoubleEd
scm:_Dictionary_2_TryGetValue_m3741534516_gshared
SLd:__ZN9Rigidbody16ApplyConstraintsEv
lkl:_Thread_SetCachedCurrentUICulture_m1729523031
Gpb:__ZN14GfxDeviceStats16CopyAllDrawStatsERKS_
axj:_InputField_get_minHeight_m2822964544
NLl:__ZN23GenericVirtFuncInvoker1I27DictionaryEntry_t3123975638iE6InvokeEPK10MethodInfoP12Il2CppObjecti
r9h:__Z59RuntimeInvoker_Boolean_t97287965_TMP_FontWeights_t916301067PFvvEPK10MethodInfoPvPS4_
m6c:__ZN11MinMaxCurve5ResetE23ParticleSystemCurveModef
Nn:FUNCTION_TABLE_iiiiiiiiiiii
Nad:__ZNK14ParticleSystem27CalculateMaxActiveParticlesEv
bsi:_SByte_System_IConvertible_ToDateTime_m1659899958
wGl:_KeyCollection_System_Collections_Generic_IEnumerableU3CTKeyU3E_GetEnumerator_m1982109872_gshared
Twe:__ZN5physx2Sc17ParticleSystemSim8setFlagsEj
bHa:__ZN16GraphicsSettingsD0Ev
r4:__Z12FormatBufferPciPKcz
wMf:__ZNSt3__26__treeINS_12__value_typeIN4core12basic_stringIcNS2_20StringStorageDefaultIcEEEE14CallbackArray3IRKS6_R8JSONReadbEEENS_19__map_value_compareIS6_SD_NS_4lessIS6_EELb1EEE13stl_allocatorISD_L18MemLabelIdentifier6ELi16EEE7destroyEPNS_11__tree_nodeISD_PvEE
n:cttz_i8
Cpf:_UNITY_FT_GlyphLoader_Add
Hbf:__ZN5physx2Gu15EdgeListBuilder18CreateEdgesToFacesEjPKjPKt
hZd:__ZN5physx11PxMeshQuery5sweepERKNS_6PxVec3EfRKNS_10PxGeometryERKNS_11PxTransformEjPKNS_10PxTriangleERNS_10PxSweepHitENS_7PxFlagsINS_9PxHitFlag4EnumEtEEPKjfb
vOi:_DefaultComparer_Compare_m1878901918_gshared
EPf:__ZN9Scripting11UnityEngine10Networking29UnityWebRequestAsyncOperation9InitProxyEv
YFl:_KeyCollection_System_Collections_IEnumerable_GetEnumerator_m2349004815_gshared
AYn:_AudioListener_INTERNAL_CALL_ReadExtensionPropertyName_m330480156
Thg:__ZL62ActivationArguments_t4219999170_CustomAttributesCacheGeneratorP21CustomAttributesCache
SXh:__Z53RuntimeInvoker_Interval_t1802865632_Int32_t2950945753PFvvEPK10MethodInfoPvPS4_
Mgk:_SyncQueue_Clone_m4021562953
Cm:_emscripten_glViewport
sHc:__Z21GenerateTilingAreaJobP22GenerateTilingAreaInfoj
sMo:__ZN6il2cpp6icalls8mscorlib6System15MonoCustomAttrs17IsDefinedInternalEP12Il2CppObjectP20Il2CppReflectionType
HQe:__ZN5physx6shdfnd5ArrayIPhNS0_19ReflectionAllocatorIS2_EEE8recreateEj
pYl:_Enumerator__ctor_m40451936_AdjustorThunk
d_h:__Z53RuntimeInvoker_Vector3_t3722313464_Single_t1397266774PFvvEPK10MethodInfoPvPS4_
Yej:_Gradient_t3067099924_marshal_pinvoke_back
o3n:_SkeletonBone_t4134054672_marshal_pinvoke_back
vjg:__ZL115SynchronizationAttribute_t3946661254_CustomAttributesCacheGenerator_SynchronizationAttribute_IsContextOK_m324067792P21CustomAttributesCache
Isa:__ZN9Scripting11UnityEngine10CacheIndex9InitProxyEv
gbk:_CustomAttributeData_get_Constructor_m489601093
Ozo:__Z18RegisterAllClassesv
Zqf:_cff_parse_font_bbox
HMd:__ZThn28_N14PhysicsManagerD0Ev
C$e:__ZN5physx2Sc27ConstraintProjectionManagerC2Ev
p_d:__Z14raycast_sphereRKN5physx10PxGeometryERKNS_11PxTransformERKNS_6PxVec3ES8_fNS_7PxFlagsINS_9PxHitFlag4EnumEtEEjPNS_12PxRaycastHitEbPFbRSD_PvESG_
y6a:__ZN14PlayerSettings23VirtualRedirectTransferER18StreamedBinaryReadILb0EE
bOh:__Z85RuntimeInvoker_Void_t1185182177_Int32_t2950945753_Int32_t2950945753_Int32_t2950945753PFvvEPK10MethodInfoPvPS4_
Wtk:_Double_System_IConvertible_ToDateTime_m2414543049_AdjustorThunk
NKf:__ZN11UnityEngine15PlatformWrapper16GetVRFieldOfViewEv
QSh:__Z235RuntimeInvoker_Int32_t2950945753_RuntimeObject_Int32_t2950945753_RuntimeObject_Int32_t2950945753_UInt32U26_t3735378166_UInt32U26_t3735378166_RuntimeObject_DecoderFallbackBufferU26_t3866396827_ByteU5BU5DU26_t4057885439_SByte_t1669577662PFvvEPK10MethodInfoPvPS4_
cVo:__ZN6il2cpp2os5Event5ResetEv
x$l:__ZN23InterfaceActionInvoker2IP32ResolveHandlerU5BU5D_t4152721480iE6InvokeEjP11Il2CppClassP12Il2CppObjectS1_i
muf:_tt_name_ascii_from_other
C3j:_TextWriter_Write_m2252948084
DNn:_ToggleGroup__ctor_m3308114662
fcm:_Dictionary_2_CopyToCheck_m4199563090_gshared
wDo:__ZN6il2cpp8metadata15GenericMetadata17InflateParametersEPK13ParameterInfohPK20Il2CppGenericContextb
g5k:_RSAParameters_t1728406613_marshal_pinvoke_back
Lwk:_Array_Sort_TisUILineInfo_t4195266810_m3737783007_gshared
h0f:_TMP_MaterialManager_GetFallbackMaterial_m1227931643
Xz:__ZNK17AnimationPlayable27GetNextCompatibleDescendantEj
f_j:_Context_get_LastHandshakeMsg_m2730646725
w4e:__ZNK5physx2Cm12DelegateTaskINS_2Sc5SceneEXadL_ZNS3_23postIslandGenSecondPassEPNS_10PxBaseTaskEEEE7getNameEv
mof:__ZN13dynamic_arrayIN4core17string_with_labelILi35EEELj0EE6insertEPS2_jRKS2_
fwa:__ZN4PPtrI6SpriteE8TransferI18StreamedBinaryReadILb0EEEEvRT_
yOg:__ZL64GUIUtility_t1868551600_CustomAttributesCacheGenerator_s_SkinModeP21CustomAttributesCache
EKm:_ReadOnlyCollection_1_System_Collections_IList_set_Item_m4251477320_gshared
Igk:_SyncQueue_get_IsSynchronized_m1019791572
kBd:__ZN34b2SolveDiscreteIslandBodySleepTask7TaskJobEPS_j
nWm:_Comparison_1_BeginInvoke_m829878058_gshared
itf:_otv_LigatureSubst_validate
BYh:__Z50RuntimeInvoker_Ray_t3785851493_Vector3_t3722313464PFvvEPK10MethodInfoPvPS4_
oRn:__ZL24UnresolvedVirtualCall_19P12Il2CppObject25DSAParameters_t1885824122PK10MethodInfo
ELb:__Z25SetNeedToPerformRenderingb
z8c:__ZN12LightsModule8TransferI17RemapPPtrTransferEEvRT_
W9o:__ZN10__cxxabiv116__shim_type_infoD2Ev
hsj:_Touch_get_phase_m214549210
LBm:_Alternation__ctor_m1629257642
$Hf:__ZN8JSONRead12TransferPairINSt3__24pairIN4core12basic_stringIcNS3_20StringStorageDefaultIcEEEEN11UnityEngine9Analytics16LimitEventConfigEEEEEvRT_17TransferMetaFlagsPKN5Unity9rapidjson12GenericValueINSG_4UTF8IcEE13JSONAllocatorEE
iya:__ZN10GameObjectD2Ev
H2b:__ZN14qsort_internal30FindAndMovePivotToLastPositionIP15RODataDepthPassi17ROSorterDepthPassEEvT_S4_T0_T1_
Lld:__ZN29InitialModulePropertyBindings13GetFloatValueERK14ParticleSystemi
lSc:__Z27Mesh_CUSTOM_MarkDynamicImplP12Il2CppObject
iul:_BigInteger__ctor_m3991350270
O4j:_MethodAccessException__ctor_m3411913042
c5j:_MonoCustomAttrs__cctor_m4000462365
dSe:__ZN5physxL27PxcSweepAnyShapeHeightfieldERKNS_11PxsCCDShapeES2_PKNS_12PxsRigidBodyES5_RKNS_11PxTransformES8_fRNS_6PxVec3ESA_RNS_10PxcNpCacheERNS_18PxcNpThreadContextE
ukm:_EqualityComparer_1__ctor_m1767308726_gshared
G8h:__Z82RuntimeInvoker_Void_t1185182177_TMP_LinkInfoU5BU5DU26_t903268843_Int32_t2950945753PFvvEPK10MethodInfoPvPS4_
hbc:__ZN12CullingGroup10SendEventsEPK17CullingGroupEventj
c9j:_CustomInfo__ctor_m426096741
dIn:_Action_EndInvoke_m1690492879
GVk:_NumberFormatInfo_get_PerMilleSymbol_m1360140831
HWj:_EncryptedData_get_EncryptionAlgorithm_m905084934
QRk:_EventHandler_EndInvoke_m269746120
Kkh:_PointerInputModule__ctor_m3728889932
FXa:__ZThn32_NK8Renderer8GetLayerEv
YPj:_Array_InternalArray__IndexOf_TisUInt64_t4134040092_m1206929132_gshared
iNe:__ZN5physx3Scb5SceneD2Ev
OYl:_Enumerator_System_Collections_IEnumerator_Reset_m2915500989_gshared
crf:_cff_parse_vsindex
SDh:_ResourceSet_System_Collections_IEnumerable_GetEnumerator_m2807499934
Lro:__ZNSt3__26vectorIiNS_9allocatorIiEEEC2ERKS3_
VBo:__ZN30dense_hashtable_const_iteratorINSt3__24pairIK10KeyWrapperINS1_IPKcS4_EEEiEES6_24NamespaceAndNamePairHashN14dense_hash_mapIS6_iS9_NS6_14EqualsComparerI26NamespaceAndNamePairEqualsEENS0_9allocatorIS8_EEE9SelectKeyESD_SF_E30advance_past_empty_and_deletedEv
mYk:_Int32_ValidDigit_m1059003769
SIn:_DownloadHandler_Dispose_m2747726581
Jkp:_emscripten_glTexParameterfv__wrapper
kpj:_RectTransform_INTERNAL_get_sizeDelta_m2173368204
Yrg:__ZL54MemberFilter_t426314064_CustomAttributesCacheGeneratorP21CustomAttributesCache
_xj:_LayoutGroup_get_rectTransform_m442863741
$sb:__Z18Transfer_BlittableI14SafeBinaryReadLb1E9BoundsIntEvRK29SerializationCommandArgumentsR31RuntimeSerializationCommandInfo
CBc:__ZN2UI13RectTransform17GetLocalPositionZEv
Yfp:b63
Pto:_il2cpp_method_get_param_count
nda:__ZNK5Unity4Type21FindAllDerivedClassesER13dynamic_arrayIPKS0_Lj0EENS0_17TypeFilterOptionsE
Rwc:__ZN10systeminfo19ISOToSystemLanguageERN4core12basic_stringIcNS0_20StringStorageDefaultIcEEEE
Rno:__ZNK15dense_hashtableINSt3__24pairIK10KeyWrapperINS1_IPK12PropertyInfoP11Il2CppClassEEEjEES9_17ReflectionMapHashIS8_EN14dense_hash_mapIS9_jSD_NS9_14EqualsComparerINS0_8equal_toIS8_EEEENS0_9allocatorISB_EEE9SelectKeyESI_SK_E3endEv
tAi:_InternalEnumerator_1_System_Collections_IEnumerator_get_Current_m16058121_gshared
PHd:__ZN11Rigidbody2D8TransferI19StreamedBinaryWriteILb0EEEEvRT_
DWm:__ZN28GenericInterfaceFuncInvoker2Ii39CustomAttributeNamedArgument_t287865710S0_E6InvokeEPK10MethodInfoP12Il2CppObjectS0_S0_
aAk:_LayoutGroup_SetProperty_TisAxis_t3613393006_m3591044743_gshared
LLd:__Z16GetDynamicsScenev
vEe:__ZThn8_N5physx2Sc18TriggerInteraction7destroyEv
xQg:__ZL94Physics_t2310948930_CustomAttributesCacheGenerator_Physics_Raycast_m3336206959____maxDistance2P21CustomAttributesCache
lMj:_Array_InternalArray__IEnumerable_GetEnumerator_TisKeyValuePair_2_t1383673463_m2665224490_gshared
hbg:__ZL69RuntimeArray_CustomAttributesCacheGenerator_Array_SetValue_m282347242P21CustomAttributesCache
SOf:__ZN22BaseUnityConnectClient14AppRunningTickEj
iyf:_ps_dimension_done
gAf:__Z46Register_UnityEngine_TextGenerator_Dispose_cppv
gRh:__Z67RuntimeInvoker_GCHandle_t3351438187_RuntimeObject_Int32_t2950945753PFvvEPK10MethodInfoPvPS4_
Evc:__ZNSt3__26vectorIN4core12basic_stringIcNS1_20StringStorageDefaultIcEEEENS_9allocatorIS5_EEE6assignINS_11__wrap_iterIPKS5_EEEENS_9enable_ifIXaasr21__is_forward_iteratorIT_EE5valuesr16is_constructibleIS5_NS_15iterator_traitsISF_E9referenceEEE5valueEvE4typeESF_SF_
hVk:_GregorianCalendar_GetYear_m854131864
Dhd:__Z25UpdateOrbitalAndRadialTplIL27ParticleSystemCurveEvalMode0ELS0_4ELS0_2EEvRK11MinMaxCurveS3_S3_S3_S3_S3_S3_R23ParticleSystemParticlesjjRKN4math8float3x3ERKNS6_7affineXERKNS6_7_float4E
btg:__ZL59HybridDictionary_t4070033136_CustomAttributesCacheGeneratorP21CustomAttributesCache
Nwo:__ZN6il2cpp6icalls8mscorlib6System7Runtime15InteropServices7Marshal17GetLastWin32ErrorEv
EYa:__ZN16LightmapSettings8TransferI14SafeBinaryReadEEvRT_
ySb:__ZN17BufferManagerGLES13ReleaseBufferEP14DataBufferGLES
PXj:_CipherSuite_Write_m1172814058
W5d:__ZN5physx6shdfnd5ArrayIPvNS0_19ReflectionAllocatorINS_16NpConnectorArrayEEEE15growAndPushBackERKS2_
OZh:__Z50RuntimeInvoker_Void_t1185182177_Bounds_t2266837910PFvvEPK10MethodInfoPvPS4_
d3j:_SynchronizedWriter_Write_m301917713
f5:__ZN9profiling6MarkerC2EPKc13ProfilerGroupNS0_5FlagsE
sDe:__ZN5physx2Sc5Scene15prepareSimulateEv
rPi:__ZN21InterfaceFuncInvoker1Ii22UILineInfo_t4195266810E6InvokeEjP11Il2CppClassP12Il2CppObjectS0_
l2c:__Z18Transfer_BlittableI8JSONReadLb1EjEvRK29SerializationCommandArgumentsR31RuntimeSerializationCommandInfo
A7d:__ZN5physx6shdfnd5ArrayIPNS_2Sc11InteractionENS0_19ReflectionAllocatorIS4_EEE8recreateEj
q_l:_List_1_System_Collections_ICollection_get_SyncRoot_m838625336_gshared
ack:_ConstructorBuilder_get_IsCompilerContext_m3364441562
h4g:__ZL60TMP_Text_t2599618874_CustomAttributesCacheGenerator_m_marginP21CustomAttributesCache
Wbj:_Debug_LogWarning_m3752629331
KAc:__Z13RegisterClassIN2UI13RectTransformEEvPKc
osa:__ZN9Scripting11UnityEngine7Texture9InitProxyEv
iVm:_ReadOnlyCollection_1_System_Collections_Generic_IListU3CTU3E_RemoveAt_m4037795630_gshared
N3m:_List_1_System_Collections_Generic_IEnumerableU3CTU3E_GetEnumerator_m1273481299_gshared
XPh:__Z117RuntimeInvoker_Void_t1185182177_RuntimeObject_Int32_t2950945753_Int32_t2950945753_Int32_t2950945753_Int32_t2950945753PFvvEPK10MethodInfoPvPS4_
Q$a:__ZNK13ScreenManager17GetFullscreenModeEv
US:__Z30GetAudioSpatializerDefinitionsR13dynamic_arrayIP29AudioEffectInternalDefinitionLj0EE31UnityAudioEffectDefinitionFlags
lXg:__ZL81U3CMouseDragOutsideRectU3Ec__Iterator1_t3909241878_CustomAttributesCacheGeneratorP21CustomAttributesCache
vnh:_U3COnFinishSubmitU3Ec__Iterator0_Reset_m3632769946
Hq:stackSave
F0:__ZN5Unity9rapidjson15GenericDocumentINS0_4UTF8IcEE13JSONAllocatorNS0_12CrtAllocatorEE6StringEPKcjb
xph:_ColorTween_get_targetColor_m1724075482_AdjustorThunk
Dyf:_ps_dimension_end
mSc:__Z41Register_UnityEngine_Mesh_Internal_Createv
Xkb:__ZN16MemoryFileSystem5TouchER13FileEntryData
S1a:__ZN14SpriteRenderer23VirtualRedirectTransferER24GenerateTypeTreeTransfer
k0k:_Path_GetServerAndShare_m2640882202
Nyd:__ZNSt3__27__sort3IRN18Overlap2DQueryBase29ColliderHitsByDepthComparitorEPP10Collider2DEEjT0_S7_S7_T_
s8n:__ZN6il2cpp2vm5Class14GetNestedTypesEP11Il2CppClassPPv
Aef:__Z63Register_UnityEngine_Physics_INTERNAL_CALL_Internal_RaycastTestv
pZl:_Enumerator_Dispose_m2498245804_AdjustorThunk
DEm:_Uri_get_Fragment_m575158891
cik:_Console_Open_m3077673205
Vrn:_TMP_ObjectPool_1_Release_m423123894_gshared
Znn:_X509StoreManager_get_CurrentUser_m4040993045
Qcc:__ZN6Camera9SetAspectEf
tal:_SecurityManager_get_SecurityEnabled_m3467182822
C4i:_VertexZoom_ON_TEXT_CHANGED_m3073044939
O$m:__ZN23GenericVirtFuncInvoker1IbDsE6InvokeEPK10MethodInfoP12Il2CppObjectDs
BXi:_SslStream_Dispose_m3651067425
Da:invoke_viiffiii
O8c:__ZN8UVModule8TransferI18StreamedBinaryReadILb0EEEEvRT_
hEi:_InternalEnumerator_1_MoveNext_m4138204635_gshared
jmp:_emscripten_glBindVertexArray__wrapper
cXl:_Enumerator_VerifyState_m2933667029_gshared
P3l:_List_1_ToArray_m2453307698_gshared
_um:_Array_Resize_TisTMP_WordInfo_t3331066303_m1200832340_gshared
yGo:__ZN6il2cpp6icalls8mscorlib6System4Enum19get_underlying_typeEP20Il2CppReflectionType
xDm:_Parser_IsECMAScript_m674158805
bN:__ZN10ObjectPoolIN4FMOD3DSPENS0_4DSPIEE7GetFreeEi
yYj:_CipherSuiteCollection_get_Item_m3790183696
hza:__ZN9Transform37InitializeTransformHierarchyRecursiveER18TransformHierarchyRii
Frb:__ZN26SinglePassStereoSupportExt23SetupStereoMatrixParamsE21MonoOrStereoscopicEye24BuiltinShaderMatrixParamRK10Matrix4x4f
Nfh:_TextMeshProUGUI_RecalculateMasking_m2292306590
Ofm:_DefaultComparer_Equals_m3770904334_gshared
nob:__ZN9GfxDevice23CreateAsyncReadbackDataEv
Mqd:__ZN14ParticleSystem22UpdateAllTransformDataEv
X7o:_fscanf
SPf:__ZNK25UnityWebRequestJavaScript16GetUploadedBytesEv
RV:__Z46AudioListener_CUSTOM_GetNumExtensionPropertiesP12Il2CppObject
bio:__ZN6il2cpp6icalls8mscorlib6SystemL16CheckMemberMatchI9FieldInfoNS_5utils10functional6FilterINSt3__212basic_stringIcNS8_11char_traitsIcEENS8_9allocatorIcEEEENS5_13VmStringUtils23CaseInsensitiveComparerEEEEEbPKT_PK11Il2CppClassSN_iRKT0_
Kko:__ZN30dense_hashtable_const_iteratorINSt3__24pairIK10KeyWrapperINS1_IPK14Il2CppAssemblyP11Il2CppClassEEEjEES9_17ReflectionMapHashIS8_EN14dense_hash_mapIS9_jSD_NS9_14EqualsComparerINS0_8equal_toIS8_EEEENS0_9allocatorISB_EEE9SelectKeyESI_SK_EppEv
ald:__ZN27ColorModulePropertyBindings13AddPropertiesER10vector_mapIi22ParticleModulePropertyNSt3__24lessIiEENS2_9allocatorINS2_4pairIiS1_EEEEE
B1j:_SslClientStream_Finalize_m1251363641
hOi:_ArraySegment_1_GetHashCode_m3428798772_AdjustorThunk
_Nl:_Enumerator_System_Collections_IEnumerator_Reset_m2313871153_gshared
GYh:__Z84RuntimeInvoker_RuntimeObject_RayU26_t3515555043_Single_t1397266774_Int32_t2950945753PFvvEPK10MethodInfoPvPS4_
pcd:__ZN13InitialModule18SetInheritedParamsERK23SubEmitterInheritValues
X7:__Z14GetMonoManagerv
LPj:_Array_InternalArray__IndexOf_TisMonoResource_t4103430009_m1351751258_gshared
Px:__ZN17AnimationPlayable34CollectAnimatorControllerPlayablesER13dynamic_arrayIP26AnimatorControllerPlayableLj0EE
xCe:__ZN5physx2Sc9StaticSim21postActor2WorldChangeEv
eSk:_FieldAccessException__ctor_m3583219052
Ynd:__ZL16ParticleGeomInitILb0EEvRK31ParticleSystemParticlesTempDatajRN4math8floatNx3ERK23ParticleSystemParticlesS5_S5_RKNS3_7_float4EPKfSB_SD_SB_RKNS3_5_int4EbSB_
Rrk:_Decimal_System_IConvertible_ToDouble_m3125524987
tqn:__ZN28GenericInterfaceFuncInvoker1Ib19Color32_t2600501292E6InvokeEPK10MethodInfoP12Il2CppObjectS0_
hyc:__Z57Register_UnityEngine_Transform_INTERNAL_set_localPositionv
DJg:__ZL105RectTransform_t3704657025_CustomAttributesCacheGenerator_RectTransform_INTERNAL_get_anchorMax_m1239315619P21CustomAttributesCache
nRb:__ZN13GfxDeviceGLES26SetRandomWriteTargetBufferEi15ComputeBufferID
Gs:__ZNK4PPtrI4MeshEptEv
RPo:_GC_split_block
hvm:_Array_Resize_TisUICharInfo_t75501106_m3903846016_gshared
SRm:_ReadOnlyCollection_1_System_Collections_Generic_ICollectionU3CTU3E_get_IsReadOnly_m3887826072_gshared
Ino:__ZNK15dense_hashtableINSt3__24pairIK10KeyWrapperINS1_IPK12PropertyInfoP11Il2CppClassEEEjEES9_17ReflectionMapHashIS8_EN14dense_hash_mapIS9_jSD_NS9_14EqualsComparerINS0_8equal_toIS8_EEEENS0_9allocatorISB_EEE9SelectKeyESI_SK_E8min_sizeEjj
YZb:__ZZ23InitPlayerLoopCallbacksvEN49EarlyUpdateResetFrameStatsAfterPresentRegistrator7ForwardEv
Bie:__ZN5physx6shdfnd4sortIPvNS0_4LessIS2_EENS0_19ReflectionAllocatorINS_2Cm5BlockIhLj256EEEEEEEvPT_jRKT0_RKT1_j
x8o:_poll
URm:_ReadOnlyCollection_1_System_Collections_IEnumerable_GetEnumerator_m1671097018_gshared
Vql:_UInt64_ToString_m1529093114_AdjustorThunk
qbk:__ZN21InterfaceFuncInvoker1I39CustomAttributeNamedArgument_t287865710iE6InvokeEjP11Il2CppClassP12Il2CppObjecti
qFh:_TypeLibImportClassAttribute__ctor_m2302178978
don:_X509Store_LoadCertificate_m1587806288
Ytl:_Escape_t3294788190_marshal_pinvoke
mgj:_Material__ctor_m1662457592
xhm:_EqualityComparer_1__cctor_m2335367819_gshared
uwj:_InputField_OnUpdateSelected_m1118869681
w9e:__ZN5physx20InternalTriangleMesh7releaseEv
KQe:__ZN5physx6shdfnd5ArrayINS_16PxsCCDBlockArrayINS_13PxsCCDOverlapELi128EE9BlockInfoENS0_19ReflectionAllocatorIS5_EEE15growAndPushBackERKS5_
P8d:__ZNK5physx7NpShape8getFlagsEv
cri:_SerializationException__ctor_m3131447373
NUa:__ZN4crnd12crn_unpacker11unpack_dxt1EPPhjjj
tL:__ZL55__ManagedRegistrationHelperFunction_CoordinateFramePairPv
zoc:__ZNK11ICallString6ToUTF8Ev
igi:__Z39RuntimeInvoker_MonoResource_t4103430009PFvvEPK10MethodInfoPvPS4_
v7n:__ZN15dense_hashtableINSt3__24pairIK10KeyWrapperIPK22Il2CppGenericParameterEP11Il2CppClassEES6_N6il2cpp5utils11PointerHashIS4_EEN14dense_hash_mapIS6_S9_SE_NS6_14EqualsComparerINS0_8equal_toIS5_EEEENS0_9allocatorISA_EEE9SelectKeyESJ_SL_E15insert_noresizeERKSA_
oLl:_Transform_1_Invoke_m2468053724_gshared
rRh:__Z51RuntimeInvoker_Void_t1185182177_TimeSpan_t881159249PFvvEPK10MethodInfoPvPS4_
gZ:__ZL60__ManagedRegistrationHelperFunction_ClothSkinningCoefficientPv
I2b:__ZNSt3__211__sift_downIR17ROSorterDepthPassP15RODataDepthPassEEvT0_S5_T_NS_15iterator_traitsIS5_E15difference_typeES5_
fAe:__ZN5physx19NpRigidBodyTemplateINS_14PxRigidDynamicEE25setMassSpaceInertiaTensorERKNS_6PxVec3E
kse:__ZNK5physx7NpCloth16getContactOffsetEv
KGk:_ArgumentException__ctor_m3200406061
dF:__ZN8Animator17ApplyOnAnimatorIKEiRNS_11AnimatorJobE
$ba:__ZN12FileAccessor4ReadEyyPvPy
CHb:__Z29Transfer_Blittable_ArrayFieldI18StreamedBinaryReadILb0EE11QuaternionfEvRT_R9ArrayInfoRK23StaticTransferFieldInfo
Wfo:__ZNSt3__26vectorIN6il2cpp2os11PollRequestENS_9allocatorIS3_EEE26__swap_out_circular_bufferERNS_14__split_bufferIS3_RS5_EE
D4m:_List_1_set_Capacity_m2777925136_gshared
oNc:__Z21GetSceneHierarchyPathPK6Object
FJm:_ReadOnlyCollection_1_System_Collections_Generic_ICollectionU3CTU3E_Remove_m1581675040_gshared
otg:__ZL88U3CBeginAuthenticateAsClientU3Ec__AnonStorey7_t1222040293_CustomAttributesCacheGeneratorP21CustomAttributesCache
scc:__ZN13RenderTexture9SetHeightEi
edh:_ShaderUtilities_GetFontExtent_m2484659839
Faa:__ZN17PersistentManager25PreallocateObjectThreadedEiNS_9LockFlagsE
iy:__ZN7mecanim9animation17ClearMotionOutputEPNS0_18AnimationNodeStateE
tyg:__ZL59LightmapBakeType_t1497855756_CustomAttributesCacheGeneratorP21CustomAttributesCache
BYj:_CipherSuiteCollection_get_IsFixedSize_m3127823890
h3i:_TMP_TextSelector_A_OnPointerExit_m1409227044
UGa:__ZN16LevelGameManager8TransferI24GenerateTypeTreeTransferEEvRT_
BNi:_InternalEnumerator_1_System_Collections_IEnumerator_get_Current_m3537550566_gshared
iCj:_Scrollbar_UpdateVisuals_m2492252165
Pmn:_PKCS12_get_Keys_m2165478388
Sxo:__ZN6il2cpp6icalls8mscorlib6System2IO6MonoIO17GetFileAttributesEP12Il2CppStringPi
hvi:_HMACMD5__ctor_m3008609295
elg:__ZL61X509KeyStorageFlags_t441861693_CustomAttributesCacheGeneratorP21CustomAttributesCache
yqk:_DateTime_ToString_m2992030064_AdjustorThunk
evf:_tt_cmap8_char_index
fqc:__Z14tessMeshDeleteP8TESSmeshP12TESShalfEdge
v9m:_Collection_1_System_Collections_ICollection_CopyTo_m388022681_gshared
V7:__Z24scripting_class_get_name17ScriptingClassPtr
G6h:__Z39RuntimeInvoker_JSONNodeType_t2191432521PFvvEPK10MethodInfoPvPS4_
GYi:_Oid__ctor_m911618594
J3i:_U3CAnimateVertexColorsU3Ec__Iterator0_Dispose_m2414077547
hea:__ZN13RuntimeStaticI15GUIEventManagerLb0EE13StaticDestroyEPv
r7i:_Response_AddHeader_m2396573179
S5j:_ShortComparer_Compare_m1881262465
Rub:__Z29Transfer_Blittable_ArrayFieldI14SafeBinaryReadjEvRT_R9ArrayInfoRK23StaticTransferFieldInfo
XEf:__ZN2UI14CanvasRenderer11GetMaterialEi
We:_emscripten_set_keydown_callback
ifl:_EncoderReplacementFallback__ctor_m1483565116
_xm:_Interpreter_IsWordChar_m2858055765
aei:__Z77RuntimeInvoker_Void_t1185182177_SingleU5BU5DU26_t2684236517_Int32_t2950945753PFvvEPK10MethodInfoPvPS4_
e6c:__ZN18ColorBySpeedModule8TransferI14SafeBinaryReadEEvRT_
jsa:__ZN9Scripting11UnityEngine29CustomRenderTextureUpdateZone12CleanupProxyEv
hca:__ZN12FileAccessorC2Ev
Sdi:__Z96RuntimeInvoker_Void_t1185182177_BooleanU5BU5DU26_t3454195888_Int32_t2950945753_Int32_t2950945753PFvvEPK10MethodInfoPvPS4_
FYh:__Z73RuntimeInvoker_Void_t1185182177_Vector2U26_t2376273893_RayU26_t3515555043PFvvEPK10MethodInfoPvPS4_
skm:_EqualityComparer_1_System_Collections_IEqualityComparer_Equals_m3855544238_gshared
sde:__ZN5physx2Sc15ArticulationSim12applyImpulseERNS0_8BodyCoreERKNS_9PxcFsDataERKNS_6PxVec3ES9_
RXa:__ZNK8Renderer29FlattenPerMaterialCustomPropsER22PerThreadPageAllocatorR10RenderNode
ded:__Z15UpdateRandomTplIL27ParticleSystemCurveEvalMode0EEvRK11MinMaxCurveS3_S3_R5RandNR23ParticleSystemParticlesjjRKN4math8float3x3ERKNS8_7_float4E
NJl:_Transform_1_Invoke_m1062341206_gshared
qC:__ZThn152_NK26AnimatorControllerPlayable25GetStateMachineBehavioursEv
Qyn:_EventFunction_1_Invoke_m2429482587_gshared
o_n:_U3CDefaultUnityWebRequestU3Ed__0_System_Collections_IEnumerator_get_Current_m332100748
Lih:_EventTrigger_OnDeselect_m1919608102
Pqd:__ZN14ParticleSystem16AssignRayBudgetsEv
qId:__ZN23ColliderTilingExtensionC2Ev
c7g:__ZL92HighscoreMenu_t988333087_CustomAttributesCacheGenerator_HighscoreMenu_Processjson_m644347857P21CustomAttributesCache
E4:__ZN14StackAllocator10ReallocateEPvji
X5a:__ZNK12InputManager22GetTypeVirtualInternalEv
$Nn:_VerticalLayoutGroup__ctor_m321345421
MJ:__ZN4PPtrI13MonoBehaviourE8TransferI18StreamedBinaryReadILb0EEEEvRT_
Akd:__ZN16CustomDataModuleD2Ev
uyd:__ZNSt3__27__sort3IR22InverseDepthComparitorP8DepthHitEEjT0_S5_S5_T_
mYl:_Enumerator_MoveNext_m1177880931_AdjustorThunk
Nce:__ZNK5physx14NpArticulation26getInternalDriveIterationsEv
RAd:__ZN14qsort_internal18QSortSingleJobDataIPN25b2SynchronizeFixturesTask14b2DeferredMoveEiPFbRKS2_S5_EE7SortJobEPS8_
Eqj:_SendMouseEvents_SetMouseMoved_m2822596724
aNg:__ZL82Event_t2956885303_CustomAttributesCacheGenerator_Event_get_commandName_m4275147343P21CustomAttributesCache
xRj:_Array_InternalArray__ICollection_Add_TisResolveHandler_t4124874245_m584706233_gshared
vsn:_TMP_XmlTagStack_1_Push_m1847519558_AdjustorThunk
aRj:_Enumerable_ThenBy_TisRuntimeObject_TisRuntimeObject_m2491979270_gshared
Yck:_DerivedType_get_FullName_m1025358827
nti:_CryptoConfig_MapNameToOID_m2044758263
foa:__ZL50__ManagedRegistrationHelperFunction_SetupCoroutinePv
jt:__ZN13ConstraintJob23ConstraintComponentDataC2ERKS0_
Y5c:__ZN14VelocityModule8TransferI14SafeBinaryReadEEvRT_
TWg:__ZL70InputField_t3762917431_CustomAttributesCacheGenerator_m_OnValueChangedP21CustomAttributesCache
fKb:__Z39WriteQueueForTransferSignatureIntoCacheRK31TransferFunctionScriptingTraitsRK24TransferRequestSignature17ScriptingClassPtrR23CachedSerializationDataRb
Aqe:__ZN5physx15NpActorTemplateINS_7PxClothEE22setClientBehaviorFlagsENS_7PxFlagsINS_25PxActorClientBehaviorFlag4EnumEhEE
vgl:_Encoding_get_UTF8UnmarkedUnsafe_m320312322
wkl:_Thread_Thread_free_internal_m333849022
__c:__Z35Transfer_Blittable_FixedBufferFieldI9JSONWritexEvRK29SerializationCommandArgumentsR31RuntimeSerializationCommandInfo
_ym:_CostDelegate_BeginInvoke_m2828452701
bKf:__ZN22BaseUnityConnectClient30OnEnteringStatePausedOrStoppedEv
uEd:__ZN10ClipperLib7Clipper18SwapPositionsInAELEPNS_5TEdgeES2_
iZm:_U3CCreateWhereIteratorU3Ec__Iterator1D_1_MoveNext_m3448330397_gshared
Edh:_TextContainer_get_rect_m3292172739
gLn:_AnalyticsEventParam_get_value_m2837935290
vwk:_Array_Sort_TisSpriteData_t3048397587_m3876534650_gshared
PFm:_Collection_1_ConvertItem_m1556170494_gshared
wy:__ZN7mecanim5human12HumanPoseAddERNS0_9HumanPoseERKS1_S4_
Mjk:_DateTime_ToUniversalTime_m1945318289
p$f:_U3CCaretBlinkU3Ec__Iterator0_System_Collections_Generic_IEnumeratorU3CobjectU3E_get_Current_m414319169
Mtk:_DllNotFoundException__ctor_m1156705135
BNk:_ArrayList_ToArray_m3827492363
Sod:__Z20UpdateWholeSheet2TplIL27ParticleSystemCurveEvalMode2ELS0_2EEvfRK11MinMaxCurveS3_RK23ParticleSystemParticlesPf
aGj:_Slider_get_stepSize_m1423227661
Qql:_UInt64_Parse_m819899889
zDo:__ZN6il2cpp8metadata15GenericMetadata15GetGenericClassEiPK17Il2CppGenericInst
X6k:_SymmetricAlgorithm_set_IV_m3196220308
iIi:_InternalEnumerator_1_get_Current_m3433165672_gshared
pnk:_Convert_ToUInt32_m1453583008
kTk:_CompareInfo_Compare_m894311506
Oya:__Z24MergeTransformComponentsR9TransformS0_b
Pbo:__ZNK15dense_hashtableI10KeyWrapperIPK19Il2CppGenericMethodES4_N6il2cpp8metadata23Il2CppGenericMethodHashEN14dense_hash_setIS4_S7_NS4_14EqualsComparerINS6_26Il2CppGenericMethodCompareEEENSt3__29allocatorIS4_EEE8IdentityESB_SE_E10test_emptyEj
NNi:_InternalEnumerator_1_System_Collections_IEnumerator_get_Current_m3982010935_AdjustorThunk
yKi:_InternalEnumerator_1_MoveNext_m683739489_AdjustorThunk
s8d:__ZThn24_N5physx2Sc20ArticulationJointSimD0Ev
whh:_EventSystem_UpdateModules_m3643806022
AIo:__ZN6il2cpp2gc16GarbageCollector10StartWorldEv
EOd:__ZN14PhysicsManager32AddToTriggerStayStatesIfRequiredEPK9Rigidbody
Uxd:__ZN15b2CircleContactD0Ev
P2n:_AnimationOffsetPlayable__cctor_m1029460816
Hun:_InvokableCall_1__ctor_m2610016537_gshared
jXi:_SslStream_get_Position_m2568970827
RPg:__ZL54Collision2D_t2842956331_CustomAttributesCacheGeneratorP21CustomAttributesCache
V8k:_Evidence_get_SyncRoot_m2835084965
z2d:__ZN5physx14PxsAABBManager12createBPElemEv
JLj:_SetPropertyUtility_SetStruct_TisTouchScreenKeyboardType_t1530597702_m2455393348_gshared
j4i:_VertexShakeB__ctor_m3774105634
lpe:__ZThn12_N5physx7NpShape14onRefCountZeroEv
Glg:__ZL59ICryptoTransform_t2733259762_CustomAttributesCacheGeneratorP21CustomAttributesCache
kXd:__ZL26GeomMTDCallback_ConvexMeshRN5physx6PxVec3ERfRKNS_10PxGeometryERKNS_11PxTransformES5_S8_
aMo:__ZN6il2cpp2vm13ComObjectBase19GetRuntimeClassNameEPP15Il2CppHString__
FGb:__Z35Transfer_Blittable_FixedBufferFieldI18StreamedBinaryReadILb0EEyEvRK29SerializationCommandArgumentsR31RuntimeSerializationCommandInfo
YFa:__Z37GetBarycentricCoordinatesForOuterCellPPK8Vector3fRK13dynamic_arrayIS_Lj0EERS0_RK11TetrahedronR8Vector4f
n$o:_PowerUpSpeed__ctor_m2105052929
Gk:_emscripten_glVertexAttribPointer
uap:__ZNSt11logic_errorD0Ev
UMb:__ZN14PreloadManager26UpdatePreloadingSingleStepENS_21UpdatePreloadingFlagsEi
Azn:_TweenRunner_1__ctor_m340723704_gshared
QEj:_ScrollRect_SetLayoutHorizontal_m3078869633
O4e:__ZN18ScBeforeSolverTask11runInternalEv
bik:_Console_OpenStandardInput_m3262421490
Nsl:_SimpleCollator__ctor_m1587210019
rsc:__Z57Register_UnityEngine_RectTransform_INTERNAL_set_anchorMinv
$4d:__ZL33GeomOverlapCallback_CapsuleConvexRKN5physx10PxGeometryERKNS_11PxTransformES2_S5_PNS_2Gu12TriggerCacheE
gnk:_Convert_ToUInt16_m1480956416
vla:__ZN6prcoreL25inner_stretch_i8_bilinearEPKNS_9InnerInfoE
lom:_Array_InternalArray__ICollection_Add_TisUriScheme_t722425697_m3142345403_gshared
qEo:__ZNSt3__26__treeINS_12__value_typeIjN6il2cpp2os17SocketHandleEntryEEENS_19__map_value_compareIjS5_NS_4lessIjEELb1EEENS_9allocatorIS5_EEE16__insert_node_atEPNS_16__tree_node_baseIPvEERSG_SG_
l7g:__ZL75U3CDelayLoadLevelU3Ec__Iterator0_t1718656173_CustomAttributesCacheGeneratorP21CustomAttributesCache
Scb:__ZL30RegisterFilteredObjectCallbackPP12Il2CppObjectiPv
DYn:_AudioListenerExtension_get_audioListener_m3597041395
GUm:_ReadOnlyCollection_1_System_Collections_Generic_IListU3CTU3E_RemoveAt_m3317217538_gshared
AKg:__ZL54AudioSource_t3935305588_CustomAttributesCacheGeneratorP21CustomAttributesCache
Avd:__ZN16PhysicsManager2D19ApplyParticleForcesER13dynamic_arrayI21BatchedColliderResultLj0EE
k9b:__Z30GetScriptableCullingParametersR6CamerabR27ScriptableCullingParameters
C_:__ZN11UnityEngine15CloudWebService16SessionContainer24GetSessionHeaderJsonDataERKN4core12basic_stringIcNS2_20StringStorageDefaultIcEEEERNS2_13StringBuilderE
Bck:_DerivedType_GetEvent_m4157575360
zda:__ZN13RuntimeStaticI21AssetReferenceStorageLb0EE13StaticDestroyEPv
D9e:__ZN5physx20InternalTriangleMesh9loadRTreeERNS_13PxInputStreamEj
Lig:__ZL56_MethodBuilder_t600455149_CustomAttributesCacheGeneratorP21CustomAttributesCache
qBe:__ZN5physx19NpRigidBodyTemplateINS_14PxRigidDynamicEE25setCMassLocalPoseInternalERKNS_11PxTransformE
mQk:_Comparer__ctor_m2831654082
LAg:__ZL54PhysicsUpdate_t81124440_CustomAttributesCacheGeneratorP21CustomAttributesCache
eCe:__ZNK5physx15NpActorTemplateINS_13PxRigidStaticEE14getOwnerClientEv
qsm:_Array_InternalArray__set_Item_TisKeyValuePair_2_t2530217319_m258011711_gshared
z3h:__Z72RuntimeInvoker_Bounds_t2266837910_RuntimeObject_Matrix4x4U26_t3606180965PFvvEPK10MethodInfoPvPS4_
XYm:__ZN28GenericInterfaceFuncInvoker2IbiiE6InvokeEPK10MethodInfoP12Il2CppObjectii
CWl:_Enumerator_MoveNext_m2041610666_AdjustorThunk
KIo:__ZN6il2cpp6icalls8mscorlib6System9AppDomain22InternalGetProcessGuidEP12Il2CppString
xw:__ZNK25RuntimeAnimatorController30GetAnimationClipOverrideVectorEv
zxe:__ZN5physx2Sc18ParticleSystemCore16releaseParticlesEv
cSe:__ZNK5physx2Gu29EPASupportMapPairRelativeImplINS0_8CapsuleVENS0_4BoxVEE6getDirEv
h_d:__ZN5physx2Gu20intersectTriangleBoxERKNS_6shdfnd3aos5Vec3VES5_S5_S5_S5_
eqg:__ZL79Convert_t2465617642_CustomAttributesCacheGenerator_Convert_ToUInt32_m3188121845P21CustomAttributesCache
oMh:__Z48RuntimeInvoker_RuntimeObject_Decimal_t2948259380PFvvEPK10MethodInfoPvPS4_
Nkl:_ThreadStart_EndInvoke_m3768045394
cv:__ZN9Scripting11UnityEngine10Animations16ConstraintSource9InitProxyEv
pQc:__Z34Quaternion_CUSTOM_Inverse_InjectedRK11QuaternionfRS_
iio:__ZNSt3__214__split_bufferIP9FieldInfoRNS_9allocatorIS2_EEEC2EjjS5_
ook:_DateTime__cctor_m1880035693
vri:_StreamingContext__ctor_m2604757771_AdjustorThunk
ozb:__Z18Transfer_BlittableI24GenerateTypeTreeTransferLb1EjEvRK29SerializationCommandArgumentsR31RuntimeSerializationCommandInfo
a5m:_List_1_AddCollection_m1469681717_gshared
mno:__ZNK15dense_hashtableINSt3__24pairIK10KeyWrapperINS1_IPK11Il2CppImageP11Il2CppClassEEEjEES9_17ReflectionMapHashIS8_EN14dense_hash_mapIS9_jSD_NS9_14EqualsComparerINS0_8equal_toIS8_EEEENS0_9allocatorISB_EEE9SelectKeyESI_SK_E10test_emptyERK30dense_hashtable_const_iteratorISB_S9_SD_SM_SI_SK_E
$nm:_KeyValuePair_2_ToString_m3013572783_gshared
z1h:__Z103RuntimeInvoker_Boolean_t97287965_Ray_t3785851493_Single_t1397266774_Int32_t2950945753_Int32_t2950945753PFvvEPK10MethodInfoPvPS4_
zgg:__ZL68AssemblyCopyrightAttribute_t836190902_CustomAttributesCacheGeneratorP21CustomAttributesCache
VAc:__ZNK28RectTransformPropertyBinding9BindValueER6ObjectRKN11UnityEngine9Animation14GenericBindingERNS3_10BoundCurveE
LIa:__ZN11ColorRGBA328TransferI14SafeBinaryReadEEvRT_
nZn:_AudioSampleProvider_InvokeSampleFramesAvailable_m3478252833
ven:_Collection_1_Add_m1736908447_gshared
qrf:_cff_vstore_done
xgf:__ZN5physx6shdfnd5ArrayIPvNS0_19ReflectionAllocatorINS_24NpPtrTableStorageManager8PtrBlockILi4EEEEEE15growAndPushBackERKS2_
gmb:__ZN9GfxDevice33ScheduleComputeBufferJobsInternalEPFvP20ComputeBufferJobDataEPFvRK8JobFenceEPK27ComputeBufferJobInstructionj
eYh:__Z68RuntimeInvoker_Void_t1185182177_UInt16_t2177724958_SByte_t1669577662PFvvEPK10MethodInfoPvPS4_
qrl:__ZN25GenericVirtActionInvoker2IP12Il2CppObjectP39UnhandledExceptionEventArgs_t2886101344E6InvokeEPK10MethodInfoS1_S1_S3_
rCi:_InternalEnumerator_1_get_Current_m3008260692_AdjustorThunk
Dof:__ZN20TextRenderingPrivate8TextMesh8TransferI14SafeBinaryReadEEvRT_
Gvi:_MACTripleDES_HashFinal_m3613553534
kql:_UInt64_System_IConvertible_ToChar_m2074245892
TRa:__Z11IsHDRFormat13TextureFormat
ft:__ZN4core8hash_setIPN5Unity9ComponentENS_4hashIS3_EENSt3__28equal_toIS3_EEE4growEi
Hil:_UTF8Encoding_InternalGetBytes_m1965760031
zg:_emscripten_glClearDepth
RCc:__ZNK8GUILayer22GetTypeVirtualInternalEv
tWa:__ZN14SafeBinaryRead21TransferSTLStyleArrayINSt3__26vectorIN15QualitySettings14QualitySettingENS1_9allocatorIS4_EEEEEEvRT_17TransferMetaFlags
$1n:_Physics2D_GetRayIntersectionNonAlloc_m2525277886
Evn:_UnityAction_1__ctor_m3007623985_gshared
dGl:_KeyCollection__ctor_m2388548663_gshared
TWm:_Comparison_1_Invoke_m3423206938_gshared
d9h:__Z56RuntimeInvoker_Boolean_t97287965_ILTokenInfo_t2325775114PFvvEPK10MethodInfoPvPS4_
ZLg:__ZL92DownloadHandler_t2937767557_CustomAttributesCacheGenerator_DownloadHandler__ctor_m2126376377P21CustomAttributesCache
R7a:__ZNSt3__26vectorINS_4pairIPKN5Unity4TypeE7Hash128EENS_9allocatorIS7_EEE8__appendEj
Et:__ZN4core8hash_setIPN5Unity9ComponentENS_4hashIS3_EENSt3__28equal_toIS3_EEE4growEv
wVl:_LinkedList_1_get_First_m1512309353_gshared
_2c:__ZN8JSONRead21TransferSTLStyleArrayI13dynamic_arrayIaLj0EEEEvRT_17TransferMetaFlags
nQl:_ValueCollection_get_Count_m241121908_gshared
trf:_cff_font_load
oJo:__GLOBAL__sub_I_LibraryLoader_cpp
dOc:__Z13IsPathCreatedRKN4core12basic_stringIcNS_20StringStorageDefaultIcEEEE
FVg:__ZL99Dropdown_t2274391225_CustomAttributesCacheGenerator_Dropdown_DelayedDestroyDropdownList_m2082128994P21CustomAttributesCache
zUe:__ZN5physx35solveContactPreBlock_ConcludeStaticEPKNS_23PxcSolverConstraintDescEjRNS_16PxcSolverContextE
Ybj:_Debug_LogWarningFormat_m2535776735
bSa:__ZL22stbir__encode_scanlineP11stbir__infoiPvPfiii
xRn:__ZL24UnresolvedVirtualCall_28P12Il2CppObjectS0_iiPK10MethodInfo
AEh:_ExternalException__ctor_m2877839282
Tjf:__ZN20QuadTreeNodeRenderer13StaticDestroyEPv
y$:__ZN11UnityEngine15CloudWebService20WebRequestRestClient5AbortEv
qGm:_Collection_1_InsertItem_m954500348_gshared
GBm:_Regex_Matches_m2080913806
QBc:__ZN9Transform12CleanupClassEv
W0f:_TMP_MeshInfo__cctor_m2816277573
UVg:__ZL57FontData_t746620069_CustomAttributesCacheGenerator_m_FontP21CustomAttributesCache
o7d:__ZN5physx6shdfnd5ArrayIPvNS0_15InlineAllocatorILj256ENS0_19ReflectionAllocatorINS_2Cm5BlockIS2_Lj32EEEEEEEE15growAndPushBackERKS2_
O3e:__ZN5physx18PxsSolverStartTask13setupDescTaskEv
oof:_UNITY_FT_Set_Pixel_Sizes
q9j:_OperatingSystem_Clone_m1122165140
wnk:_Convert_ToUInt32_m1767593911
dIl:__ZN23GenericVirtFuncInvoker2IbibE6InvokeEPK10MethodInfoP12Il2CppObjectib
EE:__ZN11UnityEngine9Animation33SetGenericTransformPropertyValuesERKNS0_30AnimatorGenericBindingConstantERKN7mecanim10ValueArrayEP9Transformy
Jog:__ZL59AttributeTargets_t1784037988_CustomAttributesCacheGeneratorP21CustomAttributesCache
QBg:__ZL61ThreadedLoadingDebug_t53594427_CustomAttributesCacheGeneratorP21CustomAttributesCache
j0n:_Canvas_add_willRenderCanvases_m1234571137
L4o:_U3CStartU3Ec__Iterator0_System_Collections_Generic_IEnumeratorU3CobjectU3E_get_Current_m2957603276
PVd:__ZN5physx3Cct13BoxController6resizeEf
lUn:__ZL25UnresolvedVirtualCall_178P12Il2CppObjectiiPK10MethodInfo
D0m:_List_1_RemoveAll_m3165362277_gshared
knl:_Type_type_is_subtype_of_m1406623598
joa:__ZL54__ManagedRegistrationHelperFunction_SpriteAtlasManagerPv
_1l:_List_1__ctor_m3151640588_gshared
m8g:__ZL58JSONLazyCreator_t3621052039_CustomAttributesCacheGeneratorP21CustomAttributesCache
Jbl:_String_System_IConvertible_ToByte_m4057316234
s5e:__ZN5physx6shdfnd5ArrayINS_2Cm12DelegateTaskINS_2Sc5SceneEXadL_ZNS5_19updateCCDSinglePassEPNS_10PxBaseTaskEEEEENS0_19ReflectionAllocatorIS8_EEE8recreateEj
gjl:_Thread_get_CurrentThread_m4142136012
kFa:__Z30ProcessDynamicBatchGeometryJobP25DynamicVBOGeometryJobDataj
j3b:__ZNSt3__27__sort4IRNS_6__lessI11CulledLightS2_EEPS2_EEjT0_S6_S6_S6_T_
pro:__ZN6il2cpp2vm14TypeNameParser26ParseArrayModifierOptionalEv
n9:__Z26scripting_object_get_class18ScriptingObjectPtr
Two:__ZN6il2cpp6icalls8mscorlib6System10Reflection8Assembly13get_code_baseEP24Il2CppReflectionAssemblyb
jBd:__ZN34b2SolveDiscreteIslandBodySleepTaskD0Ev
K8a:__ZNSt3__26vectorIN4core12basic_stringIcNS1_20StringStorageDefaultIcEEEE13stl_allocatorIS5_L18MemLabelIdentifier13ELi16EEE7reserveEj
wIj:_Array_InternalArray__ICollection_Contains_TisInt16_t2552820387_m2915683400_gshared
ggd:__Z25UpdateOrbitalAndRadialTplIL27ParticleSystemCurveEvalMode1ELS0_3ELS0_0EEvRK11MinMaxCurveS3_S3_S3_S3_S3_S3_R23ParticleSystemParticlesjjRKN4math8float3x3ERKNS6_7affineXERKNS6_7_float4E
vui:_DSASignatureDeformatter__ctor_m2889130126
B6g:__ZL131U3CSpawnPowerUpWavesU3Ec__Iterator6_t2214992415_CustomAttributesCacheGenerator_U3CSpawnPowerUpWavesU3Ec__Iterator6__ctor_m652764963P21CustomAttributesCache
PDc:__ZNK28MonoBehaviourPropertyBinding15GenerateBindingERKN4core12basic_stringIcNS0_20StringStorageDefaultIcEEEEbRN11UnityEngine9Animation14GenericBindingE
qpj:_RectTransform_INTERNAL_set_pivot_m1160676233
E5m:_List_1_set_Item_m35836043_gshared
Urn:_TMP_ObjectPool_1_Get_m49507659_gshared
kYg:__ZL70ScrollRect_t4137855814_CustomAttributesCacheGenerator_m_OnValueChangedP21CustomAttributesCache
tZi:_X509ChainElementCollection__ctor_m3424079155
iUn:__ZL25UnresolvedVirtualCall_175P12Il2CppObjectdPK10MethodInfo
X4o:_CameraController_Awake_m2307893076
vvi:_HMACSHA512__cctor_m4155933671
fzm:_LinkStack_Push_m3081279930
tzk:_TMP_TextInfo_Resize_TisTMP_WordInfo_t3331066303_m943255601_gshared
_0f:_TMP_ScrollbarEventHandler_OnDeselect_m2716618027
Aid:__Z20StartSingleSidedEdgeILN11ShapeModule14MultiModeValueE0EEvRS0_R23ParticleSystemParticlesRK19ParticleSystemStateRK27ParticleSystemEmissionStateRKN4math8float3x3ERKNSB_7affineXEjbj
i_m:_Nullable_1__ctor_m509459810_AdjustorThunk
wCl:_Enumerator_MoveNext_m1107569389_gshared
N3g:__ZL72TMP_Text_t2599618874_CustomAttributesCacheGenerator_m_wordWrappingRatiosP21CustomAttributesCache
gbe:__ZNK5physx21PxsBodyTransformVault12getTransformERKNS_11PxsBodyCoreE
jio:__ZNSt3__26vectorIP9FieldInfoNS_9allocatorIS2_EEE26__swap_out_circular_bufferERNS_14__split_bufferIS2_RS4_EE
Jyn:_UnityEvent_3_GetDelegate_m1156357290_gshared
fKo:__ZN6il2cpp6icalls8mscorlib6System11Environment15internalGetHomeEv
WCl:_Enumerator_System_Collections_IEnumerator_get_Current_m2223443336_AdjustorThunk
UFi:_InternalEnumerator_1__ctor_m4200721464_gshared
Jhj:_Matrix4x4_GetHashCode_m4034747639_AdjustorThunk
CDh:_ResourceCacheItem_t51292791_marshal_pinvoke_cleanup
$ta:__ZNK5Unity9Component7GetNameEv
KIf:__ZN11UnityEngine9Analytics15UserCustomEvent15Internal_CreateE18ScriptingObjectPtrRKN4core12basic_stringIcNS3_20StringStorageDefaultIcEEEE
pdc:__Z23FindMonoScriptFromClass17ScriptingClassPtr
I6f:_TMP_Text_ReplaceClosingStyleTag_m761056113
_6k:_SymmetricAlgorithm_get_KeySize_m4185004893
w7l:_List_1_GetEnumerator_m232588170_gshared
S0n:_CanvasRenderer_SplitUIVertexStreams_m2753637362
BXd:__ZN44ConvexVsHeightfieldContactGenerationCallback7onEventEjPj
B4i:_VertexZoom_AnimateVertexColors_m3033224630
hEd:__ZNSt3__26vectorIPN10ClipperLib6OutRecENS_9allocatorIS3_EEE21__push_back_slow_pathIRKS3_EEvOT_
bqb:__ZN21ScalableBufferManager23UnregisterRenderSurfaceEP17RenderSurfaceBaseb
Bio:__ZNSt3__214__split_bufferIPK10MethodInfoRNS_9allocatorIS3_EEED2Ev
U3m:_List_1_System_Collections_IList_Remove_m1070694895_gshared
OFn:_LayoutCache__ctor_m3885940174
t$a:__ZN13ScreenManagerD0Ev
H2n:_AnimationMotionXToDeltaPlayable_GetHandle_m1319190040_AdjustorThunk
Jtd:__ZNK11b2RopeJoint16GetReactionForceEf
XF:__ZN7mecanim8skeleton26SkeletonPoseComputeGlobalQEPKNS0_8SkeletonEPKNS0_13SkeletonPoseTIN4math4trsXEEEPS7_ii
Rkn:_TlsServerSettings__ctor_m373357120
jql:_UInt64_System_IConvertible_ToByte_m1501504925_AdjustorThunk
g$n:_TextGenerator_Invalidate_m1072346986
I$n:_TextMesh_set_anchor_m3559070145
nnd:__ZN14ParticleSystem40OnTrailGeometryJobsScheduledRenderThreadERK8JobFence
l$j:_TlsClientHello_ProcessAsTls1_m2549285167
yii:__Z74RuntimeInvoker_Boolean_t97287965_UIVertex_t4057497605_UIVertex_t4057497605PFvvEPK10MethodInfoPvPS4_
PMm:_ReadOnlyCollection_1_System_Collections_IList_RemoveAt_m3006136027_gshared
FSe:__ZN5physx2Gu19_gjkRelativeRayCastINS0_9TriangleVENS0_8CapsuleVEEEbRT_RT0_RKNS_6shdfnd3aos15PsMatTransformVERKNS9_6FloatVERKNS9_5Vec3VESI_RSD_RSG_SK_f
xDj:_ScrollRect_set_decelerationRate_m723367336
x3i:_TMP_UiFrameRateCounter_Update_m2632221777
J9c:__ZN13TriggerModule8TransferI19StreamedBinaryWriteILb0EEEEvRT_
xF:__ZN9BlobWrite8TransferI22OffsetPtrArrayTransferIiEEEvRT_PKc17TransferMetaFlags
Zel:_EncoderExceptionFallback_Equals_m2760188920
HNo:__ZN6il2cpp6icalls8mscorlib6System7Runtime15InteropServices8GCHandle15GetTargetHandleEP12Il2CppObjectii
nLi:_InternalEnumerator_1__ctor_m43405049_AdjustorThunk
Cxb:__Z18Transfer_BlittableI17RemapPPtrTransferLb1EjEvRK29SerializationCommandArgumentsR31RuntimeSerializationCommandInfo
h4k:_RIPEMD160Managed_HashCore_m2350629432
Rbe:__ZN5physx6shdfnd5ArrayIPvNS0_15InlineAllocatorILj256ENS0_19ReflectionAllocatorINS_11NpAggregateEEEEEE15growAndPushBackERKS2_
Zac:__ZNK15LODGroupManager17CalculateLODMasksERK13LODParametersfPhPf
gQ:__ZN4FMOD6System7releaseEv
EOe:__ZN5physx6shdfnd8PoolBaseINS_2Sc18TriggerInteractionENS0_19ReflectionAllocatorIS3_EEE15disposeElementsEv
nBb:__Z18Transfer_BlittableI19StreamedBinaryWriteILb0EELb1E8BitFieldEvRK29SerializationCommandArgumentsR31RuntimeSerializationCommandInfo
jKk:_Boolean_CompareTo_m3665076258
gcl:_String_Split_m3580120853
byl:_PrivateKeyInfo__ctor_m2811023496
Eba:__Z18PathToAbsolutePathRKN4core12basic_stringIcNS_20StringStorageDefaultIcEEEE
WPg:__ZL95Rigidbody2D_t939494601_CustomAttributesCacheGenerator_Rigidbody2D_AddForce_m1099013366____mode1P21CustomAttributesCache
KGn:_GUILayoutUtility_LayoutFromEditorWindow_m2914699782
BSj:_BigInteger_SetBit_m1723423691
wra:__ZN9Scripting11UnityEngine12Experimental10PlayerLoop13PreLateUpdate9InitProxyEv
Wff:__ZN5physx28PxcContactCapsuleHeightFieldERKNS_2Gu13GeometryUnionES3_RKNS_11PxTransformES6_RKfRNS_10PxcNpCacheERNS0_13ContactBufferE
h7h:__Z78RuntimeInvoker_RuntimeObject_ObjectU26_t2146539884_RuntimeObject_RuntimeObjectPFvvEPK10MethodInfoPvPS4_
rdg:__ZL65X509ExtensionCollection_t609554708_CustomAttributesCacheGeneratorP21CustomAttributesCache
jIf:__ZN21UnityAnalyticsManager15ThreadedCleanupEv
psn:_TMP_XmlTagStack_1_SetDefault_m860177551_AdjustorThunk
rRo:__ZN6il2cpp6icalls8mscorlib6System10Reflection16MonoPropertyInfo16GetTypeModifiersEPvb
YFd:__ZThn160_N17PolygonCollider2D5ResetEv
xXd:__ZL31PointInConvexPolygon2D_OutCodesPKfjffffRh
Sye:__ZN5physx22NpParticleBaseTemplateINS_16PxParticleSystemENS_16NpParticleSystemEE18setDynamicFrictionEf
Ayn:_UnityEvent_3_RemoveListener_m3235168934_gshared
HRa:__ZL13BlitImageImplR14ImageReferenceiiRKS_NS_10ColorSpaceENS_8BlitModeEb
RJc:__ZN15DirectorManager17AcquireOutputNodeEv
Wed:__ZL15AccumulateNoiseILb1ELi1EEN4math8floatNx2ERKNS0_8floatNx3ERKfiS6_S6_
PZa:__Z14resize_trimmedINSt3__26vectorI13dynamic_arrayI8Vector2fLj0EENS0_9allocatorIS4_EEEEEvRT_j
jtm:_Array_InternalArray__set_Item_TisColor32_t2600501292_m1891325855_gshared
EIb:__ZN10MonoScript23VirtualRedirectTransferER17RemapPPtrTransfer
WBk:_GameObject_GetComponentInChildren_TisRuntimeObject_m1310240902_gshared
cfe:__ZN5physx2Sc21ArticulationJointCore21setInternalComplianceEf
fFl:_KeyCollection_System_Collections_Generic_ICollectionU3CTKeyU3E_Remove_m1071033400_gshared
dWj:__ZN30GenericInterfaceActionInvoker2IP12Il2CppObjectP21EventArgs_t3591816995E6InvokeEPK10MethodInfoS1_S1_S3_
ref:__ZN9Rigidbody12MoveRotationERK11Quaternionf
r7g:__ZL80Scoreboard_t4002975821_CustomAttributesCacheGenerator_U3CScoreU3Ek__BackingFieldP21CustomAttributesCache
rdf:__ZNK5physx6shdfnd10Foundation13getErrorLevelEv
hEg:__ZL69PersistentCall_t3407714124_CustomAttributesCacheGenerator_m_ArgumentsP21CustomAttributesCache
THa:__Z32TransferEnumWithNameForceIntSizeI14SafeBinaryReadN21BuiltinShaderSettings17BuiltinShaderModeEEvRT_RT0_PKc17TransferMetaFlags
z$j:_TlsServerCertificateRequest_ProcessAsSsl3_m1084200341
mJa:__ZN16ReflectionProbes28GetMinBakedCubemapResolutionEv
C6e:__ZN5physx2Cm12DelegateTaskINS_2Sc5SceneEXadL_ZNS3_15postNarrowPhaseEPNS_10PxBaseTaskEEEE11runInternalEv
iCi:_InternalEnumerator_1__ctor_m1196506529_gshared
Cjf:__Z20ConvertContactToMonoP9Collision
N8k:_PermissionSet__ctor_m2328457660
KNl:_Enumerator__ctor_m1849900510_gshared
bSi:_Enumerator__ctor_m3604398513_AdjustorThunk
s7n:__ZN15dense_hashtableINSt3__24pairIK10KeyWrapperIPK22Il2CppGenericParameterEP11Il2CppClassEES6_N6il2cpp5utils11PointerHashIS4_EEN14dense_hash_mapIS6_S9_SE_NS6_14EqualsComparerINS0_8equal_toIS5_EEEENS0_9allocatorISA_EEE9SelectKeyESJ_SL_E6insertERKSA_
RYf:_TMP_InputField_get_characterValidation_m293459329
K3f:_TMP_SubMeshUI_get_mesh_m1845552462
PJg:__ZL101SpriteAtlasManager_t3158462485_CustomAttributesCacheGenerator_SpriteAtlasManager_Register_m2413332465P21CustomAttributesCache
l_n:_RequestHelper_get_Method_m965173330
Hmn:_X509CertificateEnumerator__ctor_m85694331
sSb:__ZN14DataBufferGLES16RecreateWithDataEjPKv
xua:__Z29GetGlobalAllowNameConversionsv
wXd:__ZL17transformVerticesRfS_S_S_PfjPKN5physx6PxVec3EPKhRKNS1_7PxMat33E
$ff:__ZNK5physx2Gu15HeightFieldUtil31getFaceIndexAtShapePointNoTest2Ejff
vqm:_Array_InternalArray__Insert_TisTableRange_t3332867892_m558285859_gshared
POd:__ZNK12PhysXRaycast20FindParticleOverlapsER13dynamic_arrayI15BatchedOverlapsLj0EEPP8Colliderj
fec:__ZN8Material8SetColorEN9ShaderLab16FastPropertyNameERK10ColorRGBAf
mTg:__ZL77ExecuteEvents_t3484638744_CustomAttributesCacheGenerator_U3CU3Ef__mgU24cacheFP21CustomAttributesCache
Z$e:__ZN5physx6shdfnd5ArrayIPNS_14PxLightCpuTaskENS0_13TempAllocatorEE6resizeEjRKS3_
UZl:_Enumerator_System_Collections_IEnumerator_Reset_m3754523291_gshared
Chm:_EqualityComparer_1__cctor_m2645305258_gshared
KMf:__ZN11UnityEngine7Connect20RemoteConfigSettings19ConfigUpdatedStaticEPS1_bbi
Xog:__ZL77Convert_t2465617642_CustomAttributesCacheGenerator_Convert_ToByte_m2375887898P21CustomAttributesCache
bS:__ZN11AudioSource23VirtualRedirectTransferER18StreamedBinaryReadILb0EE
QXi:_X509CertificateEnumerator__ctor_m943731472
G6k:_SHA512Managed_processLength_m2162821715
m7i:_Request_InfoString_m3189957263
qnj:_RangeInt_get_end_m4128831787
FPe:__ZNK5physx2Sq10AABBPruner5sweepERKNS0_9ShapeDataERKNS_6PxVec3ERfRNS0_14PrunerCallbackE
Nmn:_PKCS12_get_IterationCount_m3005687235
UBb:__ZN10RectOffset8TransferI19StreamedBinaryWriteILb0EEEEvRT_
Mbp:dynCall_iiifiii
uOf:__Z25GetUnityConnectModuleSpecv
Z$l:_List_1_get_Count_m3994226496_gshared
K2m:_List_1_set_Item_m2082115010_gshared
Mfl:_Encoding_GetBytes_m3735967069
cDd:__ZN23ColliderTilingExtension5ResetEv
gIk:_Array_Initialize_m3004991267
JVb:__ZN14GfxContextGLES43AddRenderSurfaceToDeferredFBOInvalidateListEPK17RenderSurfaceGLES
jRe:__ZN5physx17PxsCCDAdvanceTask11runInternalEv
xwa:__ZN11NamedObject23VirtualRedirectTransferER14SafeBinaryRead
$cp:dynCall_vifiii
WGj:_Text_get_resizeTextMinSize_m1002355407
cof:__ZNSt3__26vectorIN20TextRenderingPrivate8FontImpl13CharacterInfoE13stl_allocatorIS3_L18MemLabelIdentifier1ELi16EEE6insertENS_11__wrap_iterIPKS3_EERS9_
mo:FUNCTION_TABLE_vifiiiiiiiiiiiii
UHk:_Array_CreateInstance_m1027597705
j7f:_TMP_Text_SetFaceColor_m1487954336
umo:__ZNK15dense_hashtableINSt3__24pairIK10KeyWrapperINS1_IPK10MethodInfoP11Il2CppClassEEEjEES9_17ReflectionMapHashIS8_EN14dense_hash_mapIS9_jSD_NS9_14EqualsComparerINS0_8equal_toIS8_EEEENS0_9allocatorISB_EEE9SelectKeyESI_SK_E8min_sizeEjj
VCj:_Selectable_get_navigation_m3508916916
sJd:__ZN10Effector2D10EndContactEP9b2Contact
oLo:__ZN6il2cpp5utils11StringUtils11Utf16ToUtf8ERKNSt3__212basic_stringIDsNS2_11char_traitsIDsEENS2_9allocatorIDsEEEE
i0o:_JSONArray_Remove_m640712101
fVj:_MD4Managed_Decode_m4273685594
FTh:__Z50RuntimeInvoker_Int64_t3736567304_Int16_t2552820387PFvvEPK10MethodInfoPvPS4_
q6n:_UnityEngineModuleAssembly__ctor_m242195730
g0d:__ZN5physx3Cct26CharacterControllerManagerD2Ev
uZh:__Z57RuntimeInvoker_Quaternion_t2301928331_Vector3_t3722313464PFvvEPK10MethodInfoPvPS4_
D9l:_List_1_Sort_m955247884_gshared
Rbi:__Z58RuntimeInvoker_Void_t1185182177_KeyValuePair_2_t2245450819PFvvEPK10MethodInfoPvPS4_
ibh:_Compute_DT_EventArgs__ctor_m1008311213
Ybb:__ZN21LightProbeProxyVolume18HasHardwareSupportEv
v6b:__ZN26LightProbeProxyVolumeCacheC2ER13BatchRendererR15RenderLoopStats
F_k:_IntPtr__ctor_m620280096
ula:__ZN6prcoreL31inner_stretch_argb8888_bilinearEPKNS_9InnerInfoE
tDb:__Z18Transfer_BlittableI18StreamedBinaryReadILb1EELb1E8BitFieldEvRK29SerializationCommandArgumentsR31RuntimeSerializationCommandInfo
Kvf:_UNITY_FT_Outline_Decompose
TUl:_Enumerator_System_Collections_IEnumerator_get_Current_m3484854280_gshared
YWi:__ZN23GenericVirtFuncInvoker4IP26X509Certificate_t713131622P8String_tP37X509CertificateCollection_t3399372417S1_P24StringU5BU5D_t1281789340E6InvokeEPK10MethodInfoP12Il2CppObjectS3_S5_S1_S7_
PWb:__ZNK12GraphicsCaps24GetFallbackSampledFormatE14GraphicsFormat
Tln:_GeneralNames_get_IPAddresses_m4242915644
LMm:__ZN21InterfaceFuncInvoker1IbDsE6InvokeEjP11Il2CppClassP12Il2CppObjectDs
EXl:_Enumerator_Dispose_m3500272053_AdjustorThunk
hQo:_GC_init_size_map
bKg:__ZL84AudioSampleProvider_t3950279772_CustomAttributesCacheGenerator_sampleFramesAvailableP21CustomAttributesCache
xKm:_ReadOnlyCollection_1_System_Collections_IList_RemoveAt_m1118392812_gshared
MQe:__ZN5physx6shdfnd8internal8HashBaseINS0_4PairIKNS3_IPKNS_12PxsRigidCoreEPKNS_12PxsShapeCoreEEEPNS_11PxsCCDShapeEEESA_NS0_4HashISA_EENS1_11HashMapBaseISA_SD_SG_NS0_9AllocatorEE6GetKeyESI_Lb1EE15reserveInternalEj
pVf:_TMP_Dropdown_set_captionText_m4280879908
CBa:__Z20scripting_object_new17ScriptingClassPtr
xAn:_CRC32__ctor_m3861574013
edp:dynCall_iiiiifi
Dbg:__ZL69RuntimeArray_CustomAttributesCacheGenerator_Array_Reverse_m3714848183P21CustomAttributesCache
vta:__ZN9Scripting5Unity11Collections39NativeMatchesParallelForLengthAttribute12CleanupProxyEv
oyl:_KeyGeneratedEventHandler_Invoke_m2527485594
Mvh:_Image_get_layoutPriority_m1290204116
lid:__Z16RandomUnitVectorRKN4math7_float4ES2_
A5o:_TeleType__ctor_m1571455078
wlo:__ZN24dense_hashtable_iteratorINSt3__24pairIK10KeyWrapperINS1_IPK9FieldInfoP11Il2CppClassEEEjEES9_17ReflectionMapHashIS8_EN14dense_hash_mapIS9_jSD_NS9_14EqualsComparerINS0_8equal_toIS8_EEEENS0_9allocatorISB_EEE9SelectKeyESI_SK_E30advance_past_empty_and_deletedEv
IDm:_Repetition_get_Expression_m2673886232
sLe:__ZN5physx2Sc5Scene21setDominanceGroupPairEhhRKNS_20PxDominanceGroupPairE
Brk:_Decimal__ctor_m1925875020_AdjustorThunk
$ra:__ZN9Scripting11UnityEngine6Events14UnityEventBase12CleanupProxyEv
$Ga:__ZN18ShadowMapJobHeaderD0Ev
Ukg:__ZL59SerializationInfo_t950877179_CustomAttributesCacheGeneratorP21CustomAttributesCache
C$g:__ZL72TextMeshProUGUI_t529313277_CustomAttributesCacheGenerator_m_baseMaterialP21CustomAttributesCache
b9c:__ZN16CustomDataModule8TransferI18StreamedBinaryReadILb0EEEEvRT_
P:Math_exp
Abm:_Dictionary_2_ToTKey_m224697230_gshared
dq:FUNCTION_TABLE_iiifi
sGo:__ZN6il2cpp2os5posix13PosixAutoLockD2Ev
sId:__ZN13BoxCollider2D15InitializeClassEv
$kn:_TlsServerSettings_set_CertificateTypes_m2047242411
Zso:_il2cpp_class_get_name
QHn:_SymmetricTransform_OFB_m3690147804
KMi:_InternalEnumerator_1_MoveNext_m3713722659_AdjustorThunk
RDb:__Z30TransferField_LinearCollectionI18StreamedBinaryReadILb1EEEvRK29SerializationCommandArgumentsR31RuntimeSerializationCommandInfo
BJb:__ZN13MonoBehaviour9SetScriptERK4PPtrI10MonoScriptE18ScriptingObjectPtr
h2n:_RaycastHit2D_get_collider_m1549426026
Lwb:__Z18Transfer_BlittableI17RemapPPtrTransferLb0E8Vector2fEvRK29SerializationCommandArgumentsR31RuntimeSerializationCommandInfo
oyk:_Dictionary_2_Do_CopyTo_TisKeyValuePair_2_t727985506_TisKeyValuePair_2_t727985506_m1839692500_gshared
BYi:_X500DistinguishedName_GetSeparator_m1336760642
A8h:__Z77RuntimeInvoker_Void_t1185182177_Vector2U5BU5DU26_t476646542_Int32_t2950945753PFvvEPK10MethodInfoPvPS4_
TCe:__ZN5physx7NpScene12loadFromDescERKNS_11PxSceneDescE
XDk:_PKCS12_get_RNG_m2649456600
shb:__ZNK10FileSystem16LastErrorMessageEv
Xrm:_Array_InternalArray__Insert_TisVector3_t3722313464_m3862657277_gshared
Twg:__ZL104NativeClassAttribute_t2601352714_CustomAttributesCacheGenerator_U3CQualifiedNativeNameU3Ek__BackingFieldP21CustomAttributesCache
vPm:_ReadOnlyCollection_1_System_Collections_Generic_IListU3CTU3E_get_Item_m1659090079_gshared
j_a:__ZN15SerializeTraitsI13dynamic_arrayI12SpriteVertexLj0EEE19ResizeSTLStyleArrayERS2_i
n9k:_SecurityException__ctor_m1631242336
t9n:__ZN15dense_hashtableINSt3__24pairIK10KeyWrapperIPK11Il2CppClassEPKcEES6_N6il2cpp5utils11PointerHashIS3_EEN14dense_hash_mapIS6_S9_SE_NS6_14EqualsComparerINS0_8equal_toIS5_EEEENS0_9allocatorISA_EEE9SelectKeyESJ_SL_E14squash_deletedEv
vih:_EventSystem_Update_m1662072334
yMc:__ZN11TimeManager16HasFixedTimeStepEv
NYf:_TMP_InputField_set_inputType_m3691041596
zRf:__ZN22UnityWebRequestManager10InitializeEv
Dvk:_Enum_ToString_m2477889358
G9a:__ZNSt3__26__treeINS_12__value_typeIN4core12basic_stringIcNS2_20StringStorageDefaultIcEEEE4PPtrI6ObjectEEENS_19__map_value_compareIS6_SA_NS_4lessIS6_EELb1EEE13stl_allocatorISA_L18MemLabelIdentifier52ELi16EEE15__emplace_multiIJRNS_4pairIS6_S9_EEEEENS_15__tree_iteratorISA_PNS_11__tree_nodeISA_PvEEiEEDpOT_
kfg:__ZL51FileMode_t1183438340_CustomAttributesCacheGeneratorP21CustomAttributesCache
vxb:__ZL26Transfer_SimpleNativeClassI17RemapPPtrTransfer8GradientLb1EEvRK29SerializationCommandArgumentsR31RuntimeSerializationCommandInfo
Zhh:_RaycasterManager_RemoveRaycasters_m3057093063
o6f:_TMP_Text_set_isVolumetricText_m2363419080
Xoc:__ZN12CachedWriter9InitWriteER15CacheWriterBase
GJc:__Z21UnsignedInt64ToStringy
tBj:_GetRaycastNonAllocCallback_BeginInvoke_m3984885848
iEi:_InternalEnumerator_1_MoveNext_m4138204635_AdjustorThunk
Wzm:_PatternCompiler_BeginLink_m1295557963
Zeg:__ZL90BinaryReader_t2428077293_CustomAttributesCacheGenerator_BinaryReader_ReadUInt16_m267781130P21CustomAttributesCache
tFb:__ZN18StreamedBinaryReadILb1EE8TransferI13dynamic_arrayIiLj0EEEEvRT_PKc17TransferMetaFlags
qLe:__ZN5physx14PxsAABBManager15createAggregateEPvb
gDm:_Group_GetAnchorInfo_m3730312864
gWg:__ZL50Graphic_t1660335611_CustomAttributesCacheGeneratorP21CustomAttributesCache
puh:_GridLayoutGroup_set_constraint_m3308895167
GGl:_KeyCollection_System_Collections_Generic_ICollectionU3CTKeyU3E_Add_m454648927_gshared
Dml:_TimeSpan_op_LessThanOrEqual_m300470010
Npk:_DateTime_GetDateTimeFormats_m3421493225
FMg:__ZL139AnimatorOverrideController_t3582062219_CustomAttributesCacheGenerator_AnimatorOverrideController_OnInvalidateOverrideController_m3380737075P21CustomAttributesCache
R6e:__ZN5physx2Sc15ClothFabricCore4loadERKNS_17PxClothFabricDescE
wyc:__Z66Register_UnityEngine_Transform_INTERNAL_CALL_InverseTransformPointv
dbo:__ZNSt3__218uninitialized_fillIPNS_4pairIK10KeyWrapperIPK19Il2CppGenericMethodEPK26Il2CppGenericMethodIndicesEESB_EEvT_SD_RKT0_
s_m:_Nullable_1_GetHashCode_m1030690889_gshared
Vfa:__ZZN15DirectorManager15InitializeClassEvEN41FixedUpdateDirectorFixedUpdateRegistrator7ForwardEv
U2k:_MemoryStream_get_Position_m3733941202
cAn:_ListPool_1_Clear_m2587502754_gshared
ib:invoke_iiiiifiiiif
vek:_GenericTypeParameterBuilder_InvokeMember_m1647304778
DXn:_AudioClipPlayable_Equals_m3705880618
Nuh:_HorizontalOrVerticalLayoutGroup_set_childControlWidth_m3261460516
Sfk:_Slot_t3975888750_marshal_pinvoke
Ulp:_glLinkProgram__wrapper
Mfb:__ZN18ScriptingArguments8AddInt64Ex
Fka:__ZN6prcoreL12RemapGenericI17TexFormatARGB888815TexFormatBGR888EEvPKNS_9InnerInfoE
zrb:__ZN26SinglePassStereoSupportExt19SaveStereoConstantsEv
uha:__ZNSt3__26vectorIP10MemoryPool13stl_allocatorIS2_L18MemLabelIdentifier76ELi16EEE21__push_back_slow_pathIRKS2_EEvOT_
oWk:_TextInfo_get_ListSeparator_m1628160079
dTg:__ZL77ExecuteEvents_t3484638744_CustomAttributesCacheGenerator_U3CU3Ef__mgU24cache6P21CustomAttributesCache
tdd:__Z20UpdateCustomCurveTplIL27ParticleSystemCurveEvalMode1EEvRK11MinMaxCurveR23ParticleSystemParticlesiijjRKN4math5_int4E
pFj:_Selectable_OnCanvasGroupChanged_m472903475
pjl:_EventWaitHandle_Reset_m3348053200
Cbd:__ZNK10SizeModule6UpdateER23ParticleSystemParticlesjj
gpe:__ZN5physx7NpShape8requiresERNS_23PxProcessPxBaseCallbackE
kAo:__ZN6il2cpp6icalls8mscorlib6System13Globalization11CultureInfo35construct_internal_locale_from_nameEP17Il2CppCultureInfoP12Il2CppString
d2l:_List_1_System_Collections_IList_Add_m2656245659_gshared
Dzb:__ZL22Transfer_ManagedObjectI24GenerateTypeTreeTransferLb1EEvRK29SerializationCommandArgumentsR31RuntimeSerializationCommandInfo
jLh:__Z100RuntimeInvoker_Boolean_t97287965_RuntimeObject_Int32_t2950945753_RuntimeObject_UInt16U26_t2814738322PFvvEPK10MethodInfoPvPS4_
afi:__Z56RuntimeInvoker_ILTokenInfo_t2325775114_Int32_t2950945753PFvvEPK10MethodInfoPvPS4_
Rui:_HMAC_get_BlockSizeValue_m455678067
I0b:__ZN15RenderNodeQueueC2E10MemLabelId
ybn:_Collection_1_System_Collections_ICollection_CopyTo_m1597420376_gshared
F7i:_ResponseCallbackDispatcher__cctor_m70018758
yDh:_ResourceEnumerator_FillCache_m1661715061
W5o:_U3CRevealCharactersU3Ec__Iterator0_Dispose_m3637291311
DSm:_ReadOnlyCollection_1_System_Collections_IList_IndexOf_m3664838805_gshared
xBf:__ZL17CleanupModule_TLSv
Wmg:__ZL72SecuritySafeCriticalAttribute_t3505979402_CustomAttributesCacheGeneratorP21CustomAttributesCache
Rk:_emscripten_set_main_loop_timing
w9i:_Bounds_get_min_m3755135869
rPj:_Array_InternalArray__IndexOf_TisKeyValuePair_2_t2245450819_m1517102824_gshared
$mk:_Convert_ToUInt16_m3523269149
j9i:_Bounds_get_center_m1418449258
PAo:__ZN30dense_hashtable_const_iteratorINSt3__24pairIK10KeyWrapperIP14Il2CppIUnknownEjEES5_N6il2cpp5utils11PointerHashIS3_EEN14dense_hash_mapIS5_jSB_NS5_14EqualsComparerINS0_8equal_toIS4_EEEENS0_9allocatorIS7_EEE9SelectKeyESG_SI_E30advance_past_empty_and_deletedEv
ITb:__ZN14DataBufferGLES12RecordRenderEv
ujh:_ExecuteEvents_get_endDragHandler_m2879610446
xDn:_TMP_TextUtilities_FindIntersectingLink_m2257840797
JXe:__ZNK5physx20SingleAABBUpdateTask7getNameEv
Ldc:__ZN14ImageReference10FlipImageYEv
Axm:_Interpreter_GetLastDefined_m4107643411
o8c:__ZN21InheritVelocityModule8TransferI17RemapPPtrTransferEEvRT_
H1k:_FileStream_RefillBuffer_m4186945278
hAa:__ZN21ScalableBufferManager20GetHeightScaleFactorEv
ukc:__ZNSt3__26vectorIN9ShaderLab20SerializedSubProgram15VectorParameterENS_9allocatorIS3_EEE8__appendEj
VVo:_BossBullet_Update_m3668511664
$M:__ZN4FMOD3DSP9setBypassEb
lhc:__Z19NormalizeWheelInputf
rth:_Graphic_DoMeshGeneration_m3548487693
kgc:__Z29StdTemplateConversionFunctionIsaEbPvR14SafeBinaryRead
uJ:__ZN11KeyframeTplIfE8TransferI14SafeBinaryReadEEvRT_
sC:__ZNK4PPtrI13MonoBehaviourEcvPS0_Ev
bBm:_Repetition__ctor_m1672362629
m4c:__Z29Transfer_Blittable_ArrayFieldI8JSONReadhEvRT_R9ArrayInfoRK23StaticTransferFieldInfo
qal:_SecurityFrame_ToString_m339310712_AdjustorThunk
Exh:_TypeBuilder_create_runtime_class_m2581270900
poc:__ZN11MonoManager25GetImageFromAssemblyIndexEi
mCi:_InternalEnumerator_1_get_Current_m3008260692_gshared
Gte:__ZN5physx2Sc9ClothCore17addCollisionPlaneERKNS_21PxClothCollisionPlaneE
jCa:__ZN22RenderingCommandBuffer20CleanupCommandBufferEv
vRl:_Dictionary_2_System_Collections_IDictionary_GetEnumerator_m1381304260_gshared
Lkk:_Decimal_op_Implicit_m2299919277
RXl:_Enumerator_MoveNext_m3275886745_gshared
a$c:__Z18Transfer_BlittableI9JSONWriteLb1EtEvRK29SerializationCommandArgumentsR31RuntimeSerializationCommandInfo
Fid:__Z10StartDonutILN11ShapeModule14MultiModeValueE0EEvRS0_R23ParticleSystemParticlesRK19ParticleSystemStateRK27ParticleSystemEmissionStateRKN4math8float3x3ERKNSB_7affineXEjbj
R3j:_UnexceptionalStreamReader_ReadToEnd_m920589220
Kok:_DateTime_System_IConvertible_ToType_m1242864300
Fcl:_String_IndexOf_m1298810678
kl:___syscall85
lho:__ZNSt3__214__split_bufferIP17Il2CppAsyncResultRN6il2cpp2gc9AllocatorIS2_EEEC2EjjS7_
uFf:__ZN2UI14CanvasRenderer18UpdateTRSHierarchyEb
R8e:__ZNK5physx13PxHeightField8isKindOfEPKc
tCk:_Mesh_GetAllocArrayFromChannel_TisVector3_t3722313464_m2332439905_gshared
N0b:__ZNSt3__26__sortIRPFbP10GUIElementS2_EPS2_EEvT0_S7_T_
qck:_ConstructorBuilder_GetILGenerator_m1750792206
kfl:_EncoderFallback_get_ReplacementFallback_m818398284
kJo:__ZN6il2cpp2os6Thread19DetachCurrentThreadEv
Qih:_EventTrigger_OnBeginDrag_m4203438710
O7n:__ZN6il2cpp2vmL21SetupInterfacesLockedEP11Il2CppClassRKNS_2os12FastAutoLockE
dsb:__ZN11MonoManager23VirtualRedirectTransferER24GenerateTypeTreeTransfer
u6e:__ZNK5physx2Sc18ParticleSystemCore16getInternalFlagsEv
Cyk:_Dictionary_2_Do_CopyTo_TisRuntimeObject_TisRuntimeObject_m2344529027_gshared
vD:__ZN23AnimationPlayableOutput17SetSourcePlayableEP8Playable
uqd:__ZL24BuildParticleLineSegmentILb1EEvjRPhRKN4math8float4x4EPK15LineBuilderDataRKfSA_11ColorRGBA32
yIo:__ZN6il2cpp2gc16GarbageCollector22MakeDescriptorForArrayEv
bml:_TimeSpan_CompareTo_m3633415627_AdjustorThunk
oJi:_InternalEnumerator_1_get_Current_m1900477722_gshared
xZk:_Int32_ToString_m2507389746_AdjustorThunk
V8l:_List_1_System_Collections_IList_Contains_m3829146114_gshared
wbj:_CullingGroup_Dispose_m782801025
Eem:_Dictionary_2_System_Collections_IDictionary_GetEnumerator_m529247385_gshared
O_d:__ZN16ControllerFilter9preFilterERKN5physx12PxFilterDataEPKNS0_7PxShapeEPKNS0_12PxRigidActorERNS0_7PxFlagsINS0_9PxHitFlag4EnumEtEE
y_:__ZN11UnityEngine15CloudWebService14DataDispatcher15SetupWebRequestEv
iin:_Collection_1_ConvertItem_m492501417_gshared
ekm:_EqualityComparer_1_get_Default_m1038871402_gshared
DLf:__ZN11UnityEngine15PlatformWrapper13GetShaderCapsEv
FWe:__ZN16MBPOS_TmpBuffers16allocateSleepingEjj
VLg:__ZL99CertificateHandler_t2739891000_CustomAttributesCacheGenerator_CertificateHandler_Release_m648790222P21CustomAttributesCache
Bek:_GenericTypeParameterBuilder_IsDefined_m98179866
oPg:__ZL82Physics2D_t1528932956_CustomAttributesCacheGenerator_Physics2D_Raycast_m1377762210P21CustomAttributesCache
lxl:_KeyPairPersistence_get_MachinePath_m3812267291
Shk:_Stack_Peek_m2216191248
xok:_DateTime_System_IConvertible_ToDecimal_m1044850612_AdjustorThunk
hDc:__ZN21FixedBehaviourManager6UpdateEv
Exc:__ZN9Transform9SetParentEPS_NS_15SetParentOptionE
Y8c:__ZN15CollisionModule8TransferI18StreamedBinaryReadILb0EEEEvRT_
U2n:_AnimatorControllerPlayable_SetHandle_m2260644454_AdjustorThunk
vEa:__ZN19ShaderPropertySheet8SetFloatEN9ShaderLab16FastPropertyNameEfNS_8SetFlagsE
O4n:_Physics_Raycast_m952690504
uab:__ZN19RuntimeSceneManager24BeginIntegrateMainThreadEP10UnityScene
Oce:__ZN5physx14NpArticulation26setExternalDriveIterationsEj
DRd:__ZN16RayRTreeCallbackILi0ELb0EED0Ev
bDn:_TMP_TextInfo__ctor_m1227556611
r$j:_TlsServerCertificate_ProcessAsSsl3_m1306583193
U$o:_SeedMenu_Update_m125121590
b0e:__ZN5physx20PxsParticleSystemSim23scheduleCollisionUpdateERNS_10PxBaseTaskE
YJo:__ZNSt3__2plIcNS_11char_traitsIcEENS_9allocatorIcEEEENS_12basic_stringIT_T0_T1_EERKS9_S6_
N2j:_StringReader_CheckObjectDisposedException_m3796163530
ypl:_UInt32_System_IConvertible_ToInt16_m1659441601
s_l:_List_1_System_Collections_IList_get_IsReadOnly_m1922977905_gshared
Fkc:__ZN9ShaderLab20SerializedSubProgramaSERKS0_
r8n:__ZN6il2cpp2vm5Class12GetNamespaceEP11Il2CppClass
fbp:_roundf
XKk:_Byte_System_IConvertible_ToSingle_m324484566_AdjustorThunk
eUn:__ZL25UnresolvedVirtualCall_171P12Il2CppObjectf19Vector2_t2156229523aPK10MethodInfo
A6h:__Z42RuntimeInvoker_RequirementType_t3584265503PFvvEPK10MethodInfoPvPS4_
Jik:_Decimal_op_Explicit_m2848387298
Unm:_KeyValuePair_2_ToString_m1238786018_gshared
v1d:__ZN5physx15PxBoxControllerD0Ev
Qw:__ZN8Animator15SetPrepareStageEv
b3l:_List_1_System_Collections_IEnumerable_GetEnumerator_m276846789_gshared
QK:__ZN8AnimatorC2E10MemLabelId18ObjectCreationMode
P7n:__ZN6il2cpp2vmL24SetupTypeHierarchyLockedEP11Il2CppClassRKNS_2os12FastAutoLockE
$bl:_String_Clone_m3573869765
vhc:__ZL11TextHandleriPK23EmscriptenKeyboardEventPv
e6b:__Z20CalculateLightMatrixRK15SharedLightDataP10Matrix4x4f
BZb:__ZNSt3__26vectorIP17FileSystemHandlerNS_9allocatorIS2_EEE21__push_back_slow_pathIRKS2_EEvOT_
qnf:_destroy_face
sWo:_CollisionCheckerSpeedPowerUp__ctor_m2809153290
oPn:_Vector3__ctor_m1719387948
hSc:__Z31Mesh_CUSTOM_get_bounds_InjectedP12Il2CppObjectR4AABB
pMf:__ZNSt3__26vectorIPN11UnityEngine15CloudWebService14CloudEventInfoE13stl_allocatorIS4_L18MemLabelIdentifier88ELi16EEE21__push_back_slow_pathIS4_EEvOT_
MKd:__ZN5physx19PxAllocatorCallbackD2Ev
TVm:_Comparison_1__ctor_m1312243963_gshared
S5g:__ZL66U3CSpawnU3Ec__Iterator0_t2937824069_CustomAttributesCacheGeneratorP21CustomAttributesCache
GRo:__ZN6il2cpp6icalls8mscorlib6System8Security12Cryptography24RNGCryptoServiceProvider13RngInitializeEP11Il2CppArray
kvg:__ZL68UsedByNativeCodeAttribute_t1703770351_CustomAttributesCacheGeneratorP21CustomAttributesCache
okd:__ZN21RotationBySpeedModuleD0Ev
sye:__ZNK5physx15NpActorTemplateINS_16PxParticleSystemEE17getDominanceGroupEv
kS:__ZN20SoundChannelInstance7setMuteEb
tLh:__Z81RuntimeInvoker_Void_t1185182177_RuntimeObject_Int32_t2950945753_Int32_t2950945753PFvvEPK10MethodInfoPvPS4_
Fbh:_FloatTween_get_ignoreTimeScale_m1816752126
kJa:__ZN4PPtrI5LightE8TransferI19StreamedBinaryWriteILb0EEEEvRT_
$$d:__ZN5physx3Cct26CharacterControllerManager21createObstacleContextEv
Mok:_DateTimeUtils_ToString_m1782212840
Qom:_Array_InternalArray__ICollection_Add_TisVector2_t2156229523_m4029235359_gshared
P9l:_List_1__cctor_m972674764_gshared
J2m:_List_1_get_Item_m1686506901_gshared
Z8j:_NumberFormatter_NumberToString_m3906556024
uEb:__Z19TransferField_ArrayI18StreamedBinaryReadILb1EE27Converter_SimpleNativeClassI17AnimationCurveTplIfEEEvRK23StaticTransferFieldInfoR31RuntimeSerializationCommandInfoRT0_
jgh:_TextMeshProUGUI_SetSharedMaterial_m2699207012
TId:__ZN7b2World18SetContactListenerEP17b2ContactListener
jpd:__Z19UpdateSingleRow2TplIL27ParticleSystemCurveEvalMode1ELS0_1EEvfRK11MinMaxCurveS3_RK23ParticleSystemParticlesPfbiii
YJm:_ReadOnlyCollection_1_System_Collections_IList_get_Item_m695218107_gshared
_Tb:__ZN18GfxFramebufferGLES22MakeCurrentFramebufferENS_7BuiltinE
SMo:__ZN6il2cpp2vm12MarshalAlloc4FreeEPv
dFe:__ZN5physx6shdfnd5ArrayIPNS_2Sc19ShapeInstancePairLLENS0_19ReflectionAllocatorIS4_EEE15growAndPushBackERKS4_
iIa:__ZN12CachedReader4ReadEPvj
QVe:__ZN5physx21MBPPostUpdateWorkTaskD0Ev
M$g:__ZL105TMPro_ExtensionMethods_t1453208966_CustomAttributesCacheGenerator_TMPro_ExtensionMethods_Tint_m3544070525P21CustomAttributesCache
VCh:_TypeFilter_EndInvoke_m998903841
wpf:_cf2_blues_init
ahe:__ZN5physx2Sc8BodyCore24clearSpatialAccelerationEbb
dRg:__ZL49Canvas_t3310196443_CustomAttributesCacheGeneratorP21CustomAttributesCache
hBh:_MonoMethod_ShouldPrintFullName_m1607666412
ANn:_Toggle_OnPointerClick_m3526893169
jdd:__ZNK14RotationModule6UpdateERK27ParticleSystemReadOnlyStateRK19ParticleSystemStateR23ParticleSystemParticlesRKN4math7_float4Ejj
d8:__ZN19RuntimeSceneManagerD2Ev
Ojj:_PlayerConnectionInternal__ctor_m2406218802
kIj:_Array_InternalArray__ICollection_Contains_TisKeyValuePair_2_t727985506_m2528174741_gshared
FSk:_CCGregorianCalendar_GetMonth_m1547203696
jYl:_Enumerator_Dispose_m786980821_AdjustorThunk
O$:__ZN11UnityEngine15CloudWebService25WebRequestDownloadHandler17OnCompleteContentEv
oSa:__ZN6prcore17GetIntegerBlitterE13TextureFormatS0_N14ImageReference8BlitModeE
IPo:_GC_print_block_descr
YEe:__ZN5physx10PxsContext20createContactManagerERKNS_24PxvManagerDescRigidRigidEPNS_18PxsMaterialManagerE
gbn:_Collection_1_IndexOf_m934463944_gshared
zGd:__ZN13BoxCollider2DD0Ev
$na:__ZL51__ManagedRegistrationHelperFunction_ResourceRequestPv
jDe:__ZN5physx2Cm12DelegateTaskINS_7NpSceneEXadL_ZNS2_12executeSolveEPNS_10PxBaseTaskEEEED0Ev
BQd:__ZN5physx2GuL18gPCMHullPrefetchCBEjPKNS_6PxVec3E
X6d:__ZN5physx2Sc5Scene31removeActiveBreakableConstraintEPNS0_13ConstraintSimE
SRl:_Dictionary_2_ToTKey_m59443895_gshared
l_i:_Socket_set_SendTimeout_m2494155708
bfg:__ZL51Directory_t828876208_CustomAttributesCacheGeneratorP21CustomAttributesCache
KIk:_SimpleEnumerator_Reset_m2182001888
dMm:_ReadOnlyCollection_1_System_Collections_IList_Clear_m1160136535_gshared
m2m:_List_1_Contains_m1925266201_gshared
bai:__Z86RuntimeInvoker_Int32_t2950945753_Vector2_t2156229523_Vector2_t2156229523_RuntimeObjectPFvvEPK10MethodInfoPvPS4_
APc:__ZN9BlobWrite14ReduceCopyImplERK14ReduceCopyDataj
GQj:_Array_LastIndexOf_TisRuntimeObject_m1677937501_gshared
eW:__ZN11AudioSource18IsPlayingScriptingEv
Azi:_InternalEnumerator_1_Dispose_m2018798800_AdjustorThunk
dxl:_KeyBuilder_IV_m2230195376
kLn:_AnalyticsEventParamListContainer_get_parameters_m4180299006
PKl:_Transform_1_Invoke_m3983555223_gshared
iud:__ZNK12b2WheelJoint10GetAnchorAEv
tJe:__ZN5physx6shdfnd5ArrayINS_12PxActorShapeENS0_19ReflectionAllocatorIS2_EEE15growAndPushBackERKS2_
gjb:__ZN25MultiBlocksMemoryFileData17AdjustBlocksCountEj
dxo:__ZNSt3__214__split_bufferIN6il2cpp2vm22EmbeddedResourceRecordERNS_9allocatorIS3_EEED2Ev
zvn:_InvokableCall_3_Invoke_m1014600903_gshared
X5i:_CookieJar_get_Instance_m918869625
xlf:__ZN13TextRendering4Font8TransferI24GenerateTypeTreeTransferEEvRT_
Nnb:__ZN9GfxDevice15EndProfileEventEPN9profiling6MarkerE
u$i:_SocketAsyncCall_Invoke_m3982016662
oYf:_TMP_InputField_set_onValueChanged_m1887358354
Wsc:__Z27CullingGroup_CUSTOM_DisposeP12Il2CppObject
wod:__Z18UpdateSingleRowTplIL27ParticleSystemCurveEvalMode0EEvfRK11MinMaxCurveS3_RK23ParticleSystemParticlesPfbiii
B0n:_CanvasRenderer_INTERNAL_CALL_GetColor_m597074473
F6g:__ZL132U3CSpawnPowerUpWavesU3Ec__Iterator6_t2214992415_CustomAttributesCacheGenerator_U3CSpawnPowerUpWavesU3Ec__Iterator6_Reset_m1689556088P21CustomAttributesCache
mQi:_Comparer_1__ctor_m319670016_gshared
Mle:__ZN5physx2Sc14ConstraintCore8setFlagsENS_7PxFlagsINS_16PxConstraintFlag4EnumEtEE
tn:_glStencilMask
KJo:__ZN6il2cpp2os10ThreadImpl16GetCurrentThreadEv
N7e:__ZNK5physx2Sc15ClothFabricCore20getNbParticleIndicesEv
nhc:__ZN15GUIEventManager10QueueEventERK10InputEvent
rDh:_ResourceReader_ReadNonPredefinedValue_m2638853518
Odn:_Collection_1_Clear_m1300437781_gshared
Hfo:_AnalyticsEvent_OnValidationFailed_m2609604624
hNg:__ZL62EventType_t3528516131_CustomAttributesCacheGenerator_mouseMoveP21CustomAttributesCache
iEh:_DecimalConstantAttribute__ctor_m3583301917
O1f:_TMP_SpriteAnimator_DoSpriteAnimation_m4244961026
jZh:__Z116RuntimeInvoker_Vector3_t3722313464_Vector3_t3722313464_Vector3_t3722313464_Vector3U26_t3464235976_Single_t1397266774PFvvEPK10MethodInfoPvPS4_
Mhn:_Collection_1_System_Collections_ICollection_get_IsSynchronized_m1640823718_gshared
iPo:_GC_push_conditional_with_exclusions
Mz:__ZN21AnimationPosePlayableD0Ev
OPe:__ZN5physx2Sq8AABBTree11shiftOriginERKNS_6PxVec3E
hpg:__ZL80Convert_t2465617642_CustomAttributesCacheGenerator_Convert_ToDecimal_m2858622624P21CustomAttributesCache
$Co:__GLOBAL__sub_I_GenericMetadata_cpp
kxn:__ZN30GenericInterfaceActionInvoker4IP12Il2CppObjectS1_S1_S1_E6InvokeEPK10MethodInfoS1_S1_S1_S1_S1_
H2a:__Z31DrawSpriteDeformedFromNodeQueueRK15RenderNodeQueuej16VertexInputMasksi
N$m:__ZN28GenericInterfaceFuncInvoker1IbDsE6InvokeEPK10MethodInfoP12Il2CppObjectDs
cFm:_UriParser_InitializeAndValidate_m2008117311
OOo:_GC_make_disappearing_links_disappear
i8o:_strrchr
Veg:__ZL58UnicodeCategory_t3356078642_CustomAttributesCacheGeneratorP21CustomAttributesCache
$Ym:_Func_3__ctor_m1375075958_gshared
Cpk:_DateTime_IsDaylightSavingTime_m2632700238_AdjustorThunk
n6d:__ZN5physx2Sc7BodySim6wakeUpEv
K4l:_List_1_Reverse_m3551828919_gshared
Kcm:_Dictionary_2_System_Collections_ICollection_get_SyncRoot_m2069913662_gshared
Cmh:_UIBehaviour_IsDestroyed_m3033055982
IOi:__ZN21InterfaceFuncInvoker1Ii6Guid_tE6InvokeEjP11Il2CppClassP12Il2CppObjectS0_
OEe:__ZN5physx6shdfnd8PoolBaseINS_2Gu30LargePersistentContactManifoldENS0_19ReflectionAllocatorIS3_EEE17releaseEmptySlabsEv
K6d:__ZN5physx2Sc21ConstraintInteraction7destroyEv
hOn:_Enumerator_Reset_m39541243
DUc:__Z33Register_UnityEngine_Random_Rangev
X8m:_Collection_1_System_Collections_IList_get_Item_m2924127876_gshared
cvj:_InputField_get_readOnly_m3111985574
lTe:__ZN5physx13PxsSolverCoreD2Ev
zJa:__ZN14RenderSettings27UpdateIndirectSpecularColorEv
pCg:__ZL59RectOffset_t1369453676_CustomAttributesCacheGenerator_m_PtrP21CustomAttributesCache
_fj:_Logger_get_logHandler_m1335645353
_6a:__ZN14PlayerSettings8TransferI18StreamedBinaryReadILb0EEEEvRT_
vIl:_Transform_1__ctor_m2467867069_gshared
tio:__ZN6il2cpp6icalls8mscorlib6System8MonoType16GetMethodsByNameEP20Il2CppReflectionTypeP12Il2CppStringibS5_
dZo:_GameOverMenu_SendScore_m2393156162
ikg:__ZL73ObjRef_t2141158884_CustomAttributesCacheGenerator_U3CU3Ef__switchU24map26P21CustomAttributesCache
bUg:__ZL102PointerEventData_t3807901092_CustomAttributesCacheGenerator_PointerEventData_set_pointerId_m1888344330P21CustomAttributesCache
rKg:__ZL88AudioClip_t3680889665_CustomAttributesCacheGenerator_AudioClip_get_ambisonic_m3815052287P21CustomAttributesCache
sGe:__ZNK5physx7NpScene16getNbConstraintsEv
bLc:__ZN8Renderer20SetShadowCastingModeE17ShadowCastingMode
N5i:_Cookie_CollidesWith_m3724591895
yyj:_U3CDelayedSetDirtyU3Ec__Iterator0__ctor_m3936335621
Y3i:_VertexShakeA__ctor_m1957129449
b1g:__ZL75TMP_InputField_t1099764886_CustomAttributesCacheGenerator_m_HideMobileInputP21CustomAttributesCache
pse:__ZN5physx7NpCloth14setWakeCounterEf
fYa:__ZN4PPtrI10GameObjectE8TransferI14SafeBinaryReadEEvRT_
EXn:_AudioClipPlayable_Equals_m3705880618_AdjustorThunk
_Eg:__ZL106PlayableAsset_t3219022681_CustomAttributesCacheGenerator_PlayableAsset_Internal_CreatePlayable_m2550417712P21CustomAttributesCache
Ipg:__ZL78Convert_t2465617642_CustomAttributesCacheGenerator_Convert_ToSByte_m2486156346P21CustomAttributesCache
Apn:_RijndaelTransform__cctor_m2439033240
eOb:__ZNSt3__27__sort3IRNS_4lessIN22BuiltinResourceManager8ResourceEEEPS3_EEjT0_S7_S7_T_
St:__ZN13dynamic_arrayIPN11UnityEngine9Animation23CachedComponentBindingsELj0EE18resize_initializedEjRKS3_12ResizePolicy
ecg:__ZL175U3CGetEnumeratorU3Ec__Iterator0_t1202911786_CustomAttributesCacheGenerator_U3CGetEnumeratorU3Ec__Iterator0_System_Collections_Generic_IEnumeratorU3CTU3E_get_Current_m322251035P21CustomAttributesCache
qyf:_ps_hints_t2mask
dAk:_LayoutGroup_SetProperty_TisVector2_t2156229523_m2721164497_gshared
iKj:_Array_InternalArray__ICollection_Remove_TisMonoResource_t4103430009_m238733686_gshared
P8g:__ZL109ShaderPropAnimator_t3617420994_CustomAttributesCacheGenerator_ShaderPropAnimator_AnimateProperties_m796027546P21CustomAttributesCache
kGj:_Slider_Set_m1476104429
aDh:__ZN28GenericInterfaceFuncInvoker1IP10Assembly_tP28ResolveEventArgs_t1779456501E6InvokeEPK10MethodInfoP12Il2CppObjectS3_
cvh:_Image_set_fillClockwise_m2210525152
u4a:__ZN10BlendShape8TransferI19StreamedBinaryWriteILb0EEEEvRT_
Bsg:__ZL72PKCS12_t4101533061_CustomAttributesCacheGenerator_U3CU3Ef__switchU24mapCP21CustomAttributesCache
Tif:__ZN14PhysicsManagerC2E10MemLabelId18ObjectCreationMode
a9e:__ZNK5physx2Gu11HeightField17getReferenceCountEv
vAk:_Array_InternalArray__get_Item_TisKeyValuePair_2_t625878672_m751890403_gshared
oU:__Z32TransferEnumWithNameForceIntSizeI14SafeBinaryReadN10SampleClip8LoadTypeEEvRT_RT0_PKc17TransferMetaFlags
hkj:_PlayerConnection_DisconnectedCallback_m1697017309
P5a:__Z19GetTimeSinceStartupv
Cvh:_Image_AddQuad_m2161647989
BNa:__ZN7Texture23VirtualRedirectTransferER17RemapPPtrTransfer
Nhh:_BaseInputModule_DeactivateModule_m856719157
AJo:__ZN6il2cpp2os10ThreadImpl11SetPriorityENS0_14ThreadPriorityE
IZl:_Enumerator_System_Collections_IEnumerator_Reset_m2953002685_gshared
lNh:__Z50RuntimeInvoker_Int64_t3736567304_Int32_t2950945753PFvvEPK10MethodInfoPvPS4_
Mxf:_TT_Load_Composite_Glyph
V4a:__Z33MultiplyMatrixArrayWithBase4x4REFPK10Matrix4x4fS1_S1_PS_j
wLf:__ZN11UnityEngine15PlatformWrapper18GetWin8ScalingModeEv
Qnb:__ZN9GfxDevice16DeleteTimerQueryEP13GfxTimerQuery
o6m:_List_1_Insert_m1695211546_gshared
fu:__ZL51__ManagedRegistrationHelperFunction_ScaleConstraintPv
L$h:__Z49RuntimeInvoker_Void_t1185182177_Color_t2555686324PFvvEPK10MethodInfoPvPS4_
$um:_Array_Resize_TisTMP_WordInfo_t3331066303_m2364034418_gshared
yOa:__ZN9ShaderLab11shaderprops9GetTexEnvEPK19ShaderPropertySheetS3_NS_16FastPropertyNameE16TextureDimensionb
G0m:_List_1_Sort_m3232912161_gshared
NPg:__ZL67ContactFilter2D_t3805203441_CustomAttributesCacheGenerator_maxDepthP21CustomAttributesCache
GGn:_GUILayoutGroup_CalcHeight_m1669391299
D3b:__ZN29RenderNodeQueuePrepareContextC2Ev
Bto:_il2cpp_gc_disable
cwi:_Promise_1_Reject_m617672045_gshared
Olc:__ZN9ShaderLab20SerializedSubProgram16TextureParameter8TransferI24GenerateTypeTreeTransferEEvRT_
Bta:__ZN9Scripting5Unity11Collections8LowLevel6Unsafe29NativeSetThreadIndexAttribute12CleanupProxyEv
xui:_DSASignatureDeformatter_SetKey_m2999549245
r3f:_TMP_SubMeshUI_get_mainTexture_m2995021644
eSo:__ZN6il2cpp2os11MutexHandle4WaitEb
Mlb:__ZN9GfxDevice19SaveStereoConstantsEv
dSo:__ZN6il2cpp2os11MutexHandle4WaitEj
htc:__ZL34GetComponentsImplementationRecurseILb1ELi1ELi1EEbR10GameObjectbRK17CompareParametersRK39GetComponentsImplementation_ReturnValue
vOh:__Z114RuntimeInvoker_Boolean_t97287965_RuntimeObject_RuntimeObject_Int32_t2950945753_Int32_t2950945753_Int32_t2950945753PFvvEPK10MethodInfoPvPS4_
Nbk:_AssemblyBuilder_GetTypes_m3415680380
Tja:__ZN6prcoreL17RemapGenericFloatI15TexFormatRGHalf18TexFormatARGBFloatEEvPKNS_9InnerInfoE
dLn:_AnalyticsEventParam_get_groupID_m569309506
ytk:_StackFrame_GetMethod_m1395840764
CMa:__ZNK13RenderTexture13GetDataHeightEv
aMb:__Z18SimulateMouseInputi
z$b:__ZN13RenderManager23AddRemoveCamerasDelayedEv
cM:__ZN23PreloadManagerOperation11GetPriorityEv
Qxj:_LayoutElement_OnEnable_m1760066426
nIf:__ZN11UnityEngine9Analytics15AnalyticsConfigC2Ev
z9j:_OverflowException__ctor_m4029085969
sJk:_BitConverter__cctor_m3841343255
qik:_Decimal_Compare_m3062820418
Mym:_IntervalCollection_GetMetaCollection_m4029522214
cef:__ZNK5Unity5Joint16GetCurrentForcesER8Vector3fS2_
YNb:__ZNSt3__27__sort4IRN10vector_mapIiN17InstancingBatcher12PropertyTypeENS_4lessIiEE13stl_allocatorINS_4pairIiS3_EEL18MemLabelIdentifier1ELi16EEE13value_compareEPS8_EEjT0_SF_SF_SF_T_
B$n:_TextGenerator_get_characterCount_m864136654
rWo:_CollisionCheckerPowerUp_OnCollisionEnter2D_m1489399106
M8i:_AsyncOperation_t1445031843_marshal_pinvoke_cleanup
Bll:_TimeSpan__ctor_m2047388489_AdjustorThunk
rcc:__ZN13RenderTexture8SetWidthEi
SAc:__ZNK28RectTransformPropertyBinding12SetPPtrValueERKN11UnityEngine9Animation10BoundCurveEi
tOb:__ZN18FrameTimingManager18GetVSyncsPerSecondEv
_jd:__ZN11ColorModuleD0Ev
w6n:_ProgressHandler_t926933139_marshal_pinvoke_back
q1a:__ZN10MeshFilterD0Ev
Cda:__ZN22BuiltinResourceManager16StaticInitializeEPv
HBi:_InternalEnumerator_1__ctor_m1341209356_AdjustorThunk
Ten:_Collection_1_System_Collections_ICollection_CopyTo_m1516601228_gshared
mea:__ZN23DefaultMeshVertexFormatC2E18VertexChannelsInfo
c9g:__ZL66U3CStartU3Ec__Iterator0_t3341539328_CustomAttributesCacheGeneratorP21CustomAttributesCache
Jnm:_KeyValuePair_2_set_Key_m975493760_AdjustorThunk
lhn:_Collection_1_CopyTo_m4278237485_gshared
CXk:_Int16_System_IConvertible_ToDouble_m1661805412
Uki:_MethodCall_get_Uri_m1720935531
JSn:__ZL24UnresolvedVirtualCall_94P12Il2CppObjectS0_S0_iPK10MethodInfo
poe:__ZNK5physx9NpFactory11getNbShapesEv
Mnm:_KeyValuePair_2_set_Value_m596466564_AdjustorThunk
VJi:_InternalEnumerator_1_MoveNext_m3404184455_gshared
aRn:__ZL23UnresolvedVirtualCall_5P12Il2CppObjectsPK10MethodInfo
$H:__ZN4PPtrI6AvatarE8TransferI19StreamedBinaryWriteILb0EEEEvRT_
F4l:_List_1_Insert_m4050947056_gshared
Vwk:_Array_Sort_TisVector3_t3722313464_m1030213405_gshared
x3c:__ZN8JSONRead21TransferSTLStyleArrayI13dynamic_arrayI5RectTIiELj0EEEEvRT_17TransferMetaFlags
T5:__ZN9ShaderLab16FastPropertyName4InitEPKc
rFi:_InternalEnumerator_1__ctor_m39232262_AdjustorThunk
t_h:__Z48RuntimeInvoker_OperatingSystemFamily_t1868066375PFvvEPK10MethodInfoPvPS4_
aog:__ZL61Thread_t2300836069_CustomAttributesCacheGenerator_local_slotsP21CustomAttributesCache
GNa:__ZN6ObjectC2E10MemLabelId18ObjectCreationMode
ro:FUNCTION_TABLE_iiiii
bFg:__ZL56PlayableGraph_t3515989261_CustomAttributesCacheGeneratorP21CustomAttributesCache
bGi:_InternalEnumerator_1_get_Current_m3911557813_AdjustorThunk
gLf:__ZN11UnityEngine15PlatformWrapper19GetPhysicalMemoryMBEv
Fz:__ZN17AnimationPlayable17GetAnimationClipsER13dynamic_arrayIP13AnimationClipLj0EE
FLk:_Char_System_IConvertible_ToByte_m2347554595_AdjustorThunk
Dno:__ZNK15dense_hashtableINSt3__24pairIK10KeyWrapperINS1_IPK12PropertyInfoP11Il2CppClassEEEjEES9_17ReflectionMapHashIS8_EN14dense_hash_mapIS9_jSD_NS9_14EqualsComparerINS0_8equal_toIS8_EEEENS0_9allocatorISB_EEE9SelectKeyESI_SK_E12test_deletedERK30dense_hashtable_const_iteratorISB_S9_SD_SM_SI_SK_E
$Bg:__ZL59TooltipAttribute_t3957072629_CustomAttributesCacheGeneratorP21CustomAttributesCache
z_a:__ZN10VertexData8TransferI17RemapPPtrTransferEEvRT_
$od:__Z20UpdateWholeSheet2TplIL27ParticleSystemCurveEvalMode0ELS0_2EEvfRK11MinMaxCurveS3_RK23ParticleSystemParticlesPf
K9n:__ZN15dense_hashtableINSt3__24pairIK10KeyWrapperIPK11Il2CppClassEPKcEES6_N6il2cpp5utils11PointerHashIS3_EEN14dense_hash_mapIS6_S9_SE_NS6_14EqualsComparerINS0_8equal_toIS5_EEEENS0_9allocatorISA_EEE9SelectKeyESJ_SL_E13set_empty_keyERKSA_
Qsd:__ZN9Scripting11UnityEngine14ContactPoint2D9InitProxyEv
Ldl:_String_CreateString_m860434552
uga:__Z18GetDirectorManagerv
onb:__ZN9GfxDevice14InsertCPUFenceEv
Qhg:__ZL107CriticalFinalizerObject_t701527852_CustomAttributesCacheGenerator_CriticalFinalizerObject__ctor_m3245424448P21CustomAttributesCache
HMi:_InternalEnumerator_1_System_Collections_IEnumerator_get_Current_m2649471526_AdjustorThunk
kZk:_Int32_Equals_m2976157357_AdjustorThunk
uxc:__Z38Transform_CUSTOM_INTERNAL_get_rotationP12Il2CppObjectP11Quaternionf
MIg:__ZL99SceneManager_t2787271929_CustomAttributesCacheGenerator_SceneManager_LoadScene_m2298600132____mode1P21CustomAttributesCache
Nvo:__ZNK15dense_hashtableINSt3__24pairIK10KeyWrapperIP11Il2CppClassES4_EES5_N6il2cpp8metadata16SZArrayClassHashEN14dense_hash_mapIS5_S4_SA_NS5_14EqualsComparerINS9_19SZArrayClassCompareEEENS0_9allocatorIS7_EEE9SelectKeyESE_SG_E3endEv
D_h:__Z73RuntimeInvoker_Single_t1397266774_Vector2_t2156229523_Vector2_t2156229523PFvvEPK10MethodInfoPvPS4_
rmi:_SoapAttribute_get_XmlNamespace_m859394681
pRl:_Dictionary_2_System_Collections_Generic_ICollectionU3CSystem_Collections_Generic_KeyValuePairU3CTKeyU2CTValueU3EU3E_Contains_m2338231611_gshared
Cmo:__ZNK15dense_hashtableINSt3__24pairIK10KeyWrapperINS1_IPK10MethodInfoP11Il2CppClassEEEjEES9_17ReflectionMapHashIS8_EN14dense_hash_mapIS9_jSD_NS9_14EqualsComparerINS0_8equal_toIS8_EEEENS0_9allocatorISB_EEE9SelectKeyESI_SK_E5beginEv
Non:_X509ExtensionCollection_System_Collections_IEnumerable_GetEnumerator_m1475785462
tSb:__ZN7ApiGLES19UploadBufferSubDataEjN2gl12BufferTargetEllPKv
p3n:_SkeletonBone_t4134054672_marshal_pinvoke_cleanup
vQe:__ZN5physx2Sc5Scene17createClothSolverEv
Nia:__ZNSt3__216__rotate_forwardINS_11__wrap_iterIPN4core12basic_stringIcNS2_20StringStorageDefaultIcEEEEEEEET_S9_S9_S9_
m0m:__ZN21InterfaceFuncInvoker0I19Color32_t2600501292E6InvokeEjP11Il2CppClassP12Il2CppObject
kea:__ZdaPv
vwe:__ZNK5physx15PxsParticleData16getMaxParticlesVEv
YEk:_SmallXmlParserException__ctor_m1976648878
jFj:_Selectable_get_isPointerDown_m3518318267
$6k:_SymmetricAlgorithm_set_KeySize_m3805756466
Arc:__Z40SpriteRenderer_CUSTOM_INTERNAL_get_colorP12Il2CppObjectP10ColorRGBAf
X4g:__ZL70ValueProperty_t1868393739_CustomAttributesCacheGenerator_m_CustomValueP21CustomAttributesCache
fEf:__Z44Register_UnityEngine_Canvas_get_pixelPerfectv
A4o:_Benchmark01_Start_m4262200517
UVe:__ZN15MBP_PairManager17removeMarkedPairsEPK10MBP_ObjectPN5physx16PxsBroadPhaseMBPERK8BitArrayS8_
$Kk:_Byte_System_IConvertible_ToUInt32_m1049546902_AdjustorThunk
rAo:__ZN6il2cpp6icalls8mscorlib6System10Reflection10MonoMethod19GetGenericArgumentsEP22Il2CppReflectionMethod
UXh:__Z53RuntimeInvoker_Double_t594665363_Interval_t1802865632PFvvEPK10MethodInfoPvPS4_
oOb:__Z21InitializeBatchedJobsv
v0n:_CanvasGroup_get_blocksRaycasts_m1805542303
J5k:_SHA1Internal_ProcessBlock_m1991889327
vub:__Z19TransferField_ArrayI14SafeBinaryRead27Converter_SimpleNativeClassI8GUIStyleEEvRK23StaticTransferFieldInfoR31RuntimeSerializationCommandInfoRT0_
qIb:__ZN9TextAsset23VirtualRedirectTransferER19StreamedBinaryWriteILb0EE
xAo:__ZN15dense_hashtableINSt3__24pairIK10KeyWrapperIP14Il2CppIUnknownEjEES5_N6il2cpp5utils11PointerHashIS3_EEN14dense_hash_mapIS5_jSB_NS5_14EqualsComparerINS0_8equal_toIS4_EEEENS0_9allocatorIS7_EEE9SelectKeyESG_SI_ED2Ev
awk:_Array_Sort_TisRuntimeObject_TisRuntimeObject_m1685639929_gshared
Hhd:__Z25UpdateOrbitalAndRadialTplIL27ParticleSystemCurveEvalMode0ELS0_1ELS0_3EEvRK11MinMaxCurveS3_S3_S3_S3_S3_S3_R23ParticleSystemParticlesjjRKN4math8float3x3ERKNS6_7affineXERKNS6_7_float4E
gll:_TimerCallback_Invoke_m1938221087
UIa:__ZN14RenderSettings5ResetEv
Loc:__ZN6Sprite9BindAtlasERK4PPtrI11SpriteAtlasE
WZc:__ZN5Unity9rapidjson12GenericValueINS0_4UTF8IcEE13JSONAllocatorE10FindMemberIS4_EENS0_21GenericMemberIteratorILb0ES3_S4_EERKNS1_IS3_T_EE
E4o:_U3CStartU3Ec__Iterator0_System_Collections_IEnumerator_get_Current_m3995609180
Sne:__ZN5physx9NpPhysics33unregisterDeletionListenerObjectsERNS_18PxDeletionListenerEPKPKNS_6PxBaseEj
ZFi:_InternalEnumerator_1_System_Collections_IEnumerator_get_Current_m3892960115_AdjustorThunk
foc:__ZN9ShaderLabL18AddPropertyToArrayERK19ShaderPropertySheetR13dynamic_arrayIiLj0EERKNS_8FloatValE
nue:__ZNK5physx2Sc9ClothCore22getAngularInertiaScaleEv
KHn:_SymmetricTransform_Finalize_m4129642865
Pxk:_Dictionary_2_Do_CopyTo_TisBoolean_t97287965_TisRuntimeObject_m879421870_gshared
I0l:_List_1_IndexOf_m654529719_gshared
akk:_Convert_ToDateTime_m1800003024
pAh:_MonoEventInfo_t346866618_marshal_pinvoke_cleanup
bvi:_HMAC_HashCore_m3684104066
vOf:__Z13RegisterClassI20UnityConnectSettingsEvPKc
EXm:__ZN28GenericInterfaceFuncInvoker2Ii20UIVertex_t4057497605S0_E6InvokeEPK10MethodInfoP12Il2CppObjectS0_S0_
fZc:__ZN5Unity9rapidjson13GenericReaderINS0_4UTF8IcEES3_13JSONAllocatorE11ParseNumberILj1ENS0_25GenericInsituStringStreamIS3_EENS0_15GenericDocumentIS3_S4_S4_EEEEvRT0_RT1_
zfe:__ZN5physx20NpRigidActorTemplateINS_18PxArticulationLinkEE12setActorFlagENS_11PxActorFlag4EnumEb
CKf:__ZN22BaseUnityConnectClient20StartEventDispatcherEv
W1a:__ZN14SpriteRenderer14OnChangeSpriteEv
Nin:_Collection_1_RemoveItem_m2911050674_gshared
hLh:__Z79RuntimeInvoker_UInt16_t2177724958_RuntimeObject_Int32_t2950945753_RuntimeObjectPFvvEPK10MethodInfoPvPS4_
uJo:__ZN6il2cpp2os10ThreadImplD2Ev
PBg:__ZL56ResetInputAxis_t866062302_CustomAttributesCacheGeneratorP21CustomAttributesCache
Oqd:__ZN14ParticleSystem18MarkAllSubEmittersEPS_
j_c:__ZN8Gradient8TransferI9JSONWriteEEvRT_
eIh:_ContextCallbackObject__ctor_m3499682402
Z4h:__Z90RuntimeInvoker_Boolean_t97287965_Vector3_t3722313464_Vector3_t3722313464_Int32_t2950945753PFvvEPK10MethodInfoPvPS4_
aPg:__ZL81TextEditor_t2759855366_CustomAttributesCacheGenerator_TextEditor__ctor_m242049450P21CustomAttributesCache
vik:_Convert_ToBoolean_m2833621053
Fwa:__ZNK12TLSAllocatorI14StackAllocatorE22GetAllocatedMemorySizeEv
R9m:__ZN23InterfaceActionInvoker2Ii26ResolveHandler_t4124874245E6InvokeEjP11Il2CppClassP12Il2CppObjectiS0_
Ctg:__ZL62WebHeaderCollection_t1942268960_CustomAttributesCacheGeneratorP21CustomAttributesCache
pNc:__Z32GetSceneHierarchyPathDescriptivePK6Object
vjm:_EqualityComparer_1_System_Collections_IEqualityComparer_GetHashCode_m2138064395_gshared
rT:__ZNK7WeakPtrI20SoundChannelInstanceE10SharedData9GetRawPtrEv
cgb:__ZN12HandlerChain4NameEv
_yc:__ZN17AnimationCurveTplIfE15SetPostInfinityE8WrapMode
PXk:_Int16_System_IConvertible_ToType_m3672347013_AdjustorThunk
D0k:_EndOfStreamException__ctor_m1590165188
Gn:FUNCTION_TABLE_fiiiiiifiiiiiif
aal:_SecurityException_ToString_m3228070608
uYk:_Int16_ToString_m2013897809
h3e:__ZN5physx37setupFinalizeSolverConstraintsCoulombERNS_13PxcNpWorkUnitERKNS_2Gu13ContactBufferERKNS_27PxcCorrelationBufferCoulombERKNS_11PxTransformESB_bPhRKNS_13PxcSolverBodyESF_RKNS_17PxcSolverBodyDataESI_ffjffff
Bgd:__Z25UpdateOrbitalAndRadialTplIL27ParticleSystemCurveEvalMode2ELS0_1ELS0_3EEvRK11MinMaxCurveS3_S3_S3_S3_S3_S3_R23ParticleSystemParticlesjjRKN4math8float3x3ERKNS6_7affineXERKNS6_7_float4E
$Wh:__Z123RuntimeInvoker_Boolean_t97287965_RuntimeObject_StringU26_t181565287_StringU5BU5DU26_t2154486980_StringU5BU5DU26_t2154486980PFvvEPK10MethodInfoPvPS4_
NFf:__Z44Register_UnityEngine_CanvasRenderer_get_cullv
Q6n:__ZN15dense_hashtableINSt3__24pairIK10KeyWrapperIPK22Il2CppGenericParameterEP11Il2CppClassEES6_N6il2cpp5utils11PointerHashIS4_EEN14dense_hash_mapIS6_S9_SE_NS6_14EqualsComparerINS0_8equal_toIS5_EEEENS0_9allocatorISA_EEE9SelectKeyESJ_SL_ED2Ev
bCk:_ScriptableObject_CreateInstance_TisRuntimeObject_m1552711675_gshared
Z9k:_SecurityException_get_PermissionType_m2237538728
Mgc:__Z29StdTemplateConversionFunctionIbbEbPvR14SafeBinaryRead
ewo:__ZNSt3__214__split_bufferIN6il2cpp8metadata18GenericArrayMethodERNS_9allocatorIS3_EEEC2EjjS6_
KKf:__ZN11UnityEngine7Connect17XRDeviceInfoEvent12XRDeviceInfoD2Ev
ysb:__Z44InitializeTransferFunctionScriptingTraitsForI17RemapPPtrTransferEvR31TransferFunctionScriptingTraits
Sxj:_LayoutElement_OnDisable_m3869995817
DBc:__ZNSt3__26vectorI16MessageForwarder13stl_allocatorIS1_L18MemLabelIdentifier7ELi8EEE6resizeEj
fZi:_X509Chain_SelectBestFromCollection_m1068759221
THn:_SymmetricTransform_TransformBlock_m851059707
icd:__Z19UpdateProceduralTplIL27ParticleSystemCurveEvalMode4EEvRK20DualMinMaxPolyCurvesR23ParticleSystemParticlesPfRKN4math7_float4E
aJm:_Collection_1_System_Collections_IList_get_IsReadOnly_m2978442176_gshared
N7m:_Enumerator_System_Collections_IEnumerator_Reset_m2261065994_AdjustorThunk
aEj:_ScrollRect_get_verticalNormalizedPosition_m3693218937
VUe:__ZN5physx31ComputeCreatedDeletedPairsListsEPKjS1_jRPNS_17PxcBroadPhasePairERjS5_S4_S5_S5_RNS_14SapPairManagerE
tab:__ZN18LoadSceneOperation21MustCompleteNextFrameEv
mGj:_Slider_UpdateDrag_m1102107039
UXi:_X509ChainPolicy_set_RevocationMode_m3002768104
sBh:_MonoMethodInfo_get_method_info_m88651774
L6g:__ZL135U3CSpawnEnemyType2WaveU3Ec__Iterator7_t1142910207_CustomAttributesCacheGenerator_U3CSpawnEnemyType2WaveU3Ec__Iterator7_Reset_m444857884P21CustomAttributesCache
KV:__ZNK12AudioManager16GetAudioListenerEv
Jmp:_pthread_mutex_lock__wrapper
GYk:_Int32_System_IConvertible_ToDateTime_m1824716955
Qcm:_Dictionary_2_System_Collections_Generic_ICollectionU3CSystem_Collections_Generic_KeyValuePairU3CTKeyU2CTValueU3EU3E_CopyTo_m331407443_gshared
NJo:__ZN6il2cpp2osL23CleanupThreadIfCanceledEPv
SMm:_ReadOnlyCollection_1_System_Collections_IList_get_IsFixedSize_m26770954_gshared
Sri:_RuntimeTypeHandle__ctor_m3315980708_AdjustorThunk
zmg:__ZL69IIdentityPermissionFactory_t3268650966_CustomAttributesCacheGeneratorP21CustomAttributesCache
iUl:_Dictionary_2_Resize_m536405636_gshared
Wbc:__ZNSt3__26vectorI11CameraStackNS_9allocatorIS1_EEE8__appendEj
Lgm:_DefaultComparer_Equals_m2585095694_gshared
WZe:__ZN5physx2Gu16pcmContactBoxBoxERKNS0_13GeometryUnionES3_RKNS_11PxTransformES6_RKfRNS0_5CacheERNS0_13ContactBufferE
Zfj:_Logger_set_filterLogType_m3622751173
x7i:_Request_ValidateServerCertificate_m1146481384
mqi:__ZN25GenericVirtActionInvoker1I28StreamingContext_t3711869237E6InvokeEPK10MethodInfoP12Il2CppObjectS0_
Pxn:_UnityEvent_1_GetDelegate_m25714567_gshared
Y6l:_List_1_System_Collections_IList_Contains_m776542980_gshared
oy:__ZN7mecanim9animation12GetHumanPoseERKNS0_18ClipMuscleConstantEPKNS0_10ValueDeltaERNS_5human9HumanPoseE
MIf:__ZN11UnityEngine9Analytics15UserCustomEvent12CustomParams6InsertEPKcRNS1_11CustomValueE
iA:__ZN22AnimationMixerPlayable17ProcessRootMotionEP35AnimationPlayableEvaluationConstantP32AnimationPlayableEvaluationInputP33AnimationPlayableEvaluationOutput
lem:_Dictionary_2__ctor_m518943619_gshared
ZBb:__Z29Transfer_Blittable_ArrayFieldI19StreamedBinaryWriteILb0EEjEvRT_R9ArrayInfoRK23StaticTransferFieldInfo
Kba:__Z13GetFileSystemv
VEc:__ZZL23RegisterLightPropertiesR22GenericPropertyBindingEN29Wrapper_LightColorTemperature13SetFloatValueEPvf
gZn:_AudioSourceExtension_ExtensionUpdate_m2790353999
gea:__ZN13RuntimeStaticI15GUIEventManagerLb0EE16StaticInitializeEPv
kjj:_MonoBehaviour_IsObjectMonoBehaviour_m2134950949
Efh:_TextMeshProUGUI_Rebuild_m2217366760
LGb:__ZL12InvokeMethodI18StreamedBinaryReadILb0EEEvRK29SerializationCommandArgumentsR31RuntimeSerializationCommandInfo
_Od:__ZN15RaycastCallback14processTouchesEPKN5physx12PxRaycastHitEj
hoa:__ZL45__ManagedRegistrationHelperFunction_Texture2DPv
ZPi:_Comparer_1__cctor_m2209434164_gshared
Trl:_Version_CompareTo_m3146217210
Mvd:__ZN24RigidbodyMovementState2D21ResetAngularMoveStateEv
tVn:__ZL25UnresolvedVirtualCall_240P12Il2CppObjectaS0_PK10MethodInfo
_1a:__ZThn32_N14SpriteRenderer15AddAsRenderNodeER15RenderNodeQueueRK20DeprecatedSourceData
O6c:__Z32TransferEnumWithNameForceIntSizeI14SafeBinaryReadN15CollisionModule4ModeEEvRT_RT0_PKc17TransferMetaFlags
gpm:_Array_InternalArray__ICollection_CopyTo_TisKeyValuePair_2_t71524366_m1056941380_gshared
maf:__ZN5physx2Gu5RTree15exportExtraDataERNS_22PxSerializationContextE
Zml:_Type_get_IsClass_m589177581
Xvg:__ZL62NativeTypeAttribute_t2250406315_CustomAttributesCacheGeneratorP21CustomAttributesCache
ddl:_String_ReplaceUnchecked_m1381393810
KEb:__Z29Transfer_Blittable_ArrayFieldI18StreamedBinaryReadILb1EE5RectTIfEEvRT_R9ArrayInfoRK23StaticTransferFieldInfo
Lrb:__ZN19ShaderPropertySheet9SetMatrixEN9ShaderLab16FastPropertyNameERK10Matrix4x4fNS_8SetFlagsE
T5g:__ZL108U3CSpawnU3Ec__Iterator0_t2937824069_CustomAttributesCacheGenerator_U3CSpawnU3Ec__Iterator0__ctor_m3257505222P21CustomAttributesCache
_Vn:__ZL25UnresolvedVirtualCall_273P12Il2CppObjectS0_iPK10MethodInfo
gei:__Z91RuntimeInvoker_Void_t1185182177_TextAlignmentOptionsU5BU5DU26_t1394617819_Int32_t2950945753PFvvEPK10MethodInfoPvPS4_
yUa:__Z29GetTextureSizeAllowedMultiple13TextureFormat
EPe:__ZNK5physx2Sq10AABBPruner7overlapERKNS0_9ShapeDataERNS0_14PrunerCallbackE
ksk:_Decimal_Subtract_m835601464
RZb:__ZZ23InitPlayerLoopCallbacksvEN52InitializationAsyncUploadTimeSlicedUpdateRegistrator7ForwardEv
$Bc:__Z46CleanupSpriteRendererAnimationBindingInterfacev
ARj:_Array_InternalArray__ICollection_Add_TisBoolean_t97287965_m1361760099_gshared
Jmj:_Quaternion_Internal_ToEulerRad_m1503250752
Dvm:_X509ExtensionCollection_get_IsSynchronized_m2607599544
zll:_TimeSpan__ctor_m3689759052_AdjustorThunk
Phd:__Z25UpdateOrbitalAndRadialTplIL27ParticleSystemCurveEvalMode0ELS0_2ELS0_4EEvRK11MinMaxCurveS3_S3_S3_S3_S3_S3_R23ParticleSystemParticlesjjRKN4math8float3x3ERKNS6_7affineXERKNS6_7_float4E
Mso:_il2cpp_array_element_size
PEe:__ZN5physx6shdfnd5ArrayIPvNS0_19ReflectionAllocatorINS_2Gu30LargePersistentContactManifoldEEEE4copyINS0_15InlineAllocatorILj256ES6_EEEEvRKNS1_IS2_T_EE
pOa:__ZN19ShaderPropertySheet22CopyVectorPropertyFromERKS_i
_8f:__ZL62ComVisibleAttribute_t1362837655_CustomAttributesCacheGeneratorP21CustomAttributesCache
V0m:_List_1_System_Collections_IEnumerable_GetEnumerator_m1824431956_gshared
zxa:__ZNSt3__26__treeINS_12__value_typeIN4core12basic_stringIcNS2_20StringStorageDefaultIcEEEEjEENS_19__map_value_compareIS6_S7_NS_4lessIS6_EELb1EEE13stl_allocatorIS7_L18MemLabelIdentifier7ELi16EEE25__emplace_unique_key_argsIS6_JNS_4pairIS6_jEEEEENSH_INS_15__tree_iteratorIS7_PNS_11__tree_nodeIS7_PvEEiEEbEERKT_DpOT0_
mpj:_RectTransform_INTERNAL_set_sizeDelta_m188783163
Mg:_glCheckFramebufferStatus
kRo:__ZN6il2cpp2os11EventHandle4WaitEv
dxi:_U3CGetEnumeratorU3Ec__Iterator0_System_Collections_Generic_IEnumeratorU3CTU3E_get_Current_m9057020_gshared
Q7:__Z43scripting_class_get_method_from_name_filter17ScriptingClassPtrPKciN24ScriptingMethodFiltering18MethodSearchFilterEPK16ScriptingTypePtr
bGf:__Z13RegisterClassIN2UI6CanvasEEvPKc
u9:__ZN4core8hash_setINS_4pairIKi17ThreadedAwakeDataLb0EEENS_9hash_pairINS_4hashIiEES2_S3_EENS_10equal_pairINSt3__28equal_toIiEES2_S3_EEE4growEv
A1:__ZN19CloudServiceHandler20StartEventDispatcherERKN11UnityEngine15CloudWebService18CloudServiceConfigERNS1_23WebRequestRestHeaderMapE
Rth:_GraphicRaycaster__ctor_m646559428
H5e:__ZN5physx2Cm12DelegateTaskINS_2Sc5SceneEXadL_ZNS3_19updateCCDSinglePassEPNS_10PxBaseTaskEEEE11runInternalEv
AXj:_CipherSuite_get_CipherAlgorithmType_m137858741
I1d:__ZN5physx6string9sprintf_sEPcjPKcz
dvd:__ZNK15b2DistanceJoint17GetReactionTorqueEf
edf:__ZThn8_N5physx19TriangleMeshBuilderD1Ev
yPk:_BitArrayEnumerator_get_Current_m4220391712
kci:__Z54RuntimeInvoker_Void_t1185182177_SpriteData_t3048397587PFvvEPK10MethodInfoPvPS4_
kak:__Z37il2cpp_codegen_get_executing_assemblyPK10MethodInfo
OVi:_HttpWebRequest_GetServicePoint_m2640244283
Ipj:_Transform_get_parent_m835071599
v9:__ZN4core8hash_setINS_4pairIKi17ThreadedAwakeDataLb0EEENS_9hash_pairINS_4hashIiEES2_S3_EENS_10equal_pairINSt3__28equal_toIiEES2_S3_EEE4growEi
tSd:__ZN5physx2Gu16intersectRayAABBERKNS_6PxVec3ES3_S3_S3_RfS4_
bfb:__ZN9Transform23VirtualRedirectTransferER17RemapPPtrTransfer
bWi:_IPAddress_get_ScopeId_m4237202723
vra:__ZN9Scripting11UnityEngine12Experimental10PlayerLoop9PreUpdate12CleanupProxyEv
Ax:__ZN21AnimationClipPlayable7SetTimeEd
fBm:_ExpressionCollection_get_Item_m3510736379
_Vg:__ZL62FontData_t746620069_CustomAttributesCacheGenerator_m_AlignmentP21CustomAttributesCache
Blh:_StandaloneInputModule_get_inputActionsPerSecond_m3946624274
Mil:_UTF8Encoding_InternalGetCharCount_m82458470
mPn:_Vector2__cctor_m2108982652
M_h:__Z72RuntimeInvoker_Boolean_t97287965_Vector4_t3319028937_Vector4_t3319028937PFvvEPK10MethodInfoPvPS4_
GEc:__ZZL23RegisterLightPropertiesR22GenericPropertyBindingEN22Wrapper_LightIntensity13GetFloatValueEPv
r8h:__Z77RuntimeInvoker_Boolean_t97287965_ContentTypeU26_t1583467619_Int32_t2950945753PFvvEPK10MethodInfoPvPS4_
mpa:__ZN9Scripting11UnityEngine9Rendering20SphericalHarmonicsL29InitProxyEv
gMi:_InternalEnumerator_1_MoveNext_m2734554195_AdjustorThunk
p3e:__ZN5physx30setupFinalizeSolverConstraintsERNS_13PxcNpWorkUnitERKNS_2Gu13ContactBufferERKNS_20PxcCorrelationBufferERKNS_11PxTransformESB_bPhRKNS_13PxcSolverBodyESF_RKNS_17PxcSolverBodyDataESI_ffffff
AAo:__ZN14dense_hash_mapI10KeyWrapperIP14Il2CppIUnknownEjN6il2cpp5utils11PointerHashIS1_EENS3_14EqualsComparerINSt3__28equal_toIS2_EEEENS9_9allocatorINS9_4pairIKS3_jEEEEE15set_deleted_keyERSF_
_qc:__ZN19SpriteMeshGenerator12path_segment12max_distanceENSt3__26vectorINS_6vertexENS1_9allocatorIS3_EEEEii
Hke:__ZN5physx7NpScene17releaseBatchQueryEPNS_12PxBatchQueryE
uuo:__ZN6il2cpp2gc9AllocatorIP12Il2CppThreadE10deallocateEPvj
lCe:__ZN5physx20NpRigidActorTemplateINS_13PxRigidStaticEE11attachShapeERNS_7PxShapeE
fpo:__ZN13Il2CppHashMapIPK14Il2CppAssemblyPK22Il2CppMonoAssemblyNameN6il2cpp5utils11PointerHashIS1_EENSt3__28equal_toIS2_EENSA_9allocatorINSA_4pairIK10KeyWrapperIS2_ES5_EEEEEC2EjRKS9_RKSC_
Fvc:__ZN9Scripting39GetScriptingArrayStringElementNoRefImplE17ScriptingArrayPtri
I2e:__ZN5physx26solveVBlockDefaultFrictionEPNS_13PxsSolverCoreEfjjPNS_13PxcSolverBodyEPNS_17PxcSolverBodyDataEjjPNS_25PxcArticulationSolverDescEjPNS_23PxcSolverConstraintDescEjS9_jRNS_6shdfnd5ArrayINS_24PxsConstraintBatchHeaderENSA_19ReflectionAllocatorISC_EEEESG_PNS_2Cm13SpatialVectorEPNS_25PxcThresholdStreamElementEjRj
sGk:_DelegatePInvokeWrapper_AppDomainInitializer_t682969308
gGg:__ZL141SupportedRenderingFeatures_t353898663_CustomAttributesCacheGenerator_SupportedRenderingFeatures_IsMixedLightingModeSupportedByRef_m2282093837P21CustomAttributesCache
Vie:__ZN5physx15NpActorTemplateINS_18PxArticulationLinkEE17resolveReferencesERNS_24PxDeserializationContextE
$fd:__Z25UpdateOrbitalAndRadialTplIL27ParticleSystemCurveEvalMode1ELS0_1ELS0_1EEvRK11MinMaxCurveS3_S3_S3_S3_S3_S3_R23ParticleSystemParticlesjjRKN4math8float3x3ERKNS6_7affineXERKNS6_7_float4E
Paa:__ZN8Remapper6RemoveEi
B6i:_FormDataStream_get_CanTimeout_m1322319223
lcn:_Collection_1_System_Collections_IList_IndexOf_m3538466904_gshared
iMe:__ZN5physx19NpRigidBodyTemplateINS_18PxArticulationLinkEE9visualizeERNS_2Cm12RenderOutputEPNS_7NpSceneE
QTe:__ZN5physx11writeBack1DERKNS_23PxcSolverConstraintDescERNS_16PxcSolverContextERNS_17PxcSolverBodyDataES6_
ytn:_TMP_XmlTagStack_1_SetDefault_m3926551933_AdjustorThunk
Lfl:_Encoding_GetBytes_m3148649984
zOc:__ZN9Scripting27CreateArgumentNullExceptionEPKc
kof:__ZL36CleanupTextRenderingScriptingClassesv
IRd:__ZThn4_N16RayRTreeCallbackILi0ELb0EED0Ev
occ:__ZN15ReflectionProbe17UseRendererResultEP13ProbeRenderer
dSc:__Z34Mesh_CUSTOM_SetArrayForChannelImplP12Il2CppObject30InternalScriptingShaderChannel34InternalScriptingVertexChannelTypeiP11Il2CppArrayi
U7:__Z32scripting_class_get_nested_types17ScriptingClassPtrRNSt3__26vectorIS_13stl_allocatorIS_L18MemLabelIdentifier1ELi16EEEE
D0n:_CanvasRenderer_INTERNAL_CALL_EnableRectClipping_m3318097918
pql:_UInt64_System_IConvertible_ToDecimal_m806594027_AdjustorThunk
Nma:__ZL58__ManagedRegistrationHelperFunction_MaterialEffectPlayablePv
u1g:__ZL68TMP_InputField_t1099764886_CustomAttributesCacheGenerator_m_ReadOnlyP21CustomAttributesCache
JOf:__ZN11UnityEngine7Connect20RemoteConfigSettings18StaticCallOnUpdateEPS1_
Wxn:_UnityEvent_1_GetDelegate_m274387680_gshared
WBl:_Enumerator_get_CurrentValue_m3103267885_gshared
S6l:_List_1__ctor_m3395838871_gshared
QTk:_CultureInfo_get_Parent_m672689885
Q4j:_MissingMemberException__ctor_m2571045846
$Hg:__ZL93AnimationCurve_t3046754366_CustomAttributesCacheGenerator_AnimationCurve_Evaluate_m2125563588P21CustomAttributesCache
Lno:__ZN15dense_hashtableINSt3__24pairIK10KeyWrapperINS1_IPK12PropertyInfoP11Il2CppClassEEEjEES9_17ReflectionMapHashIS8_EN14dense_hash_mapIS9_jSD_NS9_14EqualsComparerINS0_8equal_toIS8_EEEENS0_9allocatorISB_EEE9SelectKeyESI_SK_ED2Ev
aLe:__ZNK5physx2Sc5Scene20getNbParticleSystemsEv
SL:__ZN9Scripting11UnityEngine18AssetBundleRequest9InitProxyEv
hmn:_PKCS12__ctor_m1854440921
Hum:_Array_Resize_TisCustomAttributeNamedArgument_t287865710_m885566878_gshared
Pca:__ZN17TransformInternal19FreeTransformThreadER18TransformHierarchyjj
xu:__ZN9Scripting11UnityEngine12SkeletonBone12CleanupProxyEv
rfm:_DefaultComparer__ctor_m2556554241_gshared
Nv:__ZN11UnityEngine9Animation28GenericAnimationBindingCache25RegisterIAnimationBindingEPKN5Unity4TypeEiP17IAnimationBinding
CNk:_ArrayList_ToArray_m3439706433
KOe:__ZN5physx2Gu17GetGeomSweepFuncsEv
C8d:__ZN5physx6shdfnd8PoolBaseINS_15PxsArticulationENS0_16AlignedAllocatorILj64ENS0_9AllocatorEEEE17releaseEmptySlabsEv
w0k:_DirectoryInfo__ctor_m481305441
Pbp:dynCall_viiffiii
Evm:_X509ExtensionCollection_get_SyncRoot_m2667861032
G7n:__ZN6il2cpp2vm5Class15GetElementClassEP11Il2CppClass
Gpc:__ZNK6Sprite15GenerateOutlineEfhbRNSt3__26vectorI13dynamic_arrayI8Vector2fLj0EENS0_9allocatorIS4_EEEEi
S5:__ZN10MemoryPoolC2E10MemLabelIdbPKciii
Sve:__ZN5physx22NpParticleBaseTemplateINS_15PxParticleFluidENS_15NpParticleFluidEE23setParticleReadDataFlagENS_22PxParticleReadDataFlag4EnumEb
NFm:_Collection_1_SetItem_m941095285_gshared
hIm:__ZN21InterfaceFuncInvoker1Ib19Vector3_t3722313464E6InvokeEjP11Il2CppClassP12Il2CppObjectS0_
QHf:__ZN14UnityAnalytics25UnregisterGlobalCallbacksEv
a8h:__Z80RuntimeInvoker_Boolean_t97287965_ColorBlockU26_t337120346_ColorBlock_t2139031574PFvvEPK10MethodInfoPvPS4_
Gac:__Z40ProcessCameraIndexListIsNodeVisibleInOutRK22SceneCullingParametersPK9SceneNodePK4AABBR9IndexList
OGn:_GUIScrollGroup_SetHorizontal_m291416666
ZHa:__ZN16GraphicsSettings8TransferI17RemapPPtrTransferEEvRT_
KGf:__ZN2UI6Canvas13UpdateBatchesEb
c1i:_X509BasicConstraintsExtension_Decode_m120598446
sD:__ZNK23AnimationPlayableOutput11DerivesFromE17ScriptingClassPtr
WSa:__ZN7Texture19SupportsAsyncUploadI19StreamedBinaryWriteILb0EEEEbRT_
i_h:__Z49RuntimeInvoker_Boolean_t97287965_Rect_t2360479859PFvvEPK10MethodInfoPvPS4_
vgp:_glGetShaderInfoLog__wrapper
sqk:_DateTime_ToShortTimeString_m1551520344
rqi:_ObjectReader_ReadObjectGraph_m340866276
XIg:__ZL101Transform_t3600365921_CustomAttributesCacheGenerator_Transform_INTERNAL_get_localRotation_m1111330565P21CustomAttributesCache
vpe:__ZN5physx2Gu5Debug9visualizeERKNS_13PxBoxGeometryERNS_2Cm12RenderOutputERKNS5_8Matrix34ERKNS_9PxBounds3Eyfj
wFl:_KeyCollection_System_Collections_IEnumerable_GetEnumerator_m462018897_gshared
han:_Collection_1_System_Collections_IList_Contains_m3515532313_gshared
aUh:__Z51RuntimeInvoker_UInt32_t2560061978_Int16_t2552820387PFvvEPK10MethodInfoPvPS4_
FPb:__ZNK13GfxDeviceGLES12GetWireframeEv
$Hn:_DelegatePInvokeWrapper_Action_t1264377477
ogk:_Queue_get_Count_m2065247734
GWd:__ZN5physx6shdfnd5ArrayIPKvNS0_19ReflectionAllocatorIS3_EEE6resizeEjRKS3_
lQl:_ValueCollection_CopyTo_m3747598240_gshared
KRj:_Array_InternalArray__ICollection_Add_TisKeyValuePair_2_t2245450819_m3591771797_gshared
aMf:__ZN11UnityEngine7Connect13ConfigHandler12GetListenersERKN4core12basic_stringIcNS2_20StringStorageDefaultIcEEEE
Mmb:__ZN9GfxDevice18AllocRenderSurfaceEb
yLk:_Char__cctor_m2787437263
v3e:__ZN5physx31setupFinalizeSolverConstraints4EPNS_21PxcSolverContact4DescERNS_18PxcNpThreadContextEPhffRKNS_6shdfnd3aos5Vec4VES9_S9_S9_
bHe:__ZN5physx7NpScene5flushEb
oHc:__ZN10TagManager32GetSortingLayerUniqueIDFromValueEi
lKf:__ZN11UnityEngine7Connect15DeviceInfoEvent7GFXInfoD2Ev
Qmh:_AspectRatioFitter_get_rectTransform_m2996235303
I7:__ZL27CleanupCoreScriptingClassesv
tUk:_DateTimeFormatInfo_get_IsReadOnly_m1173781646
DKj:_Array_InternalArray__ICollection_Remove_TisContentType_t1128941285_m2281326462_gshared
opd:__Z19UpdateSingleRow2TplIL27ParticleSystemCurveEvalMode2ELS0_1EEvfRK11MinMaxCurveS3_RK23ParticleSystemParticlesPfbiii
DFe:__ZThn8_N5physx2Sc24ElementInteractionMarker10onActivateEj
_Ni:_ArraySegment_1_GetHashCode_m3394884290_AdjustorThunk
L$d:__ZThn8_N5physx3Cct17CapsuleController15getPxControllerEv
iRi:_Comparer_1_System_Collections_IComparer_Compare_m1313384821_gshared
Syj:_LayoutRebuilder_GetHashCode_m1943075341
Vek:_GenericTypeParameterBuilder_MakeGenericType_m3048165991
$yc:__Z26AnimationCurve_CUSTOM_InitP12Il2CppObjectP11Il2CppArray
pkp:_glUniform1uiv__wrapper
Twd:__ZNK14b2PolygonShape5CloneEP16b2BlockAllocator
Soo:__ZN6il2cpp2vm10Reflection7IsEventEP12Il2CppObject
BUo:__ZNSt3__26__treeINS_12__value_typeIPFvvEPK10MethodInfoEENS_19__map_value_compareIS3_S7_NS_4lessIS3_EELb1EEENS_9allocatorIS7_EEE16__insert_node_atEPNS_16__tree_node_baseIPvEERSI_SI_
Qaa:__ZN17PersistentManager26GetStreamNameSpaceInternalEi
e$l:_List_1__cctor_m2829153476_gshared
aT:__ZN4FMOD6System11createSoundEPKcjP22FMOD_CREATESOUNDEXINFOPPNS_5SoundE
mp:FUNCTION_TABLE_iiifiiii
kMi:_InternalEnumerator_1_System_Collections_IEnumerator_Reset_m1451164462_AdjustorThunk
$jf:__ZN13SpeedTreeWind20AdvanceWithoutUpdateEd
unm:_KeyValuePair_2_ToString_m823870646_AdjustorThunk
Ivc:__Z48Register_UnityEngine_Material_get_shaderKeywordsv
wok:_DateTime_System_IConvertible_ToDecimal_m1044850612
y6l:_List_1_IndexOf_m2206067159_gshared
Wvm:_X509Store_get_Factory_m3282910266
Uhf:__ZThn128_N5physx7profile8ZoneImplINS_28PxProfileNameProviderForwardEED1Ev
O6:__ZN9ShaderLab19CommonPropertyNames13StaticCleanupEPv
daa:__Z31scripting_method_get_returntype18ScriptingMethodPtr
$Pe:__ZN5physx2Sq17AABBTreeUpdateMap10invalidateEjjRNS0_8AABBTreeE
rSn:__ZL24UnresolvedVirtualCall_76P12Il2CppObjectPK10MethodInfo
aZa:__ZN15SerializeTraitsI12LightmapDataE8TransferI24GenerateTypeTreeTransferEEvRS0_RT_
x8k:_SecurityElement_AddAttribute_m311510562
zta:__ZN9Scripting5Unity11Collections44NativeDisableParallelForRestrictionAttribute12CleanupProxyEv
N2e:__ZN5physx28solveParallelDefaultFrictionERNS_18PxsDynamicsContextEjjPNS_13PxcSolverBodyEPNS_17PxcSolverBodyDataEjjPNS_25PxcArticulationSolverDescEjPNS_23PxcSolverConstraintDescEjS9_jPiSA_SA_SA_SA_SA_PNS_25PxcThresholdStreamElementEjSA_PNS_2Cm13SpatialVectorEPKPNS_11PxsBodyCoreERNSD_10BitMapBaseINS_6shdfnd9AllocatorEEEPKPNS_15PxsArticulationEjPViRNSL_5ArrayINS_24PxsConstraintBatchHeaderENSL_19ReflectionAllocatorISW_EEEES10_RNSV_IjNSX_IjEEEES13_PPNS_12PxsRigidBodyEj
Bgp:_glStencilOpSeparate__wrapper
SLc:__ZN4Mesh5SetUvEiPKfjj
MWa:__ZN7Texture13SetAnisoLimitENS_20AnisotropicFilteringE
Axa:__ZNSt3__26__treeINS_12__value_typeIjN4core12basic_stringIcNS2_20StringStorageDefaultIcEEEEEENS_19__map_value_compareIjS7_NS_4lessIjEELb1EEE13stl_allocatorIS7_L18MemLabelIdentifier7ELi16EEE25__emplace_unique_key_argsIjJNS_4pairIjS6_EEEEENSH_INS_15__tree_iteratorIS7_PNS_11__tree_nodeIS7_PvEEiEEbEERKT_DpOT0_
Ox:__ZN21AnimationClipPlayable22PrepareAnimationEventsEfR13dynamic_arrayI22AnimationClipEventInfoLj0EE
iJk:_Attribute_IsDefined_m4069052474
Gi:_emscripten_glCompressedTexSubImage2D
yVb:__ZN13GfxDeviceGLES22MemoryBarrierImmediateEyN2gl17MemoryBarrierTypeE
Jm:_abort
jxj:_U3CCaretBlinkU3Ec__Iterator0_Dispose_m860898205
vka:__ZN6prcoreL26RemapGenericFloatToIntegerI18TexFormatARGBFloat17TexFormatARGB8888EEvPKNS_9InnerInfoE
uAd:__ZN14qsort_internal5QSortIPN35b2SynchronizeContinuousFixturesTask14b2DeferredMoveEiPFbRKS2_S5_EEEvT_S8_T0_T1_
z6m:_List_1_set_Capacity_m1977188119_gshared
ZGl:_ShimEnumerator_Reset_m4072444564_gshared
LNc:__Z46GetShaderModelNumericValueFromRequirementsMask18ShaderRequirements
mil:_UTF7Encoding_InternalGetBytes_m797138468
gJc:__ZN6Object27GetOffsetOfInstanceIdMemberEv
asf:_cff_ps_has_glyph_names
jdf:__ZN5physx15writeWordBufferEPKtjbRNS_14PxOutputStreamE
Pem:_Dictionary_2_Resize_m3287623642_gshared
MNo:_GC_write
$_h:__Z98RuntimeInvoker_Boolean_t97287965_PlayableOutputHandle_t4208053793_PlayableOutputHandle_t4208053793PFvvEPK10MethodInfoPvPS4_
s3h:__Z68RuntimeInvoker_Void_t1185182177_Single_t1397266774_SByte_t1669577662PFvvEPK10MethodInfoPvPS4_
w2g:__ZL75TMP_Settings_t2071156274_CustomAttributesCacheGenerator_m_linebreakingRulesP21CustomAttributesCache
dMg:__ZL57UploadHandlerRaw_t25761545_CustomAttributesCacheGeneratorP21CustomAttributesCache
_s:__ZN17ConstraintManagerD2Ev
uvi:_HMACSHA512_set_ProduceLegacyHmacValues_m3961135292
MRn:__ZL24UnresolvedVirtualCall_43P12Il2CppObjectS0_PK10MethodInfo
wbm:_Dictionary_2_Remove_m4193450060_gshared
Tpc:__Z13tessTesselateP14TESStesselatoriiiiPKf
j8c:__ZN10SizeModule8TransferI17RemapPPtrTransferEEvRT_
j_o:_JSON_SerializeNumber_m511027017
Yvl:_ASN1_get_Tag_m1032367219
AMn:_StandardEventPayload_set_name_m549984672
q_k:_Int64_TryParse_m3606398488
omi:_RemotingServices_IsTransparentProxy_m1535738947
Qsm:_Array_InternalArray__set_Item_TisMark_t3471605523_m1299772331_gshared
FXc:__Z44Register_UnityEngine_GUIStyle_SetDefaultFontv
Npc:__ZN19SpriteMeshGenerator9MakeShapeEP11ColorRGBA32iifhbjfi
BCb:__Z18Transfer_BlittableI18StreamedBinaryReadILb1EELb1EiEvRK29SerializationCommandArgumentsR31RuntimeSerializationCommandInfo
vF:__ZN9BlobWrite8TransferI22OffsetPtrArrayTransferIKN4math7_float3EEEEvRT_PKc17TransferMetaFlags
L4a:__ZN16MeshSkinningData14GetBoneWeightsEi
BOh:__Z173RuntimeInvoker_Int32_t2950945753_RuntimeObject_Int32_t2950945753_Int32_t2950945753_Int32_t2950945753_RuntimeObject_Int32_t2950945753_SByte_t1669577662_ContextU26_t3937453398PFvvEPK10MethodInfoPvPS4_
T$m:_List_1__ctor_m2576108087_gshared
Hno:__ZN15dense_hashtableINSt3__24pairIK10KeyWrapperINS1_IPK12PropertyInfoP11Il2CppClassEEEjEES9_17ReflectionMapHashIS8_EN14dense_hash_mapIS9_jSD_NS9_14EqualsComparerINS0_8equal_toIS8_EEEENS0_9allocatorISB_EEE9SelectKeyESI_SK_E12maybe_shrinkEv
p6d:__ZN5physx2Sc7BodySim37checkSleepReadinessBesidesWakeCounterEv
Emn:_X509Certificate_get_DSA_m565099499
aDb:__Z18Transfer_BlittableI18StreamedBinaryReadILb1EELb1EsEvRK29SerializationCommandArgumentsR31RuntimeSerializationCommandInfo
chl:_StringBuilder_Remove_m940064945
P6a:__ZN14SafeBinaryRead21TransferSTLStyleArrayI13dynamic_arrayI16SplashScreenLogoLj0EEEEvRT_17TransferMetaFlags
rqb:__ZN13dynamic_arrayIN16GeometryJobTasks15GeometryJobTaskELj0EE18resize_initializedEjRKS1_12ResizePolicy
wHl:_ShimEnumerator_get_Key_m2888790658_gshared
qei:__Z81RuntimeInvoker_Void_t1185182177_OrderBlockU5BU5DU26_t2778271506_Int32_t2950945753PFvvEPK10MethodInfoPvPS4_
J$k:_BinaryWriter__ctor_m2439641268
ipd:__Z19UpdateSingleRow2TplIL27ParticleSystemCurveEvalMode1ELS0_2EEvfRK11MinMaxCurveS3_RK23ParticleSystemParticlesPfbiii
SWa:__ZL21SetAnisoLimitEnumImplN7Texture20AnisotropicFilteringEb
XLf:__ZN22BaseUnityConnectClient17OnEnterStateReadyEv
_ye:__ZNK5physx22NpParticleBaseTemplateINS_16PxParticleSystemENS_16NpParticleSystemEE15getMaxParticlesEv
Wje:__ZN5physx2Sc16ArticulationCore14setWakeCounterEf
qOe:__ZN5physx13PxsCCDContextD2Ev
cHj:_Text_get_fontSize_m1677872538
PDl:_Enumerator_System_Collections_IEnumerator_Reset_m3448033483_AdjustorThunk
j5l:_List_1_System_Collections_IList_get_Item_m995551621_gshared
cra:__ZN9Scripting11UnityEngine12Experimental9Rendering15ShadowSplitData9InitProxyEv
VPd:__ZN5physx2Gu9ContainerD2Ev
xzc:__Z29Input_CUSTOM_GetMouseButtonUpi
lYd:__ZN5physx2Gu12selectNormalEhff
Tio:__ZN6il2cpp6icalls8mscorlib6System8MonoType16InternalGetEventEP20Il2CppReflectionTypeP12Il2CppStringi
Fef:__Z13RegisterClassI9RigidbodyEvPKc
E_i:_Socket_EndSend_m1244041542
XEm:_UriScheme_t722425697_marshal_pinvoke_back
Utf:_UNITY_tt_face_load_maxp
Nzc:__Z46Input_CUSTOM_INTERNAL_set_compositionCursorPosRK13Vector2fIcall
sx:__ZN7mecanim5human12FullBodyMaskEv
Axe:__ZN5physx3Scb14ParticleSystem16releaseParticlesEjRKNS_16PxStrideIteratorIKjEE
MXo:_U3CSpawnEnemyType1U3Ec__Iterator3__ctor_m3347728908
z2b:__ZN13BatchRenderer15ApplyShaderPassER17ShaderPassContextPK18SharedMaterialDataP6ShaderPN9ShaderLab4PassEi13BatchingFlagsbbPKNS7_10GrabPassesEPK22DeviceRenderStateBlock
E2a:__ZN19ShaderPropertySheet11ComputeHashEv
Qbo:__ZN30dense_hashtable_const_iteratorI10KeyWrapperIPK19Il2CppGenericMethodES4_N6il2cpp8metadata23Il2CppGenericMethodHashEN14dense_hash_setIS4_S7_NS4_14EqualsComparerINS6_26Il2CppGenericMethodCompareEEENSt3__29allocatorIS4_EEE8IdentityESB_SE_EppEv
F3j:_TextWriter_WriteLine_m337766814
kKe:__ZN5physx2Sc5Scene21processLostTouchPairsEv
xxd:__ZN12b2EPCollider24ComputePolygonSeparationEv
YDb:__ZN4PPtrI6ObjectE8TransferI18StreamedBinaryReadILb1EEEEvRT_
GMm:_ReadOnlyCollection_1_System_Collections_ICollection_CopyTo_m95132623_gshared
x$:__ZN11UnityEngine15CloudWebService20WebRequestRestClient6IsDoneEv
FXo:_GameController_Delay_m166886129
s5f:_TMP_Text_get_firstOverflowCharacterIndex_m2980550079
ECm:_Group__ctor_m2980794822
Gjn:_X509CertificateCollection_get_Item_m1033426577
Ytn:_CachedInvokableCall_1_Invoke_m502907382_gshared
Aug:__ZL79Enumerable_t538148348_CustomAttributesCacheGenerator_Enumerable_Any_m1084009618P21CustomAttributesCache
Dj:_llvm_fabs_f32
a$:__ZN11UnityEngine15CloudWebService16SessionContainer16GetJsonDataBlockEjRKN4core12basic_stringIcNS2_20StringStorageDefaultIcEEEERS6_PjSA_
b2f:_TMP_SpriteAsset_GetSpriteIndexFromName_m4129359537
NVo:_backgroundShipColour__ctor_m1987105024
DMd:__ZThn28_N14PhysicsManager7onSleepEPPN5physx7PxActorEj
Uvl:_ASN1_Decode_m1695284166
LLg:__ZL100UnityWebRequest_t463507806_CustomAttributesCacheGenerator_UnityWebRequest_BeginWebRequest_m464964044P21CustomAttributesCache
SGa:__ZNK4PPtrI20OcclusionCullingDataEcvPS0_Ev
pXj:__ZN23GenericVirtFuncInvoker0IP28ValidationResult_t3834298736E6InvokeEPK10MethodInfoP12Il2CppObject
Dpo:__ZN15dense_hashtableINSt3__24pairIK10KeyWrapperIPK14Il2CppAssemblyEPK22Il2CppMonoAssemblyNameEES6_N6il2cpp5utils11PointerHashIS4_EEN14dense_hash_mapIS6_SA_SF_NS6_14EqualsComparerINS0_8equal_toIS5_EEEENS0_9allocatorISB_EEE9SelectKeyESK_SM_E13set_empty_keyERKSB_
CYe:__ZN5physx22PxcContactConvexConvexERKNS_2Gu13GeometryUnionES3_RKNS_11PxTransformES6_RKfRNS_10PxcNpCacheERNS0_13ContactBufferE
avk:_Enum_ToString_m3248653065
Flf:__ZN18StreamedBinaryReadILb0EE21TransferSTLStyleArrayI13dynamic_arrayIcLj0EEEEvRT_17TransferMetaFlags
aGh:_ChannelServices__cctor_m2475086854
sQd:__ZNK5physx2Gu11ConvexHullV12HillClimbingERKNS_6shdfnd3aos5Vec3VE
eEe:__ZNK5physx2Sc17ParticleSystemSim7getCoreEv
h9:__ZN14SafeBinaryReadD2Ev
NLj:_SetPropertyUtility_SetStruct_TisFillMethod_t1167457570_m4164776730_gshared
oxe:__ZN5physx2Sc18ParticleSystemCore10setDampingEf
Rpk:_DateTime_GetDateTimeFormats_m4255658003
PZl:_Enumerator_MoveNext_m3859993671_gshared
alf:__ZN14SafeBinaryRead21TransferSTLStyleArrayI13dynamic_arrayIN20TextRenderingPrivate8FontImpl13CharacterInfoELj0EEEEvRT_17TransferMetaFlags
qEb:__ZN8Gradient8TransferI18StreamedBinaryReadILb1EEEEvRT_
PTj:_SequentialSearchPrimeGeneratorBase_IsPrimeAcceptable_m1127740833
Cwm:_Capture__ctor_m3103117740
CHg:__ZL74Input_t1431474628_CustomAttributesCacheGenerator_Input_GetAxis_m4009438427P21CustomAttributesCache
zNh:__Z113RuntimeInvoker_Void_t1185182177_RuntimeObject_Int64_t3736567304_RuntimeObject_Int64_t3736567304_Int64_t3736567304PFvvEPK10MethodInfoPvPS4_
Upl:_UInt32_CompareTo_m2218823230
_2d:__ZN5physx2Sc10NPhaseCore16deleteFilterPairEPNS0_10FilterPairE
BKj:_Array_InternalArray__ICollection_Remove_TisTMP_CharacterInfo_t3185626797_m1831411579_gshared
Mjd:__ZN14ParticleSystem15ThreadedCleanupEv
rnj:_RangeInt_get_end_m4128831787_AdjustorThunk
Yzo:__ZN6il2cpp6icalls8mscorlib6System4Type15MakeGenericTypeEP20Il2CppReflectionTypeP11Il2CppArray
gff:_PxCreateBasePhysics
Uqj:_Shader__ctor_m837260462
dk:_SDL_PauseAudio
v8h:__Z72RuntimeInvoker_Boolean_t97287965_Int64_t3736567304_ObjectU26_t2146539884PFvvEPK10MethodInfoPvPS4_
Gkj:_Object_Internal_InstantiateSingle_m4074556765
hto:_il2cpp_class_from_type
GXi:_SslStream_Read_m576235997
rZo:_HighscoreMenu_Reset_m3282129528
Tjo:__ZN6il2cpp2os4File11GetStdErrorEv
i3i:_TMP_TextSelector_B__ctor_m619334773
MRc:__Z48Register_UnityEngine_Camera_set_orthographicSizev
y2n:_AnimationLayerMixerPlayable__ctor_m860721801
$6d:__ZN5physx2Sc5Scene28addActiveBreakableConstraintEPNS0_13ConstraintSimE
N6:__ZN9ShaderLab19CommonPropertyNames16StaticInitializeEPv
$le:__ZN5physx6shdfnd8PoolBaseINS_16NpParticleSystemENS0_19ReflectionAllocatorIS2_EEE15disposeElementsEv
Wcb:__ZN13MemoryManager31DisallowAllocationsOnThisThreadEv
RPi:_Comparer_1__cctor_m2517796511_gshared
Zv:__ZN7mecanim9animation18CreateAvatarOutputEPKNS0_14AvatarConstantEbbRNS_6memory9AllocatorE
oif:__ZN5physx7profile11EventBufferINS_24PxDefaultContextProviderENS_6shdfnd6MutexTINS0_26WrapperReflectionAllocatorIhEEEENS0_14ScopedLockImplIS7_EENS_24PxProfileNullEventFilterEE10eventValueEtyx
y$j:_TlsServerCertificateRequest_Update_m2763887540
Zed:__Z14UpdateSpeedTplIL27ParticleSystemCurveEvalMode1EEvRK11MinMaxCurveR23ParticleSystemParticlesjj
UFj:_Slider_set_maxValue_m2251404465
EKn:_UnityWebRequestAsyncOperation__ctor_m1252495487
DGj:_SpriteState_get_pressedSprite_m3868967445_AdjustorThunk
dS:__ZN11AudioSource23VirtualRedirectTransferER24GenerateTypeTreeTransfer
oSd:__ZN5physx2Gu11getBoxEdgesEv
Vgj:_Material_CopyPropertiesFromMaterial_m2896226580
_Mf:__ZN22BaseUnityConnectClient13ResumeSessionEv
vRa:__ZN14Texture2DArray23VirtualRedirectTransferER14SafeBinaryRead
T4j:_MissingMemberException__ctor_m1220732369
m5b:__ZNK6Camera21CalculateCanDoShadowsEv
LIe:__ZNK5physx2Sc5Scene17getBroadPhaseCapsERNS_16PxBroadPhaseCapsE
e3h:__Z52RuntimeInvoker_Void_t1185182177_Int32U26_t1369213839PFvvEPK10MethodInfoPvPS4_
Nie:__ZN5physx9NpFactory14onActorReleaseEPNS_7PxActorE
p$i:_Socket_Connect_m2387904622
kUl:_Dictionary_2_Clear_m2536615998_gshared
fVn:__ZL25UnresolvedVirtualCall_226P12Il2CppObject40CustomAttributeTypedArgument_t2723150157S1_PK10MethodInfo
b9d:__ZN5physx2Sc5Actor15onElementAttachERNS0_7ElementE
jAj:_MaskableGraphic_RecalculateMasking_m183336762
NAk:_Array_InternalArray__get_Item_TisRuntimeObject_m3347010206_gshared
o$h:__Z38RuntimeInvoker_LightmapsMode_t12202505PFvvEPK10MethodInfoPvPS4_
fyh:_TypeBuilder_IsSubclassOf_m3458909121
$ak:_Default_check_arguments_with_score_m3467814020
Ybp:dynCall_viffii
$we:__ZN5physx2Sc18ParticleSystemCore23setSimulationFilterDataERKNS_12PxFilterDataE
zFb:__Z18Transfer_BlittableI18StreamedBinaryReadILb0EELb1EhEvRK29SerializationCommandArgumentsR31RuntimeSerializationCommandInfo
nEk:_X509Certificate__cctor_m198658613
tHc:__ZL24GenerateTilingJobCombineP22GenerateTilingAreaInfo
qJ:__ZN14SafeBinaryRead21TransferSTLStyleArrayI13dynamic_arrayI11KeyframeTplIfELj0EEEEvRT_17TransferMetaFlags
slj:_PlayableHandle_Equals_m1666612586_AdjustorThunk
bka:__ZN6prcoreL27StretchGenericFloatBilinearI15TexFormatRFloatEEvPKNS_9InnerInfoE
aQj:_Array_InternalArray__IndexOf_TisSpriteData_t3048397587_m1184765788_gshared
UOe:__ZN5physx6shdfnd8internal8HashBaseINS0_4PairIKNS_2Sq13PrunerPayloadEjEES5_NS0_4HashIS5_EENS1_11HashMapBaseIS5_jS9_NS0_9AllocatorEE6GetKeyESB_Lb1EE15reserveInternalEj
Atg:__ZL139ServicePointManager_t170559685_CustomAttributesCacheGenerator_ServicePointManager_t170559685____CheckCertificateRevocationList_PropertyInfoP21CustomAttributesCache
MP:__ZNK11AudioSource19GetFilterComponentsERNSt3__26vectorIPN4FMOD3DSPENS0_9allocatorIS4_EEEEb
wUn:__ZL25UnresolvedVirtualCall_189P12Il2CppObjectaaPK10MethodInfo
lA:__Z24ProcessAnimationMixBeginP35AnimationPlayableEvaluationConstantP32AnimationPlayableEvaluationInputP33AnimationPlayableEvaluationOutput
D2j:_StreamWriter_LowLevelWrite_m1081676583
O_a:__ZN19StreamedBinaryWriteILb0EE21TransferSTLStyleArrayI13dynamic_arrayI8Vector2fLj0EEEEvRT_17TransferMetaFlags
gVa:__Z14PadImageBorderR14ImageReferenceii
hmo:__ZN15dense_hashtableINSt3__24pairIK10KeyWrapperINS1_IPK10MethodInfoP11Il2CppClassEEEjEES9_17ReflectionMapHashIS8_EN14dense_hash_mapIS9_jSD_NS9_14EqualsComparerINS0_8equal_toIS8_EEEENS0_9allocatorISB_EEE9SelectKeyESI_SK_E4findERSA_
_eo:__ZN6il2cpp2vm13MetadataCache28GetFieldDefaultValueForFieldEPK9FieldInfo
ZOj:_Array_IndexOf_TisUIVertex_t4057497605_m3336763564_gshared
XQm:__ZN21InterfaceFuncInvoker1I22OrderBlock_t1585977831iE6InvokeEjP11Il2CppClassP12Il2CppObjecti
O4f:_TMP_Text_set_outlineWidth_m3845803135
PA:__ZN27AnimationLayerMixerPlayableD2Ev
$oh:_ColorBlock_Equals_m518833916_AdjustorThunk
GSe:__ZN5physx2Gu22gjkRelativePenetrationINS0_9TriangleVENS0_8CapsuleVEEEjRKT_RKT0_RKNS_6shdfnd3aos15PsMatTransformVERKNSB_6FloatVERNSB_5Vec3VESJ_SJ_RSF_PhSL_Rh
B4l:_List_1_GetEnumerator_m2838255531_gshared
DTo:__ZN6il2cpp2os9FastMutexC2Ev
HLd:__ZN9Rigidbody14SetIsKinematicEb
nCi:_InternalEnumerator_1_System_Collections_IEnumerator_get_Current_m1514266661_AdjustorThunk
cO:__ZN12AudioManager39HandlePendingAudioConfigurationCallbackEv
ooa:__ZL43__ManagedRegistrationHelperFunction_Vector3Pv
dl:_emscripten_glIsFramebuffer
tyl:_RSAManaged_EncryptValue_m799827583
Abc:__ZN12_GLOBAL__N_16qAtan2Eff
LKh:__Z61RuntimeInvoker_UInt32_t2560061978_RuntimeObject_RuntimeObjectPFvvEPK10MethodInfoPvPS4_
Dkl:_ThreadAbortException__ctor_m1955533141
hl:_JS_Sound_SetLoopPoints
y_n:_RestClient_Post_m775137210
tSo:__ZN6il2cpp2vm26MetadataAllocGenericMethodEv
tKj:_Array_InternalArray__ICollection_Remove_TisUInt16_t2177724958_m1766181761_gshared
OXb:__ZN19ConstantBuffersGLES12RecordRenderEv
vOe:__ZN5physx13ActorAABBTaskD2Ev
Yxn:_UnityEvent_1__ctor_m3675246889_gshared
$$c:__ZN9JSONWrite8TransferI10RectOffsetEEvRT_PKc17TransferMetaFlags
RXf:_TMP_InputField_get_textComponent_m3597517520
ZUa:__ZN4crnd12symbol_codec11decode_bitsEj
W8h:__Z59RuntimeInvoker_Boolean_t97287965_KeyValuePair_2_t3842366416PFvvEPK10MethodInfoPvPS4_
IVj:_EncryptedPrivateKeyInfo__ctor_m3415744930
Txd:__ZN15b2CircleContact8EvaluateEP10b2ManifoldRK11b2TransformS4_
K0i:_AsnEncodedData__ctor_m3792312694
lIn:_AesManaged_GenerateIV_m1368817386
gDc:__ZN21FixedBehaviourManagerD0Ev
o1f:_TMP_Settings_get_defaultTextMeshProUITextContainerSize_m3222036350
oN:__ZN4FMOD6System12createReverbEPPNS_6ReverbE
OLo:__ZN6il2cpp2vm6String21InitializeEmptyStringEP11Il2CppClass
wnd:__ZL17DrawMeshParticlesILb1EL25ParticleSystemRenderSpace1EEvRK26ParticleSystemTempMeshDataRK22ParticleSystemTempDataRK23ParticleSystemParticlesRK31ParticleSystemParticlesTempDataRK26ParticleSystemRendererDataRK21ParticleSystemModulesPfPv
geg:__ZL48Queue_t3637523393_CustomAttributesCacheGeneratorP21CustomAttributesCache
GA:__ZN7mecanim19ValueArrayBlendNodeILb1EEEvRKNS_10ValueArrayERKNS_14ValueArrayMaskERS1_RS4_RNS_16ValueArrayWeightEf
Usi:_CodeAccessPermission_GetHashCode_m880096813
Ycb:__Z16MarkDependenciesR27GarbageCollectorThreadStatej
mak:_AssemblyConfigurationAttribute__ctor_m3236176989
l3l:_List_1_System_Collections_IList_get_IsReadOnly_m1080071399_gshared
I_l:_List_1_FindIndex_m2077705310_gshared
jwi:_Action_1_EndInvoke_m1146224530_gshared
oAn:_ObjectPool_1_get_countInactive_m526975942_gshared
DRn:__ZL24UnresolvedVirtualCall_34P12Il2CppObjectPK10MethodInfo
pni:_RemotingServices_DisposeIdentity_m2605848806
_ia:__ZNK9Transform11GetPositionEv
Gle:__ZN5physx12NpConstraint8requiresERNS_23PxProcessPxBaseCallbackE
ACd:__ZNK29b2ClearContactIslandFlagsTask13GetRangeCountEv
GWk:_GuidParser_Reset_m2640004655
dbh:_ColorTween_AddOnChangedCallback_m2712346959_AdjustorThunk
B$l:_List_1_AsReadOnly_m289902294_gshared
vrc:__ZN23SharedMeshRenderingData18UnloadVertexStreamEi
L0d:__ZN5physx3Cct13HandleManager3AddEPv
oJc:__ZN31CanvasBatchIntermediateRenderer11AddSubBatchERK16DrawBuffersRangePK19ShaderPropertySheet
_Ec:__ZN19RenderEventsContextC2Ei
UY:__Z6simd4fRKf
IIg:__ZL67SceneManager_t2787271929_CustomAttributesCacheGenerator_sceneLoadedP21CustomAttributesCache
fVk:_GregorianCalendar_GetEra_m2369958449
Ll:_emscripten_glEnable
$5g:__ZL145U3CDelayU3Ec__Iterator1_t1616925293_CustomAttributesCacheGenerator_U3CDelayU3Ec__Iterator1_System_Collections_IEnumerator_get_Current_m4036500312P21CustomAttributesCache
VDi:_InternalEnumerator_1_System_Collections_IEnumerator_get_Current_m2982675020_gshared
Kmd:__ZNK14ParticleSystem16GetParticleCountEv
oxa:__ZN10TagManager23VirtualRedirectTransferER14SafeBinaryRead
EXg:__ZL51RawImage_t3182918964_CustomAttributesCacheGeneratorP21CustomAttributesCache
O7e:__ZNK5physx2Sc15ClothFabricCore9getNbSetsEv
bJm:_Collection_1_System_Collections_IList_get_Item_m2931804586_gshared
xOn:_UnityException__ctor_m1456865679
$mi:_ObjRef_get_EnvoyInfo_m1782007847
wga:__ZN14PlayableOutput26ClearInvalidSourcePlayableEv
i8b:__Z15InitLightMeshesv
OSf:__Z60Register_UnityEngine_Networking_DownloadHandlerBuffer_Createv
r5n:_RaycastHit_get_collider_m1464180279
q6g:__ZL179U3CSpawnHazardsU3Ec__Iterator4_t3641860696_CustomAttributesCacheGenerator_U3CSpawnHazardsU3Ec__Iterator4_System_Collections_Generic_IEnumeratorU3CobjectU3E_get_Current_m1604446665P21CustomAttributesCache
SHe:__ZNK5physx7NpScene26getNbContactDataBlocksUsedEv
Eo:FUNCTION_TABLE_iifiii
bUd:__ZN5physx2Gu29computeCapsule_HeightFieldMTDERKNS_21PxHeightFieldGeometryERKNS_11PxTransformERNS0_8CapsuleVEffbjRNS_10PxSweepHitE
e7n:__ZNK15dense_hashtableINSt3__24pairIK10KeyWrapperIPK22Il2CppGenericParameterEP11Il2CppClassEES6_N6il2cpp5utils11PointerHashIS4_EEN14dense_hash_mapIS6_S9_SE_NS6_14EqualsComparerINS0_8equal_toIS5_EEEENS0_9allocatorISA_EEE9SelectKeyESJ_SL_E10test_emptyEj
pDe:__ZNK5physx2Cm12DelegateTaskINS_7NpSceneEXadL_ZNS2_14executeCollideEPNS_10PxBaseTaskEEEE7getNameEv
d9e:__ZN5physx2Gu11HeightField15exportExtraDataERNS_22PxSerializationContextE
kUm:_ReadOnlyCollection_1_System_Collections_IList_Contains_m2904046095_gshared
HWa:__ZN15QualitySettings8TransferI19StreamedBinaryWriteILb0EEEEvRT_
ONg:__ZL56GUISkin_t1244372282_CustomAttributesCacheGenerator_m_boxP21CustomAttributesCache
jWk:_SortKey_GetHashCode_m3547067087
mdh:_SpriteDataObject__ctor_m2091411677
szj:_LayoutUtility_U3CGetFlexibleHeightU3Em__7_m2991026842
KAb:__Z18Transfer_BlittableI19StreamedBinaryWriteILb0EELb1E8Vector2fEvRK29SerializationCommandArgumentsR31RuntimeSerializationCommandInfo
Epf:_cf2_arrstack_init
WAk:_Array_InternalArray__get_Item_TisResourceCacheItem_t51292791_m1306056717_gshared
HWn:__ZL25UnresolvedVirtualCall_308P12Il2CppObjectihPK10MethodInfo
l6g:__ZL165U3CSpawnEnemyType1U3Ec__Iterator3_t2940663315_CustomAttributesCacheGenerator_U3CSpawnEnemyType1U3Ec__Iterator3_System_Collections_IEnumerator_get_Current_m1025163527P21CustomAttributesCache
gwg:__ZL60StaticAccessorType_t186341701_CustomAttributesCacheGeneratorP21CustomAttributesCache
Zum:_Array_Resize_TisTMP_PageInfo_t2608430633_m3712126464_gshared
b4:__Z15CleanLogHandler7LogTypePKcz
e8j:_NumberFormatter_NumberToString_m2481532188
rmc:__ZN9ShaderLab19SerializedSubShader8TransferI19StreamedBinaryWriteILb0EEEEvRT_
aoe:__ZN5physx10NpMaterialC2ERKNS_2Sc12MaterialCoreE
vli:_DictionaryEnumerator_MoveNext_m1462973125
GWo:_DestroyByBoundary__ctor_m325595327
xEl:_Enumerator_MoveNext_m76191888_gshared
fV:__ZN14AudioBehaviour15ThreadedCleanupEv
y$e:__ZN5physx9PxTaskMgr10resolveRowEjb
X$l:_List_1_get_Capacity_m2483689068_gshared
Sta:__ZN9Scripting5Unity11Collections8LowLevel6Unsafe41NativeContainerIsAtomicWriteOnlyAttribute9InitProxyEv
lJb:__ZN6Camera17RemoveImageFilterERK11ImageFilter
Xqb:__ZNSt3__218__insertion_sort_3IR25ValueParameterArraySorterPN20GpuProgramParameters14ValueParameterEEEvT0_S6_T_
dEd:__ZN10ClipperLib7Clipper27ProcessEdgesAtTopOfScanbeamEx
lcd:__ZN14EmissionModule15AccumulateBurstER27ParticleSystemEmissionStateRK11MinMaxCurvef
oQk:_Comparer__cctor_m3311686689
WXf:_TMP_InputField_set_scrollSensitivity_m275207258
mGf:__ZZN2UI11CanvasGroup15InitializeClassEvEN38FunctorImpl_117kTransformParentChanged4CallEPviR11MessageData
zmh:_UIBehaviour_OnDidApplyAnimationProperties_m2143584361
Kjd:__ZN11ShapeModule17MainThreadCleanupEv
c0j:_HttpsClientStream_U3CHttpsClientStreamU3Em__1_m1202173386
sad:__ZN9SubModule5ResetEv
lNd:__ZN8Collider12GetIsTriggerEv
MVi:_HttpWebRequest_get_Address_m2672661563
W_f:_TMP_InputField_Rebuild_m919426078
koo:__ZNK10KeyWrapperINSt3__24pairIPK9EventInfoP11Il2CppClassEEE14EqualsComparerINS0_8equal_toIS7_EEEclERKS8_SE_
xDi:_InternalEnumerator_1_get_Current_m3500427238_AdjustorThunk
wHf:__ZN2UI26InitializeDeviceForOverlayEi
i7e:__ZNK5physx13NpClothFabric13getRestvaluesEPfj
eTj:_Kernel_PlusEq_m136676638
x5:__Z27LogRepeatingStringWithFlagsRKN4core12basic_stringIcNS_20StringStorageDefaultIcEEEE15LogMessageFlagsi
NQd:__ZN5physx2Gu16_gjkLocalRayCastINS0_9TriangleVENS0_11ConvexHullVEEEbRT_RT0_RKNS_6shdfnd3aos6FloatVERKNS9_5Vec3VESF_RSA_RSD_SH_f
nvk:_Enum_IsDefined_m1442314461
lgh:_TextMeshProUGUI_SetSharedMaterials_m854082582
aYn:_AudioExtensionManager_RegisterBuiltinDefinitions_m2742744104
Ux:__ZN17AnimationPlayable28ComputeNeedsBindingRebuildedEv
Zw:__ZN17AnimationPlayable23RequestAllocateBindingsEv
k7d:__ZN5physx6shdfnd8PoolBaseINS_2Cm5BlockIPvLj32EEENS0_19ReflectionAllocatorIS5_EEE17releaseEmptySlabsEv
Vpn:_Predicate_1_EndInvoke_m3884403745_gshared
LUe:__ZN5physx23PxsBroadPhaseContextSap21batchUpdateFewUpdatesEjRPNS_17PxcBroadPhasePairERjS4_
Sel:_DecoderReplacementFallbackBuffer_Fallback_m1261056214
lZd:__ZN5physx3Cct17getSceneTimestampEPKNS0_30InternalCBData_FindTouchedGeomE
Q0b:__ZNSt3__227__insertion_sort_incompleteIRPFbP10GUIElementS2_EPS2_EEbT0_S7_T_
BSg:__ZL78g_UnityEngine_UnityWebRequestWWWModule_Assembly_CustomAttributesCacheGeneratorP21CustomAttributesCache
$5j:_Binder_get_DefaultBinder_m950908649
Rdi:__Z78RuntimeInvoker_Void_t1185182177_BooleanU5BU5DU26_t3454195888_Int32_t2950945753PFvvEPK10MethodInfoPvPS4_
Dog:__ZL59ArgumentException_t132251570_CustomAttributesCacheGeneratorP21CustomAttributesCache
UMf:__ZN18UnityConnectClient33OnPlayerSessionStateChangedStaticEPS_jyy
vzd:__ZN19ProcessContactsDataD2Ev
VJ:__ZN25RuntimeAnimatorController12CleanupClassEv
TQi:_Comparer_1__cctor_m298632577_gshared
S4k:_RSA_ToXmlString_m2922661427
h0:__ZNK11UnityEngine15CloudWebService23WebRequestUploadHandler11GetProgressEv
$2l:_List_1_System_Collections_Generic_IEnumerableU3CTU3E_GetEnumerator_m1803486764_gshared
cvc:__Z25PlayerPrefs_CUSTOM_GetIntP12Il2CppStringi
dTb:__ZN7ApiGLES4LoadE16GfxDeviceLevelGL
p$l:_List_1_System_Collections_ICollection_get_SyncRoot_m469757070_gshared
jne:__ZN5physx9NpPhysics15createAggregateEjb
yNg:__ZL61GUIContent_t3050628031_CustomAttributesCacheGenerator_m_ImageP21CustomAttributesCache
TUa:__ZN4crnd12crn_unpacker22decode_color_endpointsEv
EDo:__ZN15dense_hashtableI10KeyWrapperIP18Il2CppGenericClassES3_N6il2cpp8metadata22Il2CppGenericClassHashEN14dense_hash_setIS3_S6_NS3_14EqualsComparerINS5_25Il2CppGenericClassCompareEEENSt3__29allocatorIS3_EEE8IdentityESA_SD_E15insert_noresizeERKS3_
CGc:__ZZL31RegisterOtherRendererPropertiesR22GenericPropertyBindingEN30Wrapper_RendererReceiveShadows13GetFloatValueEPv
iwa:__ZN8Vector4f8TransferI18StreamedBinaryReadILb0EEEEvRT_
tOd:__ZN9Rigidbody5ResetEv
sIj:_Array_InternalArray__ICollection_Contains_TisSlot_t384495010_m688761886_gshared
vKj:_Array_InternalArray__ICollection_Remove_TisUInt64_t4134040092_m2664745791_gshared
wUa:__ZN17SharedTextureDataC2E10MemLabelIdii13TextureFormatjiibb
N3h:__Z114RuntimeInvoker_RuntimeObject_RuntimeObject_Int32_t2950945753_Int32_t2950945753_Int32_t2950945753_Int32_t2950945753PFvvEPK10MethodInfoPvPS4_
oMb:__ZN8Material11SetPassFastEPN9ShaderLab4PassER17ShaderPassContextP6Shaderib
DMf:__ZN11UnityEngine7Connect20BasePersistentValues10SaveValuesER9JSONWrite
BHl:_ShimEnumerator_MoveNext_m2632237013_gshared
yok:_DateTime_System_IConvertible_ToDouble_m2116720007
lUj:_BitConverterLE_GetUIntBytes_m795219058
mcj:_Display_GetSystemExtImpl_m2808197389
yOh:__Z114RuntimeInvoker_Int32_t2950945753_RuntimeObject_RuntimeObject_Int32_t2950945753_Int32_t2950945753_Int32_t2950945753PFvvEPK10MethodInfoPvPS4_
Hsi:_SByte_Parse_m2899090751
Z9c:__ZN11ShapeModule18MultiModeParameterIN25IParticleSystemProperties8PropertyIfNS1_5ClampILi0ELi360EEEEEE8TransferI19StreamedBinaryWriteILb0EEEEvRT_
Mkg:__ZL56ObjectManager_t1653064325_CustomAttributesCacheGeneratorP21CustomAttributesCache
pRj:_Promise_1_InvokeHandler_TisRuntimeObject_m339964354_gshared
tqa:__ZN9Scripting11UnityEngine20ManagedStreamHelpers12CleanupProxyEv
tTg:__ZL94AxisEventData_t2331243652_CustomAttributesCacheGenerator_AxisEventData_get_moveDir_m2423724085P21CustomAttributesCache
slg:__ZL46DSA_t2386879874_CustomAttributesCacheGeneratorP21CustomAttributesCache
Exi:_ArrayReadOnlyList_1_GetEnumerator_m1835926958_gshared
p$e:__ZN5physx9PxTaskMgr12addReferenceEj
H0f:_TMP_MeshInfo_Clear_m2171221426_AdjustorThunk
aNc:__Z14ScaleCurveTimeR17AnimationCurveTplIfEf
Vda:__ZN20GlobalCachingManager7DisposeEv
T1b:__Z12SetupLODFadeR9GfxDeviceR17ShaderPassContextf
VQa:__ZNK14PlayableOutput7GetTypeEv
R0c:__ZN9JSONWrite8TransferI13dynamic_arrayI4AABBLj0EEEEvRT_PKc17TransferMetaFlags
rcg:__ZL69Type_t_CustomAttributesCacheGenerator_Type_GetConstructors_m576905011P21CustomAttributesCache
Wpn:_Predicate_1__ctor_m4256519903_gshared
p4o:_TileController__ctor_m2109448571
X7b:__ZL24CollectForwardObjectsJobP27CollectForwardObjectsHeader
D5m:_List_1_get_Item_m1378751541_gshared
R2c:__ZN8JSONRead21TransferSTLStyleArrayI13dynamic_arrayIdLj0EEEEvRT_17TransferMetaFlags
rac:__Z13IsNodeVisibleRK9SceneNodeRK4AABBRK22SceneCullingParameters
I$h:__Z54RuntimeInvoker_LayerMask_t3493934918_Int32_t2950945753PFvvEPK10MethodInfoPvPS4_
MNh:__Z44RuntimeInvoker_RuntimeTypeHandle_t3027515415PFvvEPK10MethodInfoPvPS4_
tOi:__ZN21InterfaceFuncInvoker1IibE6InvokeEjP11Il2CppClassP12Il2CppObjectb
yyh:__ZN30GenericInterfaceActionInvoker1IP20Delegate_t1188392813E6InvokeEPK10MethodInfoP12Il2CppObjectS1_
ntl:_SortKeyBuffer_AppendCJKExtension_m2591091991
lrd:__ZN11ShapeModuleC2E10MemLabelId
Gil:_UTF8Encoding_GetByteCount_m4153686982
wmp:_emscripten_glStencilMask__wrapper
nMh:__Z49RuntimeInvoker_Void_t1185182177_Double_t594665363PFvvEPK10MethodInfoPvPS4_
Gbo:__ZN15dense_hashtableI10KeyWrapperIPK19Il2CppGenericMethodES4_N6il2cpp8metadata23Il2CppGenericMethodHashEN14dense_hash_setIS4_S7_NS4_14EqualsComparerINS6_26Il2CppGenericMethodCompareEEENSt3__29allocatorIS4_EEE8IdentityESB_SE_EC2ERKSH_j
gdo:__ZN15dense_hashtableINSt3__24pairIK10KeyWrapperIN6il2cpp5utils13dynamic_arrayIPK10Il2CppTypeLj4EEEEPFvvEEESA_NS3_8metadata19Il2CppSignatureHashEN14dense_hash_mapISA_SD_SG_NSA_14EqualsComparerINSF_22Il2CppSignatureCompareEEENS0_9allocatorISE_EEE9SelectKeyESK_SM_EC2EjRKSG_RKSK_RKSO_
$Ba:__ZN15RenderNodeQueue7CleanupEv
_wg:__ZL66RuntimePlatform_t4159857903_CustomAttributesCacheGenerator_XBOX360P21CustomAttributesCache
Yhb:__ZNK17ArchiveFileSystem8PositionERK13FileEntryData
OKd:__ZN16NovodexAllocator8allocateEjPKcS1_i
r7b:__Z17PrepareShadowMapsRK11CullResultsRK11ActiveLightRK10MinMaxAABB
vmn:_DeriveBytes_DeriveIV_m973925711
RYk:_Int32_System_IConvertible_ToSByte_m3133688512
kno:__ZN30dense_hashtable_const_iteratorINSt3__24pairIK10KeyWrapperINS1_IPK11Il2CppImageP11Il2CppClassEEEjEES9_17ReflectionMapHashIS8_EN14dense_hash_mapIS9_jSD_NS9_14EqualsComparerINS0_8equal_toIS8_EEEENS0_9allocatorISB_EEE9SelectKeyESI_SK_EppEv
mUf:__ZN9Scripting11UnityEngine12Experimental23SubsystemDescriptorBase9InitProxyEv
lUm:_ReadOnlyCollection_1_System_Collections_IList_IndexOf_m848971554_gshared
lZn:_AudioSampleProvider_get_id_m2692334523
T7b:__ZN9ShaderLab10GrabPassesD2Ev
vMn:_OnTrigger_Invoke_m2120872091
wSa:__ZN14Texture2DArray13UploadTextureEv
Vzj:_MaskableGraphic_UpdateCull_m2805101913
Auf:_tt_cmap14_done
Yab:__ZN18AwakeFromLoadQueue25RegisterObjectInstanceIDsEv
Gdf:__ZN5physx21PxProfileNameProviderD2Ev
buj:_InputField_UpdateLabel_m1837760870
qMl:_Transform_1_EndInvoke_m332304766_gshared
H7f:_TMP_Text_AddFloatToCharArray_m3062272884
dOi:_ArraySegment_1_Equals_m3304116411_gshared
Alh:_StandaloneInputModule_set_forceModuleActive_m2237222402
UA:__ZNK27AnimationLayerMixerPlayable11DerivesFromE17ScriptingClassPtr
hmf:__ZN20TextRenderingPrivate19NativeTextGenerator15InsertCharacterEiPj
DIe:__ZN5physx2Sc5Scene22removeBroadPhaseRegionEj
$Oh:__Z77RuntimeInvoker_Void_t1185182177_RuntimeObject_SByte_t1669577662_RuntimeObjectPFvvEPK10MethodInfoPvPS4_
HPh:__Z81RuntimeInvoker_Void_t1185182177_RuntimeObject_SByte_t1669577662_SByte_t1669577662PFvvEPK10MethodInfoPvPS4_
b1d:__ZN5physx2Cm12RenderBuffer5clearEv
zzl:_Enumerator_get_CurrentValue_m3438280969_gshared
nXn:__ZL25UnresolvedVirtualCall_342P12Il2CppObjecti19Vector3_t3722313464PK10MethodInfo
Aej:_SpriteBone_t303320096_marshal_pinvoke_back
pue:__ZNK5physx2Sc9ClothCore21getStiffnessFrequencyEv
L$g:__ZL108TMPro_ExtensionMethods_t1453208966_CustomAttributesCacheGenerator_TMPro_ExtensionMethods_Multiply_m885351763P21CustomAttributesCache
Ntd:__ZN11b2RopeJoint24SolveVelocityConstraintsERK12b2SolverData
V5j:_MonoType_get_attributes_m1332507727
bGn:_GUIContent_ClearStaticCache_m1205116045
_Wg:__ZL66InputField_t3762917431_CustomAttributesCacheGenerator_m_CaretWidthP21CustomAttributesCache
$Lg:__ZL107DownloadHandler_t2937767557_CustomAttributesCacheGenerator_DownloadHandler_InternalGetByteArray_m4277508027P21CustomAttributesCache
p6c:__ZN24OptimizedPolynomialCurve19BuildOptimizedCurveERK17AnimationCurveTplIfEf
VQe:__ZN5physx13PxsCCDContext14postCCDAdvanceEPNS_10PxBaseTaskE
E9k:_WindowsIdentity_Dispose_m3466258450
Bz:__ZN17AnimationPlayableD0Ev
CBb:__Z18Transfer_BlittableI19StreamedBinaryWriteILb0EELb0EyEvRK29SerializationCommandArgumentsR31RuntimeSerializationCommandInfo
lpi:_BinaryCommon__cctor_m2978407547
j2:__GLOBAL__sub_I_Runtime_Burst_0_cpp
W5b:__Z19GetReflectionSampleRK23ReflectionProbesContextRK22ActiveReflectionProbesRK27PerObjectLightCullingOutputRK10RenderNodejP16ReflectionSample
aTl:_Dictionary_2_System_Collections_Generic_ICollectionU3CSystem_Collections_Generic_KeyValuePairU3CTKeyU2CTValueU3EU3E_Contains_m2599845875_gshared
d$o:_PowerUpBulletPower_Update_m1587125046
nGc:__ZN28ReflectionProbeAnchorManager23HandleAnchorDestructionEPK15TransformAccessj
sdg:__ZL47ASN1_t2114160832_CustomAttributesCacheGeneratorP21CustomAttributesCache
cyo:__ZN6il2cpp6icalls8mscorlib6System2IO6MonoIO20GetFileSystemEntriesEP12Il2CppStringS6_iiPi
APf:__ZL65__ManagedRegistrationHelperFunction_UnityWebRequestAsyncOperationPv
Yyn:_IndexedSet_1__ctor_m2250384602_gshared
chm:_DefaultComparer__ctor_m1306123661_gshared
bpl:_UInt16_TryParse_m4139137016
NQc:__Z41MonoBehaviour_Set_Custom_PropUseGUILayoutP12Il2CppObjecth
UIo:__ZN6il2cpp5utils13dynamic_arrayIPNS_2os6ThreadELj4EE9push_backEv
jpa:__ZN9Scripting11UnityEngine15ResourceRequest12CleanupProxyEv
mUg:__ZL102PointerEventData_t3807901092_CustomAttributesCacheGenerator_PointerEventData_get_clickTime_m3061953952P21CustomAttributesCache
yfl:_Encoding__ctor_m2997749867
kgj:_ManagedStreamHelpers_ManagedStreamSeek_m3158782053
kUn:__ZL25UnresolvedVirtualCall_177P12Il2CppObjectssPK10MethodInfo
aDm:_ExpressionAssertion_Compile_m2166597834
Vrb:__ZN16ScriptingManagerD0Ev
Ral:_Single_System_IConvertible_ToSByte_m1208276900_AdjustorThunk
Z_j:_TlsClientCertificate_ProcessAsSsl3_m3265529850
FMo:__ZN6il2cpp6icalls8mscorlib6System7Convert24InternalFromBase64StringEP12Il2CppStringb
kXe:__ZNK5physx10BPWorkTask7getNameEv
tje:__ZN5physx2Sc8ShapeSim16onResetFilteringEv
Ghd:__Z25UpdateOrbitalAndRadialTplIL27ParticleSystemCurveEvalMode0ELS0_1ELS0_0EEvRK11MinMaxCurveS3_S3_S3_S3_S3_S3_R23ParticleSystemParticlesjjRKN4math8float3x3ERKNS6_7affineXERKNS6_7_float4E
UBo:__ZN30dense_hashtable_const_iteratorINSt3__24pairIK10KeyWrapperINS1_IPKcS4_EEEiEES6_24NamespaceAndNamePairHashN14dense_hash_mapIS6_iS9_NS6_14EqualsComparerI26NamespaceAndNamePairEqualsEENS0_9allocatorIS8_EEE9SelectKeyESD_SF_EppEv
XTc:__Z44Register_UnityEngine_Component_get_transformv
wxg:__ZL81Camera_t4157153871_CustomAttributesCacheGenerator_Camera_GetAllCameras_m668492922P21CustomAttributesCache
Ntc:__Z39GameObject_CUSTOM_FindGameObjectWithTagP12Il2CppString
AG:__ZN12_GLOBAL__N_120ProcessPlayableGraphERN8Animator11AnimatorJobER35AnimationPlayableEvaluationConstantR32AnimationPlayableEvaluationInputR33AnimationPlayableEvaluationOutputPFvS4_R17AnimationPlayableEPFvS4_S6_S8_EPFvS8_S4_S6_S8_fESE_MS9_FvPS3_PS5_PS7_E
V9f:__ZL48Double_t594665363_CustomAttributesCacheGeneratorP21CustomAttributesCache
sWk:_TextInfo_ToLower_m2744057472
W6d:__ZN5physx2Sc16ActorInteractionD2Ev
gZb:__ZN17ArchiveFileSystem12MountArchiveEPKcS1_
nao:__ZN14dense_hash_mapI10KeyWrapperIP9FieldInfoEiN6il2cpp5utils11PointerHashIS1_EENS3_14EqualsComparerINSt3__28equal_toIS2_EEEENS9_9allocatorINS9_4pairIKS3_iEEEEE15set_deleted_keyERSF_
Rkm:_EqualityComparer_1_System_Collections_IEqualityComparer_Equals_m3977314386_gshared
d$c:__Z18Transfer_BlittableI9JSONWriteLb1E8Vector4fEvRK29SerializationCommandArgumentsR31RuntimeSerializationCommandInfo
L7:__Z11RequireTypePKcS0_S0_
ySk:_CCGregorianCalendar_year_from_fixed_m463929682
JBf:__ZN2UI13CanvasManagerD0Ev
G$j:_TlsServerHello_Update_m3935081401
g8i:_Debug_get_unityLogger_m2239795986
bke:__ZN5physx2Sc16ArticulationCore26setExternalDriveIterationsEj
zLm:_ReadOnlyCollection_1_System_Collections_IEnumerable_GetEnumerator_m2123446296_gshared
WUj:_MD2Managed_Initialize_m2341076836
iUm:_ReadOnlyCollection_1_System_Collections_IList_Add_m4240023232_gshared
tnb:__ZN9GfxDevice15ImmediateVertexEfff
YAg:__ZL56PreLateUpdate_t3194249939_CustomAttributesCacheGeneratorP21CustomAttributesCache
yYa:__ZNK16LightmapSettings22GetTypeVirtualInternalEv
cHa:__ZN16GraphicsSettings13AwakeFromLoadE17AwakeFromLoadMode
k2f:_TMP_Style_set_name_m734708838
Nwk:_Array_Sort_TisUIVertex_t4057497605_TisUIVertex_t4057497605_m4243853890_gshared
Er:__ZN6Object13AwakeFromLoadE17AwakeFromLoadMode
zPb:__ZN13GfxDeviceGLES15SetStencilStateEPK18DeviceStencilStatei
r2k:__ZN28GenericInterfaceFuncInvoker3IiP22ByteU5BU5D_t4116647657iiE6InvokeEPK10MethodInfoP12Il2CppObjectS1_ii
AKk:_Buffer_BlockCopyInternal_m418318694
l7o:_cycle
dGg:__ZL138SupportedRenderingFeatures_t353898663_CustomAttributesCacheGenerator_SupportedRenderingFeatures_get_supportedLightmapBakeTypes_m1596512019P21CustomAttributesCache
vMo:__ZN6il2cpp2vm8Profiler7GCEventE13Il2CppGCEvent
$Nh:__Z76RuntimeInvoker_Void_t1185182177_RuntimeObject_RuntimeFieldHandle_t1871169219PFvvEPK10MethodInfoPvPS4_
AGm:_Collection_1_ConvertItem_m4023613763_gshared
Deh:_TextMeshPro_GetTextInfo_m3192935234
lpn:_Rijndael_Create_m3053077028
te:_emscripten_glUniform1iv
dqb:__ZN13ComputeShader14SetBufferParamEjRKN9ShaderLab16FastPropertyNameE15ComputeBufferIDb
alm:_EqualityComparer_1_get_Default_m1095255266_gshared
gwd:__ZN15b2DistanceProxy3SetEPK7b2Shapei
mPj:_Array_InternalArray__IndexOf_TisKeyValuePair_2_t1383673463_m3347832327_gshared
kkb:__ZN16MemoryFileSystemD2Ev
qOh:__Z150RuntimeInvoker_Int32_t2950945753_RuntimeObject_Int32_t2950945753_Int32_t2950945753_RuntimeObject_Int32_t2950945753_Int32_t2950945753_Int32_t2950945753PFvvEPK10MethodInfoPvPS4_
$7f:_TMP_Text_GetPreferredValues_m2784517200
ljk:_DateTime_Parse_m3729096069
Xch:_MaterialReferenceManager_TryGetMaterial_m183071449
Y$m:_List_1_System_Collections_IList_Add_m1540114404_gshared
K1f:_TMP_SpriteAnimator_Awake_m377449737
qyi:_InternalEnumerator_1_System_Collections_IEnumerator_Reset_m81420524_AdjustorThunk
sHa:__ZN16GraphicsSettings27SetLightsUseLinearIntensityEb
pCd:__ZN29b2InitializeContactSolverTask7TaskJobEPS_j
A6m:_List_1_get_Count_m576380744_gshared
xGc:__ZZN8Renderer15InitializeClassEvEN32FunctorImpl_146kCullSceneChanged4CallEPviR11MessageData
k_o:_JSON_SerializeArray_m1553454783
O2j:_StringReader_Read_m3322058819
pGh:_CrossAppDomainChannel_get_ChannelPriority_m3418073750
Vhm:_EqualityComparer_1__ctor_m1860346363_gshared
Rwj:_Selectable_StartColorTween_m3618813981
rWe:__ZNK5physx16PxsBroadPhaseMBP18getNumDeletedPairsEv
Ehh:_BaseInputModule_HandlePointerExitAndEnter_m1705532066
pyh:_EventInfo__ctor_m3033129999
qhf:__ZN5physx7profile8ZoneImplINS_28PxProfileNameProviderForwardEE10startEventEty
CRn:__ZL24UnresolvedVirtualCall_33P12Il2CppObjectiS0_S0_PK10MethodInfo
nRe:__ZN5physx10PxsCCDPair17sweepAdvanceToToiEfb
Iwc:__ZN15ApplicationInfo16GetInstallerNameEv
Ogc:__Z23ConvertIntegerToTypePtrItEbPvR14SafeBinaryRead
htk:_Delegate_CombineImpl_m3572135514
UHc:__Z13RegisterClassI15EditorExtensionEvPKc
f8j:_NumberFormatter_IntegerToString_m1679294587
c6k:_SHA256Managed_AddLength_m1060552216
vRm:_ReadOnlyCollection_1_System_Collections_IList_RemoveAt_m422909114_gshared
mH:__ZN7mecanim5human29HumanGetGoalOrientationOffsetENS0_4GoalE
Ke:_emscripten_glStencilFunc
vie:__ZN5physx6shdfnd8PoolBaseINS_2Cm5BlockIhLj384EEENS0_19ReflectionAllocatorIS4_EEE17releaseEmptySlabsEv
p5e:__ZN5physx16PxsIslandManager11freeBuffersEv
bRn:__ZL23UnresolvedVirtualCall_6P12Il2CppObjectiPK10MethodInfo
KMm:_ReadOnlyCollection_1_System_Collections_IList_Contains_m1942059508_gshared
b1k:_FileInfo_Open_m2640035097
Fjf:__ZN5Unity12PhysicsQuery21OverlapBoxUserCollectERK8Vector3fS3_RK11Quaternionfi23QueryTriggerInteractionRN8IPhysics12IUserCollectE
Gnc:__ZN9ShaderLab20SerializedSubProgram14AddMatrixParamEPKcii15ShaderParamTypei
Re:_glGetActiveUniformBlockName
CTg:__ZL90PointerEventData_t3807901092_CustomAttributesCacheGenerator_U3CpointerIdU3Ek__BackingFieldP21CustomAttributesCache
Zz:__ZN7mecanim13CopyValueMaskILb0EEEvPKNS_14ValueArrayMaskEPS1_
d1f:_TMP_Settings_get_enableWordWrapping_m1488159339
ULh:__Z67RuntimeInvoker_Int32_t2950945753_RuntimeObject_Int32U26_t1369213839PFvvEPK10MethodInfoPvPS4_
$$l:_List_1_set_Item_m1240329677_gshared
vDm:_Parser_IsIgnoreCase_m2210120858
Xkd:__ZN31CollisionModulePropertyBindings13GetFloatValueERK14ParticleSystemi
vfi:__Z57RuntimeInvoker_TMP_WordInfo_t3331066303_Int32_t2950945753PFvvEPK10MethodInfoPvPS4_
t8k:_SecurityPermission_IsSubsetOf_m545000671
KJj:_Array_InternalArray__ICollection_Remove_TisLink_t3209266973_m897088622_gshared
Mcb:__ZN27UnloadUnusedAssetsOperationD0Ev
WEk:_SmallXmlParser_Cleanup_m2310464878
$O:__ZN4FMOD7Channel20set3DConeOrientationEP11FMOD_VECTOR
to:FUNCTION_TABLE_iiifii
Mbk:_AssemblyBuilder_not_supported_m1735277432
kLi:_InternalEnumerator_1_MoveNext_m1344185775_AdjustorThunk
XFo:__ZN6il2cpp2vm12GenericClass11SetupEventsEP11Il2CppClass
anf:_ft_open_face_internal
Yuf:_tt_cmap12_get_info
UQk:_Hashtable_get_Keys_m625158339
cBo:__ZN6il2cpp2vm15ReboxIReferenceEP14Il2CppIUnknownP11Il2CppClass
JHm:_Collection_1_Contains_m1707523067_gshared
jZl:_Enumerator__ctor_m2029608698_AdjustorThunk
pvn:_InvokableCall_3_add_Delegate_m3928852530_gshared
A3n:__ZN6il2cpp6icalls8mscorlib6System7Decimal14decimalCompareEP19il2cpp_decimal_reprS5_
vbm:_Dictionary_2_OnDeserialization_m4209543208_gshared
l3g:__ZL66TMP_Text_t2599618874_CustomAttributesCacheGenerator_m_fontMaterialP21CustomAttributesCache
fNo:__ZThn4_N6il2cpp2vm13CachedCCWBaseINS0_13ManagedObjectEE7ReleaseEv
Dde:__ZN5physx26PxcFsComputeJointLoadsSimdERKNS_9PxcFsDataEPKNS_12PxcFsInertiaEPNS_6shdfnd3aos6Mat33VEPKfjjNS_21PxcFsScratchAllocatorE
gDe:__ZN5physx6shdfnd8SyncImpl7getSizeEv
L4k:_RNGCryptoServiceProvider_GetNonZeroBytes_m1918423726
hYh:__Z100RuntimeInvoker_Void_t1185182177_RuntimeObject_Int32_t2950945753_Int32_t2950945753_UInt16_t2177724958PFvvEPK10MethodInfoPvPS4_
Mgd:__Z25UpdateOrbitalAndRadialTplIL27ParticleSystemCurveEvalMode2ELS0_3ELS0_2EEvRK11MinMaxCurveS3_S3_S3_S3_S3_S3_R23ParticleSystemParticlesjjRKN4math8float3x3ERKNS6_7affineXERKNS6_7_float4E
ljp:_glCopyTexImage2D__wrapper
YId:__ZN16PhysicsManager2D11CreateWorldERK8Vector2f
Gog:__ZL62ArithmeticException_t4283546778_CustomAttributesCacheGeneratorP21CustomAttributesCache
K2l:_List_1_Remove_m3569384130_gshared
dVi:_Dns_GetHostAddresses_m878956259
gPd:__ZN5physx11PxHitBufferINS_12PxRaycastHitEED0Ev
bqh:_FloatTween_TweenValue_m52237061
a$f:_TMP_InputField_AdjustRectTransformRelativeToViewport_m2545853035
zMb:__Z18ClearByDrawingQuad13GfxClearFlagsRK10ColorRGBAffjR17ShaderPassContext
Ija:__ZN6prcoreL17RemapGenericFloatI14TexFormatRHalf15TexFormatRFloatEEvPKNS_9InnerInfoE
D8j:_NumberFormatter_FormatExponential_m2139559983
LRh:__Z155RuntimeInvoker_Void_t1185182177_RuntimeObject_SByte_t1669577662_SByte_t1669577662_Int64U26_t200113976_ObjectU26_t2146539884_SerializationInfoU26_t419328957PFvvEPK10MethodInfoPvPS4_
pga:__ZN15DirectorManager21RebuildStageCallbacksEv
RMb:__ZN19RuntimeSceneManager9LoadSceneERKN4core12basic_stringIcNS0_20StringStorageDefaultIcEEEES6_S6_RK9UnityGUIDiNS_11LoadingModeE
QAl:_Enumerator_Reset_m1756580451_gshared
i8i:_Application_Internal_ApplicationQuit_m2936209313
hSb:__ZN7ApiGLES10DrawArraysE16GfxPrimitiveTypejjj
d8l:_List_1_System_Collections_IList_get_IsReadOnly_m2500128275_gshared
_Vd:__ZN5physx3Cct13BoxController15getPxControllerEv
VS:__ZN10SampleClip13LoadBaseSoundEv
RRd:__ZN5physx2Gu22gjkRelativePenetrationINS0_17ShrunkConvexHullVES2_EEjRKT_RKT0_RKNS_6shdfnd3aos15PsMatTransformVERKNSA_6FloatVERNSA_5Vec3VESI_SI_RSE_PhSK_Rh
eFk:_SmallXmlParser_SkipWhitespaces_m4243606597
Hcn:_Collection_1_get_Count_m2512410151_gshared
sTk:_CompareInfo_IndexOf_m2631915198
TBd:__ZN43b2SolveVelocityConstraintsContactSolverTaskD0Ev
Fvb:__ZN14SafeBinaryRead21TransferSTLStyleArrayI13dynamic_arrayI10Matrix4x4fLj0EEEEvRT_17TransferMetaFlags
Iki:_MethodCall__ctor_m3669645
cLk:_Byte_CompareTo_m4285128861
Vih:_TriggerEvent__ctor_m87299207
cWh:__Z48RuntimeInvoker_ExchangeAlgorithmType_t1320888206PFvvEPK10MethodInfoPvPS4_
rUf:__ZN9Scripting11UnityEngine12Experimental27Internal_SubsystemInstances12CleanupProxyEv
Mmc:__ZNSt3__26__treeINS_12__value_typeIN4core12basic_stringIcNS2_20StringStorageDefaultIcEEEEiEENS_19__map_value_compareIS6_S7_NS_4lessIS6_EELb1EEENS_9allocatorIS7_EEE25__emplace_unique_key_argsIS6_JNS_4pairIS6_iEEEEENSG_INS_15__tree_iteratorIS7_PNS_11__tree_nodeIS7_PvEEiEEbEERKT_DpOT0_
rW:__Z57AudioSource_CUSTOM_INTERNAL_CALL_ClearExtensionPropertiesP12Il2CppObjectRK12PropertyName
QFo:__ZN15dense_hashtableINSt3__24pairIK10KeyWrapperIP12Il2CppObjectEN6il2cpp2gc9CachedCCWEEES5_NS7_5utils11PointerHashIS3_EEN14dense_hash_mapIS5_S9_SD_NS5_14EqualsComparerINS0_8equal_toIS4_EEEENS0_9allocatorISA_EEE9SelectKeyESI_SK_E15insert_noresizeERKSA_
Dnd:__ZL17DrawMeshParticlesILb0EL25ParticleSystemRenderSpace3EEvRK26ParticleSystemTempMeshDataRK22ParticleSystemTempDataRK23ParticleSystemParticlesRK31ParticleSystemParticlesTempDataRK26ParticleSystemRendererDataRK21ParticleSystemModulesPfPv
BKl:_Transform_1_Invoke_m2167534993_gshared
n6e:__ZN5physx2Sc19ParticlePacketShapeC2ERNS0_17ParticleSystemSimEjPNS_16PxvParticleShapeE
j5f:_TMP_Text_set_paragraphSpacing_m3392922741
QQa:__ZN22DeviceMVPMatricesStateC2ER9GfxDevice
K8f:_TMP_Text_PackUV_m2186616011
led:__Z9UpdateTplIL27ParticleSystemCurveEvalMode1EEvRK11MinMaxCurveS3_S3_R23ParticleSystemParticlesjjRKN4math8float3x3ERKNS6_7_float4E
lne:__ZN5physx9NpPhysics18createTriangleMeshERNS_13PxInputStreamE
Fo:FUNCTION_TABLE_iiiiifiiiif
$n:FUNCTION_TABLE_iifii
Yfj:_Logger_set_logEnabled_m1180597166
HPk:_Comparer_Compare_m3984347512
i2e:__ZN5physx2Cm12DelegateTaskINS_2Sc5SceneEXadL_ZNS3_14updateDynamicsEPNS_10PxBaseTaskEEEED0Ev
fro:__ZN6il2cpp2vm10Reflection12HasAttributeEP9FieldInfoP11Il2CppClass
kra:__ZN9Scripting11UnityEngine12Experimental9Rendering11CullResults9InitProxyEv
Sc:invoke_viiifi
AAc:__Z13RegisterClassI6SpriteEvPKc
MBh:_MonoProperty_GetCustomAttributes_m3619796755
bjo:__ZNSt3__214__split_bufferIP11Il2CppClassRNS_9allocatorIS2_EEEC2EjjS5_
xaf:__ZN5physx6shdfnd5ArrayIPNS_7PxActorENS0_19ReflectionAllocatorIS3_EEE8recreateEj
$ki:_MethodDictionary_System_Collections_IEnumerable_GetEnumerator_m4169036899
jFk:__ZN23InterfaceActionInvoker2IP8String_tP12Il2CppObjectE6InvokeEjP11Il2CppClassS3_S1_S3_
yKl:_Transform_1_BeginInvoke_m1042516857_gshared
bzg:__ZL81Mathf_t3464937446_CustomAttributesCacheGenerator_Mathf_NextPowerOfTwo_m1637187628P21CustomAttributesCache
HUm:_ReadOnlyCollection_1_System_Collections_Generic_IListU3CTU3E_get_Item_m3666607533_gshared
s4k:_RIPEMD160Managed_JJJ_m4161373884
bGh:_CrossContextChannel__ctor_m3755842292
Cfm:_DefaultComparer_Equals_m3257444875_gshared
$f:_JS_Sound_SetPosition
ILa:__ZN19RenderBufferManager13GetTempBufferEii17DepthBufferFormat19RenderTextureFormatj22RenderTextureReadWrite14VRTextureUsagei23RenderTextureMemoryless
Jdn:_Collection_1_System_Collections_IList_get_IsFixedSize_m4038894826_gshared
Beo:__ZL13GetSharedInstPK17Il2CppGenericInst
eUg:__ZL98PointerEventData_t3807901092_CustomAttributesCacheGenerator_PointerEventData_get_delta_m1062010255P21CustomAttributesCache
eGa:__Z27ConvertSubMeshesToTrianglesIjEvR13dynamic_arrayI7SubMeshLj0EERS0_IhLj0EE
$9n:__ZNK15dense_hashtableINSt3__24pairIK10KeyWrapperIPKcEP11Il2CppClassEES5_N6il2cpp5utils11StringUtils12StringHasherIS4_EEN14dense_hash_mapIS5_S8_SE_NS5_14EqualsComparerINSB_13VmStringUtils21CaseSensitiveComparerEEENS0_9allocatorIS9_EEE9SelectKeyESJ_SL_E3endEv
udm:_Dictionary_2__ctor_m2253601317_gshared
mJi:_InternalEnumerator_1_System_Collections_IEnumerator_Reset_m1481388055_AdjustorThunk
yKf:__ZN22BaseUnityConnectClient17SaveSessionValuesEv
pfn:_Collection_1_RemoveAt_m1763805052_gshared
ABi:_InternalEnumerator_1_get_Current_m476140818_gshared
Eqe:__ZNK5physx7NpCloth14getNbParticlesEv
CRi:_Enumerator_System_Collections_IEnumerator_get_Current_m1741827799_gshared
Z1l:_List_1__ctor_m688098763_gshared
OVl:_Enumerator__ctor_m450133467_AdjustorThunk
m_i:_NetworkStream_BeginRead_m194067695
e3d:__ZN5physx2Sc10NPhaseCore24releaseShapeInstancePairEPNS0_19ShapeInstancePairLLEjj
E1m:_List_1_Sort_m4240158523_gshared
eLg:__ZL83TextMesh_t1536577757_CustomAttributesCacheGenerator_TextMesh_set_anchor_m3559070145P21CustomAttributesCache
EQn:_WaitForEndOfFrame__ctor_m1381314187
_7b:__Z24SetupActiveLightsContextR21ActiveLightingContextRK12ActiveLightsRK11CullResultsP14ShadowMapCacheRK10MinMaxAABB
Lmh:_AnimationTriggers_set_disabledTrigger_m933056574
orc:__Z38Sprite_CUSTOM_INTERNAL_get_textureRectP12Il2CppObjectP5RectTIfE
XQh:__Z68RuntimeInvoker_Void_t1185182177_IntPtr_t_MonoMethodInfoU26_t91913876PFvvEPK10MethodInfoPvPS4_
mDl:_Enumerator_get_Current_m2914575499_gshared
auc:__ZN9TextAsset7SetTextERKN4core12basic_stringIcNS0_20StringStorageDefaultIcEEEE
NAa:__ZN6Camera8TransferI24GenerateTypeTreeTransferEEvRT_
Ua:invoke_iiiiiiif
Na:invoke_iiiiiiii
esm:_Array_InternalArray__set_Item_TisByte_t1134296376_m3104140039_gshared
fbd:__ZN14qsort_internal30FindAndMovePivotToLastPositionIPPKN9SubModule14SubEmitterDataEiPFbS4_S4_EEEvT_S8_T0_T1_
OUe:__ZN5physx21SapPostUpdateWorkTaskD0Ev
FSh:__Z194RuntimeInvoker_Int32_t2950945753_RuntimeObject_Int32_t2950945753_Int32_t2950945753_RuntimeObject_Int32_t2950945753_SByte_t1669577662_Int32U26_t1369213839_BooleanU26_t4125257963_SByte_t1669577662PFvvEPK10MethodInfoPvPS4_
d$f:_TMP_InputField_GraphicUpdateComplete_m3115504076
Zmn:_PKCS12_GetBytes_m415958948
vZj:_Context_get_HandshakeState_m2425796590
O$b:__ZN8Renderer17PendingAddToSceneEv
cje:__ZN5physx7NpActor18releaseConstraintsERNS_12PxRigidActorE
h1d:__ZN5physx6shdfnd5ArrayINS_11PxDebugLineENS0_19ReflectionAllocatorIS2_EEE8recreateEj
Blp:b125
zlp:b124
Amp:b127
Clp:b126
Cmp:b129
psc:__Z52Register_UnityEngine_RectTransform_INTERNAL_get_rectv
KSc:__Z38Material_CUSTOM_SetMatrixImpl_InjectedP12Il2CppObjectiRK10Matrix4x4f
$ye:__ZNK5physx22NpParticleBaseTemplateINS_16PxParticleSystemENS_16NpParticleSystemEE20getMaxMotionDistanceEv
v7:__Z21PostprocessStacktracePKcRN4core12basic_stringIcNS1_20StringStorageDefaultIcEEEE
OPg:__ZL73ContactFilter2D_t3805203441_CustomAttributesCacheGenerator_minNormalAngleP21CustomAttributesCache
P2o:_LinqEnumerator_System_Collections_IEnumerator_get_Current_m70747910
lgj:_ManagedStreamHelpers_ManagedStreamLength_m2930872960
$rc:__Z43RectTransform_CUSTOM_INTERNAL_get_anchorMinP12Il2CppObjectP13Vector2fIcall
TAe:__ZNK5physx14NpRigidDynamic25getContactReportThresholdEv
B2k:_FileStreamAsyncResult_CBWrapper_m1670848754
_Zi:_NetworkStream_get_CanWrite_m3803109243
Uvc:__Z47Register_UnityEngine_Camera_get_allCamerasCountv
kve:__ZN5physx22NpParticleBaseTemplateINS_15PxParticleFluidENS_15NpParticleFluidEE16releaseParticlesEv
xv:__ZN16MecanimAnimation25RegisterIAnimationBindingEPKN5Unity4TypeEiP17IAnimationBinding
YLc:__ZNSt3__26vectorIj13stl_allocatorIjL18MemLabelIdentifier1ELi16EEE6assignIPKtEENS_9enable_ifIXaasr21__is_forward_iteratorIT_EE5valuesr16is_constructibleIjNS_15iterator_traitsIS9_E9referenceEEE5valueEvE4typeES9_S9_
RF:__ZN7mecanim9animation16EvaluateAvatarIKEPKNS0_14AvatarConstantEPKNS0_11AvatarInputEPNS0_12AvatarOutputEPNS0_12AvatarMemoryEPNS0_15AvatarWorkspaceEb
eC:__ZN26AnimatorControllerPlayable10GetIntegerEiRi
fgc:__Z29StdTemplateConversionFunctionIsiEbPvR14SafeBinaryRead
R1e:__Z22updateIslandsToProcessRKN5physx2Cm10BitMapBaseINS_6shdfnd9AllocatorEEEPKjRKNS_11NodeManagerERS4_
__b:__ZN12InputManager13InputEndFrameEv
fbh:_ColorTween_GetDuration_m360696398_AdjustorThunk
oio:__ZNSt3__26__treeIP11Il2CppClassNS_4lessIS2_EENS_9allocatorIS2_EEE25__emplace_unique_key_argsIS2_JRKS2_EEENS_4pairINS_15__tree_iteratorIS2_PNS_11__tree_nodeIS2_PvEEiEEbEERKT_DpOT0_
Ifh:_TextMeshProUGUI_UpdateMaterial_m902456839
Gij:_Object_get_name_m4211327027
xuo:__ZN6il2cpp2vm6Thread5SetupEP12Il2CppThread
CJo:__ZNSt3__26vectorIN6il2cpp2os10ThreadImpl10APCRequestENS_9allocatorIS4_EEE21__push_back_slow_pathIS4_EEvOT_
sNd:__ZN8Collider30GetRelativePositionAndRotationERK9TransformR10Matrix4x4f
tRe:__ZN5physx35PxcSweepEstimateAnyShapeHeightfieldERKNS_11PxsCCDShapeES2_PKNS_12PxsRigidBodyES5_RKNS_11PxTransformES8_f
_Nm:_ReadOnlyCollection_1_System_Collections_IList_get_IsReadOnly_m1248651675_gshared
qCl:_Enumerator_System_Collections_IDictionaryEnumerator_get_Key_m2500634048_gshared
u1d:__ZN5physx3Cct13BoxControllerC2ERKNS_16PxControllerDescERNS_9PxPhysicsEPNS_7PxSceneE
Q5n:_NativeNameAttribute__ctor_m3296876808
Z_n:_TextGenerator_t3211863866_marshal_pinvoke_back
q8o:___munmap
AUn:__ZL25UnresolvedVirtualCall_193P12Il2CppObjectssPK10MethodInfo
qyl:_RSAManaged_get_PublicOnly_m595121416
Sg:_localtime_r
n0b:__ZN22RenderingCommandBuffer13GetAndCheckRTE24BuiltinRenderTextureTypeRKN9ShaderLab16FastPropertyNameEPKcPP13RenderTexture
gdd:__ZN14ParticleSystem13KillParticlesILb1EEEvRjbR24ParticleSystemUpdateDataR23ParticleSystemParticlesjPj
uXf:_TMP_FontWeights_t916301067_marshal_pinvoke_back
wEi:_InternalEnumerator_1_System_Collections_IEnumerator_Reset_m3619766341_AdjustorThunk
sod:__Z16UpdateSpritesTplIL27ParticleSystemCurveEvalMode3EEvfRK11MinMaxCurveS3_RK23ParticleSystemParticlesPf
$2:__Z19free_alloc_internalPv10MemLabelId
Rjg:__ZL56ReturnMessage_t1376985608_CustomAttributesCacheGeneratorP21CustomAttributesCache
U7n:__ZNSt3__26vectorIjNS_9allocatorIjEEE6resizeEj
_u:__ZN9Scripting11UnityEngine10Animations18PositionConstraint9InitProxyEv
Vg:_strftime
ZLa:__ZN7Texture33SetStoredColorSpaceNoDirtyNoApplyE17TextureColorSpace
RDh:_ResourceSet__ctor_m3618395942
Srk:_Decimal_System_IConvertible_ToDouble_m3125524987_AdjustorThunk
ica:__ZN12FileAccessorD2Ev
QAa:__ZN10ColorRGBAf8TransferI18StreamedBinaryReadILb0EEEEvRT_
tGa:__ZN14VertexDataInfoC2Ev
mIo:__ZN6il2cpp2gc16GarbageCollector14CollectALittleEv
DGg:__ZL87Sprite_t280657092_CustomAttributesCacheGenerator_Sprite_INTERNAL_get_border_m3728071101P21CustomAttributesCache
IJc:__ZNK9HPlayable15GetPlayableTypeEv
$di:__Z117RuntimeInvoker_Void_t1185182177_CustomAttributeTypedArgumentU5BU5DU26_t2503877664_Int32_t2950945753_Int32_t2950945753PFvvEPK10MethodInfoPvPS4_
PDb:__ZL17Transfer_GUIStyleI18StreamedBinaryReadILb1EELb1EEvRK29SerializationCommandArgumentsR31RuntimeSerializationCommandInfo
cdd:__ZNSt3__227__insertion_sort_incompleteIR31SortCollisionEventsByGameObjectP22ParticleCollisionEventEEbT0_S5_T_
gBj:_RectMask2D_IsRaycastLocationValid_m1652308696
y5:__ZNSt3__26__treeINS_12__value_typeIPKciEENS_19__map_value_compareIS3_S4_15compare_tstringIS3_ELb1EEENS_9allocatorIS4_EEE21__emplace_unique_implIJNS_4pairIPciEEEEENSD_INS_15__tree_iteratorIS4_PNS_11__tree_nodeIS4_PvEEiEEbEEDpOT_
qSi:_Enumerator_System_Collections_IDictionaryEnumerator_get_Value_m1780001393_AdjustorThunk
Jio:__ZN6il2cpp6icalls8mscorlib6SystemL9IsPrivateEPK12PropertyInfo
gnn:_X501_ToString_m1148552872
zRe:__ZNK5physx18PxcConvexTriangles16getPolygonNormalEj
rpj:_RectTransform_add_reapplyDrivenProperties_m1374850920
J6:__ZN9shadertag10InitializeEv
i8h:__Z69RuntimeInvoker_Void_t1185182177_Int32_t2950945753_Color32_t2600501292PFvvEPK10MethodInfoPvPS4_
rgf:__ZN5physx24NpPtrTableStorageManager8canReuseEjj
Njf:__GLOBAL__sub_I_Modules_Terrain_Public_1_cpp
EWa:__ZN15QualitySettings14QualitySetting8TransferI24GenerateTypeTreeTransferEEvRT_
jTo:__ZN6il2cpp5utils6Memory11AlignedFreeEPv
dKn:_UnityWebRequest_get_isHttpError_m797082501
JFe:__ZN5physx2Sc27ConstraintProjectionManager33processConstraintForGroupBuildingEPNS0_13ConstraintSimERNS0_20ScratchAllocatorListIS3_Lj64EEE
bYj:_Context_get_ClientWriteKey_m3174706656
eTg:__ZL77ExecuteEvents_t3484638744_CustomAttributesCacheGenerator_U3CU3Ef__mgU24cache7P21CustomAttributesCache
yuj:_InputField_get_textComponent_m948764648
Ezf:__Z28Font_Get_Custom_PropMaterialP12Il2CppObject
Csd:__ZL34CleanupModule_PerformanceReportingv
oWi:_IPEndPoint_get_Address_m834732349
k5h:__Z50RuntimeInvoker_RuntimeObject_Resources_t2155109485PFvvEPK10MethodInfoPvPS4_
dpc:__ZN22BlockMemoryCacheWriter14LockCacheBlockEjPPhS1_
XWc:__ZNSt3__218__insertion_sort_3IRPFbPKN5IMGUI9GUIWindowES4_EPPS2_EEvT0_SA_T_
kBf:__ZN9Scripting11UnityEngine8Tilemaps8TileData12CleanupProxyEv
wti:_CryptographicUnexpectedOperationException__ctor_m69881930
Zxe:__ZN5physx22NpParticleBaseTemplateINS_15PxParticleFluidENS_15NpParticleFluidEED2Ev
sdn:_Collection_1_SetItem_m1218178236_gshared
NDe:__ZN5physx2Cm29ConstraintImmediateVisualizer19visualizeDoubleConeERKNS_11PxTransformEfb
Yql:_UInt64_ToString_m2177233542
uu:__ZN9Scripting11UnityEngine21StateMachineBehaviour9InitProxyEv
Q2c:__Z22TransferField_NonArrayI8JSONRead27Converter_SimpleNativeClassI8GUIStyleEEvRK23StaticTransferFieldInfoR31RuntimeSerializationCommandInfoRT0_
JWd:__ZN5physx6shdfnd5ArrayINS_13PxExtendedBoxENS0_19ReflectionAllocatorIS2_EEE8recreateEj
Ura:__ZN9Scripting11UnityEngine26ExcludeFromPresetAttribute9InitProxyEv
p7d:__ZN5physx6shdfnd5ArrayIPvNS0_19ReflectionAllocatorINS_2Cm5BlockIS2_Lj16EEEEEE4copyINS0_15InlineAllocatorILj256ES7_EEEEvRKNS1_IS2_T_EE
Ah:_llvm_eh_typeid_for
_Mg:__ZL79Event_t2956885303_CustomAttributesCacheGenerator_Event_get_modifiers_m995073384P21CustomAttributesCache
Mjp:_glGetUniformLocation__wrapper
Bki:_RemotingServices_FindInterfaceMethod_m2125212568
rD:__ZNK23AnimationPlayableOutput7GetTypeEv
pGe:__ZN5physx7NpScene19getActiveTransformsERjh
t2j:_StreamWriter__cctor_m1229272693
uJc:__ZN13RendererScene38UpdatePreviousFrameDataForRendererTypeEii12RendererType
Q3e:__ZN5physx6shdfnd5ArrayIPKNS_24PxsIndexedContactManagerENS0_19ReflectionAllocatorIS4_EEE8recreateEj
k4h:__Z109RuntimeInvoker_RuntimeObject_Ray_t3785851493_Single_t1397266774_Int32_t2950945753_RuntimeObject_RuntimeObjectPFvvEPK10MethodInfoPvPS4_
nQe:__ZN5physx6shdfnd8internal8HashBaseIjjNS0_4HashIjEENS1_11HashSetBaseIjS4_NS0_9AllocatorELb0EE6GetKeyES6_Lb0EE6createERKjRb
jBi:_InternalEnumerator_1_MoveNext_m1543390728_gshared
NVf:_TMP_Dropdown_get_value_m2972109009
eGb:__Z18Transfer_BlittableI18StreamedBinaryReadILb0EELb1E8Vector4fEvRK29SerializationCommandArgumentsR31RuntimeSerializationCommandInfo
uub:__ZNSt3__26vectorI17ScriptingFieldPtr13stl_allocatorIS1_L18MemLabelIdentifier1ELi16EEE21__push_back_slow_pathIRKS1_EEvOT_
gWk:_SortKey_get_OriginalString_m1428586816
I2g:__ZL72TMP_Style_t3479380764_CustomAttributesCacheGenerator_m_OpeningDefinitionP21CustomAttributesCache
P4h:__Z51RuntimeInvoker_Void_t1185182177_Vector4_t3319028937PFvvEPK10MethodInfoPvPS4_
elf:__ZN14SafeBinaryRead21TransferSTLStyleArrayI13dynamic_arrayIN4core17string_with_labelILi35EEELj0EEEEvRT_17TransferMetaFlags
dOh:__Z67RuntimeInvoker_Void_t1185182177_SByte_t1669577662_SByte_t1669577662PFvvEPK10MethodInfoPvPS4_
m9m:_Collection_1_set_Item_m894620366_gshared
bfm:_Dictionary_2_U3CCopyToU3Em__0_m2023886030_gshared
f9h:__Z64RuntimeInvoker_Boolean_t97287965_RefEmitPermissionSet_t484390987PFvvEPK10MethodInfoPvPS4_
$Gl:_ShimEnumerator_MoveNext_m1353453605_gshared
Ylp:_glBindVertexArray__wrapper
Ucf:__ZN5physx6shdfnd5ArrayINS_11RTreeNodeNQENS0_19ReflectionAllocatorIS2_EEE19resizeUninitializedEj
a4d:__ZNK5physx2Sc16InteractionScene18getLLIslandManagerEv
gqi:_SerializationInfo__ctor_m2923079689
gPa:__ZN8Material8TransferI14SafeBinaryReadEEvRT_
YQe:__ZN5physx17PxcNpMemBlockPool34acquireExceptionalConstraintMemoryEj
yTa:__ZN12CubemapArray17UploadToGfxDeviceEv
EYm:_Func_2__ctor_m1150804732_gshared
jYk:_Int32_JumpOverWhite_m208298144
sao:__ZN15dense_hashtableINSt3__24pairIK10KeyWrapperIP9FieldInfoEiEES5_N6il2cpp5utils11PointerHashIS3_EEN14dense_hash_mapIS5_iSB_NS5_14EqualsComparerINS0_8equal_toIS4_EEEENS0_9allocatorIS7_EEE9SelectKeyESG_SI_E4swapERSL_
QTl:_Dictionary_2_System_Collections_ICollection_get_SyncRoot_m2353575981_gshared
iSe:__ZN5physxL23PxcSweepConvexTrianglesERKNS_11PxsCCDShapeES2_RKNS_11PxTransformES5_S5_S5_fRNS_6PxVec3ES7_RNS_10PxcNpCacheERNS_18PxcNpThreadContextERKNS_2Cm23FastVertex2ShapeScalingERNS_2Gu9TriangleVEf
Joe:__ZNK5physx7NpShape16getPlaneGeometryERNS_15PxPlaneGeometryE
Cbi:__Z53RuntimeInvoker_Int32_t2950945753_UIVertex_t4057497605PFvvEPK10MethodInfoPvPS4_
Okp:_emscripten_glGetUniformiv__wrapper
_Mo:__ZN6il2cpp2vm13ManagedObject14QueryInterfaceERK10Il2CppGuidPPv
cdf:__ZN5physx27InternalTriangleMeshBuilder14fillRemapTableEv
IP:__ZN11AudioSource4StopEb
Cbe:__ZN5physx6shdfnd8PoolBaseINS_13NpRigidStaticENS0_19ReflectionAllocatorIS2_EEE17releaseEmptySlabsEv
aGk:_AppDomain_LoadAssembly_m1557889794
JRo:__ZN6il2cpp2os14WindowsRuntime13DeleteHStringEP15Il2CppHString__
vrb:__ZN18GlslGpuProgramGLESD2Ev
oec:__ZN13RenderTexture14SetVolumeDepthEi
Bhf:__ZThn116_NK5physx7profile8ZoneImplINS_28PxProfileNameProviderForwardEE10hasClientsEv
r_e:__ZN5physx2Gu20pcmContactCapsuleBoxERKNS0_13GeometryUnionES3_RKNS_11PxTransformES6_RKfRNS0_5CacheERNS0_13ContactBufferE
zXh:__Z86RuntimeInvoker_Void_t1185182177_UInt16_t2177724958_SByte_t1669577662_SByte_t1669577662PFvvEPK10MethodInfoPvPS4_
tnc:__Z22LoadGpuProgramFromDataPKhS0_Rj
u3c:__ZN10Matrix4x4f8TransferI8JSONReadEEvRT_
WCn:_ZlibBaseStream_get_CanSeek_m1334254125
EFb:__Z15Transfer_StringI18StreamedBinaryReadILb0EELb0EEvRK29SerializationCommandArgumentsR31RuntimeSerializationCommandInfo
J3g:__ZL68TMP_Text_t2599618874_CustomAttributesCacheGenerator_m_lineSpacingMaxP21CustomAttributesCache
RAj:_PositionAsUV1_ModifyMesh_m4231919476
JQk:_Hashtable__ctor_m1941859523
s5b:__Z26FindForwardLightsForObjectR13dynamic_arrayIhLj0EEPK11CulledLightjRK12ActiveLightsRK10RenderNodePK19ShaderPropertySheetbRK23FindForwardLightsParamsf
Wna:__ZL44__ManagedRegistrationHelperFunction_GPUFencePv
NDj:_ScrollRect_set_horizontalScrollbarSpacing_m2209919081
jWb:__ZN25TransformFeedbackSkinning31CleanupTransformFeedbackShadersEv
vnl:_Type_GetTypeCodeInternal_m1968182887
uBa:__Z22scripting_object_unbox18ScriptingObjectPtr
uEh:_CriticalFinalizerObject__ctor_m3245424448
jJh:_AsyncResult_get_NextSink_m1844209137
jmf:__ZNK20TextRenderingPrivate8FontImpl19GetCharacterAdvanceEjijfPj
vTo:__ZN6il2cpp6icalls8mscorlib4Mono8Security12Cryptography18KeyPairPersistence16_IsUserProtectedEP12Il2CppString
f1f:_TMP_Settings_get_enableExtraPadding_m167438525
rxo:__ZN6il2cpp6icalls8mscorlib6System9Threading6Thread19ResetAbort_internalEv
O6o:_fmt_u
xyk:_Dictionary_2_Do_CopyTo_TisDictionaryEntry_t3123975638_TisDictionaryEntry_t3123975638_m1126292988_gshared
G_a:__ZN10VertexData8TransferI18StreamedBinaryReadILb0EEEEvRT_
qbe:__ZN5physx2Sc5Scene9addStaticERNS0_10StaticCoreEPKPvjj
sVo:__ZN6il2cpp8metadata25Il2CppGenericClassCompare7CompareEPK18Il2CppGenericClassS4_
Luh:_HorizontalOrVerticalLayoutGroup_set_childForceExpandHeight_m1754245348
tGf:__ZN2UI29ResetVRScreenSpaceWarningFlagEv
B6j:_MonoType_get_Assembly_m4290914179
coc:__ZN9ShaderLab7ProgramC2E10MemLabelIdi10ShaderType
zec:__ZN14PreloadManager16UpdatePreloadingEv
vza:__ZN12BaseRendererD2Ev
$tc:__ZNSt3__26vectorI4PPtrI10MonoScriptE13stl_allocatorIS3_L18MemLabelIdentifier79ELi16EEE6insertENS_11__wrap_iterIPKS3_EERS9_
PXf:_TMP_InputField_set_caretWidth_m141005399
XMe:__ZN5physx2Sc5Scene9addShapesEPKPvjjRNS0_8RigidSimEPNS_12PxsRigidBodyERPNS0_8ShapeSimEPNS_9PxBounds3E
vtm:_Array_InternalArray__set_Item_TisUILineInfo_t4195266810_m2313892078_gshared
n_n:_U3CDefaultUnityWebRequestU3Ed__0_System_Collections_IEnumerator_Reset_m2946020892
iKi:_InternalEnumerator_1_System_Collections_IEnumerator_Reset_m3355902602_AdjustorThunk
P7g:__ZL168U3CU3Ec__Iterator1_t2360382562_CustomAttributesCacheGenerator_U3CU3Ec__Iterator1_System_Collections_Generic_IEnumeratorU3CSimpleJSON_JSONNodeU3E_get_Current_m3925466472P21CustomAttributesCache
flj:_PlayableAsset__ctor_m2395156306
EUg:__ZL79StandaloneInputModule_t2760469101_CustomAttributesCacheGenerator_m_SubmitButtonP21CustomAttributesCache
auj:_InputField_SendOnValueChanged_m2560301445
hZe:__ZN5physx23PxcPCMContactConvexMeshERKNS_2Gu13GeometryUnionES3_RKNS_11PxTransformES6_RKfRNS_10PxcNpCacheERNS0_13ContactBufferE
l5:__ZN13RuntimeStaticI13dynamic_arrayI22RenderingExtPluginDescLj0EELb0EE13StaticDestroyEPv
Lhc:__ZNK21UnityDefaultAllocatorI17LowLevelAllocatorE8ContainsEPKv
Tgo:__ZNSt3__213__vector_baseI6pollfdNS_9allocatorIS1_EEED2Ev
Uri:_RuntimeTypeHandle_Equals_m2857439487
Ki:_emscripten_get_main_loop_timing
gVn:__ZL25UnresolvedVirtualCall_227P12Il2CppObject22SpriteData_t3048397587S1_PK10MethodInfo
IKn:_UploadHandler__ctor_m1351468229
pFh:_SafeHandle_Finalize_m3866180675
DWa:__ZN24GenerateTypeTreeTransfer21TransferSTLStyleArrayINSt3__26vectorIN15QualitySettings14QualitySettingENS1_9allocatorIS4_EEEEEEvRT_17TransferMetaFlags
c3k:_MemoryStream_ToArray_m3911744835
Nai:__Z59RuntimeInvoker_Int32_t2950945753_KeyValuePair_2_t2530217319PFvvEPK10MethodInfoPvPS4_
h4h:__Z72RuntimeInvoker_Boolean_t97287965_RaycastHitU26_t2429360258_RuntimeObjectPFvvEPK10MethodInfoPvPS4_
Cdc:__ZN23ManagedAttributeManager52CallManagedGetParentTypeDisallowingMultipleInclusionE17ScriptingClassPtr
d6a:__Z10AddGUIAxesR13dynamic_arrayI9InputAxisLj0EE
eVo:__ZN6il2cpp2os5Event4WaitEjb
Cnl:_Type_GetHashCode_m1947148725
hSh:__Z91RuntimeInvoker_Void_t1185182177_RuntimeObject_RuntimeObject_RuntimeObject_SByte_t1669577662PFvvEPK10MethodInfoPvPS4_
geb:__ZNK2UI13RectTransform22GetTypeVirtualInternalEv
H5c:__ZNK15PolynomialCurve18EvaluateIntegratedERKN4math7_float4E
zLl:__ZN28GenericInterfaceFuncInvoker2IP12Il2CppObjectS1_bE6InvokeEPK10MethodInfoS1_S1_b
Mq:getTempRet0
b2o:_JSONNode_GetHashCode_m1696452158
s$m:__ZN23GenericVirtFuncInvoker1Ib26ResolveHandler_t4124874245E6InvokeEPK10MethodInfoP12Il2CppObjectS0_
s0h:__Z64RuntimeInvoker_UnityWebRequestError_t359680823_Int32_t2950945753PFvvEPK10MethodInfoPvPS4_
v9k:_StrongName_get_Version_m4243032012
X3i:_U3CAnimateVertexColorsU3Ec__Iterator0_Reset_m1037330916
LEi:_InternalEnumerator_1_MoveNext_m2234422530_gshared
Okd:__ZN26SizeModulePropertyBindings13GetFloatValueERK14ParticleSystemi
R$i:_SocketException__ctor_m480722159
HWl:_Enumerator_System_Collections_IEnumerator_Reset_m2394182378_AdjustorThunk
pko:__ZN6il2cpp2gc19AppendOnlyGCHashMapINSt3__24pairIPK14Il2CppAssemblyP11Il2CppClassEEP24Il2CppReflectionAssembly17ReflectionMapHashIS9_ENS2_8equal_toIS9_EEE10CopyValuesEPv
Whh:_BaseRaycaster_OnEnable_m2678466030
mPl:_ValueCollection__ctor_m825399723_gshared
vdj:_UnityEventBase__ctor_m1851535676
Ywk:_Array_Sort_TisVector4_t3319028937_m2797285308_gshared
W3j:_UnexceptionalStreamWriter_Write_m1834931241
UBg:__ZL58ProfilerEndFrame_t852348665_CustomAttributesCacheGeneratorP21CustomAttributesCache
g5n:_Physics_RaycastAll_m3796226007
U0o:_JSONLazyCreator_set_AsFloat_m3519126835
zxo:__ZN6il2cpp6icalls8mscorlib6System9ThreadingL21lookup_cached_cultureEP12Il2CppThreadi
RQn:_NetFxCoreExtensions_CreateDelegate_m751211712
X8b:__ZN18DeferredRenderLoopD2Ev
_Wn:__ZL25UnresolvedVirtualCall_327P12Il2CppObjecti19Color32_t2600501292PK10MethodInfo
D2n:_AnimationLayerMixerPlayable__cctor_m4086299972
tua:__ZNK16TypeTreeIterator4NameEv
Dxk:_Array_swap_TisUICharInfo_t75501106_m3934244159_gshared
Aag:__ZL40UIntPtr_t_CustomAttributesCacheGeneratorP21CustomAttributesCache
Iba:__ZN15FileSystemEntry3SetEPKc
l4e:__ZN5physx6shdfnd5ArrayIPNS_13PxcNpMemBlockENS0_19ReflectionAllocatorIS3_EEE6resizeEjRKS3_
Nmh:_AspectRatioFitter_get_aspectMode_m3735191157
Xwc:__Z52Register_UnityEngine_Application_set_targetFrameRatev
XAe:__ZN5physx14NpRigidDynamic8requiresERNS_23PxProcessPxBaseCallbackE
eNm:_ReadOnlyCollection_1_System_Collections_Generic_IListU3CTU3E_Insert_m568455025_gshared
x0o:_JSONBool_get_Value_m1129555109
IO:__ZN20SoundChannelInstance15ParameterBuffer5ApplyEPN4FMOD7ChannelE
Ncn:_Collection_1_CheckWritable_m2727304722_gshared
UUi:_IPv6Address__ctor_m4117281080
yXf:_SelectionEvent__ctor_m3977662582
Zlk:_Convert_ToInt64_m2075293963
gmf:__ZN20TextRenderingPrivate19NativeTextGenerator9InsertTabEv
hbp:_sbrk
Zdd:__Z13DragUpdateTplIL27ParticleSystemCurveEvalMode2EEvRK11MinMaxCurvebbR23ParticleSystemParticlesjjRKN4math7_float4E
Ihg:__ZL92ResourceSet_t2827911187_CustomAttributesCacheGenerator_ResourceSet_GetEnumerator_m3459697719P21CustomAttributesCache
Vgn:_Collection_1_System_Collections_Generic_ICollectionU3CTU3E_get_IsReadOnly_m1032650589_gshared
KM:__ZL49__ManagedRegistrationHelperFunction_AudioSettingsPv
hhf:__ZN5physx7profile8ZoneImplINS_28PxProfileNameProviderForwardEE21setProfileZoneManagerEPNS_20PxProfileZoneManagerE
YLf:__ZN11UnityEngine15PlatformWrapper24GetRuntimePlatformStringEv
uj:_glIsEnabled
wdb:__ZN15CacheWriterBaseD2Ev
c$d:__ZN5physx3Cct17CapsuleController15setFootPositionERKNS_14PxExtendedVec3E
gUd:__ZN5physx2Gu33PCMCapsuleVsMeshContactGeneration13generateEEMTDERKNS_6shdfnd3aos5Vec3VES6_RKNS3_6FloatVES6_jS6_S6_PNS0_21MeshPersistentContactERj
Rbk:_DerivedType__ctor_m1853298054
rub:__Z25scripting_class_get_image17ScriptingClassPtr
_ke:__ZN18MultiQueryCallbackIN5physx10PxSweepHitEED0Ev
s_a:__ZN10SpriteBone8TransferI24GenerateTypeTreeTransferEEvRT_
G5l:_List_1_RemoveAt_m2730968292_gshared
N8a:__ZNSt3__26vectorIN4core12basic_stringIcNS1_20StringStorageDefaultIcEEEE13stl_allocatorIS5_L18MemLabelIdentifier13ELi16EEEC2INS_11__wrap_iterIPS5_EEEET_SE_RKS8_PNS_9enable_ifIXaasr21__is_forward_iteratorISE_EE5valuesr16is_constructibleIS5_NS_15iterator_traitsISE_E9referenceEEE5valueEvE4typeE
yj:_emscripten_glDrawElementsInstanced
aC:__ZN26AnimatorControllerPlayable27SetupStateMachineBehavioursEv
vMj:_Array_InternalArray__IEnumerable_GetEnumerator_TisSlot_t3975888750_m1869932007_gshared
DUj:_KeyBuilder_get_Rng_m983065666
azg:__ZL48Mathf_t3464937446_CustomAttributesCacheGeneratorP21CustomAttributesCache
oxg:__ZL79Camera_t4157153871_CustomAttributesCacheGenerator_Camera_RaycastTry_m3913529496P21CustomAttributesCache
dyj:_LayoutGroup_get_preferredWidth_m3816902260
Ofh:_TextMeshProUGUI_Cull_m2430697619
H9m:_Collection_1_System_Collections_IList_set_Item_m478492625_gshared
dKa:__ZN18JobBatchDispatcherD2Ev
beb:__ZN9Transform17MainThreadCleanupEv
OPo:_GC_clear_hdr_marks
Jpd:__Z17UpdateSprites2TplIL27ParticleSystemCurveEvalMode1ELS0_4EEvfRK11MinMaxCurveS3_RK23ParticleSystemParticlesPf
d6f:_TMP_Text_get_pageToDisplay_m1088040628
bpf:_cff_fd_select_get
VGj:_Text_set_resizeTextForBestFit_m4095249125
o1i:_OidEnumerator_MoveNext_m3138911739
F9h:__Z53RuntimeInvoker_Boolean_t97287965_Keyframe_t4206410242PFvvEPK10MethodInfoPvPS4_
Jj:_emscripten_glGetShaderiv
$P:__ZN4FMOD6System10getVersionEPj
g5e:__ZN5physx2Sc7BodySim10sleepCheckEffb
CCf:__ZN2UI6Canvas23VirtualRedirectTransferER24GenerateTypeTreeTransfer
cFj:_Selectable_set_animationTriggers_m2970345687
lGm:_Collection_1_CopyTo_m4271769704_gshared
Y0c:__ZN9JSONWrite8TransferIN4math12int2_storageEEEvRT_PKc17TransferMetaFlags
Skf:__ZN13TextRendering4Font13AwakeFromLoadE17AwakeFromLoadMode
yTk:_CompareInfo_LastIndexOf_m2688553706
q3h:__Z55RuntimeInvoker_Boolean_t97287965_Navigation_t3049316579PFvvEPK10MethodInfoPvPS4_
smp:_emscripten_glCullFace__wrapper
M8h:__Z58RuntimeInvoker_Boolean_t97287965_RejectHandler_t1435172309PFvvEPK10MethodInfoPvPS4_
pmb:__ZN9GfxDevice21ReleaseSharedMeshDataEP14SharedMeshData
F9m:_Collection_1_System_Collections_IList_get_IsReadOnly_m3072577387_gshared
Lkh:_MouseState__ctor_m1467839005
lEm:_Uri_IsDomainAddress_m2867513594
O7a:__ZNSt3__27__sort5IRNS_6__lessINS_4pairIPKN5Unity4TypeE7Hash128EES8_EEPS8_EEjT0_SC_SC_SC_SC_T_
ipg:__ZL79Convert_t2465617642_CustomAttributesCacheGenerator_Convert_ToDouble_m2949593046P21CustomAttributesCache
Jrh:_Dropdown_CreateItem_m2954407740
VOo:_GC_unreachable_finalize_mark_proc
Qlj:_PlayerConnectionInternal_PollInternal_m3759016321
tYi:_X509Chain_ProcessCrlExtensions_m236234529
Qg:___syscall192
Xik:_Convert_ToByte_m2375887898
q2g:__ZL80TMP_Settings_t2071156274_CustomAttributesCacheGenerator_m_defaultSpriteAssetPathP21CustomAttributesCache
N9l:_List_1__ctor_m369633558_gshared
d9n:__ZN6il2cpp2vm5Class40GetInterfaceInvokeDataFromVTableSlowPathEPK12Il2CppObjectPK11Il2CppClassj
gYg:__ZL85ScrollRect_t4137855814_CustomAttributesCacheGenerator_m_HorizontalScrollbarVisibilityP21CustomAttributesCache
c8c:__ZN11ShapeModule18MultiModeParameterIN25IParticleSystemProperties8PropertyIfNS1_5ClampILi0ELi360EEEEEE8TransferI24GenerateTypeTreeTransferEEvRT_
csc:__Z43RectTransform_CUSTOM_INTERNAL_get_anchorMaxP12Il2CppObjectP13Vector2fIcall
Oje:__ZN5physx14NpShapeManagerC2Ev
Dni:_RealProxy_get_ObjectIdentity_m2790771985
VPh:__Z49RuntimeInvoker_Void_t1185182177_Int16_t2552820387PFvvEPK10MethodInfoPvPS4_
pkk:_Decimal_Parse_m942471224
cEa:__ZN8Material28UpdateHashesOnPropertyChangeEN9ShaderLab16FastPropertyNameE
ten:_Collection_1_System_Collections_IList_get_Item_m1368877441_gshared
nSj:_Locale_GetText_m3520169047
nvc:__Z53Register_UnityEngine_SortingLayer_GetLayerValueFromIDv
u3i:_TMP_UiFrameRateCounter_Awake_m2736519745
fUj:_ASN1_GetBytes_m1968380955
wCg:__ZL85RectOffset_t1369453676_CustomAttributesCacheGenerator_RectOffset_set_right_m807318764P21CustomAttributesCache
ktb:__Z18Transfer_BlittableI14SafeBinaryReadLb1E8Vector4fEvRK29SerializationCommandArgumentsR31RuntimeSerializationCommandInfo
nTf:__ZN13RuntimeStaticINSt3__26vectorI23UnityVRDeviceDefinition13stl_allocatorIS2_L18MemLabelIdentifier90ELi16EEEELb0EE13StaticDestroyEPv
hS:__ZN11AudioSource12AddToManagerEv
Hw:__ZN8Animator23VirtualRedirectTransferER19StreamedBinaryWriteILb0EE
ND:__ZN11UnityEngine9Animation32CreateAnimatorGenericBindingsOptERKNS0_20AnimationSetBindingsER9TransformPKN7mecanim9animation14AvatarConstantEPKNS0_21AvatarBindingConstantEbRNS6_6memory9AllocatorER8Animator
FVm:_ReadOnlyCollection_1_get_Count_m3746330764_gshared
ZBo:__ZN6il2cpp2vm5Image13ClassFromNameEPK11Il2CppImagePKcS6_
acp:dynCall_vdddddd
S5n:_NativePropertyAttribute__ctor_m2033094153
Blc:__ZN24GenerateTypeTreeTransfer21TransferSTLStyleArrayINSt3__26vectorIN9ShaderLab14SerializedPassENS1_9allocatorIS4_EEEEEEvRT_17TransferMetaFlags
I7d:__ZN5physx6shdfnd8internal8HashBaseIPNS_2Sc13ConstraintSimES5_NS0_4HashIS5_EENS1_11HashSetBaseIS5_S7_NS0_9AllocatorELb1EE6GetKeyES9_Lb1EE6createERKS5_Rb
j7:__ZL32MarkLevelGameManagerDependenciesR27GarbageCollectorThreadState
Vvi:_U3CU3Ec__DisplayClass24_0__ctor_m1023270447_gshared
pRb:__ZNK13GfxDeviceGLES26HasActiveRandomWriteTargetEv
uNk:_ArrayList_CopyTo_m3962521159
Tbm:_KeyValuePair_2_get_Value_m392474074_gshared
nuo:__GLOBAL__sub_I_Thread_cpp
xfe:__ZNK5physx15NpActorTemplateINS_18PxArticulationLinkEE7getNameEv
nQc:__Z29Matrix4x4_CUSTOM_TRS_InjectedRK8Vector3fRK11QuaternionfS1_R10Matrix4x4f
qhp:_glGetActiveUniformsiv__wrapper
uPa:__ZN14SafeBinaryRead8TransferINSt3__24pairIN9ShaderLab16FastPropertyNameE10ColorRGBAfEEEEvRT_PKc17TransferMetaFlags
lWd:__ZNK5physx3Cct10Controller16getInternalStateERNS_17PxControllerStateE
Oij:_Mesh_GetIndices_m2873123901
Pef:__ZZN8Collider15InitializeClassEvEN37FunctorImpl_822kForceRecreateCollider4CallEPviR11MessageData
E9:__ZN13MonoBehaviour19SetupScriptingCacheE17ScriptingClassPtrP10MonoScript
u3n:__ZL9rshift128PyS_
kho:__ZNSt3__214__split_bufferIP12Il2CppThreadRNS_9allocatorIS2_EEED2Ev
WG:__Z20AnimationEventToMonoRK14AnimationEventR18MonoAnimationEvent
wGc:__ZZN8Renderer15InitializeClassEvEN28FunctorImpl_145kLayerChanged4CallEPviR11MessageData
Wph:_FloatTween_set_targetValue_m3604919944_AdjustorThunk
eNk:_ArrayList_get_IsReadOnly_m913775115
zkh:_PointerEventData_get_dragging_m746831934
nnl:_Type_get_TypeHandle_m160082026
XLe:__ZN5physx10PxsContext15setScratchBlockEPvj
hUm:_ReadOnlyCollection_1_System_Collections_IEnumerable_GetEnumerator_m2781605075_gshared
Jsn:_TMP_XmlTagStack_1_Remove_m1417473052_AdjustorThunk
dra:__ZN9Scripting11UnityEngine12Experimental9Rendering15ShadowSplitData12CleanupProxyEv
$fa:__ZZN15DirectorManager15InitializeClassEvEN52PreLateUpdateDirectorUpdateAnimationBeginRegistrator7ForwardEv
pei:__Z101RuntimeInvoker_Void_t1185182177_TMP_WordInfoU5BU5DU26_t1030603914_Int32_t2950945753_Int32_t2950945753PFvvEPK10MethodInfoPvPS4_
Nth:_Graphic_RegisterDirtyMaterialCallback_m106898453
gGn:_GUILayoutEntry_get_margin_m3174861737
Xva:__ZN4PPtrI6SpriteE8TransferI14SafeBinaryReadEEvRT_
lim:_EqualityComparer_1_System_Collections_IEqualityComparer_Equals_m1672604045_gshared
R_o:_Mover__ctor_m198178838
Hvo:__ZN15dense_hashtableINSt3__24pairIK10KeyWrapperIP11Il2CppClassES4_EES5_N6il2cpp8metadata16SZArrayClassHashEN14dense_hash_mapIS5_S4_SA_NS5_14EqualsComparerINS9_19SZArrayClassCompareEEENS0_9allocatorIS7_EEE9SelectKeyESE_SG_E16reset_thresholdsEv
q3m:_List_1_GetEnumerator_m2095602005_gshared
G2d:__ZN5physx2Cm27getDynamicGlobalPoseAlignedERKNS_11PxTransformES3_S3_RS1_
Wom:_Array_InternalArray__ICollection_CopyTo_TisResolveHandler_t4124874245_m1101829896_gshared
BBo:__ZNK15dense_hashtableINSt3__24pairIK10KeyWrapperINS1_IPKcS4_EEEiEES6_24NamespaceAndNamePairHashN14dense_hash_mapIS6_iS9_NS6_14EqualsComparerI26NamespaceAndNamePairEqualsEENS0_9allocatorIS8_EEE9SelectKeyESD_SF_E13find_positionERS7_
Skc:__ZNSt3__26vectorIN9ShaderLab14SerializedPassENS_9allocatorIS2_EEE8__appendEj
Maf:__ZN5physx6shdfnd5ArrayIPvNS0_19ReflectionAllocatorIN17PxcPoolMallocData10PoolData32EEEE15growAndPushBackERKS2_
fkc:__ZNSt3__26vectorIN9ShaderLab20SerializedSubProgram13BufferBindingENS_9allocatorIS3_EEEC2INS_11__wrap_iterIPS3_EEEET_SB_RKS5_PNS_9enable_ifIXaasr21__is_forward_iteratorISB_EE5valuesr16is_constructibleIS3_NS_15iterator_traitsISB_E9referenceEEE5valueEvE4typeE
Vii:__Z37RuntimeInvoker_Enumerator_t3436819725PFvvEPK10MethodInfoPvPS4_
Elj:_PlayableOutputHandle_op_Equality_m388301694
bgl:_Encoding_get_ISOLatin1_m2107621369
Fvd:__ZNK16PhysicsManager2D21GetAutoSyncTransformsEv
yEc:__ZZL23RegisterLightPropertiesR22GenericPropertyBindingEN20Wrapper_LightColorb213GetFloatValueEPv
B9g:__ZL194U3CDisplayTextMeshProFloatingTextU3Ec__Iterator0_t2967292235_CustomAttributesCacheGenerator_U3CDisplayTextMeshProFloatingTextU3Ec__Iterator0_System_Collections_IEnumerator_get_Current_m520746775P21CustomAttributesCache
czg:__ZL89Mathf_t3464937446_CustomAttributesCacheGenerator_Mathf_SmoothDamp_m394423605____maxSpeed4P21CustomAttributesCache
oud:__ZN12b2WheelJoint24SolveVelocityConstraintsERK12b2SolverData
Omj:_Quaternion_LookRotation_Injected_m3680180073
uag:__ZL72IntPtr_t_CustomAttributesCacheGenerator_IntPtr_op_Inequality_m3063970704P21CustomAttributesCache
EKb:__ZNK25PathNamePersistentManager30PathIDToFileIdentifierInternalEi
JVa:__ZN9Texture2D23VirtualRedirectTransferER18StreamedBinaryReadILb0EE
ZEd:__ZN10Collider2D8TransferI24GenerateTypeTreeTransferEEvRT_
nSf:__Z53Register_UnityEngine_Networking_UnityWebRequest_Abortv
C1o:_JSONNode_get_Linq_m3913908471
B3f:_TMP_SubMeshUI_set_fallbackMaterial_m2367683490
lYl:_Enumerator_MoveNext_m1177880931_gshared
DOi:_DefaultComparer__ctor_m3288720761_gshared
uUi:_Stopwatch_get_ElapsedMilliseconds_m1101465039
vai:__Z102RuntimeInvoker_Int32_t2950945753_RuntimeObject_Vector2_t2156229523_Int32_t2950945753_Int32_t2950945753PFvvEPK10MethodInfoPvPS4_
dao:__ZN30dense_hashtable_const_iteratorINSt3__24pairIK10KeyWrapperIPKcEP11Il2CppClassEES5_N6il2cpp5utils11StringUtils12StringHasherIS4_EEN14dense_hash_mapIS5_S8_SE_NS5_14EqualsComparerINSB_13VmStringUtils21CaseSensitiveComparerEEENS0_9allocatorIS9_EEE9SelectKeyESJ_SL_E30advance_past_empty_and_deletedEv
PKg:__ZL73g_UnityEngine_TextRenderingModule_Assembly_CustomAttributesCacheGeneratorP21CustomAttributesCache
jaa:__ZN16ScriptingManager27NativeTypeForScriptingClassE17ScriptingClassPtr
mql:_UInt64_System_IConvertible_ToDateTime_m3434604642
inl:_Type_get_IsSerializable_m1040556850
Odh:_TextContainer_get_isAutoFitting_m1107908275
Ktf:_get_sfnt_table
kvm:_Array_Resize_TisUIVertex_t4057497605_m1219201596_gshared
dpk:_DateTime_get_TimeOfDay_m82064893_AdjustorThunk
Bfg:__ZL55StreamWriter_t1266378904_CustomAttributesCacheGeneratorP21CustomAttributesCache
JAm:_Parser_ResolveReferences_m1518052352
tAb:__Z29Transfer_Blittable_ArrayFieldI24GenerateTypeTreeTransferiEvRT_R9ArrayInfoRK23StaticTransferFieldInfo
bSb:__ZThn10632_N13GfxDeviceGLES25SetStereoConstantPlatformEijRK8Vector4f
tXa:__ZN8Renderer20RendererAddedToSceneEv
zac:__ZL22ScheduleSceneNodesJobsP25ScheduleSceneNodesJobDataj
CUe:__ZN5physx22concludeContactCoulombERKNS_23PxcSolverConstraintDescERNS_16PxcSolverContextE
Cl:_emscripten_set_canvas_size
Rsh:_Graphic_SetVerticesDirty_m2124914069
Vve:__ZNK5physx15NpParticleFluid12getStiffnessEv
BTk:_CultureInfo__ctor_m3285927757
Uzj:_MaskableGraphic_get_rootCanvasRect_m3492154629
V0c:__ZN9JSONWrite8TransferI13dynamic_arrayI11QuaternionfLj0EEEEvRT_PKc17TransferMetaFlags
Osd:__ZN9Scripting11UnityEngine9Physics2D9InitProxyEv
fvm:_Array_Resize_TisRaycastResult_t3360306849_m1811054291_gshared
cEc:__ZN12MeshRenderer27PrepareSingleRendererUpdateER13RendererSceneRS_10MemLabelId
Ztm:_Array_qsort_TisOrderBlock_t1585977831_TisOrderBlock_t1585977831_m1675918557_gshared
NNm:_ReadOnlyCollection_1_System_Collections_Generic_ICollectionU3CTU3E_get_IsReadOnly_m3152485890_gshared
ykc:__ZNSt3__26vectorIN9ShaderLab20SerializedSubProgramENS_9allocatorIS2_EEE8__appendEj
m3:__ZN20DynamicHeapAllocatorI17LowLevelAllocatorE8AllocateEji
qIf:__ZN11UnityEngine9Analytics15UserCustomEvent12ToJsonStringER9JSONWrite
EHn:_Locale_GetText_m2427493201
C2b:__ZN20DynamicPropertySheet15SetVectorQueuedERKN9ShaderLab16FastPropertyNameERK8Vector4fN19ShaderPropertySheet8SetFlagsE
aF:__ZN7mecanim9animation22EvaluateAvatarRetargetEPKNS0_14AvatarConstantEPKNS0_11AvatarInputEPNS0_12AvatarOutputEPNS0_12AvatarMemoryEPNS0_15AvatarWorkspaceEb
CKi:_InternalEnumerator_1_System_Collections_IEnumerator_Reset_m996811230_AdjustorThunk
WIa:__ZN14RenderSettings23VirtualRedirectTransferER19StreamedBinaryWriteILb0EE
UNg:__ZL59GUISkin_t1244372282_CustomAttributesCacheGenerator_m_windowP21CustomAttributesCache
u$c:__ZL26Transfer_SimpleNativeClassI9JSONWrite10RectOffsetLb0EEvRK29SerializationCommandArgumentsR31RuntimeSerializationCommandInfo
nPo:_GC_push_conditional
hIf:__ZN21UnityAnalyticsManager23VirtualRedirectTransferER24GenerateTypeTreeTransfer
k1a:__ZN17GenericDynamicVBO10AllocateVBEjR21DynamicVBOChunkHandle
PYj:_ClientContext_get_SslStream_m1583577309
gPl:_ValueCollection_System_Collections_Generic_ICollectionU3CTValueU3E_get_IsReadOnly_m3423371260_gshared
HYe:__ZL27PxcTestFacesSepAxesBackfaceRKN5physx2Gu13PolygonalDataES3_RKNS_2Cm8Matrix34ES7_RKNS4_23FastVertex2ShapeScalingESA_S7_RKNS_6PxVec3ERfRSB_RjPjSG_fSD_
urk:_DBNull_ToString_m3638608738
rDo:__ZN30dense_hashtable_const_iteratorI10KeyWrapperIP18Il2CppGenericClassES3_N6il2cpp8metadata22Il2CppGenericClassHashEN14dense_hash_setIS3_S6_NS3_14EqualsComparerINS5_25Il2CppGenericClassCompareEEENSt3__29allocatorIS3_EEE8IdentityESA_SD_EppEv
tPk:_BitArray_Clone_m3537018332
Kpi:_ObjectRecord_UnchainFixup_m3191243952
eln:_TlsStream_get_CanWrite_m16389328
aGf:__Z15GetUIModuleSpecv
z$h:__Z65RuntimeInvoker_RuntimeObject_RuntimeObject_Vector3U26_t3464235976PFvvEPK10MethodInfoPvPS4_
Ekf:__ZN9Scripting11UnityEngine8UIVertex9InitProxyEv
$l:_glMapBufferRange
BVa:__ZN9Texture2D8TransferI18StreamedBinaryReadILb0EEEEvRT_
wzc:__Z31Input_CUSTOM_GetMouseButtonDowni
W2f:_TMP_SubMesh_get_isDefaultMaterial_m4218956554
XJc:__ZN13PlayableGraph4PlayEv
gre:__ZNK5physx7NpCloth23getExternalAccelerationEv
Oeb:__ZNK9Transform16GetLocalPositionEv
afl:_EncoderExceptionFallbackBuffer_get_Remaining_m1573636148
E6j:_MonoType_get_BaseType_m1098640416
V9a:__ZN13LoadOperation19IntegrateTimeSlicedEi
xln:_TlsStream_Read_m3392972801
vsj:_TouchScreenKeyboard_get_status_m3936201565
aWe:__ZN5physx16PxsBroadPhaseMBP9updatePPUEPNS_10PxBaseTaskE
zRb:__ZN13GfxDeviceGLES22DispatchComputeProgramE12ObjectHandleI18ComputeProgram_TagPvE15ComputeBufferIDj
VQg:__ZL95BoxCollider_t1640800422_CustomAttributesCacheGenerator_BoxCollider_INTERNAL_set_size_m404545260P21CustomAttributesCache
Apj:_Transform_get_localToWorldMatrix_m4155710351
UYb:__ZN20DefaultGfxDeviceImpl32InitStereoGlobalsBuffersPlatformEiijPKv
Lgl:_Latin1Encoding_GetString_m254210343
Xbb:__Z17TransformAABBSlowRK4AABBRK10Matrix4x4fRS_
pIk:_Array_combsort_m4052486289
XLk:_Char_System_IConvertible_ToUInt16_m2449138174
YQ:__ZN24AudioScriptBufferManager27InitialCompleteDomainReloadEv
d6l:_List_1_System_Collections_ICollection_get_SyncRoot_m314215814_gshared
Yic:__ZN9ShaderLab21SerializedShaderState8TransferI14SafeBinaryReadEEvRT_
ARk:_Environment_GetWindowsFolderPath_m1738399646
j8m:_Queue_1_System_Collections_Generic_IEnumerableU3CTU3E_GetEnumerator_m2263220760_gshared
x5m:_List_1_Sort_m378918663_gshared
K9e:__ZN5physx2Gu13RTreeMidphaseC2Ev
dhm:_DefaultComparer_GetHashCode_m77036565_gshared
bqf:_cf2_stack_pushInt
hI:__ZN7mecanim9animation20DestroyLayerConstantEPNS0_13LayerConstantERNS_6memory9AllocatorE
UE:__ZN8Animator19FireAnimationEventsERNS_11AnimatorJobE
cye:__ZN5physx6shdfnd8PoolBaseINS_16NpParticleSystemENS0_19ReflectionAllocatorIS2_EEE12allocateSlabEv
Bzh:_Module_GetCustomAttributes_m76573271
zeh:_TextMeshPro_UpdateMaterial_m854395998
p8l:_List_1_CopyTo_m2321906348_gshared
XPa:__ZN15SerializeTraitsINSt3__24pairIN4core12basic_stringIcNS2_20StringStorageDefaultIcEEEES6_EEE8TransferI24GenerateTypeTreeTransferEEvRS7_RT_
Vip:b89
Uip:b88
Dhp:b81
Ahp:b80
LWb:__ZN7ApiGLES19CreateSparseTextureEjj14GraphicsFormatiiiiRiS1_S1_
Zaa:__ZN18ResourceImageGroup7CleanupEv
Rip:b85
t5d:__ZN5physx2Gu36closestPtPointTetrahedronTesselationEPNS_6shdfnd3aos5Vec3VES4_S4_RjRS3_S6_
Tip:b87
iJg:__ZL96Transform_t3600365921_CustomAttributesCacheGenerator_Transform_Rotate_m1660364534____relativeTo3P21CustomAttributesCache
bs:__ZN11Quaternionf8TransferI24GenerateTypeTreeTransferEEvRT_
WYe:__ZN5physx25PxcPCMContactSphereConvexERKNS_2Gu13GeometryUnionES3_RKNS_11PxTransformES6_RKfRNS_10PxcNpCacheERNS0_13ContactBufferE
Uli:_RemotingSurrogateSelector_GetSurrogate_m3900875713
t$j:_TlsServerCertificate_validateCertificates_m4242999387
y6e:__ZN5physx2Cm18DelegateFanoutTaskINS_2Sc5SceneEXadL_ZNS3_20particlePostShapeGenEPNS_10PxBaseTaskEEEED0Ev
zRm:_ReadOnlyCollection_1_System_Collections_IList_get_IsReadOnly_m3626439112_gshared
aXj:_CertificateValidationCallback_Invoke_m1014111289
vLa:__ZN8Playable19SetOutputConnectionEPS_i
QHm:__ZN23InterfaceActionInvoker2Ii19Vector2_t2156229523E6InvokeEjP11Il2CppClassP12Il2CppObjectiS0_
NEa:__Z20RenderMultipleMeshesRK15RenderNodeQueueRK18RenderMultipleData16VertexInputMasks
Pm:_glDeleteShader
Wvk:_Array_Sort_TisChar_t3634460470_TisChar_t3634460470_m992244203_gshared
Qja:__ZN6prcoreL17RemapGenericFloatI15TexFormatRGHalf16TexFormatRGFloatEEvPKNS_9InnerInfoE
Jwk:_Array_Sort_TisUICharInfo_t75501106_m128665067_gshared
osf:_otv_GSUB_validate
t5k:_RSAPKCS1SignatureDeformatter_SetHashAlgorithm_m1602190713
Quk:_Enum_System_IConvertible_ToByte_m1219166845
dme:__ZN5physx6shdfnd8PoolBaseINS_10NpMaterialENS0_19ReflectionAllocatorIS2_EEE15disposeElementsEv
kbm:_Dictionary_2_CopyToCheck_m45332585_gshared
pgn:_Collection_1_System_Collections_IList_IndexOf_m2831626011_gshared
Zpm:_Array_InternalArray__ICollection_CopyTo_TisTMP_MeshInfo_t2771747634_m3871978652_gshared
Y2m:_List_1_System_Collections_ICollection_get_IsSynchronized_m3630704857_gshared
cbk:_ConstructorInfo__cctor_m1016079270
J0f:_TMP_MeshInfo_ClearUnusedVertices_m888817622_AdjustorThunk
IBi:_InternalEnumerator_1_System_Collections_IEnumerator_Reset_m4239728915_AdjustorThunk
OLf:__ZN11UnityEngine15PlatformWrapper20IsRootedOrJailbrokenEv
xWn:__ZL25UnresolvedVirtualCall_298P12Il2CppObjecti26ProgressHandler_t926933139PK10MethodInfo
joc:__Z27scripting_add_internal_callPKcPKv
KGm:__ZN21InterfaceFuncInvoker1Ib20UIVertex_t4057497605E6InvokeEjP11Il2CppClassP12Il2CppObjectS0_
bGk:_AppDomain_Load_m4174353770
dJg:__ZL106Transform_t3600365921_CustomAttributesCacheGenerator_Transform_INTERNAL_get_localToWorldMatrix_m1917635696P21CustomAttributesCache
rEa:__Z17GetPlayerSettingsv
Kkc:__ZNSt3__26vectorIN9ShaderLab20SerializedSubProgram16SamplerParameterENS_9allocatorIS3_EEE6assignIPS3_EENS_9enable_ifIXaasr21__is_forward_iteratorIT_EE5valuesr16is_constructibleIS3_NS_15iterator_traitsISA_E9referenceEEE5valueEvE4typeESA_SA_
AF:__ZN34BlobWriteTransferSTLStyleArrayImplI22OffsetPtrArrayTransferIiEEclERS1_17TransferMetaFlagsR9BlobWrite
IJn:_UnityWebRequest_get_disposeCertificateHandlerOnDispose_m4051074453
Ktm:_Array_qsort_TisByte_t1134296376_m726517433_gshared
tAh:_MonoField_get_FieldHandle_m3729647377
DVc:__ZN9Scripting11UnityEngine3GUI9InitProxyEv
rbh:_FastAction_Call_m217488180
kDj:_ScrollRect_get_content_m2477524320
Jbm:_Dictionary_2__ctor_m2709410819_gshared
ZBl:_Enumerator_MoveNext_m1556953412_AdjustorThunk
bx:__ZN26AnimatorControllerPlayable18SetLayerAutoWeightEv
hc:invoke_vffff
kDm:_Literal_GetAnchorInfo_m810577400
kOo:_GC_alloc_large
C9c:__ZN20ExternalForcesModule8TransferI19StreamedBinaryWriteILb0EEEEvRT_
dUn:__ZL25UnresolvedVirtualCall_170P12Il2CppObjectPK10MethodInfo
pHf:__ZN2UI14CanvasRenderer12SyncMaterialENS0_8SyncFlagE
Bch:_MaterialReference_AddMaterialReference_m1459790169
G2j:_StreamWriter_Write_m1660535366
Lci:__Z66RuntimeInvoker_Void_t1185182177_Int32_t2950945753_Link_t3209266973PFvvEPK10MethodInfoPvPS4_
Jjh:_PhysicsRaycaster_get_finalEventMask_m5197086
nTo:__ZN6il2cpp2vm9Parameter30GetDefaultParameterValueObjectEPK10MethodInfoPK13ParameterInfoPb
Fil:_UTF8Encoding_GetByteCount_m4152118078
Ybi:__Z71RuntimeInvoker_Void_t1185182177_CustomAttributeNamedArgument_t287865710PFvvEPK10MethodInfoPvPS4_
mih:_EventSystem_RaycastComparer_m3685368675
Ovi:_MD5CryptoServiceProvider_Dispose_m3502499818
Bim:_EqualityComparer_1_get_Default_m2359341649_gshared
ige:__ZN5physx19NpRigidBodyTemplateINS_18PxArticulationLinkEE16setRigidBodyFlagENS_15PxRigidBodyFlag4EnumEb
k9m:_Collection_1_get_Count_m2196797808_gshared
Qhn:_Collection_1_System_Collections_IList_get_Item_m2422562729_gshared
s_h:__Z87RuntimeInvoker_Void_t1185182177_RuntimeObject_StringU26_t181565287_StringU26_t181565287PFvvEPK10MethodInfoPvPS4_
KJa:__ZN12LightManager28IsLightTransformDataUpToDateEPK5Light
qbg:__ZL74RuntimeArray_CustomAttributesCacheGenerator_Array_BinarySearch_m3171087170P21CustomAttributesCache
Rag:__ZL72Enum_t4135868527_CustomAttributesCacheGenerator_Enum_ToObject_m122225012P21CustomAttributesCache
wuf:_UNITY_tt_face_done_kern
gYj:_SecurityParameters_get_ServerWriteMAC_m3430427271
tOg:__ZL90GUIStyle_t3956901511_CustomAttributesCacheGenerator_GUIStyle_get_stretchHeight_m4172805773P21CustomAttributesCache
t4g:__ZL68g_UnityEngine_StandardEvents_Assembly_CustomAttributesCacheGeneratorP21CustomAttributesCache
Ixi:_ArrayReadOnlyList_1_RemoveAt_m2104218585_gshared
jUn:__ZL25UnresolvedVirtualCall_176P12Il2CppObjectaaPK10MethodInfo
fgd:__Z25UpdateOrbitalAndRadialTplIL27ParticleSystemCurveEvalMode1ELS0_2ELS0_4EEvRK11MinMaxCurveS3_S3_S3_S3_S3_S3_R23ParticleSystemParticlesjjRKN4math8float3x3ERKNS6_7affineXERKNS6_7_float4E
w_a:__ZN12BoneWeights48TransferI24GenerateTypeTreeTransferEEvRT_
MMj:_Array_InternalArray__IEnumerable_GetEnumerator_TisParameterModifier_t1461694466_m3675077728_gshared
iCd:__ZN35b2InitializeVelocityConstraintsTaskD2Ev
Uma:__ZL49__ManagedRegistrationHelperFunction_PreLateUpdatePv
GXg:__ZL60RawImage_t3182918964_CustomAttributesCacheGenerator_m_UVRectP21CustomAttributesCache
qIm:__ZN21InterfaceFuncInvoker1I19Vector3_t3722313464iE6InvokeEjP11Il2CppClassP12Il2CppObjecti
uLb:__Z19scripting_gc_enablev
ALi:_InternalEnumerator_1_get_Current_m2907722321_gshared
SZb:__ZZ23InitPlayerLoopCallbacksvEN41InitializationPlayerUpdateTimeRegistrator7ForwardEv
gOc:__ZN11UTF16StringC2ERKS_10MemLabelId
qif:__ZN5physx7profile11EventBufferINS_24PxDefaultContextProviderENS_6shdfnd6MutexTINS0_26WrapperReflectionAllocatorIhEEEENS0_14ScopedLockImplIS7_EENS_24PxProfileNullEventFilterEE9stopEventEty
Kfc:__Z29StdTemplateConversionFunctionIihEbPvR14SafeBinaryRead
JLi:_InternalEnumerator_1_System_Collections_IEnumerator_get_Current_m3854084659_gshared
yFf:__Z55Register_UnityEngine_CanvasRenderer_DisableRectClippingv
dv:__ZN9Scripting11UnityEngine10Animations16ConstraintSource12CleanupProxyEv
uml:_TimeSpan_Subtract_m1264203589_AdjustorThunk
Wyd:__ZN19OverlapPointQuery2D14InitializeAABBER6b2AABB
Dmj:_Quaternion_SlerpUnclamped_m3270925602
$yh:_MethodBase__ctor_m1907868998
kXg:__ZL118U3CCaretBlinkU3Ec__Iterator0_t2589889038_CustomAttributesCacheGenerator_U3CCaretBlinkU3Ec__Iterator0_Reset_m1547565867P21CustomAttributesCache
bnb:__ZN9GfxDevice22UploadTextureCubeArrayE9TextureIDPKhjii14GraphicsFormati18TextureUploadFlags
hDi:_InternalEnumerator_1_System_Collections_IEnumerator_get_Current_m888718134_gshared
_Ci:_InternalEnumerator_1_get_Current_m2894466703_gshared
mOj:_Array_compare_TisRaycastResult_t3360306849_m822404090_gshared
Rso:_il2cpp_class_is_inflated
Ikj:_Object_Destroy_m3118546832
wLm:_ReadOnlyCollection_1_System_Collections_Generic_IListU3CTU3E_set_Item_m519295790_gshared
Xok:_DateTime_FromTicks_m4059645178_AdjustorThunk
TQj:_Enumerable_OrderBy_TisRuntimeObject_TisInt32_t2950945753_m3230323636_gshared
xJi:_InternalEnumerator_1_System_Collections_IEnumerator_get_Current_m1470676642_gshared
kAk:_Array_InternalArray__get_Item_TisClientCertificateType_t1004704908_m2297379651_gshared
fHh:_ConfigHandler_ParseTime_m1787834288
lnc:__ZN9ShaderLab7Program27CreateFromSerializedProgramERKNS_17SerializedProgramE10ShaderTypeiP16PropertyNamesSetPK6Shader
QVo:_BGSpaceShipMover__ctor_m203889058
iak:_Assembly_Load_m3487507613
mM:__ZNSt3__27__sort4IRNS_6__lessIN4core12basic_stringIcNS2_20StringStorageDefaultIcEEEES6_EEPS6_EEjT0_SA_SA_SA_T_
Dcp:dynCall_viiiifii
DQo:_GC_unregister_disappearing_link
bpo:__ZN6il2cpp2gc19AppendOnlyGCHashMapINSt3__24pairIPK11Il2CppImageP11Il2CppClassEEP22Il2CppReflectionModule17ReflectionMapHashIS9_ENS2_8equal_toIS9_EEEC2Ev
p8:__Z20GetPersistentManagerv
Gxf:_UNITY_TT_Set_Var_Design
rdi:__Z79RuntimeInvoker_Void_t1185182177_Int32_t2950945753_TMP_CharacterInfo_t3185626797PFvvEPK10MethodInfoPvPS4_
K4:__ZN21SystemInfoStringCache16StaticInitializeEPv
AZo:_JSONNode_ParseElement_m214103003
gpg:__ZL80Convert_t2465617642_CustomAttributesCacheGenerator_Convert_ToDecimal_m1695757674P21CustomAttributesCache
ITi:_NameObjectCollectionBase_FindFirstMatchedItem_m840305173
gen:_Collection_1__ctor_m3380123530_gshared
Z3d:__ZN5physx2Sc7BodySim18internalWakeUpBaseEf
fNm:_ReadOnlyCollection_1_System_Collections_Generic_ICollectionU3CTU3E_Remove_m1100818788_gshared
u3o:_JSONNumber_get_AsDouble_m1115619630
fFo:__ZNK10KeyWrapperIP12Il2CppObjectE14EqualsComparerINSt3__28equal_toIS1_EEEclERKS2_S9_
$jc:__ZNSt3__26vectorIN9ShaderLab20SerializedSubProgram15StructParameterENS_9allocatorIS3_EEE6assignIPS3_EENS_9enable_ifIXaasr21__is_forward_iteratorIT_EE5valuesr16is_constructibleIS3_NS_15iterator_traitsISA_E9referenceEEE5valueEvE4typeESA_SA_
X3j:_UnexceptionalStreamWriter_Write_m363195622
HJf:__ZN9Scripting11UnityEngine9Analytics21AnalyticsSessionState12CleanupProxyEv
VIb:__ZNK13MonoBehaviour7GetNameEv
Xxf:_ft_var_load_item_variation_store
cdb:__ZN19ScriptingInvocation28AdjustArgumentsToMatchMethodEv
G7g:__ZL98U3CU3Ec__Iterator0_t2360448098_CustomAttributesCacheGenerator_U3CU3Ec__Iterator0__ctor_m2716562709P21CustomAttributesCache
kRl:_Dictionary_2_System_Collections_IDictionary_Remove_m2463639949_gshared
iO:__Z15_CheckFMODError11FMOD_RESULTPKciS1_
ryo:__ZN6il2cpp6icalls8mscorlib6SystemL16ThrowInvalidCastEPK11Il2CppClassS5_
hvn:_InvokableCall_3__ctor_m3589126527_gshared
Rjm:_EqualityComparer_1_get_Default_m79107703_gshared
qzk:_TMP_TextInfo_Resize_TisTMP_LinkInfo_t1092083476_m1050620713_gshared
_ui:_HMAC_KeySetup_m661741544
Nqg:__ZL61MonoEnumInfo_t3694469084_CustomAttributesCacheGenerator_cacheP21CustomAttributesCache
NCo:__ZN6il2cpp2vm5Field11SetValueRawEPK10Il2CppTypePvS5_b
egl:_Latin1Encoding__ctor_m498920120
TBf:__ZN2UI11CanvasGroup23VirtualRedirectTransferER17RemapPPtrTransfer
v$f:_U3CMouseDragOutsideRectU3Ec__Iterator1_System_Collections_IEnumerator_get_Current_m3219171155
$1j:_StreamReader_Peek_m2272511193
WKn:_WWWTranscoder_QPEncode_m4114472822
bad:__ZN11ShapeModule5ResetEv
FEf:__Z51Register_UnityEngine_CanvasGroup_get_blocksRaycastsv
rCe:__ZN5physx20NpRigidActorTemplateINS_13PxRigidStaticEE15exportExtraDataERNS_22PxSerializationContextE
U7j:_NumberFormatter_get_IsFloatingSource_m3714711779
ZVn:__ZL25UnresolvedVirtualCall_272P12Il2CppObjectS0_aPK10MethodInfo
ilp:b119
zvc:__Z38Material_Set_Custom_PropShaderKeywordsP12Il2CppObjectP11Il2CppArray
kFm:_Collection_1_System_Collections_IList_Add_m1403891193_gshared
EZm:_OrderedSequence_2__ctor_m143831006_gshared
e8e:__ZN5physx13BigConvexData5VLoadERNS_13PxInputStreamE
OCi:_InternalEnumerator_1_System_Collections_IEnumerator_Reset_m169899350_AdjustorThunk
qKm:_ReadOnlyCollection_1_System_Collections_IList_Add_m3258677755_gshared
Snl:_Type_GetConstructor_m1195697116
he:_glBeginQuery
FEj:_ScrollRect_SetNormalizedPosition_m3260907438
tOj:__ZN21InterfaceFuncInvoker2Ii19Vector2_t2156229523S0_E6InvokeEjP11Il2CppClassP12Il2CppObjectS0_S0_
ena:__ZL48__ManagedRegistrationHelperFunction_VisibleLightPv
fOe:__ZN5physx11NodeManager6resizeEj
hJd:__ZN10Effector2D25CheckEffectorColliderMaskEP10Collider2DS1_
H$b:__ZN6Camera12RenderStereoENS_10RenderFlagE8CullFlagPNS_24PerformEyeRenderFunctionE
Ngb:__ZN20LocalFileSystemPosix10ToAbsoluteEPKc
oIa:__ZN20TierGraphicsSettings8TransferI19StreamedBinaryWriteILb0EEEEvRT_
Kjp:b111
bcb:__Z23CollectSceneGameObjectsR13dynamic_arrayIiLj0EE
iMo:__ZN6il2cpp2vm13ComObjectBase16DisconnectObjectEj
FHe:__ZNK5physx7NpScene28getSceneQueryStaticTimestampEv
i6i:_DiscardLogger_LogWarning_m2490828190
vn:f0
or:__ZN6Object17MainThreadCleanupEv
JHa:__Z32TransferEnumWithNameForceIntSizeI14SafeBinaryRead7HDRModeEvRT_RT0_PKc17TransferMetaFlags
O7o:_getcwd
zwd:__ZN16b2CapsuleContact6CreateEP9b2FixtureiS1_iP16b2BlockAllocator
Mwa:__ZN25ThreadsafeLinearAllocatorD2Ev
SNc:__ZL50GetAndClearChangedTransformsForMultilpleSystemsJobP45GetChangedTransformsForMultipleSystemsJobDatajPK23TransformAccessReadOnlyPKyj
HPe:__ZN5physx2Sq10AABBPruner11preallocateEj
bbb:__Z21SendMessageToEveryoneRK17MessageIdentifier11MessageData
Dea:__ZN21BillboardBatchManager16StaticInitializeEPv
Ujk:_DateTime_AbsoluteDays_m4235097773
f6:__ZN12_GLOBAL__N_138ArchiveRedirectFileSystemStaticDestroyEPv
gcg:__ZL126U3CGetEnumeratorU3Ec__Iterator0_t1202911786_CustomAttributesCacheGenerator_U3CGetEnumeratorU3Ec__Iterator0_Dispose_m2078994225P21CustomAttributesCache
SJh:__Z74RuntimeInvoker_RuntimeObject_RuntimeObject_RuntimeObject_SByte_t1669577662PFvvEPK10MethodInfoPvPS4_
qcg:__ZL69Type_t_CustomAttributesCacheGenerator_Type_GetConstructor_m1195697116P21CustomAttributesCache
Jqh:_DefaultControls_CreateScrollView_m3842770629
Isd:__ZL55__ManagedRegistrationHelperFunction_PhysicsJobOptions2DPv
VLk:_Char_System_IConvertible_ToSingle_m2690985411
vTa:__ZN12CubemapArray34UpdateFileTextureUploadInstructionEP26FileAssetUploadInstructionj
eFe:__ZN5physx2Sc19ShapeInstancePairLLC2ERNS0_8ShapeSimES3_RNS0_9ActorPairENS_7PxFlagsINS_10PxPairFlag4EnumEtEE
Mfg:__ZL94EnumBuilder_t2400448213_CustomAttributesCacheGenerator_EnumBuilder_GetConstructors_m3294436155P21CustomAttributesCache
Eei:__Z55RuntimeInvoker_TableRange_t3332867892_Int32_t2950945753PFvvEPK10MethodInfoPvPS4_
$Fi:_InternalEnumerator_1_MoveNext_m1020308708_gshared
KWb:__Z23CreateSparseTextureGLES9TextureIDii14GraphicsFormati
Wsf:_otv_Anchor_validate
Kfn:_Collection_1_System_Collections_ICollection_get_SyncRoot_m4096301159_gshared
bff:__ZN5physx19PxVisualDebuggerExt16createConnectionEPNS_8debugger4comm20PvdConnectionManagerEPKcNS_7PxFlagsINS_30PxVisualDebuggerConnectionFlag4EnumEjEE
yzd:__Z18AddCollisionReportP11Collision2DR13dynamic_arrayINS_15CollisionReportELj0EE
gra:__ZN9Scripting11UnityEngine12Experimental9Rendering21RenderPipelineManager9InitProxyEv
sml:_TimeSpan_Negate_m1889505500_AdjustorThunk
TRm:_ReadOnlyCollection_1_System_Collections_ICollection_CopyTo_m2715087453_gshared
jRg:__ZL84Canvas_t3310196443_CustomAttributesCacheGenerator_Canvas_get_scaleFactor_m3314757802P21CustomAttributesCache
v5o:_U3CWarpTextU3Ec__Iterator0_MoveNext_m379835037
_Jl:_Transform_1__ctor_m2810088858_gshared
lkb:__ZN16MemoryFileSystemD0Ev
oge:__ZN5physx19NpRigidBodyTemplateINS_18PxArticulationLinkEE27setMaxDepenetrationVelocityEf
Rte:__ZN5physx2Sc9ClothCore16setStretchConfigENS_22PxClothFabricPhaseType4EnumERKNS_20PxClothStretchConfigE
epd:__Z19UpdateSingleRow2TplIL27ParticleSystemCurveEvalMode4ELS0_1EEvfRK11MinMaxCurveS3_RK23ParticleSystemParticlesPfbiii
RMf:__ZN11UnityEngine7Connect20RemoteConfigSettings7SetJSONER8JSONReadb
K9c:__ZN9SubModule8TransferI19StreamedBinaryWriteILb0EEEEvRT_
BLn:_AnalyticsEventTracker_Awake_m2780522130
fff:_PxCreateFoundation
ztd:__ZNK12b2MotorJoint16GetReactionForceEf
afo:__ZN6il2cpp2vm13MetadataCache37GetParameterDefaultValueDataFromIndexEi
mto:_il2cpp_class_get_assemblyname
ITh:__Z50RuntimeInvoker_SByte_t1669577662_SByte_t1669577662PFvvEPK10MethodInfoPvPS4_
wth:_Graphic_OnFillVBO_m1026749972
H7n:__ZN6il2cpp2vm5Class15GetEnumBaseTypeEP11Il2CppClass
n_j:_Context_set_WriteSequenceNumber_m942577065
Ne:_glVertexAttrib4fv
T1i:_X509CertificateEnumerator_Reset_m4026698923
i4f:_TMP_Text_get_text_m540743374
EMo:__ZNK6il2cpp5utils13VmStringUtils23CaseInsensitiveComparerclERKNSt3__212basic_stringIcNS3_11char_traitsIcEENS3_9allocatorIcEEEEPKc
Tnh:_CanvasScaler_SetScaleFactor_m3006968999
tii:__Z78RuntimeInvoker_Boolean_t97287965_Navigation_t3049316579_Navigation_t3049316579PFvvEPK10MethodInfoPvPS4_
WTa:__ZNK9Texture2D16GetNpotTexelSizeEv
Rxk:_Dictionary_2_Do_CopyTo_TisKeyValuePair_2_t1383673463_TisKeyValuePair_2_t1383673463_m2270113118_gshared
I7j:_NumberFormatter_Init_m3576155222
Lhb:__ZL33FileEntryInfoListToFolderContentsRKN4core12basic_stringIcNS_20StringStorageDefaultIcEEEERK19dynamic_block_arrayI13FileEntryInfoLj32EERNSt3__23setIS3_NSB_4lessIS3_EENSB_9allocatorIS3_EEEE
dzj:_LayoutUtility_GetLayoutProperty_m714717302
WZn:_RequestHelper_get_Body_m3873896318
sVl:_LinkedList_1_Remove_m776321970_gshared
url:__ZN23InterfaceActionInvoker1IP39UnhandledExceptionEventArgs_t2886101344E6InvokeEjP11Il2CppClassP12Il2CppObjectS1_
cih:_EventSystem_set_sendNavigationEvents_m983981895
Hed:__Z20EvaluateSlowThreadedRK11MinMaxCurveRNS_5CacheERKN4math7_float4ES7_
fSi:_Enumerator_System_Collections_IEnumerator_get_Current_m2678986219_AdjustorThunk
Xyo:__ZN6il2cpp2vm9Exception18GetSystemExceptionEv
Pgn:_Collection_1_IsValidItem_m3076520886_gshared
jnk:__ZN21InterfaceFuncInvoker1ItP12Il2CppObjectE6InvokeEjP11Il2CppClassS1_S1_
cmb:__ZN9GfxDevice22GetDefaultVertexBufferE26GfxDefaultVertexBufferTypej
yIj:_Array_InternalArray__ICollection_Contains_TisInt64_t3736567304_m2911357929_gshared
BMb:__Z17BeginSplashScreenb
ain:_Collection_1_Remove_m3022471627_gshared
e8o:___fseeko_unlocked
Hra:__ZN9Scripting11UnityEngine12Experimental9Playables21TexturePlayableOutput12CleanupProxyEv
h9j:_Object_ToString_m1740002499
Y7o:_sscanf
fSl:_Dictionary_2_System_Collections_ICollection_get_SyncRoot_m3239327917_gshared
l1d:__ZN5physx3Cct17CapsuleControllerC2ERKNS_16PxControllerDescERNS_9PxPhysicsEPNS_7PxSceneE
H3a:__ZN14SafeBinaryRead21TransferSTLStyleArrayINSt3__26vectorI17BlendShapeChannelNS1_9allocatorIS3_EEEEEEvRT_17TransferMetaFlags
SVl:_Enumerator_System_Collections_IEnumerator_get_Current_m4138390031_gshared
jvm:_Array_Resize_TisUILineInfo_t4195266810_m3763058392_gshared
Ksi:_SByte_ToString_m3584531119_AdjustorThunk
omc:__ZN9ShaderLab16SerializedShader8TransferI19StreamedBinaryWriteILb0EEEEvRT_
qzd:__ZNK4PPtrI7Joint2DEcvPS0_Ev
Wv:__ZN7mecanim9animation18CreateAvatarMemoryEPKNS0_14AvatarConstantERNS_6memory9AllocatorE
Dlk:_Convert_ToInt32_m1876369743
USj:_ModulusRing__ctor_m2420310199
AWf:_TMP_Dropdown_OnSelectItem_m1536972123
Zjk:_Convert_ToDateTime_m626620011
Dgm:_DefaultComparer__ctor_m3289136477_gshared
sCl:_Enumerator_System_Collections_IDictionaryEnumerator_get_Key_m2500634048_AdjustorThunk
Opd:__Z17UpdateSprites2TplIL27ParticleSystemCurveEvalMode2ELS0_4EEvfRK11MinMaxCurveS3_RK23ParticleSystemParticlesPf
kG:__ZN7mecanim8skeleton16SkeletonPoseCopyIN4math4trsXENS2_7affineXEEEvPKNS0_13SkeletonPoseTIT_EEPNS5_IT0_EE
wBb:__Z18Transfer_BlittableI19StreamedBinaryWriteILb0EELb0EaEvRK29SerializationCommandArgumentsR31RuntimeSerializationCommandInfo
H4l:_List_1_Remove_m3037048099_gshared
mUb:__ZN18GfxFramebufferGLES18GetFramebufferNameERK20GfxRenderTargetSetup
ypa:__ZN9Scripting11UnityEngine9Transform9InitProxyEv
RRl:_Dictionary_2_get_Values_m4208642984_gshared
ecn:_Collection_1_IsFixedSize_m1766078928_gshared
HPo:_GC_print_block_list
WVi:_IPAddress__ctor_m921977496
$ap:_saveSetjmp
rwj:_InputField_MoveDown_m1455948167
Byc:__Z45Register_UnityEngine_Transform_get_hasChangedv
YVc:__Z30Event_Get_Custom_PropCharacterP12Il2CppObject
lga:__ZN13PlayableGraph27SchedulePlayableDestructionERK9HPlayable
fsf:_cff_get_mm_var
HZd:__ZN5physx6shdfnd5ArrayINS_12PxDebugPointENS0_19ReflectionAllocatorIS2_EEE15growAndPushBackERKS2_
sgp:_glGetFramebufferAttachmentParameteriv__wrapper
_Fh:_ChannelServices_GetCurrentChannelInfo_m3041604116
$Li:_InternalEnumerator_1__ctor_m2635640285_AdjustorThunk
oub:__Z22scripting_array_length17ScriptingArrayPtr
T2j:_SynchronizedReader_Peek_m148942882
lOn:__ZN25GenericVirtActionInvoker2IP8String_tP19Action_1_t819399007E6InvokeEPK10MethodInfoP12Il2CppObjectS1_S3_
UNd:__ZN8Collider13AwakeFromLoadE17AwakeFromLoadMode
Jpn:_Predicate_1_Invoke_m2308795536_gshared
Syd:__ZNK13b2DynamicTree5QueryI19b2WorldQueryWrapperEEvPT_RK6b2AABB
X1a:__ZN14SpriteRenderer18UpdateCachedSpriteEb
gIo:__ZN15dense_hashtableINSt3__24pairIK10KeyWrapperIPcES3_EES4_N6il2cpp5utils15PassThroughHashIS3_EEN14dense_hash_mapIS4_S3_SA_NS4_14EqualsComparerINS0_8equal_toIS3_EEEENS0_9allocatorIS6_EEE9SelectKeyESF_SH_E3endEv
Yyf:_Horizontal_Sweep_Init
c9m:_Collection_1_GetEnumerator_m1675075812_gshared
gEa:__Z19GetActiveColorSpacev
V8c:__ZN17SizeBySpeedModule8TransferI18StreamedBinaryReadILb0EEEEvRT_
A4n:_BoxCollider_INTERNAL_set_center_m471190135
Ztf:_UNITY_tt_face_load_kern
Xzh:_MonoMethodInfo_GetDeclaringType_m2924452727
uTl:_Dictionary_2_ContainsKey_m3601783571_gshared
Rli:_RemotingSurrogate_SetObjectData_m2713731796
w5:__Z6StrCmpPKcS0_
BRj:_Array_InternalArray__ICollection_Add_TisByte_t1134296376_m2816118303_gshared
ASi:_Enumerator_Dispose_m3543342379_gshared
y9g:__ZL91U3CDisplayTextMeshProFloatingTextU3Ec__Iterator0_t2967292235_CustomAttributesCacheGeneratorP21CustomAttributesCache
boc:__Z21CheckGpuProgramUsable20ShaderGpuProgramType
oDc:__ZN13ProduceHelperI14Texture2DArrayLb0EE7ProduceE10MemLabelId18ObjectCreationMode
VJo:__ZN6il2cpp2os9Directory20GetFileSystemEntriesERKNSt3__212basic_stringIcNS2_11char_traitsIcEENS2_9allocatorIcEEEESA_iiPi
bHk:_Array_System_Collections_IList_Add_m1063688101
Cie:__ZN5physx6shdfnd5ArrayIPvNS0_19ReflectionAllocatorINS_2Cm5BlockIhLj128EEEEEE4copyINS0_15InlineAllocatorILj256ES7_EEEEvRKNS1_IS2_T_EE
Zlf:__ZN20TextRenderingPrivate19NativeTextGenerator5SetupEv
v7b:__ZNK15SharedLightData24GetFinalShadowResolutionEv
qAm:_PatternCompiler_EmitAlternationEnd_m2444359097
hHg:__ZL91GameObject_t1113636619_CustomAttributesCacheGenerator_GameObject_get_activeSelf_m1767405923P21CustomAttributesCache
jme:__ZN5physx6shdfnd8PoolBaseINS_16NpConnectorArrayENS0_19ReflectionAllocatorIS2_EEE15disposeElementsEv
b7a:__ZN12AspectRatios8TransferI18StreamedBinaryReadILb0EEEEvRT_
aff:__ZN14PhysicsManager19CreatePvdConnectionEv
G3o:_JSONObject_GetEnumerator_m3251166103
hXf:_TMP_Settings_get_fallbackFontAssets_m4226204732
xpc:__ZN10GameObject14CopyPropertiesERS_
AXc:__Z44Register_UnityEngine_GUIStyle_get_fixedWidthv
UJj:_Array_InternalArray__ICollection_Remove_TisLink_t544317964_m1280781374_gshared
DJo:__ZNSt3__214__split_bufferIN6il2cpp2os10ThreadImpl10APCRequestERNS_9allocatorIS4_EEEC2EjjS7_
tJk:_BitConverter_DoubleWordsAreSwapped_m1474345095
RKm:_ReadOnlyCollection_1_System_Collections_Generic_IListU3CTU3E_get_Item_m2815941486_gshared
Y0h:__Z114RuntimeInvoker_Int32_t2950945753_Vector2_t2156229523_Vector2_t2156229523_ContactFilter2D_t3805203441_RuntimeObjectPFvvEPK10MethodInfoPvPS4_
nOk:_FixedSizeArrayListWrapper_set_Capacity_m4221053039
z8o:_rand
aGm:_Collection_1_System_Collections_IList_Remove_m1957572751_gshared
Wgp:_emscripten_glFramebufferRenderbuffer__wrapper
mMc:__ZN13MeshScripting10CreateMeshE21ScriptingObjectOfTypeI4MeshE
bAn:_ListPool_1__cctor_m3480273184_gshared
sle:__ZNK5physx12NpConstraint9getActorsERPNS_12PxRigidActorES3_
a_h:__Z56RuntimeInvoker_Void_t1185182177_PropertyName_t3749835189PFvvEPK10MethodInfoPvPS4_
Gz:__ZN17AnimationPlayable22PrepareAnimationEventsEfR13dynamic_arrayI22AnimationClipEventInfoLj0EE
e1o:_JSONNode_get_Item_m186825768
hjh:__ZN23InterfaceActionInvoker1IP25BaseEventData_t3903027533E6InvokeEjP11Il2CppClassP12Il2CppObjectS1_
nvb:__ZN14SafeBinaryRead21TransferSTLStyleArrayINSt3__26vectorI17AnimationCurveTplIfE13stl_allocatorIS4_L18MemLabelIdentifier1ELi16EEEEEEvRT_17TransferMetaFlags
SOk:_SynchronizedArrayListWrapper_Contains_m3809499313
E$j:_HandshakeMessage_Compare_m2214647946
Gaf:__ZN5physx6shdfnd8PoolBaseIN17PxcPoolMallocData10PoolData16ENS0_19ReflectionAllocatorIS3_EEE15disposeElementsEv
MLd:__ZN9Rigidbody23UpdateInterpolationNodeEv
hno:__ZN15dense_hashtableINSt3__24pairIK10KeyWrapperINS1_IPK11Il2CppImageP11Il2CppClassEEEjEES9_17ReflectionMapHashIS8_EN14dense_hash_mapIS9_jSD_NS9_14EqualsComparerINS0_8equal_toIS8_EEEENS0_9allocatorISB_EEE9SelectKeyESI_SK_E12expand_arrayEjN21dense_hash_map_traits17integral_constantIbLb0EEE
xob:__ZN9GfxDevice30ResolveComputeProgramResourcesE12ObjectHandleI18ComputeProgram_TagPvER19ComputeShaderKernelR13dynamic_arrayI15ComputeShaderCBLj0EERS6_I18ComputeShaderParamLj0EEb
mvi:_HMACSHA256__ctor_m346174875
Faj:_Color_op_Multiply_m2887457390
o7m:_List_1_Remove_m2092443302_gshared
U9b:__Z22PrepareOptimizedPlanesPK5PlaneiPKN4math7_float4E
WCi:_InternalEnumerator_1__ctor_m1559487635_gshared
iVl:_LinkedList_1_System_Collections_ICollection_get_IsSynchronized_m345853585_gshared
X1:__ZN11UnityEngine15CloudWebService17WebFileDownloaderINS0_20WebRequestRestClientENS0_23WebRequestRestHeaderMapEE10InitializeERKN4core12basic_stringIcNS5_20StringStorageDefaultIcEEEE
Bea:__ZN17UniqueIDGenerator15CreatePureIndexEv
sUi:_Stopwatch_get_Elapsed_m1649583664
Iah:__ZL183U3CDownloadAndSaveU3Ec__Iterator0_t94015540_CustomAttributesCacheGenerator_U3CDownloadAndSaveU3Ec__Iterator0_System_Collections_Generic_IEnumeratorU3CobjectU3E_get_Current_m3992611781P21CustomAttributesCache
dBc:__Z48InitializeRectTransformAnimationBindingInterfacev
N0a:__ZN16BlitStereoHelper16PrepareEyeRenderEiRK19ShaderPropertySheetRS0_bRK8Vector2fS6_14VRTextureUsage
gGe:__ZN5physx7NpScene8addActorERNS_7PxActorE
A9a:__ZNSt3__26vectorIN15ResourceManager10DependencyE13stl_allocatorIS2_L18MemLabelIdentifier52ELi16EEE6assignINS_11__wrap_iterIPS2_EEEENS_9enable_ifIXaasr21__is_forward_iteratorIT_EE5valuesr16is_constructibleIS2_NS_15iterator_traitsISC_E9referenceEEE5valueEvE4typeESC_SC_
W6n:__ZN15dense_hashtableINSt3__24pairIK10KeyWrapperIPK22Il2CppGenericParameterEP11Il2CppClassEES6_N6il2cpp5utils11PointerHashIS4_EEN14dense_hash_mapIS6_S9_SE_NS6_14EqualsComparerINS0_8equal_toIS5_EEEENS0_9allocatorISA_EEE9SelectKeyESJ_SL_E14squash_deletedEv
jOa:__ZN9ShaderLabL27GetDesiredRenderTextureDescEPK6Camera
Tlg:__ZL131RSACryptoServiceProvider_t2683512874_CustomAttributesCacheGenerator_RSACryptoServiceProvider_t2683512874____PublicOnly_PropertyInfoP21CustomAttributesCache
Vud:__ZNK12b2MouseJoint17GetReactionTorqueEf
mrm:_Array_InternalArray__Insert_TisMark_t3471605523_m2854535880_gshared
i3m:_List_1_AsReadOnly_m1038777102_gshared
NLc:__ZN4Mesh24UpdateSubMeshVertexRangeEi
JEc:__ZZL23RegisterLightPropertiesR22GenericPropertyBindingEN18Wrapper_LightRange13SetFloatValueEPvf
NMg:__ZL52HumanBone_t2465339518_CustomAttributesCacheGeneratorP21CustomAttributesCache
hbi:__Z59RuntimeInvoker_Int32_t2950945753_TMP_FontWeights_t916301067PFvvEPK10MethodInfoPvPS4_
X1o:_JSONNode_op_Implicit_m3237263780
Bli:_MethodReturnDictionary__cctor_m278392388
Wkg:__ZL98SerializationInfo_t950877179_CustomAttributesCacheGenerator_SerializationInfo_GetUInt32_m776835457P21CustomAttributesCache
r1b:__ZNK9Transform18TransformDirectionERK8Vector3f
D6e:__ZN5physx21PxsBodyTransformVault6updateEv
vib:__ZNK17ArchiveFileSystem12GetAssetGUIDERK13FileEntryData
fZg:__ZL80CanvasScaler_t2767979955_CustomAttributesCacheGenerator_m_ReferencePixelsPerUnitP21CustomAttributesCache
Hsf:_otv_MarkLigPos_validate
kkl:_Thread_GetSerializedCurrentUICulture_m3681656498
p3g:__ZL74TMP_Text_t2599618874_CustomAttributesCacheGenerator_m_enableVertexGradientP21CustomAttributesCache
cXd:__ZL29GeomMTDCallback_CapsuleConvexRN5physx6PxVec3ERfRKNS_10PxGeometryERKNS_11PxTransformES5_S8_
Dek:_GenericTypeParameterBuilder_GetCustomAttributes_m580748276
f5i:_TMP_TextEventHandler_set_onSpriteSelection_m4271763567
YLn:_AnalyticsTracker_get_TP_m2800669040
Ldo:__ZN15dense_hashtableINSt3__24pairIK10KeyWrapperIPK11Il2CppClassEPKcEES6_N6il2cpp5utils11PointerHashIS3_EEN14dense_hash_mapIS6_S9_SE_NS6_14EqualsComparerINS0_8equal_toIS5_EEEENS0_9allocatorISA_EEE9SelectKeyESJ_SL_E12resize_deltaEjj
k$f:_TMP_InputField_DoStateTransition_m1946589647
ZSj:_Kernel_LeftShift_m4140742987
X9j:_Assembly_GetManifestResourceInternal_m1224391897
VEa:__Z30AddDefaultStreamsToMeshBuffersR9GfxDeviceR11MeshBuffersj17ShaderChannelMaskS3_
I5:__ZL16GetInterfaceImpl18UnityInterfaceGUID
MUf:_TMP_DefaultControls_SetLayerRecursively_m3201739960
rMo:__ZN6il2cpp6icalls8mscorlib6System15MonoCustomAttrs27GetCustomAttributesInternalEP12Il2CppObjectP20Il2CppReflectionTypeb
xc:invoke_viifi
AQc:__Z55Register_UnityEngine_Quaternion_FromToRotation_Injectedv
byf:_UNITY_TT_Set_MM_Blend
ita:__ZN9Scripting11UnityEngine11Application9InitProxyEv
jEn:_TMPro_EventManager_ON_FONT_PROPERTY_CHANGED_m1466790487
ljn:_InternalAsyncResult_get_FromWrite_m4228047810
WQh:__Z53RuntimeInvoker_MonoEventInfo_t346866618_RuntimeObjectPFvvEPK10MethodInfoPvPS4_
YGm:_Collection_1_CopyTo_m955200729_gshared
vVd:__ZNK5physx3Cct13BoxController11getPositionEv
TMb:__ZN14PreloadManager35WaitForAllAsyncOperationsToCompleteEv
j9n:__ZN13Il2CppHashMapIP9FieldInfoiN6il2cpp5utils11PointerHashIS0_EENSt3__28equal_toIS1_EENS6_9allocatorINS6_4pairIK10KeyWrapperIS1_EiEEEEEC2EjRKS5_RKS8_
G6:__ZNSt3__26__treeINS_12__value_typeIPKc11ShaderTagIDEENS_19__map_value_compareIS3_S5_27compare_tstring_insensitiveIS3_ELb1EEENS_9allocatorIS5_EEE7destroyEPNS_11__tree_nodeIS5_PvEE
ERg:__ZL103UISystemProfilerApi_t2230074258_CustomAttributesCacheGenerator_UISystemProfilerApi_AddMarker_m495483138P21CustomAttributesCache
CPd:__Z27sweepCCTBox_HeightFieldGeomRKN5physx10PxGeometryERKNS_11PxTransformERKNS_2Gu3BoxERKNS_6PxVec3EfRNS_10PxSweepHitENS_7PxFlagsINS_9PxHitFlag4EnumEtEEf
z7:__ZNK18ScriptingObjectPtr17ToScriptingStringEv
eO:__ZL31InitializeAudioScriptingClassesv
S6g:__ZL80U3CSpawnEnemyType3WaveU3Ec__Iterator9_t1553313282_CustomAttributesCacheGeneratorP21CustomAttributesCache
M0b:__Z14SortGUIByDepthP10GUIElementS0_
zel:_DecoderExceptionFallback_GetHashCode_m1820789965
fcd:__Z19UpdateProceduralTplIL27ParticleSystemCurveEvalMode0EEvRK20DualMinMaxPolyCurvesR23ParticleSystemParticlesPfRKN4math7_float4E
rFb:__ZN18StreamedBinaryReadILb1EE21TransferSTLStyleArrayI13dynamic_arrayIhLj0EEEEvRT_17TransferMetaFlags
Njj:_PlayerConnection_OnEnable_m4286555589
TWf:_TMP_Settings_get_warningsDisabled_m4194286636
TVh:__Z69RuntimeInvoker_UInt32_t2560061978_Int32_t2950945753_SByte_t1669577662PFvvEPK10MethodInfoPvPS4_
cH:__ZN12_GLOBAL__N_120ProcessRootMotionMixER33AnimationPlayableEvaluationOutputR35AnimationPlayableEvaluationConstantR32AnimationPlayableEvaluationInputS1_f
bFm:_UriParser__cctor_m3655686731
MWd:__ZN5physx3Cct9SweepTest18updateTouchedGeomsEPKNS0_30InternalCBData_FindTouchedGeomERKNS0_13UserObstaclesERKNS_17PxExtendedBounds3ERKNS_19PxControllerFiltersERKNS_6PxVec3E
Mii:__Z36RuntimeInvoker_Enumerator_t463618097PFvvEPK10MethodInfoPvPS4_
Mgj:_Material_SetColor_m355160541
Vyj:_LayoutRebuilder_U3Cs_RebuildersU3Em__0_m589488547
Sif:_PxCloseExtensions
Ghi:__Z53RuntimeInvoker_KeyValuePair_2_t71524366_RuntimeObjectPFvvEPK10MethodInfoPvPS4_
nhb:__ZNK20LocalFileSystemPosix21GetAvailableDiskSpaceEPKcRy
iM:__ZNSt3__26__treeIiNS_4lessIiEENS_9allocatorIiEEE7destroyEPNS_11__tree_nodeIiPvEE
Znm:_KeyValuePair_2_get_Value_m392474074_AdjustorThunk
Plb:__ZNK9GfxDevice14GetWorldMatrixEv
Yun:_InvokableCall_2_Invoke_m3594767000_gshared
vgo:_RemoteConfigSettings_t1247263429_marshal_pinvoke
dYo:_U3CDelayU3Ec__Iterator1_Reset_m2353695391
a3i:_TMP_TextEventCheck_OnLineSelection_m3140534732
kZn:_AudioSampleProvider_InternalSetScriptingPtr_m3742743270
XFj:_Slider_get_value_m739683640
Lfb:__Z19scripting_array_new17ScriptingClassPtrjj
zfi:__Z60RuntimeInvoker_PlayerLoopSystem_t105772105_Int32_t2950945753PFvvEPK10MethodInfoPvPS4_
yT:__ZN11SoundHandle13CreateChannelEb
jmm:_GenericEqualityComparer_1_Equals_m1942949784_gshared
Ikl:_WaitCallback_BeginInvoke_m3012509827
Gkc:__ZNSt3__26vectorIN9ShaderLab20SerializedSubProgram16TextureParameterENS_9allocatorIS3_EEE6assignIPS3_EENS_9enable_ifIXaasr21__is_forward_iteratorIT_EE5valuesr16is_constructibleIS3_NS_15iterator_traitsISA_E9referenceEEE5valueEvE4typeESA_SA_
mco:__ZN13Il2CppHashMapIN6il2cpp5utils13dynamic_arrayIPK10Il2CppTypeLj4EEEPFvvENS0_8metadata19Il2CppSignatureHashENS9_22Il2CppSignatureCompareENSt3__29allocatorINSC_4pairIK10KeyWrapperIS6_ES8_EEEEEC2EjRKSA_RKSB_
CPg:__ZL104Physics2D_t1528932956_CustomAttributesCacheGenerator_Physics2D_GetRayIntersectionAll_Internal_m643548862P21CustomAttributesCache
g3m:__ZN21InterfaceFuncInvoker0I22UILineInfo_t4195266810E6InvokeEjP11Il2CppClassP12Il2CppObject
eOh:__Z122RuntimeInvoker_Void_t1185182177_RuntimeObject_RuntimeObject_ContractionU5BU5DU26_t2277527001_Level2MapU5BU5DU26_t359320357PFvvEPK10MethodInfoPvPS4_
Jpo:__ZN15dense_hashtableINSt3__24pairIK10KeyWrapperIPK22Il2CppGenericParameterEPK24MonoGenericParameterInfoEES6_N6il2cpp5utils11PointerHashIS4_EEN14dense_hash_mapIS6_SA_SF_NS6_14EqualsComparerINS0_8equal_toIS5_EEEENS0_9allocatorISB_EEE9SelectKeyESK_SM_E15set_deleted_keyERKSB_
Isi:_SByte_TryParse_m2431806379
wao:__ZNK15dense_hashtableINSt3__24pairIK10KeyWrapperIP9FieldInfoEiEES5_N6il2cpp5utils11PointerHashIS3_EEN14dense_hash_mapIS5_iSB_NS5_14EqualsComparerINS0_8equal_toIS4_EEEENS0_9allocatorIS7_EEE9SelectKeyESG_SI_E8min_sizeEjj
wrg:__ZL64ObjectDisposedException_t21392786_CustomAttributesCacheGeneratorP21CustomAttributesCache
uKa:__ZN6prcoreL11inner_clearILj2EEEvPhjjj
Gyk:_Dictionary_2_Do_CopyTo_TisDictionaryEntry_t3123975638_TisDictionaryEntry_t3123975638_m2909244099_gshared
Uta:__ZN9Scripting5Unity11Collections8LowLevel6Unsafe24NativeContainerAttribute9InitProxyEv
oWn:__ZL25UnresolvedVirtualCall_289P12Il2CppObjectPK10MethodInfo
kui:_DSACryptoServiceProvider_get_KeySize_m786836990
N6i:_FormPart_Read_m2058419040
pud:__ZN12b2WheelJoint24SolvePositionConstraintsERK12b2SolverData
Dte:__ZNK5physx2Sc9ClothCore20getNbCollisionPlanesEv
yh:_emscripten_exit_fullscreen
SBf:__ZN2UI11CanvasGroup23VirtualRedirectTransferER18StreamedBinaryReadILb0EE
tVe:__ZNK5physx23PxsBroadPhaseContextSap7getTypeEv
H8e:__ZNK5physx13GuMeshFactory17getNbHeightFieldsEv
Htm:_Array_qsort_TisBoolean_t97287965_TisBoolean_t97287965_m214793583_gshared
M2i:_TMP_FrameRateCounter__ctor_m4136266118
jWl:_Enumerator_System_Collections_IEnumerator_Reset_m1564381721_gshared
kff:__ZN14PhysicsManager19CreateDynamicsSceneEbb14BroadphaseType16ContactPairsModeRK4AABBi
jBc:__ZZL31RegisterRectTransformPropertiesR22GenericPropertyBindingEN39Wrapper_RectTransformAnchoredPositiony113GetFloatValueEPv
b9j:_Object_MemberwiseClone_m1474068832
OIo:__ZN6il2cpp6icalls8mscorlib6System6String19InternalAllocateStrEi
W3c:__Z29Transfer_Blittable_ArrayFieldI8JSONRead11QuaternionfEvRT_R9ArrayInfoRK23StaticTransferFieldInfo
LHk:_Array_SetValue_m282347242
VPe:__ZNK5physx2Gu12OBBAABBTestsILb1EEclENS_6shdfnd3aos5Vec3VES5_
jgo:__ZN6il2cpp6icalls6System6System3Net7Sockets6Socket8ShutdownEiNS4_14SocketShutdownEPi
Tvc:__Z45Register_UnityEngine_Camera_get_targetDisplayv
WGc:__ZNK24RendererAnimationBinding15GenerateBindingERKN4core12basic_stringIcNS0_20StringStorageDefaultIcEEEEbRN11UnityEngine9Animation14GenericBindingE
Jza:__ZN33RendererCullingCallbackPropertiesC2ERK6CameraRK10Matrix4x4f
BWi:_IPv6Address__ctor_m3704187391
IJa:__Z15GetFlareManagerv
Jwc:__ZN15ApplicationInfo24GetApplicationIdentifierEv
yLc:__ZN4Mesh15AppendTrianglesERNSt3__26vectorIj13stl_allocatorIjL18MemLabelIdentifier1ELi16EEEEjRK13dynamic_arrayI7SubMeshLj0EEPK14SharedMeshDatab
gWd:__ZN5physx3Cct9SweepTestD2Ev
Uua:__ZN9Behaviour8TransferI18StreamedBinaryReadILb0EEEEvRT_
_v:__ZN8Animator13GetAvatarRootEv
QZd:__ZN26IntersectAnyVsMeshCallbackILi0ELb0EED2Ev
z6o:___toread
IKb:__ZNSt3__26vectorI10vector_mapIiiNS_4lessIiEE13stl_allocatorINS_4pairIiiEEL18MemLabelIdentifier38ELi16EEES4_IS9_LS7_38ELi16EEE26__swap_out_circular_bufferERNS_14__split_bufferIS9_RSA_EE
c1f:_TMP_Settings_get_version_m3911328366
vSj:_BigInteger_get_Rng_m3283260184
Lap:___cxa_is_pointer_type
_K:__ZN8Animator22ScriptingStringToCRC32ERK11ICallString
fsg:__ZL55EventHandler_t1348719766_CustomAttributesCacheGeneratorP21CustomAttributesCache
eH:__ZN7mecanim9animation16EvaluateAvatarDXEPKNS0_14AvatarConstantEPKNS0_11AvatarInputEPNS0_12AvatarMemoryEPNS0_15AvatarWorkspaceEPNS0_12AvatarOutputE
LVb:__ZN4gles20DestroyRenderSurfaceEP7ApiGLESP17RenderSurfaceGLES
CAk:_Array_InternalArray__get_Item_TisKeyValuePair_2_t2530217319_m2886833132_gshared
jFb:__ZN18StreamedBinaryReadILb1EE21TransferSTLStyleArrayI13dynamic_arrayIN4math12int3_storageELj0EEEEvRT_17TransferMetaFlags
Fma:__ZL50__ManagedRegistrationHelperFunction_UnityEventBasePv
Uxc:__Z34Transform_CUSTOM_SetAsFirstSiblingP12Il2CppObject
eDl:_Enumerator__ctor_m1280792063_AdjustorThunk
PYd:__ZN12_GLOBAL__N_141SphereMeshContactGenerationCallback_ScaleD0Ev
G9c:__ZN21RotationBySpeedModule8TransferI19StreamedBinaryWriteILb0EEEEvRT_
k$d:__ZN5physx3Cct17CapsuleController16setContactOffsetEf
N4i:_WarpTextExample_Start_m647679331
ZNh:__Z63RuntimeInvoker_Void_t1185182177_RuntimeObject_SByte_t1669577662PFvvEPK10MethodInfoPvPS4_
Oxg:__ZL57SetupCoroutine_t2062820429_CustomAttributesCacheGeneratorP21CustomAttributesCache
gwj:_InputField_Delete_m3471899192
wqg:__ZL79Convert_t2465617642_CustomAttributesCacheGenerator_Convert_ToUInt64_m1627266664P21CustomAttributesCache
Zig:__ZL91UrlAttribute_t221584584_CustomAttributesCacheGenerator_UrlAttribute_IsContextOK_m1228378186P21CustomAttributesCache
Mni:_RemotingConfiguration_get_ProcessId_m2180277012
t_:__ZN11UnityEngine15CloudWebService17SessionEventQueue14ParseEventDataERKN4core12basic_stringIcNS2_20StringStorageDefaultIcEEEE
XHi:_InternalEnumerator_1__ctor_m3114520374_AdjustorThunk
B2f:_TMP_SubMesh_get_fontAsset_m1687591748
Uke:__ZN12GeomQueryAnyIN5physx10PxSweepHitEE7geomHitERKNS0_2Sq17SceneQueryManagerERKNS0_15MultiQueryInputERKNS3_9ShapeDataERKNS0_10PxGeometryERKNS0_11PxTransformENS0_7PxFlagsINS0_9PxHitFlag4EnumEtEEjPS1_fbPNS0_9PxBounds3E
eJl:_Transform_1_BeginInvoke_m4058251461_gshared
L1l:_List_1_Remove_m2605758101_gshared
fTb:__ZN13TranslateGLES4InitERK12GraphicsCaps16GfxDeviceLevelGL
AHb:__Z29Transfer_Blittable_ArrayFieldI18StreamedBinaryReadILb0EE10ColorRGBAfEvRT_R9ArrayInfoRK23StaticTransferFieldInfo
jYd:__ZN43CapsuleHeightfieldContactGenerationCallback7onEventEjPj
vKm:_ReadOnlyCollection_1_System_Collections_IList_Insert_m4244537418_gshared
lOd:__ZThn4_N12MemoryStream4readEPvj
W5n:_NativeTypeAttribute_set_CodegenOptions_m3839252515
wim:_EqualityComparer_1_get_Default_m180770000_gshared
YZk:_Int64_System_IConvertible_ToUInt16_m848637338_AdjustorThunk
iJf:__Z32CustomEventData_CUSTOM_AddUInt32P12Il2CppObjectP12Il2CppStringj
HEm:_Uri_get_PathAndQuery_m2396197970
$Sl:_Dictionary_2_System_Collections_Generic_ICollectionU3CSystem_Collections_Generic_KeyValuePairU3CTKeyU2CTValueU3EU3E_Add_m2414635523_gshared
vPj:_Array_InternalArray__IndexOf_TisLink_t544317964_m455584088_gshared
U7m:_Enumerator_get_Current_m2282646120_AdjustorThunk
HRm:_ReadOnlyCollection_1_IndexOf_m2539022912_gshared
GKh:__Z66RuntimeInvoker_Boolean_t97287965_RuntimeObject_Int64U26_t200113976PFvvEPK10MethodInfoPvPS4_
fDe:__ZN5physx6shdfnd8internal8HashBaseIPNS_13NpVolumeCacheES4_NS0_4HashIS4_EENS1_11HashSetBaseIS4_S6_NS0_9AllocatorELb0EE6GetKeyES8_Lb0EE15reserveInternalEj
nYg:__ZL66Selectable_t3250028441_CustomAttributesCacheGenerator_m_TransitionP21CustomAttributesCache
UTo:__ZN6il2cpp2os6Memory12AlignedAllocEjj
m8l:_List_1_AsReadOnly_m3745969689_gshared
Wne:__ZN5physx6shdfnd8internal8HashBaseIPKNS_6PxBaseES5_NS0_4HashIS5_EENS1_11HashSetBaseIS5_S7_NS0_9AllocatorELb0EE6GetKeyES9_Lb0EE6createERKS5_Rb
sWl:_Enumerator_get_Current_m2305210644_AdjustorThunk
_0c:__ZN9JSONWrite8TransferI13dynamic_arrayIN4math12int3_storageELj0EEEEvRT_PKc17TransferMetaFlags
cpk:_DateTime_get_TimeOfDay_m82064893
_Te:__ZN5physx28solveFrictionCoulombPreBlockEPKNS_23PxcSolverConstraintDescEjRNS_16PxcSolverContextE
bHj:_Text_set_alignByGeometry_m3828822280
FRj:_Array_InternalArray__ICollection_Add_TisKeyValuePair_2_t1383673463_m1385069916_gshared
sNo:__ZN6il2cpp8metadataL7CompareEPK10Il2CppTypeS3_
mxb:__Z18Transfer_BlittableI17RemapPPtrTransferLb0E11ColorRGBA32EvRK29SerializationCommandArgumentsR31RuntimeSerializationCommandInfo
FSi:_HybridDictionary__ctor_m1681134385
zAn:_CRC32__ctor_m1614943059
fAa:__ZN21ScalableBufferManager11GetInstanceEv
RFb:__Z18Transfer_BlittableI18StreamedBinaryReadILb0EELb1E10ColorRGBAfEvRK29SerializationCommandArgumentsR31RuntimeSerializationCommandInfo
nTa:__ZN12CubemapArray23VirtualRedirectTransferER17RemapPPtrTransfer
Cml:_TimeSpan_op_LessThan_m1594498345
ltc:__ZL27GetComponentsImplementationILb0ELi0EEbR10GameObjectbRK17CompareParametersRK39GetComponentsImplementation_ReturnValue
MFm:_Collection_1_set_Item_m2355850893_gshared
HJb:__ZN9Scripting36IsSystemCollectionsGenericDictionaryE17ScriptingClassPtr
Gxn:_UnityEvent_1_FindMethod_Impl_m322741469_gshared
Bjg:__ZL92ConstructionCallDictionary_t686578562_CustomAttributesCacheGenerator_U3CU3Ef__switchU24map24P21CustomAttributesCache
Eje:__ZN5physx12NpConstraint12actorDeletedEPNS_12PxRigidActorE
kSf:__Z54Register_UnityEngine_Networking_UnityWebRequest_Createv
JYg:__ZL64Slider_t3903728902_CustomAttributesCacheGenerator_m_WholeNumbersP21CustomAttributesCache
fOn:_Enumerator_get_Current_m2591725252
Cba:__ZL16ReadTypeTreeImplILb0EEbR8TypeTreeRK16TypeTreeIteratorRPKhS6_i
Bym:_Interval_Contains_m110351300_AdjustorThunk
Elk:_Convert_ToInt32_m3048308591
ow:__ZN25RuntimeAnimatorControllerD2Ev
n_g:__ZL77LayoutUtility_t2745813735_CustomAttributesCacheGenerator_U3CU3Ef__amU24cache6P21CustomAttributesCache
kBj:_RectMask2D_OnCanvasHierarchyChanged_m3195492255
b2g:__ZL78TMP_Settings_t2071156274_CustomAttributesCacheGenerator_m_enableTintAllSpritesP21CustomAttributesCache
Sqk:_DateTimeOffset_Equals_m3030958070
o2d:__ZN5physx2Sc8ShapeSim18reinsertBroadPhaseEv
lJa:__ZNK22BuiltinResourceManager21GetResourceInstanceIDEPKN5Unity4TypeERKN4core12basic_stringIcNS4_20StringStorageDefaultIcEEEE
BHb:__ZN18StreamedBinaryReadILb0EE21TransferSTLStyleArrayI13dynamic_arrayI10ColorRGBAfLj0EEEEvRT_17TransferMetaFlags
Suc:__Z42Register_UnityEngine_RectOffset_set_bottomv
aMn:_AnalyticsTracker_BuildParameters_m43920649
The:__ZN5physx2Sc5Scene11removeShapeERNS0_8ShapeSimEb
yUk:_DateTimeFormatInfo_GetMonthName_m2034512315
R2b:__ZN28LightProbeProxyVolumeContext8CopyFromERKS_
sSm:_ReadOnlyCollection_1_System_Collections_Generic_IListU3CTU3E_Insert_m2489506856_gshared
lza:__ZN23TransformChangeDispatch32QueueTransformChangeIfHasChangedER18TransformHierarchy
Lzl:_Enumerator_System_Collections_IEnumerator_get_Current_m1145487420_gshared
fYf:_TMP_InputField_get_onSelect_m1664894426
Nhj:_Matrix4x4_MultiplyPoint_m1575665487
zYo:_U3CSpawnEnemyType1WaveU3Ec__Iterator5_System_Collections_Generic_IEnumeratorU3CobjectU3E_get_Current_m1994893278
MVb:__ZN7ApiGLES18DeleteRenderbufferERj
Y5d:__ZN5physx6shdfnd5ArrayIPvNS0_15InlineAllocatorILj256ENS0_19ReflectionAllocatorINS_16NpConnectorArrayEEEEEE15growAndPushBackERKS2_
YUb:__ZL23ProgramUniformMatrix4fvPK7ApiGLESjiihPKv
ZOb:__ZN7ApiGLES13CreateTextureEjj14GraphicsFormatiiiii
y7i:_Request__cctor_m1449343363
uIk:_Array_new_gap_m262136975
Wxd:__Z10b2DistanceP16b2DistanceOutputP14b2SimplexCachePK15b2DistanceInput
HXe:__ZN5physx14SingleAABBTaskC2Ev
mkc:__ZN9ShaderLab20SerializedSubProgram15MatrixParameter8TransferI14SafeBinaryReadEEvRT_
T7f:_TMP_Text_SetCharArray_m3635885420
WXa:__ZN4core8hash_mapIiN28ReflectionProbeAnchorManager16CachedAnchorDataENS_4hashIiEENSt3__28equal_toIiEEEixERKi
nEf:__Z46Register_UnityEngine_Canvas_set_sortingLayerIDv
j8f:_TMP_Text_HexCharsToColor_m2075419509
IWl:_Enumerator_System_Collections_IEnumerator_get_Current_m1846615603_gshared
ntc:__ZL27GetComponentsImplementationILb0ELi1EEbR10GameObjectbRK17CompareParametersRK39GetComponentsImplementation_ReturnValue
Uvm:_X509Store__ctor_m275383717
Ksj:_Transform_INTERNAL_get_position_m1310184257
zgc:__Z29StdTemplateConversionFunctionIatEbPvR14SafeBinaryRead
ffo:__ZN6il2cpp2vm13MetadataCache40AddThreadLocalStaticOffsetForFieldLockedEP9FieldInfoiRKNS_2os12FastAutoLockE
ldf:__ZN5physx12storeIndicesEjjPKjRNS_14PxOutputStreamEb
FBa:__ZN13RenderTexture7ReleaseEv
t1c:__Z18Transfer_BlittableI8JSONReadLb1EN4math12int3_storageEEvRK29SerializationCommandArgumentsR31RuntimeSerializationCommandInfo
x1a:__ZN10MeshFilter23VirtualRedirectTransferER14SafeBinaryRead
n7e:__ZNK5physx13NpClothFabric17getReferenceCountEv
M0i:_AsnEncodedData_get_Oid_m402887164
m5a:__ZN12MeshRenderer17MainThreadCleanupEv
L7n:__ZN6il2cpp2vmL10InitLockedEP11Il2CppClassRKNS_2os12FastAutoLockE
yqb:__ZN22CreateGpuProgramOutput12CreateParamsEv
mP:__ZN10ObjectPoolIN4FMOD7ChannelENS0_8ChannelIEE7GetFreeEi
lu:__ZL62__ManagedRegistrationHelperFunction_AnimatorOverrideControllerPv
Fji:__Z96RuntimeInvoker_RuntimeObject_CustomAttributeNamedArgument_t287865710_RuntimeObject_RuntimeObjectPFvvEPK10MethodInfoPvPS4_
csh:_FontData_get_font_m2720086288
tge:__ZNK5physx18NpArticulationLink11getChildrenEPPNS_18PxArticulationLinkEj
p6g:__ZL122U3CSpawnHazardsU3Ec__Iterator4_t3641860696_CustomAttributesCacheGenerator_U3CSpawnHazardsU3Ec__Iterator4__ctor_m1715566284P21CustomAttributesCache
YSb:__ZNK14GfxContextGLES13GetDefaultFBOEv
yei:__Z99RuntimeInvoker_Void_t1185182177_UILineInfoU5BU5DU26_t2468919161_Int32_t2950945753_Int32_t2950945753PFvvEPK10MethodInfoPvPS4_
BKk:_Byte_System_IConvertible_ToType_m2251112646
jRc:__Z55Register_UnityEngine_MonoBehaviour_StopCoroutineManagedv
l3h:__Z81RuntimeInvoker_Char_t3634460470_RuntimeObject_Int32_t2950945753_Int16_t2552820387PFvvEPK10MethodInfoPvPS4_
a4e:__Z15atomIntegrationfPKPN5physx11PxsBodyCoreEPKPNS_12PxsRigidBodyEjPKNS_2Cm13SpatialVectorEPNS_13PxcSolverBodyEPNS_17PxcSolverBodyDataEPS9_RjSH_
fpk:_DateTime_get_Hour_m4153505178_AdjustorThunk
fMb:__ZN14GraphicsHelper5ClearE13GfxClearFlagsRK10ColorRGBAffjR17ShaderPassContext
mOm:_ReadOnlyCollection_1_System_Collections_Generic_IListU3CTU3E_RemoveAt_m2659121554_gshared
SCn:_ZlibBaseStream_ReadZeroTerminatedString_m934210149
Z8k:_Evidence_Equals_m1478353107
Zym:_CostDelegate__ctor_m4027655829
kCe:__ZN5physx13NpRigidStatic11createShapeERKNS_10PxGeometryEPKPNS_10PxMaterialEtNS_7PxFlagsINS_11PxShapeFlag4EnumEhEE
PKc:__Z13GetImagePixelI10ColorRGBAfET_PKhii13TextureFormat15TextureWrapModeS5_ii
f1m:_List_1_System_Collections_IList_set_Item_m1842844683_gshared
kAn:_ObjectPool_1__ctor_m2535233435_gshared
Pyn:_EventFunction_1__ctor_m4292798223_gshared
Duo:__ZN6il2cpp2vm6Thread49CheckCurrentThreadForInterruptAndThrowIfNecessaryEv
zvk:_Enum_ToObject_m1136033697
AEa:__ZNSt3__23mapIN9ShaderLab16FastPropertyNameEN18UnityPropertySheet11UnityTexEnvENS_4lessIS2_EENS_9allocatorINS_4pairIKS2_S4_EEEEEixERS9_
_Ob:__ZNK13TranslateGLES25GetTextureTargetDimensionEj
L9j:_RankException__ctor_m3453633632
_9d:__ZN5physx11NpAggregate22removeActorAndReinsertERNS_7PxActorEb
Cei:__Z96RuntimeInvoker_Void_t1185182177_Vector3U5BU5DU26_t3038522815_Int32_t2950945753_Int32_t2950945753PFvvEPK10MethodInfoPvPS4_
m4i:_VertexShakeB_OnDisable_m1594553736
yOm:_ReadOnlyCollection_1_System_Collections_IList_Remove_m1842121503_gshared
ybf:__ZZL19ExtractHullPolygonsRjRN5physx2Gu9ContainerERKNS0_17ConvexHullBuilderEPS2_S3_EN5Local9FloodFillES3_PKNS0_11AdjTriangleEjPb
P0k:_File_OpenRead_m2936789020
$yg:__ZL110Quaternion_t2301928331_CustomAttributesCacheGenerator_Quaternion_LookRotation_Injected_m3680180073____upwards1P21CustomAttributesCache
q7:__ZN9Scripting12LogExceptionE21ScriptingExceptionPtriPKcb
W_h:__Z94RuntimeInvoker_Void_t1185182177_RuntimeObject_PlayableGraph_t3515989261_RuntimeObject_IntPtr_tPFvvEPK10MethodInfoPvPS4_
zj:_emscripten_glVertexAttrib4f
lwb:__ZN14SafeBinaryRead21TransferSTLStyleArrayI13dynamic_arrayIN4math12int3_storageELj0EEEEvRT_17TransferMetaFlags
A1o:_JSONNode_ToString_m838049535
YMi:_InternalEnumerator_1_System_Collections_IEnumerator_Reset_m4072625129_AdjustorThunk
Anc:__ZNSt3__26vectorIN20GpuProgramParameters14ConstantBufferENS_9allocatorIS2_EEE8__appendEj
O1i:_X509CertificateCollection_AddRange_m3683116910
d2g:__ZL79TMP_Settings_t2071156274_CustomAttributesCacheGenerator_m_missingGlyphCharacterP21CustomAttributesCache
MGi:_InternalEnumerator_1_Dispose_m1837758743_AdjustorThunk
o_i:_Socket_BeginReceive_m2439065097
n4n:_CustomEventData_t317522481_marshal_pinvoke_cleanup
Rpn:_Predicate_1_Invoke_m2315049893_gshared
fp:FUNCTION_TABLE_vf
Vpc:__Z15tessGetElementsP14TESStesselator
k4b:__ZN11HaloManager21ReleaseGeometryJobMemEP25DynamicVBOGeometryJobData
B0k:_DirectoryNotFoundException__ctor_m1689636868
tji:__Z96RuntimeInvoker_RuntimeObject_Vector2_t2156229523_Vector2_t2156229523_RuntimeObject_RuntimeObjectPFvvEPK10MethodInfoPvPS4_
Ice:__ZN5physx14NpArticulation26setMaxProjectionIterationsEj
C0d:__ZN5physx3Cct15ObstacleContext14removeObstacleEj
SOm:_ReadOnlyCollection_1_System_Collections_Generic_IListU3CTU3E_get_Item_m978644313_gshared
hHm:_Collection_1_get_Item_m2253972692_gshared
hxh:_RefEmitPermissionSet_t484390987_marshal_pinvoke_cleanup
tbk:_CustomAttributeTypedArgument_Equals_m2261980307
GB:__ZN7mecanim12statemachine24CreateStateMachineMemoryEPKNS0_20StateMachineConstantERNS_6memory9AllocatorE
Knb:__ZN9GfxDevice18SetGlobalDepthBiasEff
z0o:_JSONBool_get_AsBool_m1408334481
Iho:__ZN6il2cpp6icalls8mscorlib6System8MonoType12get_AssemblyEP20Il2CppReflectionType
L2k:_IsolatedStorageException__ctor_m3386787868
m7c:__ZN4PPtrI12MeshRendererE8TransferI14SafeBinaryReadEEvRT_
ayh:_TypeBuilder_MakeGenericType_m2799607032
IXe:__ZN5physx20SingleAABBUpdateTaskD0Ev
Sxm:_RepeatContext_get_Start_m1076992038
aVm:_ReadOnlyCollection_1_IndexOf_m3669095250_gshared
Nj:_emscripten_glGetPointerv
qwk:_Array_Sort_TisSingle_t1397266774_TisSingle_t1397266774_m1233431437_gshared
Lze:__ZNK5physx15NpActorTemplateINS_14PxRigidDynamicEE13getActorFlagsEv
L2g:__ZL70TMP_Style_t3479380764_CustomAttributesCacheGenerator_m_ClosingTagArrayP21CustomAttributesCache
Tyk:_Dictionary_2_Do_CopyTo_TisKeyValuePair_2_t3842366416_TisRuntimeObject_m1564656153_gshared
NG:__ZN8Animator22ApplyBuiltinRootMotionEv
Oyc:__Z14BezierExtractUfff
pMb:__Z26ApplyMaterialPassWithCacheRK18SharedMaterialDataR17ShaderPassContextP6ShaderPN9ShaderLab4PassEibPKNS6_10GrabPassesEPNS6_11SubProgramsEPK22DeviceRenderStateBlock
chf:__ZN5physx7profile8ZoneImplINS_28PxProfileNameProviderForwardEE17handleBufferFlushEPKhj
qUh:__Z55RuntimeInvoker_DateTime_t3738529785_TimeSpan_t881159249PFvvEPK10MethodInfoPvPS4_
pxg:__ZL81Camera_t4157153871_CustomAttributesCacheGenerator_Camera_RaycastTry2D_m2460696262P21CustomAttributesCache
Z5g:__ZL106U3CDelayU3Ec__Iterator1_t1616925293_CustomAttributesCacheGenerator_U3CDelayU3Ec__Iterator1__ctor_m87951614P21CustomAttributesCache
X9d:__ZN5physx2Sc5ActorC2ERNS0_16InteractionSceneEhNS0_14IslandNodeInfo4TypeE
J$f:_TMP_LinkInfo_SetLinkID_m3158822466_AdjustorThunk
rHi:_InternalEnumerator_1_get_Current_m1897120917_AdjustorThunk
x6j:_MonoType_ReorderParamArrayArguments_m2458683451
gpi:_FormatterConverter_ToInt16_m4282804414
Q3f:_TMP_SubMeshUI_OnTransformParentChanged_m2009301060
_lh:_StandaloneInputModule_ProcessTouchPress_m4019232747
H0k:_FileStream__ctor_m3151488352
tIk:_Array_swap_m547389985
Cue:__ZN5physx15NpActorTemplateINS_7PxClothEED2Ev
dql:_UInt32_ToString_m2420423038
X6l:_List_1_System_Collections_IList_Add_m634558835_gshared
VUm:_ReadOnlyCollection_1_System_Collections_IList_get_IsFixedSize_m1923250479_gshared
z1k:_FileStream_get_Length_m426703983
gjo:_WWW_get_text_m898164367
cJc:__Z13RegisterClassI10TagManagerEvPKc
fte:__ZN5physx2Sc9ClothCore16setRestPositionsEPKNS_6PxVec4E
gOl:_Enumerator__ctor_m1558933899_AdjustorThunk
rsg:__ZL88BigInteger_t2902905090_CustomAttributesCacheGenerator_BigInteger_op_Implicit_m3414367033P21CustomAttributesCache
B$f:_OnValidateInput_EndInvoke_m2757910316
t9e:__ZN5physx2Gu12TriangleMesh4loadERNS_13PxInputStreamE
Cnd:__ZL17DrawMeshParticlesILb0EL25ParticleSystemRenderSpace2EEvRK26ParticleSystemTempMeshDataRK22ParticleSystemTempDataRK23ParticleSystemParticlesRK31ParticleSystemParticlesTempDataRK26ParticleSystemRendererDataRK21ParticleSystemModulesPfPv
s5m:_List_1_Remove_m2092085040_gshared
jhc:__ZL13MotionHandleriPK27EmscriptenDeviceMotionEventPv
LN:__ZN12AudioManager5ResetEv
$Kh:__Z67RuntimeInvoker_Boolean_t97287965_RuntimeObject_SByteU26_t3619038962PFvvEPK10MethodInfoPvPS4_
Mwg:__ZL68DisallowMultipleComponent_t1422053217_CustomAttributesCacheGeneratorP21CustomAttributesCache
KOm:_ReadOnlyCollection_1_get_Count_m1336304542_gshared
v_g:__ZL111LayoutUtility_t2745813735_CustomAttributesCacheGenerator_LayoutUtility_U3CGetPreferredHeightU3Em__6_m3049688934P21CustomAttributesCache
aka:__ZN6prcoreL17RemapGenericFloatI17TexFormatRGBAHalf15TexFormatRGHalfEEvPKNS_9InnerInfoE
Qzl:_Enumerator_Reset_m576306132_gshared
YEl:_KeyCollection_System_Collections_ICollection_get_IsSynchronized_m1704597852_gshared
eKo:__ZN6il2cpp6icalls8mscorlib6System11Environment20GetWindowsFolderPathEi
aQm:_ReadOnlyCollection_1_System_Collections_Generic_IListU3CTU3E_set_Item_m2921615109_gshared
xik:_Convert_ToBoolean_m2833752130
Jrf:_UNITY_FT_Stream_ReadFields
uA:__ZN7mecanim5human18HumanPoseBlendNodeERNS0_9HumanPoseEPS1_f
frf:_UNITY_FT_RoundFix
obh:_FastAction__ctor_m80680614
AZ:__ZN23CloudWebServicesManager23VirtualRedirectTransferER17RemapPPtrTransfer
Nsd:__ZN9Scripting11UnityEngine19PhysicsJobOptions2D12CleanupProxyEv
OQo:_GC_is_heap_ptr
MPd:__ZNK5physx2Gu15HeightFieldUtil12traceSegmentI24ConvexVsHeightfieldSweepLb0ELb0ELb1EEEvRKNS_6PxVec3ES6_PT_PS5_
Vvl:_ASN1_DecodeTLV_m1200977460
Cdj:_UnityEventBase_PrepareInvoke_m1785382128
k8e:__ZNK5physx12PxConvexMesh19getConcreteTypeNameEv
xyh:__ZN23InterfaceActionInvoker2IP12Il2CppObjectP20Delegate_t1188392813E6InvokeEjP11Il2CppClassS1_S1_S3_
o5a:__ZNK12MeshRenderer22GetTypeVirtualInternalEv
ZLk:_Char_System_IConvertible_ToUInt32_m3901815580
odi:__Z72RuntimeInvoker_Void_t1185182177_Int32_t2950945753_VertexAnim_t2231884842PFvvEPK10MethodInfoPvPS4_
vCj:_Scrollbar_set_onValueChanged_m346467699
rId:__ZN13ProduceHelperI13BoxCollider2DLb0EE7ProduceE10MemLabelId18ObjectCreationMode
Qoh:_ColorBlock_set_disabledColor_m2996580094
OQd:__ZN5physx2Gu19gjkLocalPenetrationINS0_9TriangleVENS0_17ShrunkConvexHullVEEEjRKT_RKT0_RKNS_6shdfnd3aos6FloatVERNSB_5Vec3VESG_SG_RSC_PhSI_Rhb
AUh:__Z157RuntimeInvoker_Int32_t2950945753_RuntimeObject_Int32_t2950945753_Int32_t2950945753_Int32_t2950945753_SByte_t1669577662_SByte_t1669577662_Int32U26_t1369213839PFvvEPK10MethodInfoPvPS4_
Qzn:_ListPool_1_Release_m957266927_gshared
nkg:__ZL105ConfigHandler_t4192437216_CustomAttributesCacheGenerator_ConfigHandler_ValidatePath_m3895556516____paths1P21CustomAttributesCache
JQ:__ZN4FMOD6System17setSoftwareFormatEi17FMOD_SOUND_FORMATii18FMOD_DSP_RESAMPLER
dve:__ZN5physx15NpActorTemplateINS_15PxParticleFluidEE22setClientBehaviorFlagsENS_7PxFlagsINS_25PxActorClientBehaviorFlag4EnumEhEE
Kbf:__ZN5physx18AdjacenciesBuilderC2Ev
m2d:__ZN5physx2Sc13ShapeIterator4initERKNS0_8ActorSimE
hPa:__ZN14SafeBinaryRead19TransferSTLStyleMapINSt3__23mapIN4core12basic_stringIcNS3_20StringStorageDefaultIcEEEES7_NS1_4lessIS7_EE13stl_allocatorINS1_4pairIKS7_S7_EEL18MemLabelIdentifier1ELi16EEEEEEvRT_17TransferMetaFlags
Vt:__ZL49__ManagedRegistrationHelperFunction_AimConstraintPv
tHf:__ZN2UI6Canvas27UpdateEventIndexesRecursiveERi
$y:__ZN7mecanim9animation18EvaluateRootMotionERKNS0_18ClipMuscleConstantERKNS0_15ClipMuscleInputEPKfS8_RNS0_12MotionOutputEb
A_:__ZN11UnityEngine15CloudWebService16SessionContainer21PrepareDataErrorEventERN4core12basic_stringIcNS2_20StringStorageDefaultIcEEEE
pjh:_ExecuteEvents_get_pointerUpHandler_m3515704212
$Mk:_ArrayList_set_Item_m2003485935
PKo:__ZNSt3__218uninitialized_copyIPNS_4pairIK10KeyWrapperIPK19Il2CppGenericMethodEP10MethodInfoEESB_EET0_T_SD_SC_
eEh:_SatelliteContractVersionAttribute__ctor_m3630863995
tqg:__ZL79Convert_t2465617642_CustomAttributesCacheGenerator_Convert_ToUInt64_m3102114524P21CustomAttributesCache
hlh:_MouseButtonEventData_PressedThisFrame_m1060658845
pRf:__ZN16UploadHandlerRaw13TransmitBytesEPvjj
SBb:__Z19TransferField_ArrayI19StreamedBinaryWriteILb0EE27Converter_SimpleNativeClassI8GUIStyleEEvRK23StaticTransferFieldInfoR31RuntimeSerializationCommandInfoRT0_
tUc:__Z43Register_UnityEngine_Renderer_get_isVisiblev
n8h:__Z100RuntimeInvoker_Void_t1185182177_TMP_MeshInfoU5BU5DU26_t469924305_Int32_t2950945753_SByte_t1669577662PFvvEPK10MethodInfoPvPS4_
ROm:_ReadOnlyCollection_1_System_Collections_Generic_IListU3CTU3E_RemoveAt_m3969985996_gshared
DKg:__ZL83AudioSource_t3935305588_CustomAttributesCacheGenerator_AudioSource_Play_m3389845180P21CustomAttributesCache
zof:__ZN20TextRenderingPrivate8TextMesh23VirtualRedirectTransferER18StreamedBinaryReadILb0EE
goe:__ZN5physx14NpArticulationC2Ev
GJn:_UnityWebRequest_SetUploadHandler_m2465141380
OGa:__Z28BuildSingleStreamChannelInfoP11ChannelInfo17ShaderChannelMaskS1_
pjp:_emscripten_glCopyTexSubImage2D__wrapper
I$a:__ZNK13ScreenManager12GetIsFocusedEv
U5o:_U3CRevealCharactersU3Ec__Iterator0_System_Collections_Generic_IEnumeratorU3CobjectU3E_get_Current_m144739728
Ljj:_PlayerConnection_get_isConnected_m911966057
_th:_GraphicRegistry_GetGraphicsForCanvas_m4219276355
A2k:__ZN23InterfaceActionInvoker3IP22ByteU5BU5D_t4116647657iiE6InvokeEjP11Il2CppClassP12Il2CppObjectS1_ii
s7j:_NumberFormatter_FastToDecHex_m699829267
Mzm:_PatternCompiler_MakeFlags_m1977119795
h1c:__Z35Transfer_Blittable_FixedBufferFieldI8JSONReadiEvRK29SerializationCommandArgumentsR31RuntimeSerializationCommandInfo
Hmd:__ZN22ParticleSystemRenderer16UpdateCachedMeshEv
Ykg:__ZL59StreamingContext_t3711869237_CustomAttributesCacheGeneratorP21CustomAttributesCache
cgo:__ZNSt3__213__vector_baseIN6il2cpp2os19SocketHandleWrapperENS_9allocatorIS3_EEED2Ev
z5o:_U3CWarpTextU3Ec__Iterator0_Reset_m493227373
xcg:__ZL48_Type_t3588564251_CustomAttributesCacheGeneratorP21CustomAttributesCache
U7c:__ZN12LightsModule8TransferI24GenerateTypeTreeTransferEEvRT_
eWg:__ZL81FontUpdateTracker_t1839077620_CustomAttributesCacheGenerator_U3CU3Ef__mgU24cache0P21CustomAttributesCache
UXa:__ZN28ReflectionProbeAnchorManager18RemoveCachedAnchorERK4PPtrI9TransformE
Mc:invoke_viiffi
Peg:__ZL103RegionInfo_t1090270226_CustomAttributesCacheGenerator_RegionInfo_t1090270226____NativeName_PropertyInfoP21CustomAttributesCache
Vec:__ZN13sorted_vectorINSt3__24pairIN4core12basic_stringIcNS2_20StringStorageDefaultIcEEEEPK17MessageIdentifierEEN10vector_mapIS6_S9_NS0_4lessIS6_EENS0_9allocatorISA_EEE13value_compareESF_E10insert_oneERKSA_
LG:__ZNSt3__227__insertion_sort_incompleteIRPFbPKN8Animator11AnimatorJobES4_EPS4_EEbT0_S9_T_
k_:__ZNSt3__26__treeINS_12__value_typeIN4core12basic_stringIcNS2_20StringStorageDefaultIcEEEEjEENS_19__map_value_compareIS6_S7_NS_4lessIS6_EELb1EEE13stl_allocatorIS7_L18MemLabelIdentifier88ELi16EEE4findIS6_EENS_15__tree_iteratorIS7_PNS_11__tree_nodeIS7_PvEEiEERKT_
ZDh:_ResourceSet_ReadResources_m3663669011
$Ea:__ZL13MeshExtractorPv16VertexInputMasksiR11MeshBuffersR16DrawBuffersRangeRiS5_
kTa:__ZNK12CubemapArray20GetRuntimeMemorySizeEv
kTg:__ZL77ExecuteEvents_t3484638744_CustomAttributesCacheGenerator_U3CU3Ef__mgU24cacheDP21CustomAttributesCache
kxe:__ZN5physx2Sc18ParticleSystemCore18setProjectionPlaneERKNS_7PxPlaneE
ilc:__Z14resize_trimmedINSt3__26vectorIN9ShaderLab18SerializedPropertyENS0_9allocatorIS3_EEEEEvRT_j
Jwb:__Z18Transfer_BlittableI17RemapPPtrTransferLb0EN4math12int3_storageEEvRK29SerializationCommandArgumentsR31RuntimeSerializationCommandInfo
iwg:__ZL92StaticAccessorAttribute_t2432663902_CustomAttributesCacheGenerator_U3CNameU3Ek__BackingFieldP21CustomAttributesCache
Wod:__Z20UpdateWholeSheet2TplIL27ParticleSystemCurveEvalMode3ELS0_3EEvfRK11MinMaxCurveS3_RK23ParticleSystemParticlesPf
tFe:__ZN5physx6shdfnd8PoolBaseINS_2Sc9ActorPairENS0_19ReflectionAllocatorIS3_EEE12allocateSlabEv
sdo:__ZN6il2cpp2vm13MetadataCache38GetMethodInfoFromMethodDefinitionIndexEi
aih:_EventSystem_set_current_m38955169
YQc:__Z39MonoBehaviour_CUSTOM_GetScriptClassNameP12Il2CppObject
lJi:_InternalEnumerator_1__ctor_m826178271_AdjustorThunk
lYg:__ZL53Selectable_t3250028441_CustomAttributesCacheGeneratorP21CustomAttributesCache
n_f:_TMP_InputField_Backspace_m3815535005
$ym:_CostDelegate_EndInvoke_m2797921932
u_a:__ZN10VertexData8TransferI24GenerateTypeTreeTransferEEvRT_
qwn:_UnityAction_2_Invoke_m3803176137_gshared
Nik:_Double_IsInfinity_m820013146
Pkk:__ZN21InterfaceFuncInvoker1I19Decimal_t2948259380P12Il2CppObjectE6InvokeEjP11Il2CppClassS2_S2_
bti:_CryptographicException__ctor_m503735289
K6l:_List_1_TrimExcess_m440552561_gshared
xqj:_Screen_get_dpi_m495672463
Eil:_UTF8Encoding_InternalGetByteCount_m2120178851
awg:__ZL130NativeTypeAttribute_t2250406315_CustomAttributesCacheGenerator_NativeTypeAttribute_set_IntermediateScriptingStructName_m3613994509P21CustomAttributesCache
s9b:__ZL10CullLightsRK22SceneCullingParametersR11CullResults
Pnk:_Convert_ToUInt64_m3170916409
BB:__ZN7mecanim12statemachine20GetBlendTreeConstantERKNS0_13StateConstantEi
wGe:__ZN5physx7NpScene21setDominanceGroupPairEhhRKNS_20PxDominanceGroupPairE
MZk:_Int64_System_IConvertible_ToInt16_m4062196970_AdjustorThunk
U6j:_MonoType_GetGenericTypeDefinition_m3201894896
Cwc:__Z40GetTemporaryCachePathApplicationSpecificv
kmb:__ZN9GfxDevice16EndAsyncJobFrameEv
e1h:__Z99RuntimeInvoker_Int32_t2950945753_Ray_t3785851493_RuntimeObject_Single_t1397266774_Int32_t2950945753PFvvEPK10MethodInfoPvPS4_
Uno:__ZNK15dense_hashtableINSt3__24pairIK10KeyWrapperINS1_IPK12PropertyInfoP11Il2CppClassEEEjEES9_17ReflectionMapHashIS8_EN14dense_hash_mapIS9_jSD_NS9_14EqualsComparerINS0_8equal_toIS8_EEEENS0_9allocatorISB_EEE9SelectKeyESI_SK_E10test_emptyERK30dense_hashtable_const_iteratorISB_S9_SD_SM_SI_SK_E
Stf:_UNITY_tt_face_load_hhea
XQ:__ZN12AudioManager27InitialCompleteDomainReloadEv
NHo:__ZN15dense_hashtableINSt3__24pairIK10KeyWrapperIPcES3_EES4_N6il2cpp5utils15PassThroughHashIS3_EEN14dense_hash_mapIS4_S3_SA_NS4_14EqualsComparerINS0_8equal_toIS3_EEEENS0_9allocatorIS6_EEE9SelectKeyESF_SH_E16reset_thresholdsEv
Ml:___syscall3
mye:__ZNK5physx15NpActorTemplateINS_16PxParticleSystemEE7getNameEv
Czg:__ZL95MonoBehaviour_t3962482529_CustomAttributesCacheGenerator_MonoBehaviour_CancelInvoke_m3252264575P21CustomAttributesCache
W0h:__Z135RuntimeInvoker_RaycastHit2D_t2279581989_Vector2_t2156229523_Vector2_t2156229523_Single_t1397266774_Int32_t2950945753_Single_t1397266774PFvvEPK10MethodInfoPvPS4_
Pl:___syscall6
pnb:__ZN9GfxDevice15GetNextCPUFenceEv
Rl:___syscall4
z$:__ZN11UnityEngine15CloudWebService20WebRequestRestClient17GetResponseStatusEv
Wli:_ReturnMessage__ctor_m2352989078
R7d:__ZN5physx6shdfnd4sortIPvNS0_4LessIS2_EENS0_19ReflectionAllocatorINS_2Sc19ConstraintGroupNodeEEEEEvPT_jRKT0_RKT1_j
vjo:__ZN6il2cpp2vm7Runtime9SetConfigEPKc
glb:__ZNSt3__26__treeINS_12__value_typeIN4core12basic_stringIcNS2_20StringStorageDefaultIcEEEEPN16MemoryFileSystem4NodeEEENS_19__map_value_compareIS6_SA_NS_4lessIS6_EELb1EEE13stl_allocatorISA_L18MemLabelIdentifier55ELi16EEE7destroyEPNS_11__tree_nodeISA_PvEE
j0h:__Z67RuntimeInvoker_Boolean_t97287965_TextGenerationSettings_t1351628751PFvvEPK10MethodInfoPvPS4_
WNk:_ArrayListWrapper_IndexOf_m3692065720
zZj:_TlsServerCertificateRequest__ctor_m1334974076
Ard:__ZN27PerformanceReportingManager23VirtualRedirectTransferER14SafeBinaryRead
l4f:_TMP_Text_get_fontSharedMaterial_m1617809530
z9g:__ZL158U3CDisplayTextMeshProFloatingTextU3Ec__Iterator0_t2967292235_CustomAttributesCacheGenerator_U3CDisplayTextMeshProFloatingTextU3Ec__Iterator0__ctor_m4042895486P21CustomAttributesCache
Hlk:_Convert_ToInt32_m1613163543
jfi:__Z52RuntimeInvoker_TimeSpan_t881159249_Int32_t2950945753PFvvEPK10MethodInfoPvPS4_
hqa:__ZN9Scripting11UnityEngine9Playables8Playable12CleanupProxyEv
qOm:_ReadOnlyCollection_1_System_Collections_ICollection_CopyTo_m3127175806_gshared
em:_emscripten_glShaderBinary
x9k:_String_op_Inequality_m215368492
N$:__ZN15DownloadHandler19OnFinishReceiveDataEv
jpl:_UInt16_ToString_m760649087
fhb:__ZNK20LocalFileSystemPosix6ExistsERK13FileEntryData
wgk:_Queue_Dequeue_m2397857002
bVh:__Z21RuntimeInvoker_Guid_tPFvvEPK10MethodInfoPvPS4_
aWh:__Z46RuntimeInvoker_CipherAlgorithmType_t1174400495PFvvEPK10MethodInfoPvPS4_
b8d:__ZN5physx35NpArticulationJointGetBodiesFromScbERNS_3Scb17ArticulationJointERPNS0_4BodyES5_
G7e:__ZNK5physx2Sc15ClothFabricCore16getTetherLengthsEPfj
oaj:_Camera_GetAllCameras_m668492922
WYc:__Z23TransferScriptingObjectI8JSONReadEvRT_18ScriptingObjectPtr17ScriptingClassPtrPK15MonoScriptCache
IQg:__ZL109Physics_t2310948930_CustomAttributesCacheGenerator_Physics_RaycastAll_m3084184534____queryTriggerInteraction4P21CustomAttributesCache
lwf:_UNITY_TT_Get_HMetrics
Bml:_TimeSpan_op_Inequality_m2467851530
vEb:__ZN17AnimationCurveTplIfE8TransferI18StreamedBinaryReadILb1EEEEvRT_
fki:__ZN28GenericInterfaceFuncInvoker1IP12Il2CppObjectP23HeaderU5BU5D_t204812840E6InvokeEPK10MethodInfoS1_S3_
Owk:_Array_Sort_TisUIVertex_t4057497605_m3996333845_gshared
g_j:_Context_get_ReceivedConnectionEnd_m4011125537
k7k:_ToBase64Transform_get_CanReuseTransform_m702204640
PPg:__ZL73ContactFilter2D_t3805203441_CustomAttributesCacheGenerator_maxNormalAngleP21CustomAttributesCache
whp:_emscripten_glShaderBinary__wrapper
_Zh:__Z53RuntimeInvoker_PropertyName_t3749835189_RuntimeObjectPFvvEPK10MethodInfoPvPS4_
fsi:_SByte_System_IConvertible_ToDouble_m2381680501
NIk:_Swapper_BeginInvoke_m1688449973
icj:_Display_get_renderingWidth_m1970428952
lLe:__ZN5physx2Sc13ConstraintSim8getForceERNS_6PxVec3ES3_
vpj:__ZN30GenericInterfaceActionInvoker1IP25RectTransform_t3704657025E6InvokeEPK10MethodInfoP12Il2CppObjectS1_
iQg:__ZL78Physics_t2310948930_CustomAttributesCacheGenerator_Physics_Raycast_m4145022031P21CustomAttributesCache
dya:__ZN16LevelGameManager23VirtualRedirectTransferER19StreamedBinaryWriteILb0EE
eWh:__Z81RuntimeInvoker_Void_t1185182177_RuntimeObject_Int32_t2950945753_Int64_t3736567304PFvvEPK10MethodInfoPvPS4_
n_a:__Z32TransferEnumWithNameForceIntSizeI14SafeBinaryRead16GfxPrimitiveTypeEvRT_RT0_PKc17TransferMetaFlags
atn:_TMP_XmlTagStack_1_Pop_m1336251350_AdjustorThunk
WK:__ZNSt3__26vectorIN4core12basic_stringIcNS1_20StringStorageDefaultIcEEEE13stl_allocatorIS5_L18MemLabelIdentifier1ELi16EEE21__push_back_slow_pathIS5_EEvOT_
uzg:__ZL92Mesh_t3648964284_CustomAttributesCacheGenerator_Mesh_SetTriangles_m2205169959____baseVertex3P21CustomAttributesCache
zbi:__Z52RuntimeInvoker_Int32_t2950945753_HitInfo_t3229609740PFvvEPK10MethodInfoPvPS4_
Gfd:__Z25UpdateOrbitalAndRadialTplIL27ParticleSystemCurveEvalMode4ELS0_3ELS0_2EEvRK11MinMaxCurveS3_S3_S3_S3_S3_S3_R23ParticleSystemParticlesjjRKN4math8float3x3ERKNS6_7affineXERKNS6_7_float4E
Rog:__ZL80Convert_t2465617642_CustomAttributesCacheGenerator_Convert_ToBoolean_m2807110707P21CustomAttributesCache
OWd:__ZN5physx15PxGeometryQuery18computePenetrationERNS_6PxVec3ERfRKNS_10PxGeometryERKNS_11PxTransformES6_S9_
hzn:_IndexedSet_1_IndexOf_m241693686_gshared
hzi:_InternalEnumerator_1_MoveNext_m3033431667_gshared
CLf:__ZN11UnityEngine15PlatformWrapper30GetGraphicsDriverLibraryStringEv
Ori:_RuntimeMethodHandle_Equals_m3301340296_AdjustorThunk
Bql:_UInt64_System_IConvertible_ToSingle_m925613075_AdjustorThunk
Vif:__ZN5Unity12PhysicsQueryC2Ev
JRn:__ZL24UnresolvedVirtualCall_40P12Il2CppObjectS0_PK10MethodInfo
jAn:_ListPool_1__cctor_m704263611_gshared
SFb:__Z18Transfer_BlittableI18StreamedBinaryReadILb0EELb0E4AABBEvRK29SerializationCommandArgumentsR31RuntimeSerializationCommandInfo
H9a:__ZN24GenerateTypeTreeTransfer19TransferSTLStyleMapINSt3__28multimapIN4core12basic_stringIcNS3_20StringStorageDefaultIcEEEE4PPtrI6ObjectENS1_4lessIS7_EE13stl_allocatorINS1_4pairIKS7_SA_EEL18MemLabelIdentifier52ELi16EEEEEEvRT_17TransferMetaFlags
Av:__ZN16MecanimAnimation24DeleteAnimatedPropertiesERP26IAnimatedPropertyEvaluator
Myk:_Dictionary_2_Do_ICollectionCopyTo_TisKeyValuePair_2_t2245450819_m216493345_gshared
Zdh:_TextContainer__cctor_m389829303
d2j:_Math_Min_m3468062251
I0n:_CanvasRenderer_SetMaterial_m824577244
W_o:_Music_Start_m75845250
G7c:__ZN11ColorModule8TransferI24GenerateTypeTreeTransferEEvRT_
n$b:__Z14DrawGUITextureRK5RectTIfEP7Texture11ColorRGBA32P8Materiali
X3o:_U3CU3Ec__Iterator0_Dispose_m4156704853
Zyg:__ZL101Quaternion_t2301928331_CustomAttributesCacheGenerator_Quaternion_LookRotation_m3197602968____upwards1P21CustomAttributesCache
u8g:__ZL84Benchmark01_t1571072624_CustomAttributesCacheGenerator_Benchmark01_Start_m4262200517P21CustomAttributesCache
sCg:__ZL84RectOffset_t1369453676_CustomAttributesCacheGenerator_RectOffset_Cleanup_m2552807639P21CustomAttributesCache
ZNa:__ZNK15PlayableMethods18InvokeProcessFrameER18ScriptingObjectPtrRK9HPlayableP18ScriptingFrameDataRK9FrameData
wF:__ZN9BlobWrite8TransferI22OffsetPtrArrayTransferIKN4math7_float4EEEEvRT_PKc17TransferMetaFlags
Gtj:_Transform_IsChildOf_m224006092
$Ma:__ZN15TextureSettings8TransferI24GenerateTypeTreeTransferEEvRT_
S0c:__ZN9JSONWrite8TransferI4AABBEEvRT_PKc17TransferMetaFlags
Jxj:_LayoutElement_set_preferredHeight_m1999633022
ljc:__ZN15dense_hashtableINSt3__24pairIKiN4core17string_with_labelILi1EEEEEi18SInt32HashFunctionN14dense_hash_mapIiS5_S7_NS0_8equal_toIiEE13stl_allocatorIS6_L18MemLabelIdentifier1ELi16EEE9SelectKeyESA_SD_E12expand_arrayEjN21dense_hash_map_traits17integral_constantIbLb0EEE
vci:__Z58RuntimeInvoker_Void_t1185182177_ContactPoint2D_t3390240644PFvvEPK10MethodInfoPvPS4_
u4l:_List_1_Clear_m2154023298_gshared
jAc:__Z13RegisterClassI15QualitySettingsEvPKc
aSn:__ZL24UnresolvedVirtualCall_59P12Il2CppObjectiPK10MethodInfo
Lgh:_AbstractEventData_get_used_m2991176710
TFi:_InternalEnumerator_1_get_Current_m3191242573_AdjustorThunk
X6h:__Z94RuntimeInvoker_Void_t1185182177_ObjectU5BU5DU26_t712384779_Int32_t2950945753_Int32_t2950945753PFvvEPK10MethodInfoPvPS4_
N4e:__ZNK18ScBeforeSolverTask7getNameEv
kt:__ZN13ConstraintJob17ConstraintJobDataD2Ev
Cgd:__Z25UpdateOrbitalAndRadialTplIL27ParticleSystemCurveEvalMode2ELS0_1ELS0_2EEvRK11MinMaxCurveS3_S3_S3_S3_S3_S3_R23ParticleSystemParticlesjjRKN4math8float3x3ERKNS6_7affineXERKNS6_7_float4E
jIn:_Aes__ctor_m178909601
MTa:__ZNK9Texture2D20GetRuntimeMemorySizeEv
jL:__ZN11Marshalling39CreateNullExceptionForUnityEngineObjectE18ScriptingObjectPtr
XTe:__ZN5physx14solve1D4_BlockEPKNS_23PxcSolverConstraintDescEjRNS_16PxcSolverContextE
t4c:__ZN5Unity9rapidjson13GenericReaderINS0_4UTF8IcEES3_13JSONAllocatorE9ParseTrueILj0ENS0_19GenericStringStreamIS3_EENS0_15GenericDocumentIS3_S4_S4_EEEEvRT0_RT1_
j3m:_List_1_Clear_m2003943277_gshared
on:_emscripten_glUniform2iv
NXj:_CipherSuite_get_Context_m1621551997
KWf:_DropdownItem_OnCancel_m3947700413
lXd:__ZL33GeomMTDCallback_ConvexHeightFieldRN5physx6PxVec3ERfRKNS_10PxGeometryERKNS_11PxTransformES5_S8_
sma:__ZL46__ManagedRegistrationHelperFunction_ColorGamutPv
qKi:_InternalEnumerator_1__ctor_m2503697330_gshared
Bmm:_Enumerator_Dispose_m1204547613_AdjustorThunk
Lmf:_UNITY_FT_Outline_Transform
Vrc:__Z60Register_UnityEngine_Sprites_DataUtility_Internal_GetMinSizev
Uvg:__ZL118NativeMethodAttribute_t4187428193_CustomAttributesCacheGenerator_NativeMethodAttribute_set_HasExplicitThis_m2961870915P21CustomAttributesCache
m8n:__ZN6il2cpp2vm5Class10GetMethodsEP11Il2CppClassPPv
elm:_EqualityComparer_1_System_Collections_IEqualityComparer_Equals_m477570191_gshared
vSc:__Z45Register_UnityEngine_Mesh_get_bounds_Injectedv
RPf:__ZNK25UnityWebRequestJavaScript17GetUploadProgressEv
Z4b:__Z30AddDefaultStreamsToMeshBuffersR9GfxDeviceR11MeshBuffersRK16DrawBuffersRange17ShaderChannelMaskS6_
sam:_List_1_GetEnumerator_m1430071802_gshared
oVb:__ZN7ApiGLES17DeleteFramebufferERN2gl6HandleILNS0_10ObjectTypeE9EEES3_
uof:__ZN20TextRenderingPrivate8TextMesh17MainThreadCleanupEv
GXb:__ZN15UniformTFMethod13MapBoneBufferEj
aCf:__ZN2UI14CanvasRendererD2Ev
VAk:_Array_InternalArray__get_Item_TisParameterModifier_t1461694466_m29553316_gshared
T_m:_Nullable_1_GetHashCode_m1123196047_gshared
tCn:_InfTree__cctor_m3025646792
c_k:_Int64_CompareTo_m1928360444_AdjustorThunk
bZe:__ZN5physx26PxcPCMContactCapsuleConvexERKNS_2Gu13GeometryUnionES3_RKNS_11PxTransformES6_RKfRNS_10PxcNpCacheERNS0_13ContactBufferE
_oe:__ZNK5physx7NpShape16getContactOffsetEv
fLb:__Z9SetupArgviPPKc
amk:_Convert_ToInt64_m2075031821
ECg:__ZL111ScriptableObject_t2528358522_CustomAttributesCacheGenerator_ScriptableObject_CreateScriptableObject_m3504774547P21CustomAttributesCache
Sid:__Z15GetPositionMeshIL20MeshDistributionMode0ELb0E11ColorRGBA32EvRN4math8floatNx3ES4_RNS2_4pix4ERK13dynamic_arrayIS1_Lj0EERK14StrideIteratorI8Vector3fESF_RKSB_I8Vector2fERKSB_IT1_ERKS7_I16MeshTriangleDataLj0EERKS7_I11MeshAreaLUTLj0EERKfRKiSX_RK16ShapeTextureDataR5RandNP12SkinMeshInfo
gFi:_InternalEnumerator_1__ctor_m236665673_gshared
eoi:_RemotingException__ctor_m1015537352
Qoo:__ZN6il2cpp2vm10Reflection7IsFieldEP12Il2CppObject
v6g:__ZL136U3CSpawnEnemyType1WaveU3Ec__Iterator5_t1046529208_CustomAttributesCacheGenerator_U3CSpawnEnemyType1WaveU3Ec__Iterator5__ctor_m4241182574P21CustomAttributesCache
Lan:_Collection_1_IsSynchronized_m1300921416_gshared
HLn:_AnalyticsEventTracker_OnDisable_m1553012800
lkp:_glTexParameteri__wrapper
$ae:__ZN5physx10PxsContext17addParticleSystemEPNS_15PxsParticleDataERKNS_26PxvParticleSystemParameterEb
X8d:__ZN5physx3Scb5Scene13addRigidNoSimINS0_4BodyELb1ELb1EEEvRT_RNS0_13ObjectTrackerE
eva:__ZN12ImmediatePtrI10GameObjectE8TransferI19StreamedBinaryWriteILb0EEEEvRT_
oTa:__ZN12CubemapArray23VirtualRedirectTransferER24GenerateTypeTreeTransfer
yma:__ZL49__ManagedRegistrationHelperFunction_RenderTexturePv
SHa:__ZNSt3__26vectorI4PPtrI6ShaderE13stl_allocatorIS3_L18MemLabelIdentifier53ELi16EEE8__appendEj
cFl:_KeyCollection_System_Collections_Generic_ICollectionU3CTKeyU3E_Add_m220590786_gshared
h_n:_U3CDefaultUnityWebRequestU3Ed__0_U3CU3Em__Finally1_m3779297382
UJo:__ZN6il2cpp2os9Directory6CreateERKNSt3__212basic_stringIcNS2_11char_traitsIcEENS2_9allocatorIcEEEEPi
g3i:_TMP_TextSelector_A_OnPointerEnter_m420863590
bIa:__ZN4PPtrI6ShaderE8TransferI18StreamedBinaryReadILb0EEEEvRT_
hSd:__ZL19sweepBoxVsTrianglesjPKN5physx10PxTriangleERKNS_2Gu3BoxERKNS_6PxVec3EfRNS_10PxSweepHitENS_7PxFlagsINS_9PxHitFlag4EnumEtEEbPKj
iza:__ZN23TransformChangeDispatch32QueueTransformChangeIfHasChangedERK15TransformAccess
h0i:_TcpClient_Connect_m1569041472
jff:_PxCreateCooking
HUd:__ZN9Rigidbody18AddForceAtPositionERK8Vector3fS2_i
Oib:__ZN15ArchiveReadFile5WriteEyPKvPy
pJo:__ZN6il2cpp2os26LibraryNamePrefixAndSuffixC2EPKcS3_
tTl:_Dictionary_2_Clear_m2183488975_gshared
T9j:_Assembly_get_FullName_m293988418
nJd:__ZN22WorldContactListener2D8PreSolveEP9b2ContactPK10b2Manifold
xMf:__ZN22BaseUnityConnectClientD0Ev
R9i:_Camera_get_pixelRect_Injected_m2326986893
aof:__ZNSt3__26__treeINS_12__value_typeIN20TextRenderingPrivate7FontRefENS2_6OSFontEEENS_19__map_value_compareIS3_S5_NS_4lessIS3_EELb1EEENS_9allocatorIS5_EEE12__find_equalIS3_EERPNS_16__tree_node_baseIPvEESI_RKT_
E$o:_Scoreboard_SaveToString_m4162145868
Wrd:__ZN27PerformanceReportingManager18ActiveSceneChangedEPS_P10UnitySceneS2_
x$m:__ZN28GenericInterfaceFuncInvoker1Ib25RejectHandler_t1435172309E6InvokeEPK10MethodInfoP12Il2CppObjectS0_
B:tempValue
NEb:__ZN18StreamedBinaryReadILb1EE21TransferSTLStyleArrayI13dynamic_arrayI8Vector4fLj0EEEEvRT_17TransferMetaFlags
xgc:__Z29StdTemplateConversionFunctionIaiEbPvR14SafeBinaryRead
T_g:__ZL48CRC32_t2128839853_CustomAttributesCacheGeneratorP21CustomAttributesCache
FUo:__ZN6il2cpp8metadata24Il2CppGenericContextHash4HashEPK20Il2CppGenericContext
zFi:_InternalEnumerator_1_get_Current_m356936020_AdjustorThunk
EAn:_DeflateManager__InitializeLazyMatch_m2220834049
X$b:__ZN6Camera21RenderODSWorldTextureERK11CullResultsRK19SharedRendererSceneR17ShaderPassContextNS_10RenderFlagE
wcn:_Collection_1_ClearItems_m3135289993_gshared
ghd:__Z25UpdateOrbitalAndRadialTplIL27ParticleSystemCurveEvalMode3ELS0_1ELS0_4EEvRK11MinMaxCurveS3_S3_S3_S3_S3_S3_R23ParticleSystemParticlesjjRKN4math8float3x3ERKNS6_7affineXERKNS6_7_float4E
T7:__Z29scripting_class_from_fullnamePKcS0_S0_
g0k:_Directory_GetCurrentDirectory_m219218555
Mdi:__Z104RuntimeInvoker_Void_t1185182177_ProgressHandlerU5BU5DU26_t3533448590_Int32_t2950945753_Int32_t2950945753PFvvEPK10MethodInfoPvPS4_
ptj:_Transform_TransformDirection_m3784028109
hFk:_SmallXmlParser_UnexpectedEndError_m1914362401
_B:__ZN26AnimatorControllerPlayable18DeallocateBindingsEv
Bkg:__ZL61FormatterTypeStyle_t3400733584_CustomAttributesCacheGeneratorP21CustomAttributesCache
rXd:__ZN5physx2Gu29ConvexVsMeshContactGeneration20generateLastContactsEv
wjd:__ZNK4PPtrI12MeshRendererEptEv
W9g:__ZL137U3CAnimateVertexColorsU3Ec__Iterator0_t897284962_CustomAttributesCacheGenerator_U3CAnimateVertexColorsU3Ec__Iterator0_Dispose_m2414077547P21CustomAttributesCache
w1h:__Z85RuntimeInvoker_Boolean_t97287965_Ray_t3785851493_Single_t1397266774_Int32_t2950945753PFvvEPK10MethodInfoPvPS4_
J5d:__ZNK5physx2Gu22SupportMapRelativeImplINS0_4BoxVEE14doSupportSweepERKNS_6shdfnd3aos5Vec3VE
_pb:__ZN14DelayedDeletorI15dense_hashtableINSt3__24pairIK9TextureIDiEES3_14GfxGenericHashIS3_EN14GfxDoubleCacheIS3_iS7_NS1_8equal_toIS3_EEN31GfxDoubleCacheConcurrencyPolicy11LocklessGetE42GfxDoubleCacheDefaultEmptyDeletedGeneratorIS3_EE9SelectKeyESA_13stl_allocatorIS5_L18MemLabelIdentifier24ELi16EEEEclEv
dUl:_Dictionary_2_CopyToCheck_m3475736769_gshared
KT:__ZN11AudioSource19CreateOpenALRolloffEfff
Mtf:_UNITY_FT_Stream_ReadAt
gwe:__ZN5physx2Sc17ParticleSystemSim16getParticleStateEv
jZn:_AudioSampleProvider_Dispose_m1993565764
$4n:_Physics_Raycast_m3336206959
T3e:__ZN5physx6shdfnd5ArrayINS_25PxsCompoundContactManagerENS0_19ReflectionAllocatorIS2_EEE8recreateEj
wll:_TimeSpan__ctor_m1896986612_AdjustorThunk
mjm:_EqualityComparer_1_System_Collections_IEqualityComparer_Equals_m1907027006_gshared
gDi:_InternalEnumerator_1_System_Collections_IEnumerator_Reset_m521819017_AdjustorThunk
eJi:_InternalEnumerator_1_get_Current_m1711665164_gshared
tpd:__Z19UpdateSingleRow2TplIL27ParticleSystemCurveEvalMode3ELS0_1EEvfRK11MinMaxCurveS3_RK23ParticleSystemParticlesPfbiii
G0c:__ZN9JSONWrite8TransferI13dynamic_arrayI5RectTIfELj0EEEEvRT_PKc17TransferMetaFlags
X0m:_List_1_System_Collections_IList_Contains_m3860993176_gshared
PWe:__ZN5physx14PxsAABBManagerC2ERNS_2Cm13EventProfilerERNS_19PxcScratchAllocatorE
tX:__ZN11AudioModule22CreateAudioClipFromWWWEP10IWWWStreamPKcbbi
rDc:__ZN9Texture2DC2E10MemLabelId18ObjectCreationMode
yOb:__Z17DebugStringToFileIA59_cEvRKT_iPKci15LogMessageFlagsiiPFvRK11CppLogEntryE
Bqi:_ObjectRecord_get_IsUnsolvedObjectReference_m1163921033
npl:_UInt32_System_IConvertible_ToBoolean_m1763673183_AdjustorThunk
Tpm:_Array_InternalArray__ICollection_CopyTo_TisTextAlignmentOptions_t4036791236_m3453113315_gshared
wdj:_UnityEvent_AddListener_m2276267359
Ts:__Z9SetLocalR15TransformAccessRKN4math7_float4Ey
_Yh:__Z35RuntimeInvoker_RangeInt_t2094684618PFvvEPK10MethodInfoPvPS4_
wKa:__ZN6prcoreL11inner_clearILj4EEEvPhjjj
Mki:_MethodCall_get_Args_m148309537
yli:_DictionaryEnumerator_get_Value_m2166220004
_5n:_NativeTypeAttribute__ctor_m1677513894
TXn:_PCMReaderCallback_BeginInvoke_m3391809637
J2:__GLOBAL__sub_I_Runtime_SceneManager_0_cpp
XMh:__Z74RuntimeInvoker_Void_t1185182177_RuntimeObject_StreamingContext_t3711869237PFvvEPK10MethodInfoPvPS4_
i8j:_NumberFormatter_FormatExponential_m1436810062
kga:__ZNK8Playable6HandleEv
Fuj:_SetPropertyUtility_SetColor_m2229203028
hMk:_Char_ConvertFromUtf32_m2726544766
yBl:_Enumerator_MoveNext_m481679286_gshared
G8f:_TMP_Text_ClearSubMeshObjects_m653221805
gaa:__ZN14MessageHandler28MessageIDToMessageIdentifierEi
IEm:_Uri_get_Query_m2772518875
Z_a:__ZNK11SpriteAtlas20GetRuntimeRenderDataEPK6Sprite
Z$k:_FileSystemInfo__ctor_m3035148496
iId:__Z13RegisterClassI17CapsuleCollider2DEvPKc
JYk:_Int32_System_IConvertible_ToDecimal_m2190376994_AdjustorThunk
Rnm:_KeyValuePair_2_set_Key_m2121548577_AdjustorThunk
uzn:_U3CStartU3Ec__Iterator0__ctor_m2366347741_gshared
Cng:__ZL88UTF7Encoding_t2644108479_CustomAttributesCacheGenerator_UTF7Encoding_GetBytes_m521917477P21CustomAttributesCache
qoa:__ZL43__ManagedRegistrationHelperFunction_Vector4Pv
Yz:__ZN7mecanim14ValueArrayCopyILb0EEEvPKNS_10ValueArrayEPS1_
rOi:_DefaultComparer__ctor_m516312884_gshared
pL:__Z51Register_UnityEngine_Animator_get_hasBoundPlayablesv
ifn:_Collection_1_CopyTo_m3142835220_gshared
ue:emscriptenWebGLGetUniform
Qp:FUNCTION_TABLE_iiiiiiiiiii
uFn:_GUI_CallWindowDelegate_m3309453386
aWl:_Enumerator_System_Collections_IEnumerator_Reset_m1475773051_AdjustorThunk
dsf:_cff_set_mm_blend
zUd:__ZN5physx2Gu19sweepCapsuleCapsuleERKNS0_7CapsuleES3_RKNS_6PxVec3EfRfRS4_S8_jRt
oSe:__ZN5physx2Gu29EPASupportMapPairRelativeImplINS0_9TriangleVENS0_11ConvexHullVEED0Ev
YMa:__Z32TransferEnumWithNameForceIntSizeI14SafeBinaryRead13TextureFormatEvRT_RT0_PKc17TransferMetaFlags
kbc:__ZL10CleanUpJobP20CullingGroupsJobData
nah:__ZL192U3CAnimateVertexColorsU3Ec__Iterator0_t168300594_CustomAttributesCacheGenerator_U3CAnimateVertexColorsU3Ec__Iterator0_System_Collections_Generic_IEnumeratorU3CobjectU3E_get_Current_m3219239971P21CustomAttributesCache
X4b:__Z20IsRunningNativeTestsv
V$k:_DirectoryInfo_get_Exists_m3142069876
w1a:__ZN10MeshFilter23VirtualRedirectTransferER24GenerateTypeTreeTransfer
kAc:__Z13RegisterClassI16LightmapSettingsEvPKc
e$b:__ZN13RenderManager15BatchModeUpdateEv
Muj:_InputField_get_onValueChanged_m2983709332
Hzl:_Enumerator_VerifyState_m1545185457_AdjustorThunk
xYi:_X509Chain_get_CertificateAuthorities_m804805415
Qfg:__ZL123GenericTypeParameterBuilder_t1988827940_CustomAttributesCacheGenerator_GenericTypeParameterBuilder_IsSubclassOf_m2266644074P21CustomAttributesCache
GPg:__ZL71ContactFilter2D_t3805203441_CustomAttributesCacheGenerator_useLayerMaskP21CustomAttributesCache
jPn:_Vector2_get_one_m738793577
IEd:__ZN10ClipperLib7Clipper15SetWindingCountERNS_5TEdgeE
UKc:__ZNK4Mesh14GetIndexFormatEv
GJf:__ZN9Scripting11UnityEngine9Analytics21AnalyticsSessionState9InitProxyEv
O5o:_TextConsoleSimulator_OnDisable_m2939709510
XOn:_Vector2_get_magnitude_m2752892833_AdjustorThunk
nmm:_GenericEqualityComparer_1__ctor_m4072188982_gshared
eie:__ZN5physx2Sc8ActorSim24postDominanceGroupChangeEv
RQj:_OrderedEnumerable_1_CreateOrderedEnumerable_TisUInt32_t2560061978_m2809766266_gshared
fFm:_UriParser_set_DefaultPort_m4007715058
agh:_TextMeshProUGUI_GetCanvas_m3181528364
cFo:__ZN14dense_hash_mapI10KeyWrapperIP12Il2CppObjectEN6il2cpp2gc9CachedCCWENS4_5utils11PointerHashIS1_EENS3_14EqualsComparerINSt3__28equal_toIS2_EEEENSB_9allocatorINSB_4pairIKS3_S6_EEEEE13set_empty_keyERSH_
LMn:_FieldWithTarget__ctor_m583221563
Me:_glVertexAttribIPointer
kfj:_Input_GetAxisRaw_m2316819917
X4f:_TMP_Text_set_fontSizeMin_m3526936629
Hrc:__ZNK6Sprite10GetPaddingE20SpriteRenderDataMode
Yie:__ZN5physx2Cm8PtrTable5clearERNS0_22PtrTableStorageManagerE
ANj:_Array_InternalArray__IEnumerable_GetEnumerator_TisWorkRequest_t1354518612_m2622205355_gshared
whi:__Z77RuntimeInvoker_KeyValuePair_2_t4237331251_Int32_t2950945753_Int32_t2950945753PFvvEPK10MethodInfoPvPS4_
uKj:_Array_InternalArray__ICollection_Remove_TisUInt32_t2560061978_m733727733_gshared
kah:__ZL100VertexShakeB_t1533164784_CustomAttributesCacheGenerator_VertexShakeB_AnimateVertexColors_m3313523349P21CustomAttributesCache
q1g:__ZL74TMP_InputField_t1099764886_CustomAttributesCacheGenerator_m_SelectionColorP21CustomAttributesCache
z0d:__ZN5physx3Cct15ObstacleContext7releaseEv
AJh:_ConstructionCall_get_CallSiteActivationAttributes_m3498917408
BTe:__ZN5physx27solveFrictionBlockWriteBackEPKNS_23PxcSolverConstraintDescEjRNS_16PxcSolverContextEPNS_25PxcThresholdStreamElementEjPi
T1k:_Stream_EndRead_m1896469262
kKh:__Z93RuntimeInvoker_Boolean_t97287965_Int32_t2950945753_SByte_t1669577662_ExceptionU26_t3600731591PFvvEPK10MethodInfoPvPS4_
Sgk:_SortedList__ctor_m1261191695
G2b:__ZN14qsort_internal5QSortIP15RODataDepthPassi17ROSorterDepthPassEEvT_S4_T0_T1_
e0n:_Canvas_get_additionalShaderChannels_m2758569541
MMi:_InternalEnumerator_1__ctor_m3322594868_gshared
vuf:_UNITY_ft_glyphslot_alloc_bitmap
M8g:__ZL145U3CStartU3Ec__Iterator0_t1520811813_CustomAttributesCacheGenerator_U3CStartU3Ec__Iterator0_System_Collections_IEnumerator_get_Current_m1242096622P21CustomAttributesCache
Bjf:__ZN13PhysicsModule21SetAutoSyncTransformsEbb
ALm:_ReadOnlyCollection_1_System_Collections_IList_Add_m3642938800_gshared
Z0j:_RSASslSignatureDeformatter_SetHashAlgorithm_m895570787
q6:__ZL36TransformAccessArray_InitializeClassPv
bFo:__ZN14dense_hash_mapI10KeyWrapperIP12Il2CppObjectEN6il2cpp2gc9CachedCCWENS4_5utils11PointerHashIS1_EENS3_14EqualsComparerINSt3__28equal_toIS2_EEEENSB_9allocatorINSB_4pairIKS3_S6_EEEEEC2EjRKS9_RKSE_
nSi:_Enumerator_System_Collections_IDictionaryEnumerator_get_Key_m554883757_AdjustorThunk
vZo:_JSON_Parse_m3730951315
IPm:_ReadOnlyCollection_1_System_Collections_ICollection_get_IsSynchronized_m2037898659_gshared
gLj:_Enumerable_Contains_TisRuntimeObject_m553751294_gshared
MYh:__Z87RuntimeInvoker_Color_t2555686324_Color_t2555686324_Color_t2555686324_Single_t1397266774PFvvEPK10MethodInfoPvPS4_
Bdf:__ZN5physx6shdfnd10Foundation19AlignCheckAllocator8allocateEjPKcS4_i
D8l:_List_1_Reverse_m576882157_gshared
oIm:_Collection_1_System_Collections_IList_get_IsReadOnly_m2288996004_gshared
ySc:__Z47Register_UnityEngine_Mesh_RecalculateBoundsImplv
xmb:__ZN9GfxDevice27UpdateComputeSkinPoseBufferEP9GfxBufferP12SkinMeshInfo
hZl:_Enumerator_get_Current_m3382684163_AdjustorThunk
iAi:_InternalEnumerator_1_System_Collections_IEnumerator_Reset_m3677481164_AdjustorThunk
Scl:_String_LastIndexOf_m3451222878
s9o:__ZNKSt3__221__basic_string_commonILb1EE20__throw_length_errorEv
hjm:_EqualityComparer_1_System_Collections_IEqualityComparer_Equals_m245992594_gshared
Zj:_JS_SystemInfo_GetMemory
NPj:_Array_InternalArray__IndexOf_TisParameterModifier_t1461694466_m1227120810_gshared
YVb:__ZN18GfxFramebufferGLES13ReadbackImageER14ImageReferenceiiiiii
tZc:__ZN5Unity9rapidjson6WriterI16TempBufferWriterNS0_4UTF8IcEES4_13JSONAllocatorE11WriteStringEPKcj
TLg:__ZL95WebRequestUtils_t3541624225_CustomAttributesCacheGenerator_WebRequestUtils_RedirectTo_m55747000P21CustomAttributesCache
Bka:__ZN6prcoreL12RemapGenericI17TexFormatARGB888815TexFormatRGB565EEvPKNS_9InnerInfoE
XO:__ZN4FMOD7Channel19setReverbPropertiesEPK29FMOD_REVERB_CHANNELPROPERTIES
EMn:_StandardEventPayload_GetParameters_m2672427676
X1j:_StreamReader_Dispose_m156389394
H9:__ZN13MonoBehaviour22GetScriptFullClassNameEv
l7l:_List_1_AddEnumerable_m1683884858_gshared
Tto:_il2cpp_object_get_class
d7k:_SymmetricAlgorithm_get_Padding_m1011382560
pIc:__ZN13ProduceHelperI11MonoManagerLb0EE7ProduceE10MemLabelId18ObjectCreationMode
U3i:_U3CAnimateVertexColorsU3Ec__Iterator0_System_Collections_Generic_IEnumeratorU3CobjectU3E_get_Current_m147625527
r4k:_RIPEMD160Managed_JJ_m112143231
_3e:__ZN5physx6shdfnd4sortIPNS_15PxsContactPatchENS_27SortBoundsPredicateManifoldENS0_19ReflectionAllocatorIS3_EEEEvPT_jRKT0_RKT1_j
S1b:__ZN13BatchRendererC2ER15RenderLoopStatsRK15RenderNodeQueuebb
WQi:_Comparer_1__ctor_m191896560_gshared
aul:_PreviousInfo_t2148130204_marshal_pinvoke_back
Wkb:__ZNK16MemoryFileSystem9EnumerateEPKcP19dynamic_block_arrayI13FileEntryInfoLj32EEbPPv19FileEnumerationFlag
pJb:__ZN13MonoBehaviour9CallAwakeEv
bxh:_PropertyBuilder_SetValue_m3164486317
kKa:__ZN20SphericalHarmonicsL211AddWeightedERKS_f
yFe:__ZN5physx2Sc24ElementInteractionMarker12onDeactivateEj
qNh:__Z82RuntimeInvoker_RuntimeObject_Int64_t3736567304_Int64_t3736567304_Int64_t3736567304PFvvEPK10MethodInfoPvPS4_
kCj:__Z14bankers_roundff
Wxb:__Z19TransferField_ArrayI17RemapPPtrTransfer27Converter_SimpleNativeClassI8GUIStyleEEvRK23StaticTransferFieldInfoR31RuntimeSerializationCommandInfoRT0_
F4:__ZL22StaticInitializeShaderPv
y1m:_List_1_Insert_m2426986470_gshared
nIi:_InternalEnumerator_1_get_Current_m3433165672_AdjustorThunk
k_c:__ZN9JSONWrite8TransferI10ColorRGBAfEEvRT_PKc17TransferMetaFlags
Qfk:_KeyMarker__ctor_m2295185526
QAo:__ZNK15dense_hashtableINSt3__24pairIK10KeyWrapperIP14Il2CppIUnknownEjEES5_N6il2cpp5utils11PointerHashIS3_EEN14dense_hash_mapIS5_jSB_NS5_14EqualsComparerINS0_8equal_toIS4_EEEENS0_9allocatorIS7_EEE9SelectKeyESG_SI_E10test_emptyERK30dense_hashtable_const_iteratorIS7_S5_SB_SK_SG_SI_E
U$d:__ZN5physx3Cct26CharacterControllerManager16createControllerERKNS_16PxControllerDescE
YOf:__ZN11UnityEngine9Analytics22EventLimitResumedEventC2EjRKN4core12basic_stringIcNS2_20StringStorageDefaultIcEEEEb
jMi:_InternalEnumerator_1__ctor_m3913006324_AdjustorThunk
aaa:__Z25scripting_method_get_name18ScriptingMethodPtr
lxc:__Z35Register_UnityEngine_Resources_Loadv
i1j:_SslCipherSuite_ComputeKeys_m661027754
nwb:__Z19TransferField_ArrayI14SafeBinaryRead16Converter_StringEvRK23StaticTransferFieldInfoR31RuntimeSerializationCommandInfoRT0_
Ckj:_Object_set_name_m291480324
mBg:__ZL68UpdateCanvasRectTransform_t1832875547_CustomAttributesCacheGeneratorP21CustomAttributesCache
Bik:_Convert_ToBoolean_m481380807
scd:__ZN14ParticleSystem17SimulateParticlesER24ParticleSystemUpdateDataR23ParticleSystemParticlesjRKfPj
Esk:_Decimal_Equals_m2486655999
Jzn:_TweenRunner_1_StopTween_m3457627707_gshared
iQo:_GC_exit_check
Fak:_AssemblyName_SetPublicKeyToken_m582470133
Gnd:__ZL24GenerateParticleGeometryIL24ParticleSystemRenderMode0ELb1ELb1EL25ParticleSystemRenderSpace4EEvPfRK22ParticleSystemTempDataRK26ParticleSystemRendererDataRK21ParticleSystemModulesRK23ParticleSystemParticlesRK31ParticleSystemParticlesTempData
_un:_InvokableCall_2_Find_m4196023330_gshared
c8l:_List_1_System_Collections_IList_get_IsFixedSize_m4102534819_gshared
XZh:__Z52RuntimeInvoker_Boolean_t97287965_HitInfo_t3229609740PFvvEPK10MethodInfoPvPS4_
mS:__ZNK4PPtrI9AudioClipEcvPS0_Ev
uJm:_Collection_1_set_Item_m11553568_gshared
A8:__Z20UnlockObjectCreationv
fXm:__ZN16VirtFuncInvoker2Ii19Color32_t2600501292S0_E6InvokeEjP12Il2CppObjectS0_S0_
Z5b:__Z34SetupObjectBakedOcclusionInForwardbRK15SharedLightDataRK26SharedLightmapSettingsDataRK15LightmapIndicesR17ShaderPassContext
Qwl:_DSAManaged_get_Random_m923751780
u6:__ZL29TransformAccessChangeCallbackPK15TransformAccessj
krd:__ZN10SizeModuleC2E10MemLabelId
IPn:_Vector3_set_Item_m1772472431_AdjustorThunk
CTn:__ZL25UnresolvedVirtualCall_141P12Il2CppObjectiaPK10MethodInfo
uxm:_Interpreter_PopulateGroup_m4042796257
CPl:_ValueCollection_System_Collections_Generic_ICollectionU3CTValueU3E_Clear_m541602619_gshared
IPf:__ZN9Scripting11UnityEngine10Networking18CertificateHandler9InitProxyEv
cUf:__ZN9Scripting11UnityEngine12Experimental2XR13TrackableType9InitProxyEv
Inl:_Type_GetProperty_m3414567179
Dzo:__ZN6il2cpp2vm13LivenessState25FieldCanContainReferencesEP9FieldInfo
nfc:__ZNSt3__26vectorINS_4pairIN4core12basic_stringIcNS2_20StringStorageDefaultIcEEEES6_EE13stl_allocatorIS7_L18MemLabelIdentifier38ELi16EEE6insertENS_11__wrap_iterIPKS7_EERSD_
iej:_RenderPipelineManager_DoRenderLoop_Internal_m3799666479
CGg:__ZL78Sprite_t280657092_CustomAttributesCacheGenerator_Sprite_get_packed_m1179604684P21CustomAttributesCache
nF:__ZN9BlobWrite8TransferI22OffsetPtrArrayTransferI9OffsetPtrIN7mecanim12statemachine18StateMachineMemoryEEEEEvRT_PKc17TransferMetaFlags
f_n:_U3CDefaultUnityWebRequestU3Ed__0__ctor_m662023811
VSo:__ZN6il2cpp2os12Cryptography23GetCryptographyProviderEv
wRn:__ZL24UnresolvedVirtualCall_27P12Il2CppObjectS0_aPK10MethodInfo
aIc:__Z13RegisterClassI14PlayerSettingsEvPKc
X$g:__ZL107KerningTable_t2322366871_CustomAttributesCacheGenerator_KerningTable_U3CSortKerningPairsU3Em__0_m2779948081P21CustomAttributesCache
Xf:_emscripten_glStencilOpSeparate
sin:_Collection_1_System_Collections_IList_IndexOf_m3894953546_gshared
e5k:_RSACryptoServiceProvider_OnKeyGenerated_m863837376
rhi:__Z78RuntimeInvoker_DictionaryEntry_t3123975638_Int32_t2950945753_Int16_t2552820387PFvvEPK10MethodInfoPvPS4_
Bmn:_PKCS12_get_Certificates_m26161562
sTi:_NameObjectCollectionBase_Init_m2525481323
Y4b:__ZN15SkyboxGenerator28GetCubemapSkyboxVertexFormatEv
ipb:__ZN19ShaderPropertySheet24SetTextureWithExplicitIDERK23FastTexturePropertyNameP7Texture9TextureID
J1l:_List_1_Insert_m1582252370_gshared
SLo:__ZN6il2cpp2vm6String8NewUtf16EPKDsi
_ri:_SByte_System_IConvertible_ToByte_m2268214252_AdjustorThunk
BJo:__ZN6il2cpp2os10ThreadImpl12QueueUserAPCEPFvPvES2_
I1m:_List_1_get_Capacity_m3047075120_gshared
pU:__Z32TransferEnumWithNameForceIntSizeI14SafeBinaryReadN10SampleClip17CompressionFormatEEvRT_RT0_PKc17TransferMetaFlags
pDm:_RegularExpression__ctor_m119502265
lPf:__ZN22BaseUnityConnectClient10QueueEventERN11UnityEngine15CloudWebService17CloudServiceEventEPKcjb
s1d:__ZN5physx12PxControllerD2Ev
O3o:_JSONObject_Remove_m3544892468
OOm:_ReadOnlyCollection_1_System_Collections_Generic_ICollectionU3CTU3E_Clear_m522482168_gshared
E9h:__Z60RuntimeInvoker_Boolean_t97287965_PlayerLoopSystem_t105772105PFvvEPK10MethodInfoPvPS4_
Lck:_DerivedType_IsByRefImpl_m2585680005
CJh:_ConstructionCall_InitMethodProperty_m2021094586
WPc:__Z27Texture_CUSTOM_GetDataWidthP12Il2CppObject
aUd:__ZNK5physx2Gu15HeightFieldUtil12traceSegmentI25CapsuleTraceSegmentReportLb0ELb0ELb1EEEvRKNS_6PxVec3ES6_PT_PS5_
Xvk:_Array_Sort_TisChar_t3634460470_m2306966989_gshared
Ezd:__ZN7b2World19ContactsCollideTaskEv
f$d:__ZN5physx3Cct17CapsuleController13setStepOffsetEf
bQl:_ValueCollection_System_Collections_Generic_ICollectionU3CTValueU3E_Add_m3595439229_gshared
Mbd:__Z9UpdateTplIL27ParticleSystemCurveEvalMode1EEvRK11MinMaxCurveR23ParticleSystemParticlesjjbjRK8Vector2f
aYe:__ZN5physx10PxsContext23prepareCMDiscreteUpdateEPNS_10PxBaseTaskE
ZKg:__ZL95TextGenerator_t3211863866_CustomAttributesCacheGenerator_TextGenerator_get_lineCount_m916872812P21CustomAttributesCache
mZg:__ZL74CanvasScaler_t2767979955_CustomAttributesCacheGenerator_m_DefaultSpriteDPIP21CustomAttributesCache
zie:__ZN5physx6shdfnd5ArrayIPvNS0_19ReflectionAllocatorINS_2Cm5BlockIhLj256EEEEEE4copyINS0_15InlineAllocatorILj256ES7_EEEEvRKNS1_IS2_T_EE
og:_emscripten_glGetError
mpo:__ZN15dense_hashtableINSt3__24pairIK10KeyWrapperIPK14Il2CppAssemblyEPK22Il2CppMonoAssemblyNameEES6_N6il2cpp5utils11PointerHashIS4_EEN14dense_hash_mapIS6_SA_SF_NS6_14EqualsComparerINS0_8equal_toIS5_EEEENS0_9allocatorISB_EEE9SelectKeyESK_SM_E14squash_deletedEv
qWf:_TMP_Dropdown_CreateBlocker_m1312254317
OEk:_SmallXmlParser__ctor_m202236734
ZP:__Z14FMOD_FILE_SeekPvjS_
B2g:__ZL204U3CDoSpriteAnimationInternalU3Ec__Iterator0_t827549206_CustomAttributesCacheGenerator_U3CDoSpriteAnimationInternalU3Ec__Iterator0_System_Collections_Generic_IEnumeratorU3CobjectU3E_get_Current_m2925267283P21CustomAttributesCache
fme:__ZN5physx6shdfnd8PoolBaseINS_11NpAggregateENS0_19ReflectionAllocatorIS2_EEE15disposeElementsEv
$nh:_CanvasUpdateRegistry__ctor_m2005397069
gMa:__ZN7TextureC2E10MemLabelId18ObjectCreationMode
Vxj:_LayoutGroup__ctor_m2162961217
oTd:__ZThn4_N16RayRTreeCallbackILi1ELb1EE14processResultsEjPj
yGf:__ZZN2UI6Canvas15InitializeClassEvEN39FunctorImpl_1449kCanvasHierarchyChanged4CallEPviR11MessageData
zrl:_ValueType_t3640485471_marshal_pinvoke_cleanup
vcc:__ZNK13RenderTexture32CalculateNeedsInvertedProjectionEv
n0d:__ZN5physx2Gu17RadixSortBuffered4SortEPKfj
wg:emscriptenWebGLGet
vca:__Z19CanReplaceComponentRN5Unity9ComponentEPKNS_4TypeEPN4core12basic_stringIcNS5_20StringStorageDefaultIcEEEE
h4j:_UnmanagedMemoryStream_Flush_m1540584491
mhn:_Collection_1_GetEnumerator_m3986802482_gshared
HWk:_GuidParser_ParseGuid2_m1914838819
RFc:__ZN12CubemapArray11InitTextureEiii13TextureFormatb
qSa:__ZN6prcoreL18BlitIntegerToFloatERK14ImageReferenceRS0_
eTi:_ListDictionary_get_SyncRoot_m4242825143
jhi:__Z36RuntimeInvoker_Enumerator_t185561725PFvvEPK10MethodInfoPvPS4_
Mkd:__ZN32CustomDataModulePropertyBindings13SetFloatValueER14ParticleSystemif
Wrc:__Z17GetSceneBuildInfoRKN4core12basic_stringIcNS_20StringStorageDefaultIcEEEEiR14SceneBuildInfo
f7l:_List_1_System_Collections_IList_get_Item_m1112579679_gshared
Uzh:_MonoMethodInfo_GetCallingConvention_m3156036493
Byi:_InternalEnumerator_1_System_Collections_IEnumerator_get_Current_m55999184_gshared
w0f:_TMP_MeshInfo__ctor_m2732078488
Dfi:__Z57RuntimeInvoker_RaycastHit2D_t2279581989_Int32_t2950945753PFvvEPK10MethodInfoPvPS4_
lQo:_GC_print_all_errors
bmo:__ZN24dense_hashtable_iteratorINSt3__24pairIK10KeyWrapperIPK10Il2CppTypeEjEES6_N6il2cpp8metadata14Il2CppTypeHashEN14dense_hash_mapIS6_jSB_NS6_14EqualsComparerINSA_26Il2CppTypeEqualityComparerEEENS0_9allocatorIS8_EEE9SelectKeyESF_SH_E30advance_past_empty_and_deletedEv
eJn:_DownloadHandlerBuffer_GetData_m752341367
VEo:__ZN6il2cpp2os6Socket15SetSocketOptionENS0_17SocketOptionLevelENS0_16SocketOptionNameEi
ath:_Graphic_get_depth_m815589653
h5d:__ZN27ConvexVsMeshOverlapCallbackC2ERKN5physx2Gu10ConvexMeshERKNS0_11PxMeshScaleERKNS0_2Cm23FastVertex2ShapeScalingERKNS0_11PxTransformESE_bRKNS1_3BoxE
GMc:__Z18SetIParticleSystemP15IParticleSystem
gph:_ContentSizeFitter_get_horizontalFit_m2773126143
syj:_LayoutGroup_SetLayoutInputForAxis_m2458344630
WF:__ZN7mecanim5human13HumanFixTwistEPKNS0_5HumanEPNS_8skeleton13SkeletonPoseTIN4math4trsXEEES9_iiRKf
uLf:__ZN11UnityEngine15PlatformWrapper12GetBuildTagsEv
M5b:__ZL24AssignProjectorQueuesJobP30AssignProjectorQueuesJobHeader
AUl:_KeyValuePair_2_get_Key_m1218836954_gshared
zCh:_ParameterModifier_t1461694466_marshal_pinvoke
Rnc:__ZNSt3__26vectorIN9ShaderLab20SerializedSubProgram15StructParameterENS_9allocatorIS3_EEE21__push_back_slow_pathIS3_EEvOT_
SXk:_Int16_System_IConvertible_ToUInt32_m3410279543
Enc:__ZN9ShaderLab20SerializedSubProgram14SetConstBufferEPKci
Xad:__ZN11ShapeModule9ResetSeedERK27ParticleSystemReadOnlyState
dko:__ZN6il2cpp2os4File5CloseEPNS0_10FileHandleEPi
hco:__ZNSt3__27__sort5IRN6il2cpp5utils11collections13ArrayValueMapIPK10Il2CppType17Il2CppInteropData26InteropDataToTypeConverterNS1_8metadata14Il2CppTypeLessENSA_26Il2CppTypeEqualityComparerEE12SortComparerEPS8_EEjT0_SH_SH_SH_SH_T_
csj:_Touch_get_fingerId_m859576425_AdjustorThunk
hjf:__ZN13PhysicsModule17SetRigidBodyStateER9RigidbodyRKN8IPhysics14RigidBodyStateE
Y8h:__Z48RuntimeInvoker_Boolean_t97287965_Link_t544317964PFvvEPK10MethodInfoPvPS4_
PPh:__Z32RuntimeInvoker_Int16_t2552820387PFvvEPK10MethodInfoPvPS4_
tpf:_cf2_getStdVW
W$m:_List_1_System_Collections_ICollection_CopyTo_m2688165607_gshared
c8h:__Z53RuntimeInvoker_UIVertex_t4057497605_Int32_t2950945753PFvvEPK10MethodInfoPvPS4_
Tol:_UInt16_CompareTo_m2664746316_AdjustorThunk
_Pl:_ValueCollection_GetEnumerator_m616748621_gshared
tlb:__ZN9GfxDevice13SetActiveTierE12GraphicsTier
cPe:__ZN5physx2Sq12BucketPruner11shiftOriginERKNS_6PxVec3E
Y2c:__Z29Transfer_Blittable_ArrayFieldI8JSONReadjEvRT_R9ArrayInfoRK23StaticTransferFieldInfo
y8d:__ZN5physx6shdfnd5ArrayIPNS_2Sc16ArticulationCoreENS0_19ReflectionAllocatorIS4_EEE15growAndPushBackERKS4_
O1h:__Z54RuntimeInvoker_Vector2_t2156229523_Vector2_t2156229523PFvvEPK10MethodInfoPvPS4_
tcn:_Collection_1_System_Collections_IList_set_Item_m3711172521_gshared
oQo:_GC_check_finalizer_nested
Pvh:_Image__cctor_m1927508576
ch:__setLetterbox
lEj:_ScrollRect_OnScroll_m3861066534
z2e:__ZN5physx19normalizePartitionsERNS_6shdfnd5ArrayIjNS0_19ReflectionAllocatorIjEEEEPNS_23PxcSolverConstraintDescEPKNS_13PxcSolverBodyEjjS5_
JIj:_Array_InternalArray__ICollection_Contains_TisResourceCacheItem_t51292791_m2991582559_gshared
lGg:__ZL72FormerlySerializedAsAttribute_t2859083114_CustomAttributesCacheGeneratorP21CustomAttributesCache
_tj:_OnValidateInput_Invoke_m1009124904
kYd:__ZN18ContactCapsuleMesh20processTriangleCacheILj16EEEbRN5physx2Gu13TriangleCacheIXT_EEE
gAm:_PatternCompiler_EmitFastRepeat_m3012952683
L3a:__ZNSt3__26vectorI17BlendShapeChannelNS_9allocatorIS1_EEE6assignINS_11__wrap_iterIPS1_EEEENS_9enable_ifIXaasr21__is_forward_iteratorIT_EE5valuesr16is_constructibleIS1_NS_15iterator_traitsISA_E9referenceEEE5valueEvE4typeESA_SA_
zOb:__Z12SetGfxDeviceP9GfxDevice
thc:__ZN11TimeManager11GetRealtimeEv
BCg:__ZL91RectOffset_t1369453676_CustomAttributesCacheGenerator_RectOffset_get_horizontal_m2663785949P21CustomAttributesCache
LXf:_TMP_InputField_get_isFocused_m859964129
ykj:_Object_GetHashCode_m1944636947
e4d:__ZN5physx2Sc16InteractionScene25removeFromActiveActorListERNS0_5ActorE
VWn:__ZL25UnresolvedVirtualCall_322P12Il2CppObject22SpriteData_t3048397587PK10MethodInfo
Nfo:__ZN6il2cpp6icalls6System6System3Net7Sockets6Socket4BindEiP19Il2CppSocketAddressPi
tQ:__ZN29AudioEffectInternalDefinitionC2EP26UnityAudioEffectDefinitionb
RUm:_ReadOnlyCollection_1_System_Collections_IList_Remove_m2434650390_gshared
kpl:_UInt16_ToString_m3056878594_AdjustorThunk
YH:__ZN4PPtrI6AvatarE8TransferI18StreamedBinaryReadILb0EEEEvRT_
V$g:__ZL76KerningTable_t2322366871_CustomAttributesCacheGenerator_U3CU3Ef__amU24cache0P21CustomAttributesCache
yem:_Dictionary_2_System_Collections_Generic_ICollectionU3CSystem_Collections_Generic_KeyValuePairU3CTKeyU2CTValueU3EU3E_Contains_m2803718146_gshared
C5c:__ZNK11MinMaxCurve20FindMinMaxIntegratedEv
cMd:__ZN5physx3Ext21InertiaTensorComputer6rotateERKNS_7PxMat33E
XAl:_Enumerator_System_Collections_IDictionaryEnumerator_get_Value_m2179213088_gshared
rah:__ZL95VertexZoom_t550798657_CustomAttributesCacheGenerator_VertexZoom_AnimateVertexColors_m3033224630P21CustomAttributesCache
zso:__ZNSt3__2plIcNS_11char_traitsIcEENS_9allocatorIcEEEENS_12basic_stringIT_T0_T1_EERKS9_PKS6_
Zrj:_Time_get_unscaledDeltaTime_m4270080131
VMf:__ZN18UnityConnectClient27OnPlayerSessionStateChangedEjyy
WRa:_stbir_resize
QOj:_Array_IndexOf_TisCustomAttributeTypedArgument_t2723150157_m3158556463_gshared
Eim:_EqualityComparer_1_System_Collections_IEqualityComparer_GetHashCode_m360549782_gshared
vRk:_Environment_GetOSVersionString_m407782784
yel:_DecoderExceptionFallback_Equals_m1082173956
oxi:_U3CGetEnumeratorU3Ec__Iterator0__ctor_m1150758267_gshared
wgg:__ZL69Assembly_t_CustomAttributesCacheGenerator_Assembly_GetName_m981771927P21CustomAttributesCache
Xma:__ZL59__ManagedRegistrationHelperFunction_AsyncGPUReadbackRequestPv
Ono:__ZN15dense_hashtableINSt3__24pairIK10KeyWrapperINS1_IPK12PropertyInfoP11Il2CppClassEEEjEES9_17ReflectionMapHashIS8_EN14dense_hash_mapIS9_jSD_NS9_14EqualsComparerINS0_8equal_toIS8_EEEENS0_9allocatorISB_EEE9SelectKeyESI_SK_E5clearEv
mzg:__ZL93Mesh_t3648964284_CustomAttributesCacheGenerator_Mesh_GetAllocArrayFromChannelImpl_m3084065604P21CustomAttributesCache
E1a:__ZN4PPtrI4MeshE8TransferI14SafeBinaryReadEEvRT_
Hwd:__ZN24b2ChainAndCapsuleContact6CreateEP9b2FixtureiS1_iP16b2BlockAllocator
jjb:__Z37ReadDirectoryInfo_UnityWebAndUnityRawR12FileAccessorRKN20ArchiveStorageHeader6HeaderERNS1_13DirectoryInfoE
H6:__ZNSt3__26__treeINS_12__value_typeIPKciEENS_19__map_value_compareIS3_S4_15compare_tstringIS3_ELb1EEENS_9allocatorIS4_EEE7destroyEPNS_11__tree_nodeIS4_PvEE
Prn:_TMP_ObjectPool_1__ctor_m3382945102_gshared
Yqm:_Array_InternalArray__Insert_TisIntPtr_t_m189626842_gshared
zWi:_IPEndPoint_Equals_m306328693
pzi:_InternalEnumerator_1_System_Collections_IEnumerator_get_Current_m2062365953_AdjustorThunk
$rl:_Locale_GetText_m3374010885
eIm:_Collection_1_System_Collections_IEnumerable_GetEnumerator_m1598238343_gshared
upn:_RijndaelManaged_CreateEncryptor_m263736311
dll:_WaitCallback__ctor_m1893321019
lgo:__ZN6il2cpp6icalls6System6System3Net7SocketsL19check_thread_statusEv
D2b:__ZN20DynamicPropertySheet14SetValueQueuedEN9ShaderLab16FastPropertyNameEN19ShaderPropertySheet12PropertyTypeEjNS2_8SetFlagsE
bYo:_U3CDelayU3Ec__Iterator1_System_Collections_IEnumerator_get_Current_m4036500312
bdj:_InvokableCallList_ClearPersistent_m1904264973
ehd:__Z25UpdateOrbitalAndRadialTplIL27ParticleSystemCurveEvalMode3ELS0_1ELS0_2EEvRK11MinMaxCurveS3_S3_S3_S3_S3_S3_R23ParticleSystemParticlesjjRKN4math8float3x3ERKNS6_7affineXERKNS6_7_float4E
zKb:__ZN25PathNamePersistentManagerD2Ev
aab:__ZN17PersistentManager48IntegrateObjectAndUnlockIntegrationMutexInternalEi
Z_f:_TMP_InputField_GenerateCaret_m2588630787
OEg:__ZL85NativeDisableUnsafePtrRestrictionAttribute_t2582701661_CustomAttributesCacheGeneratorP21CustomAttributesCache
XIj:_Array_InternalArray__ICollection_Contains_TisSpriteData_t3048397587_m4000778412_gshared
Yia:__ZZ29InitializeSortingGroupManagerPvEN44PostLateUpdateSortingGroupsUpdateRegistrator7ForwardEv
WSg:__ZL55EventTrigger_t1076084509_CustomAttributesCacheGeneratorP21CustomAttributesCache
Q9k:_SecurityElement_SearchForChildByTag_m900466299
hr:__ZN6Object12SetHideFlagsENS_9HideFlagsE
FVl:_Enumerator_VerifyState_m4044446453_gshared
E1o:_JSONNode_get_Keys_m4169455915
Pvd:__ZN9b2Fixture11SynchronizeEP12b2BroadPhaseRK11b2TransformS4_
zOd:__ZN9Rigidbody23VirtualRedirectTransferER14SafeBinaryRead
Cmk:_Convert_ToSingle_m3227075028
Xgp:_emscripten_glGetFramebufferAttachmentParameteriv__wrapper
Lbc:__ZN13RendererScene15InitializeUmbraEv
VLl:__ZN21InterfaceFuncInvoker2I26KeyValuePair_2_t2401056908P12Il2CppObjectiE6InvokeEjP11Il2CppClassS2_S2_i
xIa:__Z28CalculateGlobalMatrixInverse23TransformAccessReadOnly
Yij:_MonoBehaviour__ctor_m1579109191
vOg:__ZL59GUITargetAttribute_t25796337_CustomAttributesCacheGeneratorP21CustomAttributesCache
mjd:__ZN23ParticleSystemParticles17SetUsesCustomDataEi
amm:_GenericEqualityComparer_1_Equals_m3457564127_gshared
PSj:_BigInteger_ModInverse_m2426215562
Eha:__ZN17CallbackArrayBaseIPFvPK9IndexListPK16RendererCullDataEPFvPKvS2_S5_EE8RegisterES7_SB_S9_
SBi:_InternalEnumerator_1_System_Collections_IEnumerator_Reset_m2386791007_AdjustorThunk
uel:_DecoderExceptionFallback__ctor_m4044614564
KDi:_InternalEnumerator_1_System_Collections_IEnumerator_Reset_m3011999097_AdjustorThunk
uwe:__ZNK5physx15PxsParticleData15getWorldBoundsVEv
Vuo:__ZN6il2cpp2vm6Thread17FullMemoryBarrierEv
m4j:_LocalDataStoreSlot__cctor_m644942532
zMl:_Transform_1_BeginInvoke_m3697921475_gshared
DZd:__ZN12_GLOBAL__N_124HfTrianglesEntityReport27onEventEjPj
DUo:__ZN6il2cpp6icalls8mscorlib6System6Object7GetTypeEP12Il2CppObject
wBh:_MonoProperty_CachePropertyInfo_m2968057423
Uye:__ZN5physx22NpParticleBaseTemplateINS_16PxParticleSystemENS_16NpParticleSystemEE17setStaticFrictionEf
QPf:__ZNK25UnityWebRequestJavaScript18GetDownloadedBytesEv
xnj:_Ray_GetPoint_m1852405345_AdjustorThunk
Keg:__ZL53RegionInfo_t1090270226_CustomAttributesCacheGeneratorP21CustomAttributesCache
rRg:__ZL85Canvas_t3310196443_CustomAttributesCacheGenerator_Canvas_get_sortingOrder_m1860900812P21CustomAttributesCache
U9f:__ZL74Single_t1397266774_CustomAttributesCacheGenerator_Single_IsNaN_m4024467661P21CustomAttributesCache
yhe:__ZN5physx17PxsContactManager16resetCachedStateEv
aQf:__ZN12HeaderHelper14SetUnvalidatedERKN4core12basic_stringIcNS0_20StringStorageDefaultIcEEEES6_b
BO:__ZN4FMOD6SoundI7releaseEv
rBe:__ZN5physx20NpRigidActorTemplateINS_14PxRigidDynamicEE15setActorSimFlagEb
K1a:__ZN14SpriteRenderer13AwakeFromLoadE17AwakeFromLoadMode
Wqf:_cff_parse_num
Njb:__ZN10MemoryFile9SetLengthEy
r3c:__ZN8JSONRead21TransferSTLStyleArrayI13dynamic_arrayI11ColorRGBA32Lj0EEEEvRT_17TransferMetaFlags
$J:__ZZN26AnimatorOverrideController15InitializeClassEvEN42FunctorImpl_85kDidModifyAnimatorController4CallEPviR11MessageData
Bud:__ZNK15b2RevoluteJoint10GetAnchorBEv
S$d:__ZNK5physx3Cct26CharacterControllerManager16getNbControllersEv
UJb:__Z28scripting_class_is_interface17ScriptingClassPtr
ti:_glTexStorage2D
bgk:_SyncHashtable_get_Item_m2686606216
KOa:__ZNK9ShaderLab10SubProgram14EnsureCompiledEv
Cfk:_MethodBuilder_GetGenericArguments_m1765425737
zpk:_DateTime_CompareTo_m3687348273
ynm:_KeyValuePair_2_get_Key_m2288232422_AdjustorThunk
Aqk:_DateTime_ToUniversalTime_m1945318289_AdjustorThunk
uif:__ZN5physx7profile10DataBufferINS_6shdfnd6MutexTINS0_26WrapperReflectionAllocatorIhEEEENS0_14ScopedLockImplIS6_EEE17handleBufferFlushEPKhj
Juk:_Enum_t4135868527_marshal_pinvoke
qlk:_Convert_ToInt16_m1336719169
S9:__Z18BuildScriptClassId17ScriptingClassPtr
b$n:_TextGenerator_Init_m1168488231
myl:_RSAManaged_Finalize_m3915335854
er:__ZNK16LevelGameManager7GetNameEv
vhb:__ZL31DeleteLastPathNameComponentImplRKN4core12basic_stringIcNS_20StringStorageDefaultIcEEEEPKc
trk:_DBNull_System_IConvertible_ToUInt64_m4072736670
YJf:__ZN18UnityConnectClient15GetCloudServiceEv
Gvb:__Z29Transfer_Blittable_ArrayFieldI14SafeBinaryRead5RectTIiEEvRT_R9ArrayInfoRK23StaticTransferFieldInfo
k5e:__ZN5physx20PxsConstraintProjectEPKNS_13PxsConstraintEbf
bpe:__ZN5physx7NpShape7setFlagENS_11PxShapeFlag4EnumEb
yEi:_InternalEnumerator_1_get_Current_m2698009637_gshared
Kfo:__ZN6il2cpp2os19SocketHandleWrapperD2Ev
X8l:_List_1_System_Collections_IList_Insert_m2850345481_gshared
nkj:_U3CAddAndCreateU3Ec__AnonStorey1__ctor_m1186055370
lwd:__ZN15b2CircleContact6CreateEP9b2FixtureiS1_iP16b2BlockAllocator
OJb:__ZL28SerializationCommandGroupForRK31TransferFunctionScriptingTraits17ScriptingClassPtr17ScriptingFieldPtrRK20CoreScriptingClasses
qxa:__ZN10TagManager32RegisterDefaultTagsAndLayerMasksEv
qll:_WaitHandle_Dispose_m738127030
OJi:_InternalEnumerator_1__ctor_m1515092833_gshared
Z3m:_List_1_System_Collections_IList_get_IsReadOnly_m1729002068_gshared
vTh:__Z50RuntimeInvoker_Double_t594665363_Int32_t2950945753PFvvEPK10MethodInfoPvPS4_
Ppn:_Predicate_1_EndInvoke_m1490920825_gshared
drg:__ZL78LoaderOptimization_t1484956347_CustomAttributesCacheGenerator_DisallowBindingsP21CustomAttributesCache
ATi:__KeysEnumerator__ctor_m1664513423
h1e:__ZN5physx2Sc35ParticleElementRbElementInteraction12onDeactivateEj
M2h:__Z104RuntimeInvoker_Void_t1185182177_Color_t2555686324_Single_t1397266774_SByte_t1669577662_SByte_t1669577662PFvvEPK10MethodInfoPvPS4_
w3m:_List_1_Remove_m3853969205_gshared
zZl:_Enumerator_System_Collections_IEnumerator_get_Current_m1540440674_gshared
JFn:_GUIUtility_Internal_GetPixelsPerPoint_m290411053
j2l:_List_1_System_Collections_ICollection_get_IsSynchronized_m1235563358_gshared
Lal:_Single_System_IConvertible_ToInt16_m809233024_AdjustorThunk
ewg:__ZL64FreeFunctionAttribute_t2020741617_CustomAttributesCacheGeneratorP21CustomAttributesCache
rJf:__Z56Register_UnityEngine_Analytics_CustomEventData_AddUInt32v
F7o:_fmodf
gVl:_LinkedList_1_System_Collections_IEnumerable_GetEnumerator_m854819135_gshared
hKd:__Z75Register_UnityEngine_Physics2D_GetRayIntersectionNonAlloc_Internal_Injectedv
eTb:__ZN4gles8InitCapsEP7ApiGLESP12GraphicsCapsR16GfxDeviceLevelGL
mSa:__ZN6prcore14BlitImageFloatERK14ImageReferenceRS0_NS0_8BlitModeE
o7h:__Z91RuntimeInvoker_Void_t1185182177_RuntimeObject_RuntimeObject_Int32_t2950945753_RuntimeObjectPFvvEPK10MethodInfoPvPS4_
SJa:__Z24CalculateVertexLightDataRK15SharedLightDataR14GfxVertexLight
bj:_glEnable
Ano:__ZN15dense_hashtableINSt3__24pairIK10KeyWrapperINS1_IPK12PropertyInfoP11Il2CppClassEEEjEES9_17ReflectionMapHashIS8_EN14dense_hash_mapIS9_jSD_NS9_14EqualsComparerINS0_8equal_toIS8_EEEENS0_9allocatorISB_EEE9SelectKeyESI_SK_E15insert_noresizeERKSB_
Xra:__ZN9Scripting11UnityEngine33ExcludeFromObjectFactoryAttribute12CleanupProxyEv
GOa:__ZNK9ShaderLab7Program28BeginReadUnsupportedVariantsEv
bva:__ZN12CachedWriter11Align4WriteEv
Q$o:_SeedMenu__ctor_m833782546
F8a:__ZNSt3__26vectorIN30RuntimeInitializeOnLoadManager9ClassInfoE13stl_allocatorIS2_L18MemLabelIdentifier13ELi16EEE7reserveEj
NKe:__ZN5physx2Sq8AABBTreeC2Ev
Nzm:_PatternCompiler_EmitCategory_m851169746
w_c:__Z35Transfer_Blittable_FixedBufferFieldI9JSONWriteiEvRK29SerializationCommandArgumentsR31RuntimeSerializationCommandInfo
CKg:__ZL85AudioSource_t3935305588_CustomAttributesCacheGenerator_AudioSource_set_clip_m31653938P21CustomAttributesCache
tkd:__ZN11TrailModuleD2Ev
Vul:_BigInteger_op_Subtraction_m1575155386
SB:__ZN26AnimatorControllerPlayable17ProcessRootMotionEP35AnimationPlayableEvaluationConstantP32AnimationPlayableEvaluationInputP33AnimationPlayableEvaluationOutput
pWj:_RSAManaged_ImportParameters_m1117427048
skg:__ZL54SoapServices_t133988723_CustomAttributesCacheGeneratorP21CustomAttributesCache
M3j:_UnexceptionalStreamReader_Peek_m1842169584
_bh:_KerningPair_get_firstGlyph_m2782169529
bMn:_AnalyticsTracker_SendEvent_m2955089255
aLf:__ZN11UnityEngine7Connect15DeviceInfoEvent16CollectExtraInfoEv
OMo:__ZN6il2cpp2os11Environment22SetEnvironmentVariableERKNSt3__212basic_stringIcNS2_11char_traitsIcEENS2_9allocatorIcEEEESA_
k8m:_Queue_1_System_Collections_IEnumerable_GetEnumerator_m3464578225_gshared
VQn:_TypeInferenceRuleAttribute__ctor_m2736695831
l8e:__ZN5physx2Gu10ConvexMeshD2Ev
zXg:__ZL66Navigation_t3049316579_CustomAttributesCacheGenerator_m_SelectOnUpP21CustomAttributesCache
dpo:__ZN6il2cpp2gc19AppendOnlyGCHashMapIPK10Il2CppTypeP20Il2CppReflectionTypeNS_8metadata14Il2CppTypeHashENS7_26Il2CppTypeEqualityComparerEEC2Ev
pQn:_Vector4_Equals_m1779210055_AdjustorThunk
eLa:__ZN17LightBakingOutput8TransferI19StreamedBinaryWriteILb0EEEEvRT_
Q8o:_atoi
iZb:__ZN20ArchiveStorageReader10InitializeER15FileSystemEntryyb
R8o:_atol
hNo:__ZThn8_N6il2cpp2vm13CachedCCWBaseINS0_13ManagedObjectEE6AddRefEv
dzf:_New_Profile
PLm:_ReadOnlyCollection_1_GetEnumerator_m3690861713_gshared
Wul:_ModulusRing_BarrettReduction_m167376748
nmi:_RemotingServices_GetRealProxy_m2081098851
xwl:_BlockProcessor_Core_m189015002
jao:__ZN15dense_hashtableINSt3__24pairIK10KeyWrapperIPKcEP11Il2CppClassEES5_N6il2cpp5utils11StringUtils12StringHasherIS4_EEN14dense_hash_mapIS5_S8_SE_NS5_14EqualsComparerINSB_13VmStringUtils21CaseSensitiveComparerEEENS0_9allocatorIS9_EEE9SelectKeyESJ_SL_EC2EjRKSE_RKSJ_RKSN_
dhp:_emscripten_glScissor__wrapper
dSf:__Z47UnityWebRequest_CUSTOM_InternalSetRequestHeaderP12Il2CppObjectP12Il2CppStringS2_
Up:FUNCTION_TABLE_viifi
Xp:FUNCTION_TABLE_viiff
s2d:__ZNK5physx2Sc8ShapeSim10getBodySimEv
o0f:_U3CGetBaseMaterialU3Ec__AnonStorey0_U3CU3Em__0_m4018174143
lEk:_X501__cctor_m1166912714
RTg:__ZL102PointerEventData_t3807901092_CustomAttributesCacheGenerator_PointerEventData_set_lastPress_m2928324031P21CustomAttributesCache
fvl:_PrimalityTests_Test_m2932837908
mcg:__ZL37Type_t_CustomAttributesCacheGeneratorP21CustomAttributesCache
Uu:__ZN9Scripting11UnityEngine14AnimationState9InitProxyEv
Myd:__ZNSt3__26__sortIRN18Overlap2DQueryBase29ColliderHitsByDepthComparitorEPP10Collider2DEEvT0_S7_T_
G9i:_Bounds_ToString_m4208690781
ivo:__ZN15dense_hashtableINSt3__24pairIK10KeyWrapperINS1_IP11Il2CppClassjEEES4_EES6_N6il2cpp8metadata14ArrayClassHashEN14dense_hash_mapIS6_S4_SB_NS6_14EqualsComparerINSA_17ArrayClassCompareEEENS0_9allocatorIS8_EEE9SelectKeyESF_SH_E5clearEv
y5h:__Z57RuntimeInvoker_Void_t1185182177_VertexGradient_t345148380PFvvEPK10MethodInfoPvPS4_
bPh:__Z88RuntimeInvoker_RuntimeObject_RuntimeObject_RuntimeObject_Int32_t2950945753_RuntimeObjectPFvvEPK10MethodInfoPvPS4_
I9n:__ZNSt3__218uninitialized_copyIPNS_4pairIK10KeyWrapperIPK11Il2CppClassEPKcEESB_EET0_T_SD_SC_
jro:__ZN6il2cpp2vm14TypeNameParser5ParseEb
nHg:__ZL100GameObject_t1113636619_CustomAttributesCacheGenerator_GameObject_SendMessage_m3720186693____options2P21CustomAttributesCache
p2j:_StreamWriter_Initialize_m3490883444
Vnl:_Type_GetGenericArguments_m3500465462
ifo:__ZN15dense_hashtableINSt3__24pairIK10KeyWrapperIP9FieldInfoEiEES5_N6il2cpp5utils11PointerHashIS3_EEN14dense_hash_mapIS5_iSB_NS5_14EqualsComparerINS0_8equal_toIS4_EEEENS0_9allocatorIS7_EEE9SelectKeyESG_SI_E12resize_deltaEjj
Die:__ZN5physx6shdfnd5ArrayIPvNS0_19ReflectionAllocatorINS_2Cm5BlockIhLj128EEEEEE15growAndPushBackERKS2_
DOf:__ZN23UnityPurchasingSettingsC2Ev
S4a:__ZNK9Transform13GetWorldScaleEv
s4o:_TileController_SpawnBackgroundSpaceShip_m3367612859
Ezh:_Module_IsDefined_m2423524910
kZi:_X509Certificate2Enumerator__ctor_m1083666285
mNg:__ZL60EventType_t3528516131_CustomAttributesCacheGenerator_repaintP21CustomAttributesCache
gCa:__ZN17GPUFenceInternals7ReleaseEv
mYg:__ZL66Selectable_t3250028441_CustomAttributesCacheGenerator_m_NavigationP21CustomAttributesCache
XCh:_ResolveEventHandler__ctor_m1911137231
F7d:__ZN5physx2Sc11Interaction10onActivateEj
JTd:__ZNK5physx2Gu29EPASupportMapPairRelativeImplINS0_4BoxVENS0_11ConvexHullVEE6getDirEv
Jpe:__ZN5physx14NpShapeManager15setupSceneQueryERNS_2Sq17SceneQueryManagerERKNS_12PxRigidActorERKNS_7NpShapeE
wcc:__ZL10RenderFaceR9GfxDeviceR18MaterialStateCacheP13RenderTextureiif
POj:_Array_IndexOf_TisCustomAttributeNamedArgument_t287865710_m2817957199_gshared
x1g:__ZL76TMP_InputField_t1099764886_CustomAttributesCacheGenerator_m_OnFocusSelectAllP21CustomAttributesCache
WNm:_ReadOnlyCollection_1_System_Collections_IList_RemoveAt_m1980090087_gshared
Qln:_ExtendedKeyUsageExtension_ToString_m2116504780
hdb:__ZNK5Unity9Component38MarkGameObjectAndComponentDependenciesER27GarbageCollectorThreadState
f5e:__ZN22ScAfterIntegrationTask11runInternalEv
q$k:_BinaryReader_Read_m3708759962
oae:__ZNK5physx2Sc9ClothCore23getExternalAccelerationEv
uV:__ZNK7Texture21GetShadowSamplingModeEv
raa:__ZNK11TypeManager15ClassNameToRTTIEPKcb
FSd:__ZN5physx2Gu13coarseCullingERKNS_6PxVec3ES3_ffRKNS_10PxTriangleE
Bma:__ZL57__ManagedRegistrationHelperFunction_DefaultExecutionOrderPv
X$a:__ZN13ScreenManager21OnWindowRegainedFocusEv
HGb:__Z18Transfer_BlittableI18StreamedBinaryReadILb0EELb1EdEvRK29SerializationCommandArgumentsR31RuntimeSerializationCommandInfo
LSb:__ZN9GfxDevice26CreateDefaultVertexBuffersEv
yip:_emscripten_glVertexAttrib2fv__wrapper
WSf:__ZN13RuntimeStaticINSt3__26vectorIPN5physx15PxVehicleWheelsENS0_9allocatorIS4_EEEELb0EE13StaticDestroyEPv
V2j:_SynchronizedReader_ReadToEnd_m2160105378
J1e:__ZN5physx2Sc5Scene29processNarrowPhaseTouchEventsEv
YUa:__ZN4crnd12symbol_codec32decode_receive_static_data_modelERNS_25static_huffman_data_modelE
RDc:__ZN18ScriptingArguments8AddFloatEf
j4f:_TMP_Text_get_isRightToLeftText_m3326972673
nsj:_TouchScreenKeyboard_Open_m3325559252
evh:_Image_set_fillOrigin_m469806249
v_o:_LoadScreenDelay_Update_m3356487317
QKf:__ZN11UnityEngine15PlatformWrapper16GetVRRenderScaleEv
rce:__ZN5physx6shdfnd5ArrayIPvNS0_15InlineAllocatorILj256ENS0_19ReflectionAllocatorINS_18NpArticulationLinkEEEEEE15growAndPushBackERKS2_
ETl:_Dictionary_2_GetEnumerator_m2532220708_gshared
w$c:__Z18Transfer_BlittableI9JSONWriteLb0EaEvRK29SerializationCommandArgumentsR31RuntimeSerializationCommandInfo
yom:_Array_InternalArray__ICollection_Add_TisXML_TagAttribute_t1174424309_m1755316534_gshared
VZ:__ZN11UnityEngine15CloudWebService14DataDispatcher34OnSessionContainerArchivedAndReadyERNS0_16SessionContainerE
Gjj:_ConnectionChangeEvent__ctor_m764126802
qtd:__ZN7b2World11CreateJointEPK10b2JointDef
bTj:_Kernel_Multiply_m193213393
Tcd:__ZN23ParticleSystemParticles20SetUsesTriggerEventsEb
G5j:_IntComparer__ctor_m2901422390
F0d:__ZNK5physx3Cct15ObstacleContext11getObstacleEj
nqg:__ZL79Convert_t2465617642_CustomAttributesCacheGenerator_Convert_ToUInt32_m1767593911P21CustomAttributesCache
jzm:_Mark_get_Length_m2532192442_AdjustorThunk
zlg:__ZL50HMACMD5_t2742219965_CustomAttributesCacheGeneratorP21CustomAttributesCache
SHi:_InternalEnumerator_1_Dispose_m1901715479_AdjustorThunk
aQi:_Comparer_1__ctor_m1078828713_gshared
FAb:__Z18Transfer_BlittableI19StreamedBinaryWriteILb0EELb0E8Vector3fEvRK29SerializationCommandArgumentsR31RuntimeSerializationCommandInfo
rYl:_Enumerator_VerifyState_m2621680056_gshared
jEm:_UriParser_InternalRegister_m3643767086
VKg:__ZL106TextGenerator_t3211863866_CustomAttributesCacheGenerator_TextGenerator_INTERNAL_get_rectExtents_m183810018P21CustomAttributesCache
Wic:__ZN14SafeBinaryRead19TransferSTLStyleMapINSt3__23mapIN4core12basic_stringIcNS3_20StringStorageDefaultIcEEEEiNS1_4lessIS7_EENS1_9allocatorINS1_4pairIKS7_iEEEEEEEEvRT_17TransferMetaFlags
zUk:_DateTimeFormatInfo_get_RawAbbreviatedDayNames_m1257850285
b5k:_RSACryptoServiceProvider_EncryptValue_m944137256
dno:__ZN15dense_hashtableINSt3__24pairIK10KeyWrapperINS1_IPK11Il2CppImageP11Il2CppClassEEEjEES9_17ReflectionMapHashIS8_EN14dense_hash_mapIS9_jSD_NS9_14EqualsComparerINS0_8equal_toIS8_EEEENS0_9allocatorISB_EEE9SelectKeyESI_SK_ED2Ev
Lvf:_gray_move_to
gBl:_Enumerator_Dispose_m2768348159_AdjustorThunk
prk:_DBNull_System_IConvertible_ToSingle_m13713620
DMk:_Char_ToLowerInvariant_m1926695830
WZg:__ZL127U3CDelayedSetDirtyU3Ec__Iterator0_t3170500204_CustomAttributesCacheGenerator_U3CDelayedSetDirtyU3Ec__Iterator0_Reset_m160466733P21CustomAttributesCache
gXf:_TMP_FontAsset_HasCharacter_Internal_m2112188792
IZf:_TMP_InputField_GetCaretPositionFromStringIndex_m2732968711
Aan:__ZN23InterfaceActionInvoker2Ii25RejectHandler_t1435172309E6InvokeEjP11Il2CppClassP12Il2CppObjectiS0_
paj:_CameraCallback__ctor_m899467377
SNm:_ReadOnlyCollection_1_System_Collections_IList_Contains_m1327645028_gshared
rvh:_Image_GetDrawingDimensions_m3060965396
VJn:_UnityWebRequest_Dispose_m3261105905
rLg:__ZL69FontTextureRebuildCallback_t2467502454_CustomAttributesCacheGeneratorP21CustomAttributesCache
mol:_TypeLoadException__ctor_m1154572625
UOc:__Z30RegisterValidateMethodCallbackiPF18ScriptingMethodPtrS_17ScriptingClassPtrP6ObjectEPKc
sQa:__ZNSt3__27__sort4IRPFbRKNS_4pairIN9ShaderLab16FastPropertyNameE10ColorRGBAfEES7_EPS5_EEjT0_SC_SC_SC_T_
qak:_AssemblyDescriptionAttribute__ctor_m3993445315
m_j:_Context_get_WriteSequenceNumber_m1115956887
yXj:_CipherSuite_get_ClientHMAC_m377589750
Zcl:_String_PadLeft_m1263950263
czk:_Dictionary_2_Do_ICollectionCopyTo_TisKeyValuePair_2_t2401056908_m1169495264_gshared
iyn:_UnityEvent_2_GetDelegate_m1261532026_gshared
aed:__Z25GetTransformationMatricesPN4math8float3x3ES1_bbRK10Matrix4x4fS4_
fph:_ContentSizeFitter__ctor_m2349275633
htg:__ZL56TypeConverter_t2249118273_CustomAttributesCacheGeneratorP21CustomAttributesCache
R9c:__ZN4PPtrI14ParticleSystemE8TransferI19StreamedBinaryWriteILb0EEEEvRT_
lOe:__ZN5physx13IslandManager6resizeEj
IFm:_Collection_1_RemoveAt_m3506636491_gshared
qFa:__Z26TransformVerticesInnerLoopILb1ELb0ELb0EEvPhRK10Matrix4x4fRK10Matrix3x3fjPKhiS8_ii25GfxTransformVerticesFlagsj
P3c:__ZN8JSONRead8TransferI9BoundsIntEEvRT_PKc17TransferMetaFlagsb
iIo:__ZN24dense_hashtable_iteratorINSt3__24pairIK10KeyWrapperIPcES3_EES4_N6il2cpp5utils15PassThroughHashIS3_EEN14dense_hash_mapIS4_S3_SA_NS4_14EqualsComparerINS0_8equal_toIS3_EEEENS0_9allocatorIS6_EEE9SelectKeyESF_SH_E30advance_past_empty_and_deletedEv
Hb:invoke_viidi
Vpd:__Z17UpdateSprites2TplIL27ParticleSystemCurveEvalMode0ELS0_2EEvfRK11MinMaxCurveS3_RK23ParticleSystemParticlesPf
Q7f:_TMP_Text_ReplaceClosingStyleTag_m619073692
j7d:__ZN5physx6shdfnd8PoolBaseINS_2Cm5BlockIPvLj16EEENS0_19ReflectionAllocatorIS5_EEE17releaseEmptySlabsEv
Tpg:__ZL78Convert_t2465617642_CustomAttributesCacheGenerator_Convert_ToUInt16_m867476252P21CustomAttributesCache
asi:_SByte_System_IConvertible_ToChar_m1489191771_AdjustorThunk
rO:__ZN9AudioClip7CleanupEv
WHc:__Z13RegisterClassI18DelayedCallManagerEvPKc
m_m:_Nullable_1_get_Value_m3112951896_AdjustorThunk
oOi:_DefaultComparer__ctor_m983978887_gshared
vdl:_String_Concat_m1809518182
rym:_Interval_t1802865632_marshal_pinvoke_cleanup
E2g:__ZL147U3CDoSpriteAnimationInternalU3Ec__Iterator0_t827549206_CustomAttributesCacheGenerator_U3CDoSpriteAnimationInternalU3Ec__Iterator0_Reset_m2666372053P21CustomAttributesCache
uwo:__ZNK15dense_hashtableINSt3__24pairIK10KeyWrapperIP11Il2CppClassES4_EES5_N6il2cpp8metadata16SZArrayClassHashEN14dense_hash_mapIS5_S4_SA_NS5_14EqualsComparerINS9_19SZArrayClassCompareEEENS0_9allocatorIS7_EEE9SelectKeyESE_SG_E12test_deletedEj
Alk:_Convert_ToInt16_m1223489986
nth:_Graphic_GraphicUpdateComplete_m1502194795
p1d:__ZL20updateMassAndInertiabRN5physx11PxRigidBodyEPKfjPKNS_6PxVec3Eb
q2c:__Z18Transfer_BlittableI8JSONReadLb0EdEvRK29SerializationCommandArgumentsR31RuntimeSerializationCommandInfo
ogf:__ZN5physx24NpPtrTableStorageManagerC2Ev
Qmi:_SoapTypeAttribute_get_IsInteropXmlElement_m3413949955
CVg:__ZL59Dropdown_t2274391225_CustomAttributesCacheGenerator_m_ValueP21CustomAttributesCache
kEf:__Z44Register_UnityEngine_Canvas_set_sortingOrderv
V$n:_Canvas_get_referencePixelsPerUnit_m3420541976
YNm:_ReadOnlyCollection_1_System_Collections_ICollection_get_SyncRoot_m2522539235_gshared
UEn:_Event_get_current_m2393892120
LNn:_VertexHelper_Clear_m627349662
Ugm:_DefaultComparer_Equals_m3688244916_gshared
JBk:_Array_InternalArray__get_Item_TisWorkRequest_t1354518612_m2694410850_gshared
Qlb:__ZNK9GfxDevice13GetViewMatrixEv
i4j:_UnmanagedMemoryStream_Dispose_m2681886347
cHe:__ZN5physx7NpScene15flushSimulationEb
$zi:_InternalEnumerator_1_System_Collections_IEnumerator_get_Current_m1295084274_gshared
$ne:__ZN5physx6shdfnd8PoolBaseINS_10NpMaterialENS0_19ReflectionAllocatorIS2_EEE12allocateSlabEv
uba:__ZN8TypeTree8BlobReadERPKhS1_ib
TGg:__ZL87Display_t1387065949_CustomAttributesCacheGenerator_Display_GetSystemExtImpl_m2808197389P21CustomAttributesCache
lIk:_Array_Reverse_m3714848183
Ysg:__ZL60MonoTODOAttribute_t4131080582_CustomAttributesCacheGeneratorP21CustomAttributesCache
roh:_CanvasUpdateRegistry_InternalRegisterCanvasElementForGraphicRebuild_m3522560454
Y$l:_List_1_set_Capacity_m2639563982_gshared
yUl:_KeyValuePair_2__ctor_m880186442_gshared
Nbf:__ZN5physx18ReducedVertexCloudC2EPKNS_6PxVec3Ej
nab:__ZN18LoadSceneOperation23GetAllowSceneActivationEv
t_l:_List_1_System_Collections_IList_get_Item_m121323183_gshared
f0n:_Canvas_set_additionalShaderChannels_m4180310117
lAa:__ZN6CameraD0Ev
Zan:_Collection_1_System_Collections_IList_get_IsReadOnly_m2319019412_gshared
Mha:__ZN31CanvasBatchIntermediateRenderer16StaticInitializeEPv
iIm:_Collection_1_System_Collections_IList_IndexOf_m837396833_gshared
iB:__ZN7mecanim12AndValueMaskILb0EEEvPKNS_14ValueArrayMaskEPS1_
t8a:__ZN14SafeBinaryRead21TransferSTLStyleArrayINSt3__26vectorIi13stl_allocatorIiL18MemLabelIdentifier13ELi16EEEEEEvRT_17TransferMetaFlags
dPj:_Array_InternalArray__IndexOf_TisProgressHandler_t926933139_m2009823052_gshared
xBi:_InternalEnumerator_1__ctor_m962177456_AdjustorThunk
wnf:_raccess_guess_apple_double
EUb:__ZL18ProgramUniform1uivPK7ApiGLESjiihPKv
J$h:__Z65RuntimeInvoker_Boolean_t97287965_RuntimeObject_Single_t1397266774PFvvEPK10MethodInfoPvPS4_
Vvk:_Array_Sort_TisByte_t1134296376_m343015505_gshared
hld:__ZN27ShapeModulePropertyBindings13GetFloatValueERK14ParticleSystemi
_Fc:__ZN14Texture2DArray13RebuildMipMapEv
h9n:__ZN13Il2CppHashSetIPK17Il2CppGenericInstN6il2cpp8metadata21Il2CppGenericInstHashENS4_24Il2CppGenericInstCompareENSt3__29allocatorI10KeyWrapperIS2_EEEEC2EjRKS5_RKS6_
Etb:__Z18Transfer_BlittableI14SafeBinaryReadLb1EaEvRK29SerializationCommandArgumentsR31RuntimeSerializationCommandInfo
tIo:__ZN6il2cpp2gc16GarbageCollector14RemoveWeakLinkEPPv
Fnc:__ZN9ShaderLab20SerializedSubProgram14AddVectorParamEPKcii15ShaderParamTypei
FOj:_Array_IndexOf_TisResolveHandler_t4124874245_m3487245119_gshared
w0m:_List_1_GetEnumerator_m563931292_gshared
s1n:_Collision2D_t2842956331_marshal_pinvoke
gGf:__ZN2UI14CanvasRenderer12CleanupClassEv
nge:__ZNK5physx19NpRigidBodyTemplateINS_18PxArticulationLinkEE27getMinCCDAdvanceCoefficientEv
Rhk:_Enumerator__ctor_m3362421874
ZJg:__ZL94AudioSampleProvider_t3950279772_CustomAttributesCacheGenerator_U3CtrackIndexU3Ek__BackingFieldP21CustomAttributesCache
KPm:_ReadOnlyCollection_1_System_Collections_IList_get_IsFixedSize_m1447922362_gshared
SDo:__ZN6il2cpp2vm6Object3BoxEP11Il2CppClassPv
Quo:__ZN6il2cpp2vm6Thread7SetNameEP12Il2CppThreadP12Il2CppString
kr:__ZN6Object23VirtualRedirectTransferER19StreamedBinaryWriteILb1EE
o$:__ZN11UnityEngine15CloudWebService10RestClientINS0_23WebRequestRestHeaderMapEE16SetRequestHeaderERKN4core12basic_stringIcNS4_20StringStorageDefaultIcEEEESA_
y8a:__ZN30RuntimeInitializeOnLoadManager15ClassMethodInfo8TransferI14SafeBinaryReadEEvRT_
vJh:_ConstructionCall_InitDictionary_m2824447813
SWn:__ZL25UnresolvedVirtualCall_319P12Il2CppObjectfPK10MethodInfo
Iae:__ZNK5physx2Sc10ClothShape8isActiveEv
jcd:__ZN23ParticleSystemParticles14element_assignEjj
MCh:_TargetException__ctor_m3701535709
cai:__Z86RuntimeInvoker_Int32_t2950945753_Vector3_t3722313464_Vector3_t3722313464_RuntimeObjectPFvvEPK10MethodInfoPvPS4_
pY:__ZL22InitializeModule_Audiov
ROe:__ZN5physx2Sq11PruningPoolD0Ev
Ikb:__ZN16MemoryFileSystem8IsLockedERK13FileEntryData
KWe:__ZN3MBP15removeBoxPrunerEj
ayo:__ZN6il2cpp6icalls8mscorlib6System2IO6MonoIO5WriteEiP11Il2CppArrayiiPi
L9l:_List_1_set_Item_m1753836470_gshared
r6h:__Z80RuntimeInvoker_Int32_t2950945753_RuntimeObject_Vector3_t3722313464_RuntimeObjectPFvvEPK10MethodInfoPvPS4_
lnd:__ZN14ParticleSystem23OnGeometryJobsScheduledEj
Ahj:_Mathf_InverseLerp_m4155825980
IQh:__Z92RuntimeInvoker_RuntimeObject_RuntimeObject_RuntimeObject_SByte_t1669577662_SByte_t1669577662PFvvEPK10MethodInfoPvPS4_
Sl:_emscripten_glBindRenderbuffer
GZm:_OrderedSequence_2_CreateContext_m3695051966_gshared
Gqd:__ZZN14ParticleSystem15InitializeClassEvEN29FunctorImpl_228kDidModifyMesh4CallEPviR11MessageData
_6l:_List_1_System_Collections_IList_Insert_m1011775503_gshared
dQo:_GC_dirty_init
gIi:_InternalEnumerator_1_System_Collections_IEnumerator_Reset_m1463497855_AdjustorThunk
zCo:__ZN6il2cpp2vm5Image33GetCachedMemoryMappedResourceFileEP24Il2CppReflectionAssembly
Oum:_Array_Resize_TisSpriteData_t3048397587_m3669483764_gshared
KDf:__ZNK2UI6Canvas16GetTargetDisplayEv
j8h:__Z69RuntimeInvoker_Void_t1185182177_Int32_t2950945753_Vector2_t2156229523PFvvEPK10MethodInfoPvPS4_
oJf:__Z63Register_UnityEngine_Analytics_CustomEventData_Internal_Destroyv
MOm:_ReadOnlyCollection_1__ctor_m2610384050_gshared
dgd:__Z25UpdateOrbitalAndRadialTplIL27ParticleSystemCurveEvalMode1ELS0_2ELS0_2EEvRK11MinMaxCurveS3_S3_S3_S3_S3_S3_R23ParticleSystemParticlesjjRKN4math8float3x3ERKNS6_7affineXERKNS6_7_float4E
$Yd:__ZL15SweepBoxCapsulePKN5physx3Cct9SweepTestEPKNS0_11SweptVolumeEPKNS0_11TouchedGeomERKNS_14PxExtendedVec3ERKNS_6PxVec3ERNS0_12SweptContactE
d0c:__ZN9JSONWrite8TransferI4PPtrI9Texture2DEEEvRT_PKc17TransferMetaFlags
ZYf:_TMP_InputField_set_richText_m1744201547
jJb:__ZN13MonoBehaviour17RemoveFromManagerEv
GPn:_Vector3_get_Item_m668685504_AdjustorThunk
o6e:__ZN5physx2Sc19ParticlePacketShapeD2Ev
eAh:_MonoEventInfo_GetEventInfo_m873645389
YWa:__ZL11DecodeValuePPKcS0_
CFn:_GUIUtility_get_pixelsPerPoint_m2369948084
C9k:_WindowsIdentity_System_Runtime_Serialization_IDeserializationCallback_OnDeserialization_m3428853631
a3:__ZN13MemoryManagerC2Ev
x3o:_JSONNumber_set_AsLong_m3543961811
K4a:__ZN12SkinMeshInfo10DeallocateEPS_
Y9n:__ZNK15dense_hashtableINSt3__24pairIK10KeyWrapperIPKcEP11Il2CppClassEES5_N6il2cpp5utils11StringUtils12StringHasherIS4_EEN14dense_hash_mapIS5_S8_SE_NS5_14EqualsComparerINSB_13VmStringUtils21CaseSensitiveComparerEEENS0_9allocatorIS9_EEE9SelectKeyESJ_SL_E8min_sizeEjj
ODj:_ScrollRect_SetDirty_m214267968
pPj:_Array_InternalArray__IndexOf_TisKeyValuePair_2_t727985506_m1773917996_gshared
eai:__Z109RuntimeInvoker_Int32_t2950945753_RuntimeObject_ProgressHandler_t926933139_Int32_t2950945753_Int32_t2950945753PFvvEPK10MethodInfoPvPS4_
akb:__ZN20ArchiveStorageReader28AcquireAndPrefillUnusedBlockEjPNS_11CacheResultE
PJk:_Boolean_System_IConvertible_ToDateTime_m603510836
VFc:__Z12NHxRoughnessIA4_tEvP9Texture2DPT_iiii
$Vm:__ZN28GenericInterfaceFuncInvoker2IibbE6InvokeEPK10MethodInfoP12Il2CppObjectbb
_vl:_ASN1_get_Value_m1857007406
USn:__ZL25UnresolvedVirtualCall_105P12Il2CppObjecthPK10MethodInfo
XY:__Z6simd4iiiii
Veb:__ZN9Transform5ResetEv
Flk:_Decimal_op_Explicit_m1842265407
qAb:__Z22TransferField_NonArrayI24GenerateTypeTreeTransfer16Converter_StringEvRK23StaticTransferFieldInfoR31RuntimeSerializationCommandInfoRT0_
Rma:__ZL47__ManagedRegistrationHelperFunction_FixedUpdatePv
Dqd:__ZN29ParticleSystemPropertyBinding49InitializeParticleSystemAnimationBindingInterfaceEv
zrf:_UNITY_FT_CMap_New
lBi:_InternalEnumerator_1_get_Current_m4241643334_AdjustorThunk
rWf:_TMP_Dropdown_DestroyBlocker_m2367277104
Czi:_InternalEnumerator_1_MoveNext_m154749640_AdjustorThunk
cgn:_Collection_1_set_Item_m2389175716_gshared
GLb:__Z17MainLoopKeepalivePv
aae:__ZN5physx7NpScene16addActorInternalERNS_7PxActorE
$Cj:_Selectable_FindSelectableOnDown_m1591762582
FYg:__ZL62Slider_t3903728902_CustomAttributesCacheGenerator_m_HandleRectP21CustomAttributesCache
sbo:__ZN15dense_hashtableI10KeyWrapperIPK17Il2CppGenericInstES4_N6il2cpp8metadata21Il2CppGenericInstHashEN14dense_hash_setIS4_S7_NS4_14EqualsComparerINS6_24Il2CppGenericInstCompareEEENSt3__29allocatorIS4_EEE8IdentityESB_SE_E12expand_arrayEjN21dense_hash_map_traits17integral_constantIbLb0EEE
BHi:_InternalEnumerator_1_get_Current_m1588647567_AdjustorThunk
fak:_Assembly_UnprotectedGetName_m600830855
Zwn:__ZN25GenericVirtActionInvoker3IP12Il2CppObjectS1_iE6InvokeEPK10MethodInfoS1_S1_S1_i
cig:__ZL51GCHandle_t3351438187_CustomAttributesCacheGeneratorP21CustomAttributesCache
YVe:__ZN5physx17MBPUpdateWorkTaskD2Ev
b_n:_U3CSendWebRequestU3Ed__0_System_Collections_Generic_IEnumeratorU3CSystem_ObjectU3E_get_Current_m3237948241
uuj:_InputField_get_caretBlinkRate_m3620074524
Dcb:__ZN11PreloadData39ShouldIgnoreInGarbageDependencyTrackingEv
y2b:__Z19SetupLODFadeKeywordR17ShaderPassContexti
Znd:__ZL19ParticleGeomFlipUVsffRKN4math5_int4EPS1_
x5k:_RSAPKCS1SignatureFormatter_CreateSignature_m3191980616
zOa:__ZN10builtintex16GetDefaultTexEnvE16TextureDimensionb
MWb:__ZL25CheckCopyTextureArgumentsRK7ApiGLESP11GLESTextureS3_
Qkd:__ZN24UVModulePropertyBindings13AddPropertiesER10vector_mapIi22ParticleModulePropertyNSt3__24lessIiEENS2_9allocatorINS2_4pairIiS1_EEEEE
PLg:__ZL104UnityWebRequest_t463507806_CustomAttributesCacheGenerator_UnityWebRequest_get_isNetworkError_m1231611882P21CustomAttributesCache
Klp:_glDeleteShader__wrapper
Yga:__ZNK15PlayableMethods18InvokeOnGraphStartER18ScriptingObjectPtrRK9HPlayable
Ozb:__Z29Transfer_Blittable_ArrayFieldI24GenerateTypeTreeTransferyEvRT_R9ArrayInfoRK23StaticTransferFieldInfo
Drl:_ValueType_Equals_m1524437845
Xwg:__ZL71RuntimePlatform_t4159857903_CustomAttributesCacheGenerator_OSXWebPlayerP21CustomAttributesCache
L0o:_JSONLazyCreator_Add_m786737145
lP:__ZN4FMOD7SystemI9playSoundE17FMOD_CHANNELINDEXPNS_5SoundEbPPNS_7ChannelE
l4h:__Z123RuntimeInvoker_RuntimeObject_Ray_t3785851493_RuntimeObject_Single_t1397266774_Int32_t2950945753_RuntimeObject_RuntimeObjectPFvvEPK10MethodInfoPvPS4_
f_k:_Int64_GetHashCode_m703091690
Yna:__ZL60__ManagedRegistrationHelperFunction_ReflectionProbeBlendInfoPv
ure:__ZNK5physx7NpCloth16getStretchConfigENS_22PxClothFabricPhaseType4EnumE
Con:_X509CrlEntry_get_RevocationDate_m606796547
fFn:_Event_get_commandName_m4275147343
hB:__ZN27AnimationLayerMixerPlayable17LayerMixerProcessEP35AnimationPlayableEvaluationConstantP32AnimationPlayableEvaluationInputP33AnimationPlayableEvaluationOutputM17AnimationPlayableFvS1_S3_S5_EMS_FvS1_S3_S5_ESA_MS_FvS5_S1_S3_S5_ifE
Nkk:_Decimal_op_Implicit_m4256234411
gub:__Z24TransferPPtrToMonoObjecti17ScriptingClassPtrP23DataToCreateNullWrapper24TransferInstructionFlags
C_m:_Nullable_1_Equals_m3352611811_gshared
ON:__ZN12AudioManager23VirtualRedirectTransferER18StreamedBinaryReadILb0EE
iNh:__Z60RuntimeInvoker_RuntimeObject_RuntimeObject_Int16_t2552820387PFvvEPK10MethodInfoPvPS4_
gLg:__ZL90TextMesh_t1536577757_CustomAttributesCacheGenerator_TextMesh_INTERNAL_set_color_m292262424P21CustomAttributesCache
u3a:__ZN10VertexData13SwapEndianessEv
P1j:_StreamReader__ctor_m3941437302
bld:__ZN27ColorModulePropertyBindings13GetFloatValueERK14ParticleSystemi
kyc:__Z57Register_UnityEngine_Transform_INTERNAL_get_localRotationv
_Vi:_IPv6Address_get_Address_m1389170741
fWm:__ZN28GenericInterfaceFuncInvoker2IihhE6InvokeEPK10MethodInfoP12Il2CppObjecthh
l8a:__ZN30RuntimeInitializeOnLoadManager23VirtualRedirectTransferER17RemapPPtrTransfer
zdp:dynCall_viif
wak:_AssemblyName_get_Flags_m1616840602
IKi:_InternalEnumerator_1_MoveNext_m1590908934_AdjustorThunk
iAc:__Z13RegisterClassIN5Unity9ComponentEEvPKc
y4b:__ZN29MotionVectorRenderLoopScratchD2Ev
Bdh:_TextContainer_get_anchorPosition_m1331723421
h5e:__ZN5physx2Sc24ConstraintProjectionTree11projectPoseERNS0_19ConstraintGroupNodeE
uxb:__ZL26Transfer_SimpleNativeClassI17RemapPPtrTransfer8GradientLb0EEvRK29SerializationCommandArgumentsR31RuntimeSerializationCommandInfo
nyg:__ZL49Shader_t4151988712_CustomAttributesCacheGeneratorP21CustomAttributesCache
Obj:__ZN23InterfaceActionInvoker3IiP8String_tP24ObjectU5BU5D_t2843939325E6InvokeEjP11Il2CppClassP12Il2CppObjectiS1_S3_
UC:__ZN17AnimationPlayable26DisconnectNoTopologyChangeEPS_i
rke:__ZNK5physx12NpBatchQuery14getOwnerClientEv
P4m:_List_1_System_Collections_IList_Contains_m2131605266_gshared
Lkg:__ZL61ISurrogateSelector_t3040401154_CustomAttributesCacheGeneratorP21CustomAttributesCache
Zee:__ZN5physx2Sc21ArticulationJointCore28setSwingLimitContactDistanceEf
aYo:_U3CDelayU3Ec__Iterator1_System_Collections_Generic_IEnumeratorU3CobjectU3E_get_Current_m2215550623
Rfe:__ZNK5physx20NpRigidActorTemplateINS_18PxArticulationLinkEE14getConstraintsEPPNS_12PxConstraintEjj
gep:dynCall_viifffi
w6m:_List_1_ToArray_m1990123684_gshared
dgh:_TextMeshProUGUI_LoadFontAsset_m2596902304
j0:__ZN13UploadHandlerD2Ev
ML:__GLOBAL__sub_I_Modules_AssetBundle_Public_1_cpp
zbp:dynCall_viiiiiffi
md:_emscripten_glBlendFuncSeparate
Jgn:_Collection_1_RemoveAt_m2321540662_gshared
Bin:_Collection_1_Add_m809543251_gshared
A7:__Z20scripting_string_newPKc
uDm:_Parser_IsSingleline_m326238187
$Pk:_CollectionBase_get_Count_m1708965601
Pui:_HMAC__ctor_m97939284
WQm:_ReadOnlyCollection_1_System_Collections_IList_get_Item_m1005238747_gshared
Gqg:__ZL49DBNull_t3725197148_CustomAttributesCacheGeneratorP21CustomAttributesCache
Crl:_ValueType_DefaultEquals_m2927252100
b_c:__ZN9JSONWrite12AppendToNodeEPN5Unity9rapidjson12GenericValueINS1_4UTF8IcEE13JSONAllocatorEEPKcRS6_
fwl:_ASN1_ToString_m1340204511
$Xi:_X509ChainElementEnumerator_get_Current_m1301774989
Bvd:__ZN16PhysicsManager2D20GetRigidBodyVelocityERK11Rigidbody2D
FOl:_Enumerator_System_Collections_IEnumerator_Reset_m85524874_gshared
Vvm:_X509Store_get_Certificates_m2149701265
Cpb:__ZN20GfxAsyncReadbackDataD2Ev
pge:__ZNK5physx19NpRigidBodyTemplateINS_18PxArticulationLinkEE27getMaxDepenetrationVelocityEv
Bnl:_Type_GetField_m2961003358
RRm:_ReadOnlyCollection_1_System_Collections_Generic_IListU3CTU3E_set_Item_m711370667_gshared
LUg:__ZL144StandaloneInputModule_t2760469101_CustomAttributesCacheGenerator_StandaloneInputModule_t2760469101____allowActivationOnMobileDevice_PropertyInfoP21CustomAttributesCache
xsa:__ZN9Scripting11UnityEngine13ComputeBuffer12CleanupProxyEv
g9e:__ZThn8_N5physx2Gu11HeightFieldD1Ev
$gl:_StringBuilder_set_Chars_m3548656617
H6g:__ZL136U3CSpawnEnemyType2WaveU3Ec__Iterator7_t1142910207_CustomAttributesCacheGenerator_U3CSpawnEnemyType2WaveU3Ec__Iterator7__ctor_m3083523513P21CustomAttributesCache
Xjo:__ZN6il2cpp2os4File17GetFileAttributesERKNSt3__212basic_stringIcNS2_11char_traitsIcEENS2_9allocatorIcEEEEPi
FBe:__ZN5physx19NpRigidBodyTemplateINS_14PxRigidDynamicEED0Ev
fee:__ZNK5physx19PxArticulationJoint19getConcreteTypeNameEv
abi:__Z59RuntimeInvoker_Int32_t2950945753_X509ChainStatus_t133602714PFvvEPK10MethodInfoPvPS4_
FG:__ZNSt3__26__sortIRPFbPKN8Animator11AnimatorJobES4_EPS4_EEvT0_S9_T_
jV:__ZN17AudioCustomFilterD2Ev
KYc:__ZN11IMGUIModule26SetDeveloperConsoleVisibleEb
BUj:_ARC4Managed_GenerateKey_m1607343060
bci:__Z56RuntimeInvoker_Void_t1185182177_MonoResource_t4103430009PFvvEPK10MethodInfoPvPS4_
oeb:__ZN9Transform16ResetReplacementEv
YNo:_GC_unpromote_black_lists
HL:__ZN9Scripting11UnityEngine2XR5Tango9GridIndex9InitProxyEv
Kzl:_Enumerator__ctor_m2149651767_AdjustorThunk
IVb:__ZN18GfxFramebufferGLES18ReleaseFramebufferEP17RenderSurfaceBaseP14GfxContextGLES
g1c:__Z18Transfer_BlittableI8JSONReadLb1EiEvRK29SerializationCommandArgumentsR31RuntimeSerializationCommandInfo
k3j:_TextReader_Dispose_m4253712522
N0:__ZN19CloudServiceHandler34HandleSaveFileWebRequestPlayerLoopEv
msg:__ZL82BigInteger_t2902905090_CustomAttributesCacheGenerator_BigInteger__ctor_m2474659844P21CustomAttributesCache
GC:__ZN7mecanim21ValueArrayReverseCopyEPKNS_18ValueArrayConstantEPKNS_10ValueArrayES2_PS3_PKi
uTf:__ZL47__ManagedRegistrationHelperFunction_XRNodeStatePv
CU:__Z31GetParentSampleClipFromInstancePN11SoundHandle8InstanceE
Yjn:_InternalAsyncResult_get_BytesRead_m3975435112
QAc:__ZNK28RectTransformPropertyBinding13GetFloatValueERKN11UnityEngine9Animation10BoundCurveE
MUd:__ZN5physx11PxHitBufferINS_12PxOverlapHitEE14processTouchesEPKS1_j
Tcc:__ZN6Camera22StandaloneCustomRenderENS_10RenderFlagEP6ShaderRKN4core12basic_stringIcNS3_20StringStorageDefaultIcEEEEPNS_21PerformRenderFunctionE
tPj:_Array_InternalArray__IndexOf_TisKeyValuePair_2_t2401056908_m4118889689_gshared
x9a:__ZNSt3__26vectorI4PPtrI6ObjectE13stl_allocatorIS3_L18MemLabelIdentifier52ELi16EEE6assignINS_11__wrap_iterIPS3_EEEENS_9enable_ifIXaasr21__is_forward_iteratorIT_EE5valuesr16is_constructibleIS3_NS_15iterator_traitsISD_E9referenceEEE5valueEvE4typeESD_SD_
ZIm:_Collection_1_System_Collections_ICollection_get_IsSynchronized_m500240145_gshared
LCe:__ZL22addOrRemoveRigidObjectILb0ELb0ELb0ELb1EN5physx3Scb11RigidStaticEEvRNS0_2Sc5SceneERT3_b
YUo:__ZN6il2cpp2os16ThreadLocalValue8GetValueEPPv
gYi:_X509Certificate2_get_PublicKey_m370665820
B_l:_List_1_AddRange_m1014931738_gshared
_do:__ZN6il2cpp2vm13MetadataCache14GetGenericInstEPKPK10Il2CppTypej
hgn:_Collection_1_IsSynchronized_m2790814605_gshared
UV:__ZN13AudioListener17ReadExtensionNameEi
Pd:_glUniform1uiv
_sg:__ZL59LinkedListNode_1_t3023898186_CustomAttributesCacheGeneratorP21CustomAttributesCache
LMf:__ZN11UnityEngine7Connect20RemoteConfigSettings35CallConfigUpdatedOnMainThreadStaticEPS1_
ATc:__Z52Object_CUSTOM_GetOffsetOfInstanceIDInCPlusPlusObjectv
Sen:_Collection_1_System_Collections_Generic_ICollectionU3CTU3E_get_IsReadOnly_m1419845799_gshared
PLn:_U3CTimedTriggerU3Ec__Iterator0_System_Collections_Generic_IEnumeratorU3CobjectU3E_get_Current_m3822291412
v7d:__ZN5physx6shdfnd4sortIPvNS0_4LessIS2_EENS0_19ReflectionAllocatorINS_2Cm5BlockIS2_Lj8EEEEEEEvPT_jRKT0_RKT1_j
cX:__ZN9AudioClip15InitializeClassEv
Ine:__ZNK5physx9NpPhysics11getNbShapesEv
Kq:setThrew
M1j:_SslClientStream_OnLocalPrivateKeySelection_m1934775249
NFc:__ZL21BuildEmptyCubeTexturePKci11ColorRGBA3217TextureColorSpace
GGg:__ZL106AsyncOperation_t1445031843_CustomAttributesCacheGenerator_AsyncOperation_InvokeCompletionEvent_m1410305036P21CustomAttributesCache
rLk:_Byte_ToString_m721125428
Zic:__ZN14SafeBinaryRead21TransferSTLStyleArrayINSt3__26vectorIN9ShaderLab20SerializedSubProgramENS1_9allocatorIS4_EEEEEEvRT_17TransferMetaFlags
SPj:_Array_InternalArray__IndexOf_TisX509ChainStatus_t133602714_m48896230_gshared
xhb:__ZN19dynamic_block_arrayI13FileEntryInfoLj32EE4growEj
p1c:__Z15Transfer_StringI8JSONReadLb1EEvRK29SerializationCommandArgumentsR31RuntimeSerializationCommandInfo
Kab:__ZN16LightmapSettings15AppendLightmapsEiRK13dynamic_arrayI12LightmapDataLj0EE
sja:__ZN6prcoreL17RemapGenericFloatI17TexFormatRGBFloat15TexFormatRGHalfEEvPKNS_9InnerInfoE
ojg:__ZL63IContributeEnvoySink_t2817847987_CustomAttributesCacheGeneratorP21CustomAttributesCache
Ptf:_sfnt_load_face
Hmf:_UNITY_FT_Render_Glyph_Internal
Myo:__ZNSt3__212basic_stringIDsNS_11char_traitsIDsEENS_9allocatorIDsEEE21__grow_by_and_replaceEjjjjjjPKDs
Prf:_UNITY_ft_service_list_lookup
YSn:__ZL25UnresolvedVirtualCall_109P12Il2CppObjectiaPK10MethodInfo
nxb:__Z18Transfer_BlittableI17RemapPPtrTransferLb1E11ColorRGBA32EvRK29SerializationCommandArgumentsR31RuntimeSerializationCommandInfo
KWc:__ZN5IMGUI21SelectReceivingWindowER8GUIStateb
$fi:__Z41RuntimeInvoker_KeyValuePair_2_t2245450819PFvvEPK10MethodInfoPvPS4_
a8f:_TMP_Text_GetPreferredValues_m3747234872
dvi:_HMAC_Initialize_m3157696427
oUd:__ZN5physx2Gu20intersectTriangleBoxERKNS_6PxVec3ES3_S3_S3_S3_
a3j:_SynchronizedWriter_Write_m2529550287
eVf:_TMP_InputField_CaretBlink_m3970334312
ZWf:_TMP_FontAsset_OnDisable_m158826008
Dme:__ZN5physx10NpMaterial8setFlagsENS_7PxFlagsINS_14PxMaterialFlag4EnumEtEE
Q2m:_List_1_System_Collections_ICollection_CopyTo_m3643417403_gshared
j4:__ZN13BaseAllocator13TryDeallocateEPv
xCb:__Z29Transfer_Blittable_ArrayFieldI19StreamedBinaryWriteILb0EEfEvRT_R9ArrayInfoRK23StaticTransferFieldInfo
iAn:_ListPool_1_Release_m1363449253_gshared
$vm:_X509SubjectKeyIdentifierExtension__ctor_m2055934916
PYc:__ZN9Scripting19UnityEngineInternal5Input17NativeInputSystem9InitProxyEv
HYl:_Enumerator_Dispose_m2531396701_AdjustorThunk
IIm:_Collection_1_set_Item_m480139225_gshared
qkb:__ZN16MemoryFileSystem5WriteER13FileEntryDatayPvPy
Uzd:__ZNK21b2ClearBodyForcesTask13GetRangeCountEv
G6o:_sprintf
KVm:__ZN23GenericVirtFuncInvoker2Ii26ProgressHandler_t926933139S0_E6InvokeEPK10MethodInfoP12Il2CppObjectS0_S0_
loc:__ZN9Scripting25CreateNullExceptionObjectE18ScriptingObjectPtr
hyl:_PrivateKeyInfo_DecodeRSA_m2889346634
jDl:_Enumerator_Dispose_m1692600608_AdjustorThunk
YU:__ZN13AudioListener17RemoveFromManagerEv
ie:_glAttachShader
qph:_ContentSizeFitter_SetLayoutHorizontal_m2833273874
GLm:_ReadOnlyCollection_1_System_Collections_IList_RemoveAt_m134366701_gshared
Ygf:__ZN5physx6shdfnd8internal8HashBaseINS0_4PairIKtPKcEEtNS0_4HashItEENS1_11HashMapBaseItS6_S9_NS_7profile26WrapperReflectionAllocatorIS6_EEE6GetKeyESD_Lb1EE6createERS4_Rb
Oza:__ZNK6Camera19GetProjectionMatrixEv
f5a:__ZNSt3__26vectorIPK9Transform13stl_allocatorIS3_L18MemLabelIdentifier1ELi16EEE21__push_back_slow_pathIRKS3_EEvOT_
F6e:__ZNK5physx2Cm12DelegateTaskINS_2Sc5SceneEXadL_ZNS3_18clothPreprocessingEPNS_10PxBaseTaskEEEE7getNameEv
XHe:__ZNK5physx7NpScene24getWakeCounterResetValueEv
WAe:__ZN5physx20NpRigidActorTemplateINS_14PxRigidDynamicEE17resolveReferencesERNS_24PxDeserializationContextE
ppd:__Z19UpdateSingleRow2TplIL27ParticleSystemCurveEvalMode2ELS0_4EEvfRK11MinMaxCurveS3_RK23ParticleSystemParticlesPfbiii
Wuj:_InputField_SetToCustomIfContentTypeIsNot_m2813459946
Gfn:_Collection_1_System_Collections_IList_IndexOf_m1439404860_gshared
WJh:__Z49RuntimeInvoker_DateTime_t3738529785_RuntimeObjectPFvvEPK10MethodInfoPvPS4_
ZCd:__ZN21b2FindNewContactsTask15AddContactPairsERK16b2ContactManagerP14b2FixtureProxyS4_R13dynamic_arrayINS_17b2DeferredContactELj0EE
fCn:_InflateCodes_InflateFast_m1137157281
bxg:__ZL70RuntimePlatform_t4159857903_CustomAttributesCacheGenerator_FlashPlayerP21CustomAttributesCache
aXk:_Guid_GetHashCode_m3042133858_AdjustorThunk
srn:_FastAction_1_Add_m1141480866_gshared
oZe:__ZN5physx2Gu32PCMConvexVsMeshContactGeneration20generateLastContactsEv
rua:__Z38PreallocateObjectFromPersistentManagerib
MEn:_Event_t2956885303_marshal_pinvoke_cleanup
WQg:__ZL57SphereCollider_t2077223608_CustomAttributesCacheGeneratorP21CustomAttributesCache
bOi:_ArraySegment_1_get_Count_m130702878_AdjustorThunk
Nme:__ZThn12_N5physx10NpMaterialD0Ev
Exm:_Interpreter_Backtrack_m2828876822
p$m:_Predicate_1__ctor_m2153443937_gshared
TTa:__ZNK9Texture2D20GetUnscaledTextureIDEv
C4m:_List_1_get_Capacity_m3666274724_gshared
qsi:_SByte_System_IConvertible_ToType_m4075253447
izl:_StrongName_get_PublicKey_m1841537984
Vim:_EqualityComparer_1_get_Default_m1339714829_gshared
Ncf:__ZN5physx6shdfnd4sortIjNS_19SortBoundsPredicateENS0_19ReflectionAllocatorIjEEEEvPT_jRKT0_RKT1_j
jVl:_LinkedList_1_System_Collections_ICollection_get_SyncRoot_m260305035_gshared
hpe:__ZN5physx7NpShape14onRefCountZeroEv
ltj:_Transform_INTERNAL_get_worldToLocalMatrix_m2730237241
zcd:__ZNK14ParticleSystem7GetLoopEv
_al:_Single_System_IConvertible_ToUInt64_m3299129161
WGg:__ZL53GameObject_t1113636619_CustomAttributesCacheGeneratorP21CustomAttributesCache
lcf:__ZL15TestContainmentRKN5physx6PxVec3EPKfjPKNS_2Gu15HullPolygonDataE
Bci:__Z51RuntimeInvoker_Void_t1185182177_HitInfo_t3229609740PFvvEPK10MethodInfoPvPS4_
YTa:__ZNK9Texture2D26CanReuploadDataToGfxDeviceEv
Img:__ZL63CodeAccessPermission_t2681295399_CustomAttributesCacheGeneratorP21CustomAttributesCache
hbb:__Z29ClearRepeatingLogMessageStatev
OFi:_InternalEnumerator_1_get_Current_m3191242573_gshared
fLk:_Byte_Equals_m1161982810_AdjustorThunk
KJl:_Transform_1_BeginInvoke_m290848834_gshared
mbi:__Z57RuntimeInvoker_Int32_t2950945753_TMP_WordInfo_t3331066303PFvvEPK10MethodInfoPvPS4_
Abi:__Z53RuntimeInvoker_Int32_t2950945753_UICharInfo_t75501106PFvvEPK10MethodInfoPvPS4_
o9e:__ZN5physx2Gu11HeightField12loadFromDescERKNS_17PxHeightFieldDescEb
dHc:__ZN15QualitySettings12CleanupClassEv
Rea:__ZN21EnlightenSceneMappingaSERKS_
UTn:__ZL25UnresolvedVirtualCall_159P12Il2CppObjectiPK10MethodInfo
uxa:__ZN14SafeBinaryRead21TransferSTLStyleArrayI13dynamic_arrayI17SortingLayerEntryLj0EEEEvRT_17TransferMetaFlags
bLd:__ZL48__ManagedRegistrationHelperFunction_MeshColliderPv
Z5m:_List_1_GrowIfNeeded_m278824317_gshared
OZm:_U3CSortU3Ec__Iterator21_Dispose_m448183640_gshared
AYb:__ZN7ApiGLESD2Ev
jCn:_InflateBlocks_Free_m789816840
Tya:__ZN9Transform47ClearTransformHierarchyAndApplyToSerializedDataEv
EIn:_CertificateHandler_t2739891000_marshal_pinvoke
bFe:__ZN5physx6shdfnd8PoolBaseINS_2Gu30LargePersistentContactManifoldENS0_19ReflectionAllocatorIS3_EEE12allocateSlabEv
E2c:__ZN8JSONRead21TransferSTLStyleArrayINSt3__26vectorI8MonoPPtr13stl_allocatorIS3_L18MemLabelIdentifier1ELi16EEEEEEvRT_17TransferMetaFlags
A5:__ZNSt3__26__treeI19RepeatingLogMessageNS_4lessIS1_EE13stl_allocatorIS1_L18MemLabelIdentifier74ELi16EEE25__emplace_unique_key_argsIS1_JRKS1_EEENS_4pairINS_15__tree_iteratorIS1_PNS_11__tree_nodeIS1_PvEEiEEbEERKT_DpOT0_
ORl:_Dictionary_2_Remove_m789637624_gshared
ywj:_InputField_IsSelectionVisible_m3622592134
SIk:_AssemblyLoadEventHandler_Invoke_m1462077361
rAa:__ZN6Camera23VirtualRedirectTransferER19StreamedBinaryWriteILb0EE
Wdp:dynCall_fidi
_ko:__ZN15dense_hashtableINSt3__24pairIK10KeyWrapperINS1_IPK9FieldInfoP11Il2CppClassEEEjEES9_17ReflectionMapHashIS8_EN14dense_hash_mapIS9_jSD_NS9_14EqualsComparerINS0_8equal_toIS8_EEEENS0_9allocatorISB_EEE9SelectKeyESI_SK_E12resize_deltaEjj
rCd:__ZNK35b2SolveDiscreteIslandVelocitiesTask13GetRangeCountEv
J7l:_List_1_TrimExcess_m3433550210_gshared
Y2l:_List_1__ctor_m3719461429_gshared
hKe:__ZN5physx6shdfnd5ArrayIPNS_2Sc8BodyCoreENS0_19ReflectionAllocatorIS4_EEE6resizeEjRKS4_
Vao:__ZNK15dense_hashtableINSt3__24pairIK10KeyWrapperIPK19Il2CppGenericMethodEPK26Il2CppGenericMethodIndicesEES6_N6il2cpp8metadata23Il2CppGenericMethodHashEN14dense_hash_mapIS6_SA_SE_NS6_14EqualsComparerINSD_26Il2CppGenericMethodCompareEEENS0_9allocatorISB_EEE9SelectKeyESI_SK_E8min_sizeEjj
V$d:__ZN5physx3Cct26CharacterControllerManager16createControllerERNS_9PxPhysicsEPNS_7PxSceneERKNS_16PxControllerDescE
NFn:_GUILayoutEntry__ctor_m2229197035
e1:__ZN11UnityEngine15CloudWebService14RestDownloaderD2Ev
OTo:__ZN6il2cpp6icalls6System6System14ComponentModel14Win32Exception15W32ErrorMessageEi
fdk:_EnumBuilder_get_Assembly_m1175292766
Tfc:__Z29StdTemplateConversionFunctionIjhEbPvR14SafeBinaryRead
S3f:_TMP_SubMeshUI_GetPaddingForMaterial_m3359882614
ADa:__ZN15dense_hashtableINSt3__24pairIKN9ShaderLab7Program23ShaderKeywordSetAndHashEPKNS2_10SubProgramEEES4_NS3_24ShaderKeywordHashFunctorEN14dense_hash_mapIS4_S8_SA_NS0_8equal_toIS4_EE13stl_allocatorIS9_L18MemLabelIdentifier67ELi16EEE9SelectKeyESD_SG_E15insert_noresizeERKS9_
nxk:_Array_swap_TisCustomAttributeNamedArgument_t287865710_TisCustomAttributeNamedArgument_t287865710_m881919420_gshared
mUn:__ZL25UnresolvedVirtualCall_179P12Il2CppObjectffPK10MethodInfo
eMa:__ZN13RenderTexture12SetDimensionE16TextureDimension
y1j:_SslClientStream_set_ClientCertSelectionDelegate_m1261530976
F2g:__ZL78TMP_SpriteAsset_t484820633_CustomAttributesCacheGenerator_fallbackSpriteAssetsP21CustomAttributesCache
Oqa:__ZN9Scripting11UnityEngine16GradientColorKey9InitProxyEv
$e:_SDL_FreeRW
oNe:__ZN5physx6shdfnd8PoolBaseINS_2Cm5BlockIhLj128EEENS0_19ReflectionAllocatorIS4_EEE15disposeElementsEv
oTg:__ZL109ExecuteEvents_t3484638744_CustomAttributesCacheGenerator_ExecuteEvents_U3Cs_HandlerListPoolU3Em__0_m391641698P21CustomAttributesCache
gdi:__Z79RuntimeInvoker_Void_t1185182177_Int32_t2950945753_ParameterModifier_t1461694466PFvvEPK10MethodInfoPvPS4_
lFf:__Z34CanvasRenderer_Get_Custom_PropCullP12Il2CppObject
sxe:__ZN5physx3Scb14ParticleSystem14setRestOffsetsEjRKNS_16PxStrideIteratorIKjEERKNS2_IKfEE
CT:__ZN20SoundChannelInstance8getDelayE14FMOD_DELAYTYPEPjS1_
CSo:__ZNSt3__26__treeINS_12__value_typeIPvxEENS_19__map_value_compareIS2_S3_NS_4lessIS2_EELb1EEENS_9allocatorIS3_EEE12__find_equalIS2_EERPNS_16__tree_node_baseIS2_EESF_RKT_
RDa:__ZNSt3__26vectorIN20GpuProgramParameters15StructParameterENS_9allocatorIS2_EEEC2ERKS5_
Sxi:_ArrayReadOnlyList_1_Contains_m232667507_gshared
Llk:_Convert_ToInt32_m2128774575
ZSh:__Z77RuntimeInvoker_Boolean_t97287965_IntPtr_t_Int32_t2950945753_SByte_t1669577662PFvvEPK10MethodInfoPvPS4_
Alj:_PlayableHandle_GetPlayableType_m432385838_AdjustorThunk
e5o:_ShaderPropAnimator_Start_m2331709270
vlf:__ZNSt3__26vectorIN20TextRenderingPrivate8FontImpl13CharacterInfoE13stl_allocatorIS3_L18MemLabelIdentifier1ELi16EEE8__appendEj
v:tempBigInt
Mrm:_Array_InternalArray__Insert_TisKeyframe_t4206410242_m1558638568_gshared
Wog:__ZL77Convert_t2465617642_CustomAttributesCacheGenerator_Convert_ToByte_m3567528984P21CustomAttributesCache
hf:_emscripten_glVertexAttrib1fv
Fjc:__ZNSt3__26vectorIN9ShaderLab20SerializedSubProgram12UAVParameterENS_9allocatorIS3_EEE7reserveEj
XQf:__ZN29UnityWebRequestAsyncOperationD0Ev
a0i:_TcpClient_set_SendBufferSize_m3098002341
qSj:_BigInteger__ctor_m2644482640
ISl:_Dictionary_2_get_Keys_m2050540798_gshared
nap:__ZSt11__terminatePFvvE
XIe:__ZN5physx13NpVolumeCacheC2EPNS_2Sq17SceneQueryManagerEjj
OYo:_U3CSpawnHazardsU3Ec__Iterator4_System_Collections_Generic_IEnumeratorU3CobjectU3E_get_Current_m1604446665
r8d:__ZThn24_N5physx2Sc20ArticulationJointSimD1Ev
bQ:__ZN12AudioManager14systemCallbackEP11FMOD_SYSTEM24FMOD_SYSTEM_CALLBACKTYPEPvS3_
c$m:_Nullable_1_Equals_m4046255732_gshared
UMh:__Z53RuntimeInvoker_Single_t1397266774_Decimal_t2948259380PFvvEPK10MethodInfoPvPS4_
VSm:_ReadOnlyCollection_1_System_Collections_Generic_ICollectionU3CTU3E_Clear_m3451551308_gshared
cnh:_BaseMeshEffect_OnEnable_m3291426649
UCl:_Enumerator__ctor_m87788968_AdjustorThunk
saj:_ClassLibraryInitializer_Init_m988673678
ZIk:_AssemblyLoadEventHandler_BeginInvoke_m1281107466
txe:__ZN5physx2Sc18ParticleSystemCore14setRestOffsetsEjRKNS_16PxStrideIteratorIKjEERKNS2_IKfEE
NPo:_clear_marks_for_block
wYd:__ZN5physx2Gu16testPolyDataAxisERKNS0_8CapsuleVERKNS0_13PolygonalDataEPNS0_12SupportLocalERKNS_6shdfnd3aos6FloatVERSB_RNSA_5Vec3VE
hJj:_Array_InternalArray__ICollection_Contains_TisColor_t2555686324_m266224315_gshared
AJa:__ZN16ReflectionProbes16UpdateSampleDataEv
qed:__Z9UpdateTplIL27ParticleSystemCurveEvalMode1EEvRK11MinMaxCurveR23ParticleSystemParticlesjjPKN4math8floatNx3E
ibe:__ZN5physx2Sc17ParticleSystemSimD0Ev
kni:_TrackingServices_NotifyUnmarshaledObject_m2784831802
AOk:_ReadOnlyArrayListWrapper_Sort_m2577012511
Gma:__ZL46__ManagedRegistrationHelperFunction_UnityEventPv
jTl:_Dictionary_2_set_Item_m3394774875_gshared
nWl:_Enumerator_System_Collections_IEnumerator_get_Current_m2237476582_AdjustorThunk
mUk:_CultureInfo_GetCultureInfo_m56098747
DFo:__ZN15dense_hashtableINSt3__24pairIK10KeyWrapperIP12Il2CppObjectEN6il2cpp2gc9CachedCCWEEES5_NS7_5utils11PointerHashIS3_EEN14dense_hash_mapIS5_S9_SD_NS5_14EqualsComparerINS0_8equal_toIS4_EEEENS0_9allocatorISA_EEE9SelectKeyESI_SK_E3endEv
oRa:__ZN14Texture2DArray5ResetEv
G9b:__Z20AddActiveLocalLightsR11CullResultsR27LocalLightCullingParametersPPK15SharedLightDataPK8Vector4fRK9IndexListPfRSA_R12ActiveLightsSG_P5RectTIfEP13TargetEyeMask
Rdg:__ZL80Hashtable_t1853889766_CustomAttributesCacheGenerator_Hashtable__ctor_m1763145853P21CustomAttributesCache
ykk:_Convert_ToDecimal_m1284148187
EGm:_Collection_1__ctor_m3489157029_gshared
Ayg:__ZL117TouchScreenKeyboard_t731888065_CustomAttributesCacheGenerator_TouchScreenKeyboard_Open_m3609399077____autocorrection2P21CustomAttributesCache
TRi:_Enumerator_get_Current_m1675434384_gshared
_la:__ZL52__ManagedRegistrationHelperFunction_AndroidJNIHelperPv
ppf:_cf2_getNormalizedVector
hwa:__ZN5RectTIfE8TransferI18StreamedBinaryReadILb0EEEEvRT_
Ff:_JS_Sound_Play
pGl:_KeyCollection_GetEnumerator_m1862005650_gshared
STm:_ReadOnlyCollection_1_System_Collections_IList_set_Item_m1538987737_gshared
kPi:_DefaultComparer_Compare_m1920986590_gshared
q0j:_RecordProtocol_ProcessChangeCipherSpec_m15839975
wic:__ZN9ShaderLab16SerializedShader8TransferI14SafeBinaryReadEEvRT_
cab:__ZN5Mutex7TryLockEv
Beh:_TextMeshPro_ForceMeshUpdate_m19192154
MKg:__ZL103AudioSource_t3935305588_CustomAttributesCacheGenerator_AudioSource_ReadExtensionPropertyValue_m72717540P21CustomAttributesCache
HJh:_ConstructionCallDictionary_SetMethodProperty_m3145285304
Vvb:__ZN15SerializeTraitsI13dynamic_arrayIsLj0EEE19ResizeSTLStyleArrayERS1_i
D5a:__ZN11TimeManagerD2Ev
xzi:_InternalEnumerator_1_System_Collections_IEnumerator_get_Current_m1503522504_gshared
YF:__ZN7mecanim8skeleton13SkeletonAlignEPKNS0_8SkeletonERKN4math7_float4ES7_i
PGc:__ZN19ShaderPropertySheet16SetVectorIndexedEN9ShaderLab16FastPropertyNameEifRK8Vector4fNS_8SetFlagsE
Wml:_Type_get_IsAbstract_m1120089130
OPn:_Vector3_get_normalized_m2454957984_AdjustorThunk
ss:__ZN14SafeBinaryRead21TransferSTLStyleArrayIN4core12basic_stringIcNS1_20StringStorageDefaultIcEEEEEEvRT_17TransferMetaFlags
fJn:_DownloadHandlerBuffer_InternalGetData_m3771716959
_Em:_UriFormatException__ctor_m1115096473
ODi:_InternalEnumerator_1_Dispose_m2818366163_AdjustorThunk
bVi:_Dns_GetHostEntry_m3727355895
wMj:_Array_InternalArray__IEnumerable_GetEnumerator_TisSlot_t384495010_m460993382_gshared
hvo:__ZN15dense_hashtableINSt3__24pairIK10KeyWrapperINS1_IP11Il2CppClassjEEES4_EES6_N6il2cpp8metadata14ArrayClassHashEN14dense_hash_mapIS6_S4_SB_NS6_14EqualsComparerINSA_17ArrayClassCompareEEENS0_9allocatorIS8_EEE9SelectKeyESF_SH_E9copy_fromERKSK_j
vgc:__Z29StdTemplateConversionFunctionIayEbPvR14SafeBinaryRead
qCe:__ZNK5physx20NpRigidActorTemplateINS_13PxRigidStaticEE14getConstraintsEPPNS_12PxConstraintEjj
wRd:__ZN25MeshMTDGenerationCallbackD0Ev
Bji:__Z55RuntimeInvoker_Boolean_t97287965_Nullable_1_t2603721331PFvvEPK10MethodInfoPvPS4_
vHn:_GUIUtility_IsExitGUIException_m3644066650
F1:__ZN11UnityEngine15CloudWebService14DataDispatcher4StopEv
dVl:_LinkedList_1_System_Collections_Generic_ICollectionU3CTU3E_Add_m2568132950_gshared
y4i:_VertexZoom_OnEnable_m3348437111
Hjc:__ZNSt3__26vectorIN9ShaderLab20SerializedSubProgram12UAVParameterENS_9allocatorIS3_EEE8__appendEj
Ezi:_InternalEnumerator_1__ctor_m4191108945_gshared
Foo:__ZNK15dense_hashtableINSt3__24pairIK10KeyWrapperINS1_IPK9EventInfoP11Il2CppClassEEEjEES9_17ReflectionMapHashIS8_EN14dense_hash_mapIS9_jSD_NS9_14EqualsComparerINS0_8equal_toIS8_EEEENS0_9allocatorISB_EEE9SelectKeyESI_SK_E12test_deletedERK24dense_hashtable_iteratorISB_S9_SD_SM_SI_SK_E
LWc:__ZN5IMGUI9GUIWindow5OnGUIER8GUIState
YYn:_AudioConfigurationChangeHandler_EndInvoke_m4175380841
hEo:__ZN6il2cpp2gcL16find_first_unsetEj
XPo:_GC_maybe_gc
Hal:_Single_System_IConvertible_ToDecimal_m325860800_AdjustorThunk
Jpm:_Array_InternalArray__ICollection_CopyTo_TisSingle_t1397266774_m455540885_gshared
Gla:__ZN17ScriptingGCHandle7AcquireE18ScriptingObjectPtr25ScriptingGCHandleWeakness
mGl:_KeyCollection_System_Collections_ICollection_get_IsSynchronized_m829086683_gshared
sVh:__Z74RuntimeInvoker_RuntimeObject_RuntimeObject_Int64_t3736567304_RuntimeObjectPFvvEPK10MethodInfoPvPS4_
qhe:__ZN5physx12NpConstraint8comShiftEPNS_12PxRigidActorE
f_l:_List_1__cctor_m4073949629_gshared
qOl:_Enumerator__ctor_m1734342590_gshared
p9n:__ZN14dense_hash_mapI10KeyWrapperIPK11Il2CppClassEPKcN6il2cpp5utils11PointerHashIS1_EENS4_14EqualsComparerINSt3__28equal_toIS3_EEEENSC_9allocatorINSC_4pairIKS4_S6_EEEEE13set_empty_keyERSI_
tcp:dynCall_iifiii
kEb:__ZN18StreamedBinaryReadILb1EE8TransferI13dynamic_arrayIjLj0EEEEvRT_PKc17TransferMetaFlags
Imm:_HashSet_1__ctor_m620629637_gshared
MRa:__Z21HasAlphaTextureFormat13TextureFormat
bY:__ZN12AudioManager6UpdateEv
GRa:__ZN14ImageReference9BlitImageERKS_NS_8BlitModeE
bNm:_ReadOnlyCollection_1__ctor_m1345363288_gshared
Ow:__ZN8Animator12AddToManagerEv
S4j:_MissingFieldException__ctor_m3742452630
wLc:__Z26ApplyBlendShapesToVerticesR12SkinMeshInfoRKN4math5_int4EPNS1_8floatNx3ES6_
s2:__GLOBAL__sub_I_Runtime_Core_Callbacks_0_cpp
M5h:__Z119RuntimeInvoker_Boolean_t97287965_StringU26_t181565287_Int32_t2950945753_Int32U5BU5DU26_t4279986940_Int32U26_t1369213839PFvvEPK10MethodInfoPvPS4_
pQd:__ZNK5physx2Gu16SupportLocalImplINS0_11ConvexHullVEE9doSupportERKNS_6shdfnd3aos5Vec3VERNS5_6FloatVESA_
dKb:__ZN23CachedSerializationDataD2Ev
Sbc:__ZNK25CameraStackRenderingState31CalculateStereoCameraTargetTypeEv
yVd:__ZNK5physx3Cct13BoxController8getActorEv
_Ia:__ZN14RenderSettings23VirtualRedirectTransferER14SafeBinaryRead
ULi:_InternalEnumerator_1_get_Current_m114240259_gshared
cyd:__ZNK13b2CircleShape5CloneEP16b2BlockAllocator
JJo:__ZN6il2cpp2os10ThreadImpl15CurrentThreadIdEv
tAk:_Array_InternalArray__get_Item_TisLink_t3209266973_m1574224299_gshared
Nlj:_PlayerConnectionInternal_UnityEngine_IPlayerEditorConnectionNative_SendMessage_m389985885
oUc:__Z36Renderer_Set_Custom_PropSortingOrderP12Il2CppObjecti
rgk:_Queue_CopyTo_m737385843
_Ha:__ZN17GlobalGameManager8TransferI17RemapPPtrTransferEEvRT_
o5g:__ZL73FieldWithTarget_t3058750293_CustomAttributesCacheGenerator_m_StaticStringP21CustomAttributesCache
faf:__ZN5physx6shdfnd8internal8HashBaseIPNS_2Gu12TriangleMeshES5_NS0_4HashIS5_EENS1_11HashSetBaseIS5_S7_NS0_9AllocatorELb1EE6GetKeyES9_Lb1EE5eraseERKS5_
Y6k:_SymmetricAlgorithm_get_Key_m3241860519
pxj:_U3CMouseDragOutsideRectU3Ec__Iterator1_Reset_m2233410497
m2:__GLOBAL__sub_I_Runtime_Camera_5_cpp
lId:__ZN10Collider2DC2E10MemLabelId18ObjectCreationMode
JZj:_ClientSessionInfo_get_HostName_m2118440995
WGa:__ZN16LevelGameManager8TransferI18StreamedBinaryReadILb0EEEEvRT_
Cxf:_UNITY_tt_face_load_fpgm
Mya:__Z17IsObjectAvailablei
U5a:__ZN12InputManagerD0Ev
WMa:__Z32TransferEnumWithNameForceIntSizeI14SafeBinaryRead17TextureFilterModeEvRT_RT0_PKc17TransferMetaFlags
xlg:__ZL64DSASignatureFormatter_t2007981259_CustomAttributesCacheGeneratorP21CustomAttributesCache
xjl:_ExecutionContext_Capture_m681135907
sem:_Dictionary_2_System_Collections_IDictionary_Add_m4011968134_gshared
x6g:__ZL173U3CSpawnEnemyType1WaveU3Ec__Iterator5_t1046529208_CustomAttributesCacheGenerator_U3CSpawnEnemyType1WaveU3Ec__Iterator5_System_Collections_IEnumerator_get_Current_m1620577442P21CustomAttributesCache
Qkn:_TlsException__ctor_m818940807
Ohe:__ZN5physx2Sc9RigidCore20removeShapeFromSceneERNS0_9ShapeCoreEb
bGb:__Z18Transfer_BlittableI18StreamedBinaryReadILb0EELb1EtEvRK29SerializationCommandArgumentsR31RuntimeSerializationCommandInfo
BBi:_InternalEnumerator_1_System_Collections_IEnumerator_get_Current_m2889979481_AdjustorThunk
h9o:_posix_memalign
Jcf:__ZN5physx11RTreeCooker18buildFromTrianglesERNS_2Gu5RTreeEPKNS_6PxVec3EjPKtPKjjRNS_6shdfnd5ArrayIjNSB_19ReflectionAllocatorIjEEEEPNS0_13RemapCallbackEfNS_17PxMeshCookingHint4EnumE
Zbe:__ZN5physx6shdfnd5ArrayIPvNS0_15InlineAllocatorILj256ENS0_19ReflectionAllocatorINS_14NpArticulationEEEEEE15growAndPushBackERKS2_
Lnj:_Rect_get_position_m2115952571
Bxo:__ZN6il2cpp6icalls8mscorlib6System9ThreadingL13cache_cultureEP12Il2CppThreadP12Il2CppObjecti
DVl:_Enumerator__ctor_m81985385_AdjustorThunk
LIg:__ZL90SceneManager_t2787271929_CustomAttributesCacheGenerator_SceneManager_LoadScene_m1758133949P21CustomAttributesCache
cRm:_ReadOnlyCollection_1_get_Item_m4005849861_gshared
OFj:_Slider_get_direction_m3871593184
cwl:_ASN1_GetBytes_m3305539297
q6m:_List_1_Remove_m2092116835_gshared
yFg:__ZL86Logger_t274032455_CustomAttributesCacheGenerator_Logger_LogFormat_m3030796110____args2P21CustomAttributesCache
zpg:__ZL77Convert_t2465617642_CustomAttributesCacheGenerator_Convert_ToSByte_m717245755P21CustomAttributesCache
QOi:_DefaultComparer__ctor_m2039558311_gshared
D9:__ZNK15MonoScriptCache7ReleaseEv
Uum:_Array_Resize_TisTMP_LinkInfo_t1092083476_m3599428600_gshared
V_e:__ZN5physx9PxTaskMgrC2EPNS_15PxCpuDispatcherEPNS_15PxGpuDispatcherEPNS_15PxSpuDispatcherE
UMk:_CLSCompliantAttribute__ctor_m581760440
Tg:_glBindTexture
x7o:_snprintf
a$k:_InvalidCastException__ctor_m2551002860
jpm:_Array_InternalArray__ICollection_CopyTo_TisKeyValuePair_2_t2401056908_m4025041902_gshared
Fnm:_KeyValuePair_2__ctor_m844205450_gshared
fEn:_TMP_WordInfo_GetWord_m3252148633
xip:_emscripten_glVertexAttrib1fv__wrapper
adj:_InvokableCallList_RemoveListener_m1769379719
oGc:__ZN16LevelGameManagerC2E10MemLabelId18ObjectCreationMode
B2m:_List_1_Reverse_m3290386475_gshared
yQm:_ReadOnlyCollection_1_get_Item_m3393001889_gshared
iWf:_TMP_Dropdown_OnSubmit_m278619292
_ij:_MonoBehaviour_Internal_IsInvokingAll_m2820042090
Vgp:_emscripten_glGetProgramInfoLog__wrapper
Fv:__ZN25AnimatedPropertyEvaluator29BindCurveToScriptingObjectPtrERKN13AnimationClip10FloatCurveEj18ScriptingObjectPtrb
V$a:__ZN13ScreenManager20SetScreenOrientationE17ScreenOrientation
a6o:_U3CRevealWordsU3Ec__Iterator1_Reset_m1198161461
qbn:_Collection_1_SetItem_m1090516645_gshared
MUg:__ZL52InputMode_t3382566315_CustomAttributesCacheGeneratorP21CustomAttributesCache
I8k:_String_Equals_m1744302937
gcj:_Display__ctor_m501911701
kOm:_ReadOnlyCollection_1_System_Collections_Generic_IListU3CTU3E_Insert_m1020890112_gshared
MQk:_Hashtable__cctor_m4112166779
$qh:_Dropdown_get_onValueChanged_m2462066659
oqh:_DefaultControls_SetDefaultTextValues_m1943359795
ofi:__Z62RuntimeInvoker_TMP_CharacterInfo_t3185626797_Int32_t2950945753PFvvEPK10MethodInfoPvPS4_
m4b:__Z19SetupMotionMatricesR6CameraR18RPDataMotionVector
G3n:__ZL7log2_64y
T3f:_TMP_SubMeshUI_UpdateMeshPadding_m567989066
xH:__ZN26AnimatorControllerPlayable18PrepareForPlaybackERN7mecanim6memory9AllocatorE
LH:__ZN8Animator11AnimatorJob11AddPlayableEP17AnimationPlayablef
kuh:_GridLayoutGroup_get_cellSize_m2967185053
aRe:__ZN5physx19PxsMaterialCombiner24combineIsotropicFrictionERKNS_15PxsMaterialDataES3_
qmn:_PKCS12_Decrypt_m1280162536
jUl:_Dictionary_2_Add_m1679778769_gshared
KBi:_InternalEnumerator_1_get_Current_m3081223448_gshared
_En:_Event_get_isMouse_m1058251071
eCm:_AnchorInfo_get_IsPosition_m2100552190
kGa:__ZN10VertexDataC2ERKS_17ShaderChannelMask10MemLabelId
P$c:__ZL22Transfer_ManagedObjectI9JSONWriteLb1EEvRK29SerializationCommandArgumentsR31RuntimeSerializationCommandInfo
wSf:__Z66Register_UnityEngine_Networking_UnityWebRequest_get_isNetworkErrorv
jdn:_Collection_1_IndexOf_m3762683187_gshared
qsf:_otv_JSTF_validate
UDa:__ZN22CreateGpuProgramOutputC2Ev
Ean:_Collection_1_get_Count_m4004951847_gshared
yTj:_BigInteger_op_LessThanOrEqual_m3925173639
yYm:_Func_2_BeginInvoke_m3038845896_gshared
pdj:_PersistentCallGroup_Initialize_m4253175514
OJk:_Boolean_System_IConvertible_ToChar_m4279513009_AdjustorThunk
FQk:_Hashtable__ctor_m1763145853
Jbg:__ZL66RuntimeArray_CustomAttributesCacheGenerator_Array_Sort_m3145621264P21CustomAttributesCache
dxj:_InputField_get_layoutPriority_m2945430764
z7j:_NumberFormatter_ScaleOrder_m3813786990
t9k:_StrongName_get_Name_m1932850490
L2h:__Z43RuntimeInvoker_VerticalWrapMode_t2936607737PFvvEPK10MethodInfoPvPS4_
WUl:_Enumerator_System_Collections_IEnumerator_Reset_m2550940120_gshared
Wim:_EqualityComparer_1__ctor_m2241711498_gshared
XBm:_AnchorInfo_get_Offset_m2045445765
Nwi:__ZN25GenericVirtActionInvoker2IP12Il2CppObjectS1_E6InvokeEPK10MethodInfoS1_S1_S1_
iyl:_PrivateKeyInfo_DecodeDSA_m771724585
xqm:_Array_InternalArray__Insert_TisProgressHandler_t926933139_m28642970_gshared
X5o:_U3CRevealCharactersU3Ec__Iterator0_Reset_m322011311
cpg:__ZL81Convert_t2465617642_CustomAttributesCacheGenerator_Convert_ToDateTime_m1031474510P21CustomAttributesCache
Saf:__ZN5physx7Cooking16cookTriangleMeshERKNS_18PxTriangleMeshDescERNS_14PxOutputStreamE
xym:_Interval_get_Size_m4163671410_AdjustorThunk
PSg:__ZL53EventHandle_t600343995_CustomAttributesCacheGeneratorP21CustomAttributesCache
Xdf:__ZN14CompletionTask4InitEPN5physx7PxSceneE
POk:_SynchronizedArrayListWrapper_get_SyncRoot_m3862302789
j9d:__ZN5physx2Sc7ElementD0Ev
Epl:_UInt32_System_IConvertible_ToSByte_m1061556466
odf:__ZN5physx6shdfnd10Foundation7releaseEv
Joi:_WellKnownClientTypeEntry__ctor_m2471908952
X7n:__ZN6il2cpp2vm5Class4InitEP11Il2CppClass
gd:invoke_vidi
P8j:_NumberFormatter_FormatRoundtrip_m19342689
noi:_RemotingServices_CreateClientProxyForContextBound_m783705199
L3h:__Z30RuntimeInvoker_Axis_t809944411PFvvEPK10MethodInfoPvPS4_
sMc:__ZNK15GUIEventManager15GetEventAtIndexEi
kjn:_InternalAsyncResult_get_ProceedAfterHandshake_m2508379800
jHf:__ZN2UI14CanvasRenderer17SyncDirtyElementsER8JobFence
ZFb:__Z18Transfer_BlittableI18StreamedBinaryReadILb0EELb0ExEvRK29SerializationCommandArgumentsR31RuntimeSerializationCommandInfo
Ymk:_Convert_ToUInt16_m2952781888
jBl:_Enumerator_System_Collections_IEnumerator_get_Current_m3816090481_gshared
ELo:__ZN6il2cpp5utils11StringUtils15StringDuplicateEPKc
qhm:_DefaultComparer_Equals_m2480133610_gshared
kDa:__ZNK9ShaderLab21ShaderRasterStateDesc16ToGfxRasterStateEPK19ShaderPropertySheetS3_R14GfxRasterState
z9m:_Collection_1_System_Collections_IList_IndexOf_m2231213796_gshared
Uwk:_Array_Sort_TisVector3_t3722313464_m1915176437_gshared
gVo:__ZN6il2cpp2os9EventImplC2Ebb
Eid:__Z12RangedRandomR5RandNRKiS2_
Y5f:_TMP_Text_set_maxVisibleCharacters_m1275491376
oEj:_ScrollRect_OnInitializePotentialDrag_m3139711961
h5l:_List_1_System_Collections_IList_get_IsFixedSize_m3566150119_gshared
NJ:__ZN4PPtrI13MonoBehaviourE8TransferI19StreamedBinaryWriteILb0EEEEvRT_
L1m:_List_1_get_Item_m2113769949_gshared
fAj:_MaskableGraphic_OnTransformParentChanged_m329502413
LCa:__ZN12FlareManager12RemoveCameraER6Camera
yqj:_ScriptableObject_t2528358522_marshal_pinvoke
V5:__Z20IsMatrixBuiltinParamPKcPi
cpo:__ZN6il2cpp2gc19AppendOnlyGCHashMapINSt3__24pairIPK10MethodInfoP11Il2CppClassEEP11Il2CppArray17ReflectionMapHashIS9_ENS2_8equal_toIS9_EEEC2Ev
xXi:_SslStream_BeginWrite_m831482228
q8k:_String_memcpy4_m979367827
dal:_SecurityFrame_t1422462475_marshal_pinvoke
ymo:__ZN15dense_hashtableINSt3__24pairIK10KeyWrapperINS1_IPK10MethodInfoP11Il2CppClassEEEjEES9_17ReflectionMapHashIS8_EN14dense_hash_mapIS9_jSD_NS9_14EqualsComparerINS0_8equal_toIS8_EEEENS0_9allocatorISB_EEE9SelectKeyESI_SK_E16reset_thresholdsEv
Bhl:_UnicodeEncoding_GetBytesInternal_m1902824297
rGc:__ZN8Renderer19PostInitializeClassEv
AOj:_Array_FindIndex_TisRuntimeObject_m2504082708_gshared
fHf:__ZNSt3__26__treeINS_12__value_typeINS_4pairIKiS3_EEN2UI14DepthSortLayerEEENS_19__map_value_compareIS4_S7_NS_4lessIS4_EELb1EEE13stl_allocatorIS7_L18MemLabelIdentifier1ELi16EEE25__emplace_unique_key_argsIS4_JRKNS_21piecewise_construct_tENS_5tupleIJOS4_EEENSK_IJEEEEEENS2_INS_15__tree_iteratorIS7_PNS_11__tree_nodeIS7_PvEEiEEbEERKT_DpOT0_
oom:_Array_InternalArray__ICollection_Add_TisSpriteData_t3048397587_m2279685385_gshared
hon:_X509Chain_FindCertificateRoot_m1937726457
c4k:_StreamAsyncResult_get_AsyncWaitHandle_m3390046559
WKf:__ZN11UnityEngine15PlatformWrapper21GetVRPlayAreaGeometryER13dynamic_arrayI8Vector3fLj0EE
sRo:__ZN6il2cpp6icalls8mscorlib6System8Delegate23CreateDelegate_internalEP20Il2CppReflectionTypeP12Il2CppObjectP22Il2CppReflectionMethodb
kCl:_Enumerator_System_Collections_IEnumerator_get_Current_m921113401_AdjustorThunk
xQk:_DictionaryEntry_get_Value_m618120527_AdjustorThunk
wJb:__ZN18DelayedCallManager18CancelCallDelayed2E4PPtrI6ObjectEPF15CallObjectStatePS1_PvES7_
Pwa:__ZN25ThreadsafeLinearAllocator10ReallocateEPvji
Vsb:__Z18Transfer_BlittableI14SafeBinaryReadLb1E11QuaternionfEvRK29SerializationCommandArgumentsR31RuntimeSerializationCommandInfo
tfe:__ZNK5physx18PxArticulationLink8isKindOfEPKc
Uia:__ZN18SpriteAtlasManagerD0Ev
fz:__ZN7mecanim9animation10SampleClipERKNS0_12ConstantClipEjPf
bmm:_GenericEqualityComparer_1__ctor_m1058369027_gshared
Ydh:_TextContainer_OnRectTransformDimensionsChange_m2148637261
Uzl:_Enumerator_System_Collections_IDictionaryEnumerator_get_Key_m1314958700_gshared
U8h:__Z57RuntimeInvoker_Boolean_t97287965_KeyValuePair_2_t71524366PFvvEPK10MethodInfoPvPS4_
c_a:__ZN10Matrix4x4f8TransferI14SafeBinaryReadEEvRT_
Bn:FUNCTION_TABLE_vifiiiiiiiiiiiiiiiiii
qXn:__ZL25UnresolvedVirtualCall_345P12Il2CppObjecti19Vector4_t3319028937PK10MethodInfo
pti:_CryptographicUnexpectedOperationException__ctor_m2381988196
Hpo:__ZN14dense_hash_mapI10KeyWrapperIPK22Il2CppGenericParameterEPK24MonoGenericParameterInfoN6il2cpp5utils11PointerHashIS2_EENS4_14EqualsComparerINSt3__28equal_toIS3_EEEENSD_9allocatorINSD_4pairIKS4_S7_EEEEE15set_deleted_keyERSJ_
uH:__ZN14AvatarPlayback8StopTimeEv
nEi:_InternalEnumerator_1_System_Collections_IEnumerator_get_Current_m4213507601_gshared
hda:__Z6AppendRKN4core12basic_stringIcNS_20StringStorageDefaultIcEEEEPKc
ugk:_Queue_Clone_m178259971
P5i:_Cookie_ToString_m3245013858
Ucb:__ZL14OnWorldStoppedv
FMj:_Array_InternalArray__IEnumerable_GetEnumerator_TisCustomAttributeNamedArgument_t287865710_m523021714_gshared
dEo:__ZN6il2cpp2vm6Object12NullableInitEPhP12Il2CppObjectP11Il2CppClass
cJm:__ZN21InterfaceFuncInvoker1I19Vector4_t3319028937iE6InvokeEjP11Il2CppClassP12Il2CppObjecti
Toa:__ZN9Scripting11UnityEngine16TrackedReference12CleanupProxyEv
MTi:__KeysEnumerator_MoveNext_m4289758929
ouo:__ZN6il2cpp2vm6Thread10InitializeEv
hof:__ZN20TextRenderingPrivate19NativeTextGeneratorC2ERK11UTF16StringPNS_8FontImplE11ColorRGBA32ifRK8Vector2fbifiibffbbP13dynamic_arrayIN2UI8UIVertexELj0EE
Hfk:_HashKeys_get_SyncRoot_m3757723936
nHn:_GUIUtility_RemoveCapture_m1294193818
wSb:__ZN7ApiGLES18ClearBufferSubDataEjN2gl12BufferTargetEll
Qvc:__Z37Camera_Get_Custom_PropAllCamerasCountv
PSa:__ZN14Texture2DArray8TransferI18StreamedBinaryReadILb0EEEEvRT_
h5m:_List_1_CopyTo_m2746988508_gshared
Pie:__ZN5physx15NpActorTemplateINS_18PxArticulationLinkEED2Ev
yXc:__Z38Register_UnityEngine_GUIStyle_get_namev
ZQb:__ZN13GfxDeviceGLES13AfterDrawCallEv
ezf:_Split_Cubic
pb:invoke_fiiii
Owj:_InputField_OnSubmit_m3583210804
Nsg:__ZL64CipherSuiteCollection_t1129639304_CustomAttributesCacheGeneratorP21CustomAttributesCache
ZNg:__ZL72GUISkin_t1244372282_CustomAttributesCacheGenerator_m_horizontalScrollbarP21CustomAttributesCache
wQe:__ZN5physx2Sc32DefaultClothInterCollisionFilterEPvS1_
dEm:_Uri_CheckHostName_m2213216182
z7i:_Request_U3CSendU3Em__0_m3036197640
w$i:_SocketAsyncResult_t2080034863_marshal_pinvoke
Tfn:_Collection_1_CopyTo_m819221634_gshared
LUj:_HMAC_set_Key_m3535779141
hke:__ZN5physx2Sc16ArticulationCore26setMaxProjectionIterationsEj
aZf:_TMP_InputField_get_asteriskChar_m1201011147
ZZd:__ZN26IntersectAnyVsMeshCallbackILi1ELb0EED2Ev
ILi:_InternalEnumerator_1_System_Collections_IEnumerator_Reset_m729791527_AdjustorThunk
UNk:_ArrayListWrapper_Contains_m2641184447
A9k:_WindowsIdentity__ctor_m3086466707
Ryf:_ft_black_render
qhi:__Z92RuntimeInvoker_RuntimeObject_Int32_t2950945753_Int16_t2552820387_RuntimeObject_RuntimeObjectPFvvEPK10MethodInfoPvPS4_
vSh:__Z177RuntimeInvoker_Int32_t2950945753_RuntimeObject_Int32_t2950945753_Int32_t2950945753_RuntimeObject_Int32_t2950945753_EncoderFallbackBufferU26_t2343550713_CharU5BU5DU26_t3299466565PFvvEPK10MethodInfoPvPS4_
cep:dynCall_viiifi
jVb:__ZN18GfxFramebufferGLES20ActiveContextChangedEPP17RenderSurfaceBaseS2_
zFg:__ZL86Logger_t274032455_CustomAttributesCacheGenerator_Logger_LogFormat_m3300686007____args3P21CustomAttributesCache
Epb:__Z19PluginsRenderMarkeri
JNi:_InternalEnumerator_1__ctor_m2307827786_AdjustorThunk
xK:__ZN10HumanTrait18InitializeBoneNameEv
Ojc:__ZNSt3__26vectorIN9ShaderLab20SerializedSubProgram15StructParameterENS_9allocatorIS3_EEE6assignINS_11__wrap_iterIPS3_EEEENS_9enable_ifIXaasr21__is_forward_iteratorIT_EE5valuesr16is_constructibleIS3_NS_15iterator_traitsISC_E9referenceEEE5valueEvE4typeESC_SC_
nRa:__ZN14Texture2DArray21AwakeFromLoadThreadedEv
tnm:_KeyValuePair_2_ToString_m823870646_gshared
ZGb:__Z29Transfer_Blittable_ArrayFieldI18StreamedBinaryReadILb0EEyEvRT_R9ArrayInfoRK23StaticTransferFieldInfo
esj:_Touch_get_position_m3109777936_AdjustorThunk
ECo:__ZNSt3__214__split_bufferIN6il2cpp2vm5Image20EmbeddedResourceDataERNS_9allocatorIS4_EEEC2EjjS7_
IMg:__ZL66SkeletonBone_t4134054672_CustomAttributesCacheGenerator_parentNameP21CustomAttributesCache
dse:__ZNK5physx7NpCloth25getNbSelfCollisionIndicesEv
wah:__ZL138U3CAnimateVertexColorsU3Ec__Iterator0_t3792186008_CustomAttributesCacheGenerator_U3CAnimateVertexColorsU3Ec__Iterator0_Dispose_m2282594160P21CustomAttributesCache
Gnh:_CanvasScaler_set_screenMatchMode_m2975492035
PZm:_U3CSortU3Ec__Iterator21_Reset_m1241298888_gshared
bJf:__Z69Register_UnityEngine_Analytics_UnityAnalyticsHandler_Internal_Destroyv
MWo:_EnemyBossScript_Update_m512555062
oZi:_X509Certificate2Collection_Add_m3151757943
acg:__ZL83RuntimeArray_CustomAttributesCacheGenerator_RuntimeArray____LongLength_PropertyInfoP21CustomAttributesCache
UOg:__ZL100GUIUtility_t1868551600_CustomAttributesCacheGenerator_GUIUtility_Internal_GetDefaultSkin_m2977444868P21CustomAttributesCache
Okf:__ZN9Scripting11UnityEngine13CharacterInfo9InitProxyEv
Byd:__ZNSt3__227__insertion_sort_incompleteIR15DepthComparitorP8DepthHitEEbT0_S5_T_
uXn:__ZL25UnresolvedVirtualCall_349P12Il2CppObject26KeyValuePair_2_t2530217319PK10MethodInfo
Fjk:_DateTime_AddMilliseconds_m3713972790
NPk:_CaseInsensitiveHashCodeProvider_get_DefaultInvariant_m4264275163
t8e:__ZNK5physx2Gu10ConvexMesh17getReferenceCountEv
_qg:__ZL67IndexOutOfRangeException_t1578797820_CustomAttributesCacheGeneratorP21CustomAttributesCache
MSh:__Z195RuntimeInvoker_Int32_t2950945753_RuntimeObject_Int32_t2950945753_Int32_t2950945753_Int32_t2950945753_RuntimeObject_DecoderFallbackBufferU26_t3866396827_ByteU5BU5DU26_t4057885439_SByte_t1669577662PFvvEPK10MethodInfoPvPS4_
tIe:__ZN5physx2Sc5Scene22setNbContactDataBlocksEj
cZ:__ZN5physx14PxLightCpuTask12addReferenceEv
FFa:__ZNK15InstancingProps35FillInstanceBufferDispatchConstantsIN10Instancing14RenderLoopArgsEEEvPPvjjRK19ShaderPropertySheetRKT_
Y9h:__Z86RuntimeInvoker_Int32_t2950945753_Color32_t2600501292_Color32_t2600501292_RuntimeObjectPFvvEPK10MethodInfoPvPS4_
qZa:__ZN21EnlightenSceneMapping8TransferI19StreamedBinaryWriteILb0EEEEvRT_
zFo:__ZN6il2cpp2gc16GarbageCollector19InitializeFinalizerEv
IC:__ZN7mecanim8skeleton18CreateSkeletonMaskEjPKNS0_19SkeletonMaskElementERNS_6memory9AllocatorE
JUm:_ReadOnlyCollection_1_System_Collections_Generic_ICollectionU3CTU3E_get_IsReadOnly_m2508509261_gshared
iYc:__ZN10GUIManager10DoGUIEventER10InputEventb
Oyb:__Z35Transfer_Blittable_FixedBufferFieldI24GenerateTypeTreeTransferxEvRK29SerializationCommandArgumentsR31RuntimeSerializationCommandInfo
etf:_otv_LangSys_validate
Ooj:_RectOffset_get_right_m2294081512
D6j:_MonoType_getFullName_m837685882
D1f:_TMP_Settings_GetSettings_m2819480199
zyh:__ZN25GenericVirtActionInvoker1IP20Delegate_t1188392813E6InvokeEPK10MethodInfoP12Il2CppObjectS1_
rsm:_Array_InternalArray__set_Item_TisLink_t544317964_m1234244240_gshared
Ixf:_UNITY_TT_Init_Glyph_Loading
zMm:_ReadOnlyCollection_1_System_Collections_Generic_ICollectionU3CTU3E_Clear_m1624648842_gshared
GKc:__Z20CalculateSqrDistanceRK8Vector3fRK4AABB
grh:_OptionData_get_text_m2997376818
eEl:_Enumerator__ctor_m324536319_gshared
$df:__ZN14PhysicsManager15ProcessContactsEv
lAk:_Array_InternalArray__get_Item_TisProgressHandler_t926933139_m2560246503_gshared
hri:_SerializationInfo_GetBoolean_m1756153320
_Sd:__ZN21BoxTraceSegmentReport7onEventEjPj
afe:__ZN5physx2Sc21ArticulationJointCore13setSwingLimitEff
SR:__Z32AudioMixerDuckingProcessCallbackP21UnityAudioEffectStatePfS1_jii
ZXd:__ZL20HullProjectionCB_BoxRKN5physx2Gu13PolygonalDataERKNS_6PxVec3ERKNS_2Cm8Matrix34ERKNS7_23FastVertex2ShapeScalingERfSE_
uij:_Mesh_get_uv2_m3615020997
bOm:_ReadOnlyCollection_1_Contains_m2979956790_gshared
ZWi:__ZN21InterfaceFuncInvoker4IP26X509Certificate_t713131622P8String_tP37X509CertificateCollection_t3399372417S1_P24StringU5BU5D_t1281789340E6InvokeEjP11Il2CppClassP12Il2CppObjectS3_S5_S1_S7_
qKe:__ZN5physx17PxcNpMemBlockPool19releaseUnusedBlocksEv
Kim:_EqualityComparer_1_System_Collections_IEqualityComparer_Equals_m4172006498_gshared
VWe:__ZN5physx14PxsAABBManager21selfCollideAggregatesEPKNS_19AggregateSortedDataE
Z5o:_U3CRevealWordsU3Ec__Iterator1_System_Collections_Generic_IEnumeratorU3CobjectU3E_get_Current_m1535463873
TN:__ZN12AudioManager8TransferI24GenerateTypeTreeTransferEEvRT_
_tm:_Array_qsort_TisOrderBlock_t1585977831_m3322202512_gshared
mhj:_Mathf_Round_m4098141538
Bkd:__ZN16CustomDataModuleD0Ev
xBc:__ZZL31RegisterRectTransformPropertiesR22GenericPropertyBindingEN28Wrapper_RectTransformPivotx013GetFloatValueEPv
r0a:__ZN9Texture3D19UnloadFromGfxDeviceEb
wxo:__ZN6il2cpp6icalls8mscorlib6System9Threading6Thread20Thread_free_internalEP12Il2CppThreadi
k9l:_List_1_AddRange_m2456636986_gshared
hNb:__ZNK11PreloadData18GetInstanceIDArrayER13dynamic_arrayIiLj0EE
dAm:_PatternCompiler_EmitRepeat_m697083858
Xwb:__Z18Transfer_BlittableI17RemapPPtrTransferLb0EsEvRK29SerializationCommandArgumentsR31RuntimeSerializationCommandInfo
hSg:__ZL64UnityAnalyticsHandler_t3011359618_CustomAttributesCacheGeneratorP21CustomAttributesCache
LTi:__KeysEnumerator_get_Current_m2996478063
K$f:_TMP_LinkInfo_GetLinkText_m1788600626
scp:dynCall_iifff
sKd:__ZN19ControllerHitReportD2Ev
Aaa:__Z32scripting_class_get_assemblyname17ScriptingClassPtr
_xd:__ZN9b2Simplex9ReadCacheEPK14b2SimplexCachePK15b2DistanceProxyRK11b2TransformS5_S8_
s_g:__ZL109LayoutUtility_t2745813735_CustomAttributesCacheGenerator_LayoutUtility_U3CGetFlexibleWidthU3Em__3_m1091238571P21CustomAttributesCache
LKl:__ZN21InterfaceFuncInvoker2IxxP12Il2CppObjectE6InvokeEjP11Il2CppClassS1_xS1_
t2h:__Z99RuntimeInvoker_Boolean_t97287965_Int32_t2950945753_PointerEventDataU26_t867828220_SByte_t1669577662PFvvEPK10MethodInfoPvPS4_
lKd:__Z50Register_UnityEngine_Rigidbody2D_AddForce_Injectedv
hTe:__ZN5physx26PxcFrictionPatchStreamPairC2ERNS_17PxcNpMemBlockPoolE
VCi:_InternalEnumerator_1_get_Current_m2128158355_AdjustorThunk
_mb:__ZN9GfxDevice21RegisterNativeTextureE9TextureIDi16TextureDimension
Ysh:_GraphicRegistry__ctor_m1851575309
xci:__Z52RuntimeInvoker_Void_t1185182177_Keyframe_t4206410242PFvvEPK10MethodInfoPvPS4_
pAf:__Z13RegisterClassIN20TextRenderingPrivate8TextMeshEEvPKc
uSo:__ZN6il2cpp6icalls8mscorlib6System10Reflection4Emit11TypeBuilder20create_generic_classEP27Il2CppReflectionTypeBuilder
uVb:__ZNK16UniformCacheGLES6SubmitEjRK13dynamic_arrayIN20GpuProgramParameters14ValueParameterELj0EERKS0_IiLj0EE
yLj:_PlayableHandle_IsPlayableOfType_TisAnimationLayerMixerPlayable_t3631223897_m201603007_gshared
Ung:__ZL50Monitor_t2197244473_CustomAttributesCacheGeneratorP21CustomAttributesCache
Aio:__ZNSt3__26vectorIPK10MethodInfoNS_9allocatorIS3_EEE26__swap_out_circular_bufferERNS_14__split_bufferIS3_RS5_EE
Y8g:__ZL112U3CWarpTextU3Ec__Iterator0_t116130919_CustomAttributesCacheGenerator_U3CWarpTextU3Ec__Iterator0__ctor_m204851405P21CustomAttributesCache
QGo:__ZN6il2cpp2os10SocketImpl6CreateENS0_13AddressFamilyENS0_10SocketTypeENS0_12ProtocolTypeE
iZo:_Scoreboard_get_Score_m459727822
RTj:_PrimalityTest_EndInvoke_m1035389364
xW:__Z60Register_UnityEngine_AudioListener_GetNumExtensionPropertiesv
Mj:_emscripten_glUniformMatrix4fv
wvo:__ZN15dense_hashtableINSt3__24pairIK10KeyWrapperINS1_IP11Il2CppClassjEEES4_EES6_N6il2cpp8metadata14ArrayClassHashEN14dense_hash_mapIS6_S4_SB_NS6_14EqualsComparerINSA_17ArrayClassCompareEEENS0_9allocatorIS8_EEE9SelectKeyESF_SH_E13set_empty_keyERKS8_
Gdb:__ZN12ScriptMapperD2Ev
p_o:_LaserBeamCollision_OnCollisionEnter2D_m3419821879
wOl:_Enumerator_Dispose_m3040896940_AdjustorThunk
rOd:__ZN9Rigidbody13AwakeFromLoadE17AwakeFromLoadMode
yij:_Mesh_get_colors32_m1253190811
h6c:__ZN9SubModule8TransferI14SafeBinaryReadEEvRT_
GOo:_GC_stopped_mark
STf:__ZL59__ManagedRegistrationHelperFunction_SubsystemDescriptorBasePv
Y7i:_AnimationCurve_Finalize_m2397002729
K5c:__ZN14ParticleSystem15AddCustomLightsERK27LocalLightCullingParametersRK11CullResultsR12ActiveLightsRi9LightType
Jke:__ZNK5physx14NpSceneQueries10multiQueryINS_12PxOverlapHitEEEbRKNS_15MultiQueryInputERNS_13PxHitCallbackIT_EENS_7PxFlagsINS_9PxHitFlag4EnumEtEEPKNS_12PxQueryCacheERKNS_17PxQueryFilterDataEPNS_21PxQueryFilterCallbackEPNS_20BatchQueryFilterDataE
Xji:__Z50RuntimeInvoker_RuntimeObject_ColorTween_t809614380PFvvEPK10MethodInfoPvPS4_
pNi:_InternalEnumerator_1__ctor_m945079686_AdjustorThunk
Qqi:_SerializationCallbacks__cctor_m1674315180
pXn:__ZL25UnresolvedVirtualCall_344P12Il2CppObjectiPK10MethodInfo
Pkc:__Z32TransferEnumWithNameForceIntSizeI14SafeBinaryRead7FogModeEvRT_RT0_PKc17TransferMetaFlags
DTn:__ZL25UnresolvedVirtualCall_142P12Il2CppObject17Color_t2555686324PK10MethodInfo
BCa:__ZNSt3__26vectorIN12FlareManager10FlareEntryENS_9allocatorIS2_EEE21__push_back_slow_pathIS2_EEvOT_
Cmc:__ZN9ShaderLab20SerializedSubProgram16TextureParameter8TransferI19StreamedBinaryWriteILb0EEEEvRT_
Mb:invoke_fiiiiiiiifiiiif
Amd:__ZN14ParticleSystem23RendererBecameInvisibleEv
Rva:__ZNK7Hash12812PackToUInt32Ev
RFl:_KeyCollection__ctor_m1035147995_gshared
EVn:__ZL25UnresolvedVirtualCall_251P12Il2CppObjectiaPK10MethodInfo
vog:__ZL77AppDomain_t1571427825_CustomAttributesCacheGenerator_type_resolve_in_progressP21CustomAttributesCache
KAf:__ZZN20TextRenderingPrivate8TextMesh15InitializeClassEvEN31FunctorImpl_299kDidAddComponent4CallEPviR11MessageData
sca:__ZNSt3__227__insertion_sort_incompleteIRNS_6__lessI14ObjectLoadDataS2_EEPS2_EEbT0_S6_T_
N1:__ZN11UnityEngine15CloudWebService16SessionContainer8AddEventEPNS0_14CloudEventInfoE
drb:__Z4TrimRKN4core12basic_stringIcNS_20StringStorageDefaultIcEEEES5_
jSm:_ReadOnlyCollection_1_CopyTo_m209634623_gshared
MZi:_SPKey_Equals_m4205549017
Wyk:_Dictionary_2_Do_ICollectionCopyTo_TisKeyValuePair_2_t3842366416_m1399105608_gshared
$Sg:__ZL77ExecuteEvents_t3484638744_CustomAttributesCacheGenerator_U3CU3Ef__mgU24cache2P21CustomAttributesCache
C1i:_X509Certificate2_Import_m4026562329
Zkk:_Convert_ToDouble_m996590115
sEl:_Enumerator_System_Collections_IEnumerator_get_Current_m2763095718_AdjustorThunk
Njp:_glGetStringi__wrapper
_fm:_DefaultComparer_Equals_m4141672650_gshared
_Za:__ZN10VertexData8TransferI14SafeBinaryReadEEvRT_
hee:__ZN5physx19NpArticulationJointD0Ev
pia:__ZN13RuntimeStaticI12AdsIdHandlerLb0EE16StaticInitializeEPv
uQo:_GC_malloc_atomic
hgf:__ZN5physx9NpPhysics14createInstanceEjRNS_12PxFoundationERKNS_17PxTolerancesScaleEbPNS_20PxProfileZoneManagerE
zef:__Z59Register_UnityEngine_Physics_INTERNAL_CALL_Internal_Raycastv
anm:_HashSet_1_GetEnumerator_m3346268098_gshared
oTn:__ZL25UnresolvedVirtualCall_127P12Il2CppObject34ScriptableRenderContext_t274343796S0_PK10MethodInfo
VGe:__ZNK5physx7NpScene17getFilterCallbackEv
omj:_PropertyName_GetHashCode_m3570549176_AdjustorThunk
hCg:__ZL55PropertyName_t3749835189_CustomAttributesCacheGeneratorP21CustomAttributesCache
y8l:_List_1_Insert_m3678598124_gshared
Uwj:_Selectable_get_animator_m2899312855
D8:__ZL20SortItemByInstanceIDRKN18AwakeFromLoadQueue4ItemES2_
bPn:_Vector2_op_Multiply_m2347887432
Mgf:__ZN5physx6shdfnd5ArrayIPvNS0_15InlineAllocatorILj256ENS0_19ReflectionAllocatorINS_24NpPtrTableStorageManager8PtrBlockILi16EEEEEEEE15growAndPushBackERKS2_
msh:_FontData_get_maxSize_m195374730
bUi:_TypeConverterAttribute__ctor_m1774069684
TC:__ZNK34AnimationStateMachineMixerPlayable26GetInterruptedPosePlayableEv
FNf:__ZN20UnityConnectSettings8TransferI24GenerateTypeTreeTransferEEvRT_
k7c:__ZN25IParticleSystemProperties8PropertyIfNS_11ClampRadiusEE8TransferI14SafeBinaryReadEEvRT_PKc
zF:__ZN34BlobWriteTransferSTLStyleArrayImplI22OffsetPtrArrayTransferIbEEclERS1_17TransferMetaFlagsR9BlobWrite
YDc:__ZZN12MeshRenderer15InitializeClassEvEN29FunctorImpl_205kDidDeleteMesh4CallEPviR11MessageData
JEk:_Byte_ToString_m4063101981
c6j:_MonoType_GetConstructors_m2574682189
Xfh:_TextMeshProUGUI_UpdateVertexData_m3399849512
dfo:__ZN6il2cpp2vm13MetadataCache31GetParameterDefinitionFromIndexEi
OAd:__ZN25b2SynchronizeFixturesTask7TaskJobEPS_j
rqj:_SceneManager_LoadSceneAsyncNameIndexInternal_m4031498323
$oe:__ZN5physx7NpShape13setRestOffsetEf
BSf:__Z69Register_UnityEngine_Networking_UnityWebRequest_GetResponseHeaderKeysv
Wxe:__ZN5physx3Scb14ParticleSystemC2ERKNS_11PxActorType4EnumEjb
NKo:__ZNK15dense_hashtableINSt3__24pairIK10KeyWrapperIPK19Il2CppGenericMethodEP10MethodInfoEES6_N6il2cpp8metadata23Il2CppGenericMethodHashEN14dense_hash_mapIS6_S9_SD_NS6_14EqualsComparerINSC_26Il2CppGenericMethodCompareEEENS0_9allocatorISA_EEE9SelectKeyESH_SJ_E10test_emptyERK30dense_hashtable_const_iteratorISA_S6_SD_SL_SH_SJ_E
hjg:__ZL59SinkProviderData_t4151372974_CustomAttributesCacheGeneratorP21CustomAttributesCache
PVi:_ServicePointManager_FindServicePoint_m4119451290
fPi:__ZN21InterfaceFuncInvoker1Ii22OrderBlock_t1585977831E6InvokeEjP11Il2CppClassP12Il2CppObjectS0_
LQm:_ReadOnlyCollection_1_System_Collections_IList_Clear_m2007013334_gshared
Afa:__ZL31InitializeRendererUpdateManagerPv
bPl:_ValueCollection_System_Collections_Generic_ICollectionU3CTValueU3E_Contains_m2223915698_gshared
iCh:_ParameterInfo__ctor_m2779026345
D0g:__ZL152U3CDelayedDestroyDropdownListU3Ec__Iterator0_t3534484392_CustomAttributesCacheGenerator_U3CDelayedDestroyDropdownListU3Ec__Iterator0_Dispose_m3930818132P21CustomAttributesCache
zoa:__ZN9Scripting11UnityEngine18WaitForFixedUpdate12CleanupProxyEv
iYm:_Func_1_EndInvoke_m3591709415_gshared
rJl:_Transform_1__ctor_m4030819017_gshared
wsh:_FontData_get_verticalOverflow_m4132840071
Bpe:__ZN5physxL11getTriangleERKNS_2Gu12TriangleMeshEjPNS_6PxVec3EPKS4_PKvRKNS_2Cm8Matrix34Eb
Sna:__ZL46__ManagedRegistrationHelperFunction_RectOffsetPv
W7j:_NumberFormatter_get_IsZeroInteger_m2263284741
ZW:__ZN13AudioListener12CleanupClassEv
QMd:__ZN14SafeBinaryRead21TransferSTLStyleArrayINSt3__26vectorIjNS1_9allocatorIjEEEEEEvRT_17TransferMetaFlags
FRn:__ZL24UnresolvedVirtualCall_36P12Il2CppObjectS0_PK10MethodInfo
_ea:__Z13GetIEnlightenv
Gqe:__ZNK5physx7NpCloth16lockParticleDataEv
KUk:_DateTimeFormatInfo_get_LongTimePattern_m1595254249
Gkn:_X509Certificate_PEM_m2020851166
Bsi:_SByte_Equals_m865896384_AdjustorThunk
Avl:_BigInteger_op_GreaterThanOrEqual_m700865613
Sqm:_Array_InternalArray__Insert_TisDateTime_t3738529785_m2308632330_gshared
S5a:__ZN11TimeManager8TransferI19StreamedBinaryWriteILb0EEEEvRT_
A$j:_TlsServerCertificateRequest_ProcessAsTls1_m3214041063
Atf:_compare_uni_maps
tah:__ZL136U3CAnimateVertexColorsU3Ec__Iterator0_t3792186008_CustomAttributesCacheGenerator_U3CAnimateVertexColorsU3Ec__Iterator0__ctor_m1592559737P21CustomAttributesCache
F_h:__Z72RuntimeInvoker_Boolean_t97287965_Vector2_t2156229523_Vector2_t2156229523PFvvEPK10MethodInfoPvPS4_
Fgn:_Collection_1_Insert_m3559276190_gshared
HLf:__ZN11UnityEngine15PlatformWrapper27GetGraphicsCapsSupportFlagsEv
fDf:__ZNSt3__218__insertion_sort_3IRPFbPN2UI6CanvasES3_EPS3_EEvT0_S8_T_
Xyk:_Dictionary_2_Do_ICollectionCopyTo_TisRuntimeObject_m3695543300_gshared
K8l:_List_1_get_Count_m4125879936_gshared
eMe:__ZN5physx13NpRigidStatic9visualizeERNS_2Cm12RenderOutputEPNS_7NpSceneE
uCb:__ZN12NativeBufferI16Converter_StringE15SetupForWritingER9ArrayInfo
Gvl:_SequentialSearchPrimeGeneratorBase_GenerateSearchBase_m3595783982
NL:__ZN13RuntimeStaticI18AssetBundleManagerLb1EE16StaticInitializeEPv
olp:___cxa_end_catch__wrapper
XXh:__Z121RuntimeInvoker_Int32_t2950945753_RuntimeObject_Int32U26_t1369213839_Int32_t2950945753_Int32_t2950945753_Int32_t2950945753PFvvEPK10MethodInfoPvPS4_
Cbh:_FloatTween_get_duration_m3518359855_AdjustorThunk
ek:_emscripten_glVertexAttrib3fv
Jnd:__ZL24GenerateParticleGeometryIL24ParticleSystemRenderMode0ELb1ELb0EL25ParticleSystemRenderSpace4EEvPfRK22ParticleSystemTempDataRK26ParticleSystemRendererDataRK21ParticleSystemModulesRK23ParticleSystemParticlesRK31ParticleSystemParticlesTempData
bze:__ZNK5physx22NpParticleBaseTemplateINS_16PxParticleSystemENS_16NpParticleSystemEE13getRestOffsetEv
BOe:__ZN5physx6shdfnd8PoolBaseINS_2Sc35ParticleElementRbElementInteractionENS0_19ReflectionAllocatorIS3_EEE15disposeElementsEv
G5k:_SHA1CryptoServiceProvider_Dispose_m1653611664
KMk:_Char_ToString_m278452217
xXj:_CipherSuite_get_DecryptionCipher_m2839827488
Sok:_DateTime_System_IConvertible_ToUInt16_m4182197229_AdjustorThunk
f5b:__ZNK4PPtrI5LightEcvPS0_Ev
j5n:_Physics_RaycastAll_m447622039
VTf:__ZL50__ManagedRegistrationHelperFunction_ReferencePointPv
jvn:_InvokableCall_3_remove_Delegate_m104823962_gshared
tTj:_BigInteger_op_RightShift_m460065452
hKb:__ZN13MonoBehaviour22DoScriptRebuildWarningEv
