jd:_glClearStencil
krm:_UInt16_System_IConvertible_ToChar_m2096055221_AdjustorThunk
LFj:_MaskableGraphic_OnCanvasHierarchyChanged_m1780820310
EQj:_Array_TrueForAll_TisRuntimeObject_m1084992726_gshared
JRd:__ZN5physx2Gu19gjkLocalPenetrationINS0_8CapsuleVENS0_17ShrunkConvexHullVEEEjRKT_RKT0_RKNS_6shdfnd3aos6FloatVERNSB_5Vec3VESG_SG_RSC_PhSI_Rhb
_he:__ZN5physx2Sc27ConstraintProjectionManager29removeFromPendingGroupUpdatesERNS0_13ConstraintSimE
bBo:__ZN6il2cpp2vm5Array13GetByteLengthEP11Il2CppArray
kgm:_Array_InternalArray__set_Item_TisDateTime_t3738529785_m1331437427_gshared
yDn:_KeyBuilder_get_Rng_m3373220441
wAa:__Z30GetIntermediateRendererManagerv
aVa:__Z21SourceMipLevelForBlitiiii
AGa:__ZN31CanvasBatchIntermediateRenderer15AddAsRenderNodeER15RenderNodeQueueRK20DeprecatedSourceData
sZk:_Dictionary_2_Do_ICollectionCopyTo_TisInt32_t2950945753_m2590022749_gshared
yom:_TimeSpan_get_Hours_m550761902
anc:__ZN9ShaderLab9SubShader15FindNamedPassesERKN4core12basic_stringIcNS1_20StringStorageDefaultIcEEEER13dynamic_arrayIPNS_4PassELj0EE
EQg:__ZL63PlayableOutputHandle_t4208053793_CustomAttributesCacheGeneratorP21CustomAttributesCache
z0:__ZN11UnityEngine15CloudWebService26CloudServiceEventWithParam12ToJsonStringER9JSONWrite
kwc:__Z59Register_UnityEngine_PlayerConnectionInternal_DisconnectAllv
fHn:_AnalyticsEventTracker_SendEvent_m1365958832
aMe:__ZNK5physx2Sc5Scene24getContactModifyCallbackEv
Lt:__ZN11UnityEngine9Animation28GenericAnimationBindingCacheD2Ev
hPe:__ZN5physx2Sq10AABBPruner10addObjectsEPjPKNS_9PxBounds3EPKNS0_13PrunerPayloadEj
Dfn:_X509Store_LoadCrl_m1881903843
NXk:_Array_Sort_TisUICharInfo_t75501106_TisUICharInfo_t75501106_m722747892_gshared
kpo:_il2cpp_runtime_unhandled_exception_policy_set
ic:invoke_viiiifiiiiif
Vcc:__Z18RestoreRenderStateR20CameraRenderOldStateR17ShaderPassContext
jDb:__Z18Transfer_BlittableI18StreamedBinaryReadILb1EELb1E5RectTIfEEvRK29SerializationCommandArgumentsR31RuntimeSerializationCommandInfo
Yyb:__Z18Transfer_BlittableI24GenerateTypeTreeTransferLb0E11ColorRGBA32EvRK29SerializationCommandArgumentsR31RuntimeSerializationCommandInfo
Bmj:_Material_GetVector_m2472259403
bIb:__Z25scripting_class_from_name17ScriptingImagePtrPKcS1_
cfm:_Array_InternalArray__Insert_TisSingle_t1397266774_m3161726127_gshared
Gin:_TMP_XmlTagStack_1_Add_m479786267_AdjustorThunk
Ulo:__ZN14dense_hash_mapI10KeyWrapperINSt3__24pairIPK12PropertyInfoP11Il2CppClassEEEj17ReflectionMapHashIS8_ENS9_14EqualsComparerINS1_8equal_toIS8_EEEENS1_9allocatorINS2_IKS9_jEEEEE15set_deleted_keyERSH_
VJb:__Z29scripting_class_enum_basetype17ScriptingClassPtr
x2d:__ZN5physx6shdfnd8PoolBaseINS_2Sc10NPhaseCore16ClothListElementENS0_19ReflectionAllocatorIS4_EEE17releaseEmptySlabsEv
mef:__Z20GetPhysicsModuleSpecv
IWc:__ZN6IDList10BeginOnGUIEv
lQj:_Array_InternalArray__ICollection_Remove_TisColor_t2555686324_m1658001816_gshared
evd:__ZN16PhysicsManager2D7RaycastERK3RayfiR12RaycastHit2D
Aam:_Enumerator_MoveNext_m3714175425_gshared
f6e:__ZN5physx2Sc14ConstraintCore10breakApartEv
vma:__ZL43__ManagedRegistrationHelperFunction_TexturePv
U2f:_TMP_SubMesh_UpdateMeshPadding_m2529023756
OUj:_Array_InternalArray__IndexOf_TisKeyValuePair_2_t625878672_m2693022864_gshared
pbi:_InternalEnumerator_1_get_Current_m1477715453_gshared
akg:_TMP_ExampleScript_01_Update_m1912934944
Mgb:__ZNK20LocalFileSystemPosix6ParentERK13FileEntryDataRN4core12basic_stringIcNS3_20StringStorageDefaultIcEEEE
bKg:__ZL118TouchScreenKeyboard_t731888065_CustomAttributesCacheGenerator_TouchScreenKeyboard_Open_m3609399077____textPlaceholder6P21CustomAttributesCache
Qcf:__ZN5physx7Cooking20loadTriangleMeshDescERKNS_18PxTriangleMeshDescERNS_19TriangleMeshBuilderE
B7m:_Collection_1_System_Collections_IList_Remove_m1476284619_gshared
tZl:_List_1_Find_m279961672_gshared
YYj:_SHA1CryptoServiceProvider__ctor_m4195188793
Nlo:__ZN15dense_hashtableINSt3__24pairIK10KeyWrapperINS1_IPK9EventInfoP11Il2CppClassEEEjEES9_17ReflectionMapHashIS8_EN14dense_hash_mapIS9_jSD_NS9_14EqualsComparerINS0_8equal_toIS8_EEEENS0_9allocatorISB_EEE9SelectKeyESI_SK_E15set_deleted_keyERKSB_
Jpa:__ZN9Scripting11UnityEngine9Profiling8Recorder12CleanupProxyEv
zDh:_Graphic_get_defaultGraphicMaterial_m3107284931
jHb:__ZN18StreamedBinaryReadILb0EE21TransferSTLStyleArrayI13dynamic_arrayI11ColorRGBA32Lj0EEEEvRT_17TransferMetaFlags
qCh:_Dropdown_Hide_m504034854
RXi:_NumberFormatter_NumberToString_m264078176
qqa:__ZN9Scripting11UnityEngine20ManagedStreamHelpers9InitProxyEv
P4n:__ZN13Il2CppHashSetIPK19Il2CppGenericMethodN6il2cpp8metadata23Il2CppGenericMethodHashENS4_26Il2CppGenericMethodCompareENSt3__29allocatorI10KeyWrapperIS2_EEEEC2EjRKS5_RKS6_
ZKn:_Vector2_get_up_m2647420593
KTb:__ZN7ApiGLES17CopyBufferSubDataEjjlll
Gdm:_Array_InternalArray__ICollection_CopyTo_TisUInt64_t4134040092_m691431926_gshared
tak:_IPAddress_ToString_m1181734207
ygg:_KeyEnumerator_get_Current_m485720715
Izf:__Z48Register_UnityEngine_TextMesh_INTERNAL_get_colorv
Vjm:_StringBuilder_Append_m1965104174
JYc:__ZN5Unity9rapidjson15GenericDocumentINS0_4UTF8IcEE13JSONAllocatorS4_E11ParseStreamILj1ES3_NS0_25GenericInsituStringStreamIS3_EEEERS5_RT1_
V5l:_EqualityComparer_1__cctor_m3766928733_gshared
DX:__ZN11AudioModule26SetDefaultMicrophoneDriverEPv
Kik:_Kernel_modInverse_m652700340
d1g:__ZL57CanvasRenderer_t2598313366_CustomAttributesCacheGeneratorP21CustomAttributesCache
QXc:__ZN5IMGUI18RepaintModalWindowER8GUIState
uDa:__ZNK15dense_hashtableINSt3__24pairIKN9ShaderLab7Program23ShaderKeywordSetAndHashEPKNS2_10SubProgramEEES4_NS3_24ShaderKeywordHashFunctorEN14dense_hash_mapIS4_S8_SA_NS0_8equal_toIS4_EE13stl_allocatorIS9_L18MemLabelIdentifier67ELi16EEE9SelectKeyESD_SG_E23find_position_with_hashERS5_j
dvk:_CompareInfo_Finalize_m404687489
WZa:__Z23SetSpriteMeshIndexCountP14SharedMeshDataj
Zlm:_UTF8Decoder_GetChars_m1236346907
UWf:_TMP_FontAsset_HasCharacters_m3087390417
SEo:__ZN6il2cpp8metadata13GenericMethod9GetMethodEPK19Il2CppGenericMethod
ts:__ZNSt3__26vectorIN4core12basic_stringIcNS1_20StringStorageDefaultIcEEEENS_9allocatorIS5_EEE7reserveEj
e_i:_Default_SelectProperty_m1220817815
S4i:_RemotingConfiguration_IsRemotelyActivatedClientType_m4117048589
azj:_Transform_TransformPoint_m226827784
JPb:__ZN13GfxDeviceGLES11SetViewportERK5RectTIiE
apd:__Z19UpdateSingleRow2TplIL27ParticleSystemCurveEvalMode3ELS0_2EEvfRK11MinMaxCurveS3_RK23ParticleSystemParticlesPfbiii
Yoh:_TextMeshPro_set_sortingOrder_m8809902
XSc:__Z24Time_Get_Custom_PropTimev
L9d:__ZN5physx3Scb5Scene14addRigidStaticERNS0_11RigidStaticEb
De:_emscripten_glDepthRange
ban:_SslStreamBase_BeginNegotiateHandshake_m4180435790
pkf:__ZN9Scripting11UnityEngine10UILineInfo12CleanupProxyEv
WWd:__ZN5physx2Gu24contactConvexHeightfieldERKNS0_13GeometryUnionES3_RKNS_11PxTransformES6_RKfRNS0_5CacheERNS0_13ContactBufferE
c7d:__ZN5physx6shdfnd5ArrayIPvNS0_19ReflectionAllocatorINS_2Cm5BlockIS2_Lj8EEEEEE15growAndPushBackERKS2_
mfc:__ZNSt3__26vectorINS_4pairIN4core12basic_stringIcNS2_20StringStorageDefaultIcEEEES6_EE13stl_allocatorIS7_L18MemLabelIdentifier38ELi16EEE12__move_rangeEPS7_SC_SC_
Bjc:__Z14resize_trimmedINSt3__26vectorIN9ShaderLab20SerializedSubProgram12UAVParameterENS0_9allocatorIS4_EEEEEvRT_j
PYc:__ZN5Unity9rapidjson13GenericReaderINS0_4UTF8IcEES3_13JSONAllocatorE11ParseObjectILj1ENS0_25GenericInsituStringStreamIS3_EENS0_15GenericDocumentIS3_S4_S4_EEEEvRT0_RT1_
kLc:__Z10DestripifyPKjjRNSt3__26vectorIj13stl_allocatorIjL18MemLabelIdentifier1ELi16EEEE
Vwh:_StandaloneInputModule_GetRawMoveVector_m2737091079
xin:_TMP_XmlTagStack_1_Pop_m3298593939_AdjustorThunk
I7g:__ZL62Selectable_t3250028441_CustomAttributesCacheGenerator_m_ColorsP21CustomAttributesCache
y5k:_Convert_ToDateTime_m2616935982
WRb:__ZThn10632_N13GfxDeviceGLES22SetScissorRectPlatformERK5RectTIiE
Lan:_SslStreamBase_EndWrite_m4073224031
pca:__ZNSt3__218__insertion_sort_3IRNS_6__lessI14ObjectLoadDataS2_EEPS2_EEvT0_S6_T_
Rma:__ZL50__ManagedRegistrationHelperFunction_PostLateUpdatePv
DUa:__ZN4crndL20crnd_default_reallocEPvjPjbS0_
lXe:__ZN5physx24PxsComputeAABBLocalSpaceERKNS_18PxcAABBDataDynamicERNS_9PxBounds3E
eNj:_Array_get_swapper_TisProgressHandler_t926933139_m2329401730_gshared
c$a:__ZN18SpriteAtlasManager19AddRequestingSpriteE4PPtrI6SpriteE
kJc:__Z20IsValidRealtimeLightRK15SharedLightData9LightTypej
nTi:_UnmanagedMemoryStream_Write_m930787521
_bc:__ZN23ScriptableRenderContextC2Ev
dFh:_GridLayoutGroup_get_spacing_m2409263614
IUl:_List_1_CheckIndex_m581273900_gshared
bxf:_UNITY_FT_Stream_GetChar
iCn:_GUIStyle_get_fixedWidth_m2576616348
KDb:__Z18Transfer_BlittableI18StreamedBinaryReadILb1EELb1EdEvRK29SerializationCommandArgumentsR31RuntimeSerializationCommandInfo
$Xi:_NumberFormatter_NumberToString_m655666043
vQk:_Byte_System_IConvertible_ToUInt64_m371883985_AdjustorThunk
gqn:_TMPro_InstructionOverlay__ctor_m2020557448
LPe:__ZN5physx6shdfnd8internal8HashBaseINS0_4PairIKNS_2Sq13PrunerPayloadEjEES5_NS0_4HashIS5_EENS1_11HashMapBaseIS5_jS9_NS0_9AllocatorEE6GetKeyESB_Lb1EE5eraseERS6_
aKb:__Z26BuildSerializationCacheFor17ScriptingClassPtrRb
Dmh:_FloatTween_TweenValue_m554509216
FVb:__ZN7ApiGLES15BlitFramebufferEN2gl6HandleILNS0_10ObjectTypeE9EEENS0_15FramebufferReadES3_S3_iiiiiiiiNS0_15FramebufferTypeE
D7e:__ZN5physx13GuMeshFactory16createConvexMeshERNS_13PxInputStreamE
Hgf:__ZN5physx6shdfnd8internal8HashBaseINS0_4PairIKPKcjEES5_NS0_4HashIS5_EENS1_11HashMapBaseIS5_jS9_NS_7profile26WrapperReflectionAllocatorIjEEE6GetKeyESD_Lb1EE6createERS6_Rb
jti:__Z112RuntimeInvoker_RuntimeObject_RuntimeObject_RuntimeObject_RuntimeObject_RuntimeObject_RuntimeObject_RuntimeObjectPFvvEPK10MethodInfoPvPS4_
Eai:_InternalEnumerator_1_System_Collections_IEnumerator_get_Current_m3553395619_AdjustorThunk
jNk:_Array_SetValue_m3998268557
X7l:_EqualityComparer_1__cctor_m818408565_gshared
Bzh:_ColorBlock_set_highlightedColor_m2089444414_AdjustorThunk
cJl:_Enumerator_MoveNext_m880141662_AdjustorThunk
Iqk:_Context_EndSwitchingSecurityParameters_m4148956166
msf:_otv_PairPos_validate
_z:__ZN7mecanim9animation14CopyHumanPosesEPKNS0_18AnimationNodeStateEPS1_RKNS_6bitsetILj83EEE
Udo:__ZN6il2cpp6icalls8mscorlib6SystemL8IsStaticEPK12PropertyInfo
fLb:__Z9InitInputv
n_f:_TMP_InputField_FindtPrevWordBegin_m2238803771
bza:__ZN17TransformInternal36OnScaleChangedCalculateTransformTypeE15TransformAccess
B7e:__ZNK5physx13GuMeshFactory15getConvexMeshesEPPNS_12PxConvexMeshEjj
qho:__ZN6il2cpp2gc19AppendOnlyGCHashMapINSt3__24pairIPK10MethodInfoP11Il2CppClassEEP22Il2CppReflectionMethod17ReflectionMapHashIS9_ENS2_8equal_toIS9_EEE3AddERKS9_SB_
Lkb:__ZN16MemoryFileSystem6DeleteER13FileEntryDatab
Vni:__Z81RuntimeInvoker_Void_t1185182177_RuntimeObject_Int64_t3736567304_Int32_t2950945753PFvvEPK10MethodInfoPvPS4_
UVl:_List_1_set_Item_m1979164443_gshared
cXj:_Array_InternalArray__ICollection_Add_TisLink_t3209266973_m77922316_gshared
LRa:__ZL21BlitScaleStbImageImplRK14ImageReferenceRS_NS_10ColorSpaceE
gme:__ZN5physx10NpMaterial17setStaticFrictionEf
Sdd:__Z9UpdateTplIL27ParticleSystemCurveEvalMode0EEvRK11MinMaxCurveS3_S3_R23ParticleSystemParticlesjjRKN4math8float3x3ERKNS6_7_float4E
cHe:__ZNK5physx7NpScene18getStaticStructureEv
qu:__ZL48__ManagedRegistrationHelperFunction_SkeletonBonePv
Vqh:_TextMeshProUGUI_OnEnable_m1040268881
AGe:__ZNK5physx7NpScene19getFilterShaderDataEv
DAj:_InputField_get_keyboardType_m1248105267
Oub:__Z29Transfer_Blittable_ArrayFieldI14SafeBinaryReadyEvRT_R9ArrayInfoRK23StaticTransferFieldInfo
sS:__ZN20SoundChannelInstance15setChannelGroupEPN4FMOD12ChannelGroupE
Osn:_Match__ctor_m2425511580
$ll:_KeyPairPersistence_Remove_m1876145547
hhe:__ZN5physx2Sc19ShapeInstancePairLL26onPoseChangedWhileSleepingEv
qad:__ZN12LightsModule13AwakeFromLoadEP14ParticleSystemRK27ParticleSystemReadOnlyState
t$f:_TMP_LinkInfo_GetLinkText_m1788600626_AdjustorThunk
sRe:__ZN5physx22PxcSweepCapsuleCapsuleERKNS_11PxsCCDShapeES2_PKNS_12PxsRigidBodyES5_RKNS_11PxTransformES8_S8_S8_fRNS_6PxVec3ESA_RNS_10PxcNpCacheERNS_18PxcNpThreadContextEf
Wc:invoke_vifffii
fEi:__Z89RuntimeInvoker_Void_t1185182177_Single_t1397266774_Single_t1397266774_Color32_t2600501292PFvvEPK10MethodInfoPvPS4_
E3j:_String_IndexOf_m3406607758
m$d:__ZNK5physx3Cct17CapsuleController21getHalfHeightInternalEv
djb:__ZNK25MultiBlocksMemoryFileData5CloneEv
DKo:_GC_add_ext_descriptor
Hfo:__ZNK15dense_hashtableINSt3__24pairIK10KeyWrapperINS1_IPK14Il2CppAssemblyP11Il2CppClassEEEjEES9_17ReflectionMapHashIS8_EN14dense_hash_mapIS9_jSD_NS9_14EqualsComparerINS0_8equal_toIS8_EEEENS0_9allocatorISB_EEE9SelectKeyESI_SK_E23find_position_with_hashERSA_j
e$k:_LayoutGroup_SetProperty_TisSingle_t1397266774_m793506911_gshared
yaj:_CryptoConfig_CreateFromName_m1538277313
Y1o:_glInvalidateFramebuffer__wrapper
vZh:_InternalEnumerator_1_get_Current_m3073360606_gshared
I4d:__ZL30GeomOverlapCallback_CapsuleBoxRKN5physx10PxGeometryERKNS_11PxTransformES2_S5_PNS_2Gu12TriggerCacheE
aVo:dynCall_iiiiiiiiiiii
Wq:__ZN9Scripting11UnityEngine2AI18NavMeshBuildSource9InitProxyEv
g8f:_TMP_Text_DrawUnderlineMesh_m1146477450
HJf:__ZN18UnityConnectClient16IsServiceEnabledEv
OLl:_Enumerator_System_Collections_IEnumerator_Reset_m3951708793_gshared
wsa:__ZN9Scripting11UnityEngine10ColorGamut9InitProxyEv
jlb:__ZN22VertexDeclarationCacheD0Ev
KKj:_Selectable_set_interactable_m3105888815
PGa:__ZL26KeywordSetToStringDontSortRKNSt3__26vectorIN4core12basic_stringIcNS1_20StringStorageDefaultIcEEEENS_9allocatorIS5_EEEERS5_
kja:__ZN6prcoreL17RemapGenericFloatI16TexFormatRGFloat17TexFormatRGBAHalfEEvPKNS_9InnerInfoE
tU:__ZN12AudioManager22CreateFMODSoundFromWWWEP10IWWWStream15FMOD_SOUND_TYPE17FMOD_SOUND_FORMATjjbbP10SampleClip
EGc:__ZNK32RendererMaterialAnimationBinding15GenerateBindingERKN4core12basic_stringIcNS0_20StringStorageDefaultIcEEEEbRN11UnityEngine9Animation14GenericBindingE
SMh:_TargetException__ctor_m4172127019
thd:__Z25UpdateOrbitalAndRadialTplIL27ParticleSystemCurveEvalMode0ELS0_2ELS0_0EEvRK11MinMaxCurveS3_S3_S3_S3_S3_S3_R23ParticleSystemParticlesjjRKN4math8float3x3ERKNS6_7affineXERKNS6_7_float4E
rSm:_List_1_CheckCollection_m274117203_gshared
j2g:__ZL70EventSystem_t1003666588_CustomAttributesCacheGenerator_m_FirstSelectedP21CustomAttributesCache
qJl:_LinkedList_1_Clear_m2711926805_gshared
Caa:__ZN8Remapper23GetOrGenerateInstanceIDERK26SerializedObjectIdentifier
qcl:_Decimal_System_IConvertible_ToByte_m1059182322
wpb:__ZN11TextureData17GetImageReferenceEii
LHi:__Z82RuntimeInvoker_Int32_t2950945753_Int16_t2552820387_Int16_t2552820387_RuntimeObjectPFvvEPK10MethodInfoPvPS4_
rth:_EventSystem_ToString_m3779610692
msk:_RecordProtocol_BeginReceiveRecord_m295321170
m_a:__ZN6Sprite8TransferI24GenerateTypeTreeTransferEEvRT_
kAn:_TMPro_EventManager_ON_TEXTMESHPRO_UGUI_PROPERTY_CHANGED_m531824844
ryc:__Z48Register_UnityEngine_Transform_SetAsFirstSiblingv
g3h:_InternalEnumerator_1_System_Collections_IEnumerator_get_Current_m694606607_gshared
d1k:_Resources_Load_TisRuntimeObject_m3577225874_gshared
r_a:__ZN7SubMesh8TransferI24GenerateTypeTreeTransferEEvRT_
yee:__ZNK5physx19NpArticulationJoint28getTwistLimitContactDistanceEv
cnn:_UnityEvent_1_FindMethod_Impl_m2511430237_gshared
G1n:_NativeTypeAttribute__ctor_m133676646
Pwc:__Z48Register_UnityEngine_Application_get_absoluteURLv
YVd:__ZN5physx3Cct10Controller6setPosERKNS_14PxExtendedVec3E
zwm:_Collection_1_System_Collections_IList_Contains_m296643274_gshared
BXd:__ZN5physx2GuL14testFaceNormalERKNS0_13PolygonalDataES3_PNS0_12SupportLocalES5_RKNS_6shdfnd3aos15PsMatTransformVESA_RKNS7_6FloatVERSB_RjRNS7_5Vec3VENS0_13FeatureStatusERSI_
HDk:_DirectoryInfo__ctor_m126519516
jJh:_MethodBase_GetMethodFromIntPtr_m3014201362
I6h:_InternalEnumerator_1_System_Collections_IEnumerator_get_Current_m2011757623_gshared
G8h:_InternalEnumerator_1_get_Current_m2315302778_AdjustorThunk
Oxc:__ZN9Transform23SetSiblingIndexInternalEib
U$c:__ZN9JSONWrite8TransferI13dynamic_arrayIaLj0EEEEvRT_PKc17TransferMetaFlags
O4d:__ZL32GeomOverlapCallback_ConvexConvexRKN5physx10PxGeometryERKNS_11PxTransformES2_S5_PNS_2Gu12TriggerCacheE
p0l:_Dictionary_2_Resize_m1924695631_gshared
X2k:_Enumerator_MoveNext_m635366482
ubg:_U3CSpawnWormholesU3Ec__Iterator7_Reset_m4145533915
dKk:_X509Extension_Equals_m1222951829
oy:__ZN7mecanim5human12HumanPoseSubERNS0_9HumanPoseERKS1_S4_
CVj:_Array_InternalArray__IndexOf_TisTextAlignmentOptions_t4036791236_m4075827900_gshared
ntb:__Z18Transfer_BlittableI14SafeBinaryReadLb0E10Matrix4x4fEvRK29SerializationCommandArgumentsR31RuntimeSerializationCommandInfo
rJb:__Z24GetFixedBehaviourManagerv
Qco:__ZN6il2cpp2vm10ThreadPool4WaitEP17Il2CppAsyncResultPPv
yJk:_PKCS12_Encrypt_m2617413749
nfn:_X509Crl_VerifySignature_m1377612461
rLk:_Activator_CreateInstance_m94526014
gQo:_vfprintf
qYc:__ZN10GUIManager12AddGUIScriptER8ListNodeI13MonoBehaviourE
eoa:__ZL53__ManagedRegistrationHelperFunction_StackTraceUtilityPv
l3k:_Stack_Clear_m2010200235
Yof:_cf2_getVStore
gvh:_PointerEventData_set_pointerPressRaycast_m1363193059
Y1b:__ZN20DynamicPropertySheetD0Ev
PYl:_List_1_get_Item_m718437397_gshared
sPh:_SafeHandle_Dispose_m4229010569
qfc:__ZN14SafeBinaryRead17RegisterConverterEPKcS1_PFbPvRS_E
vIg:__ZL77RuntimePlatform_t4159857903_CustomAttributesCacheGenerator_OSXDashboardPlayerP21CustomAttributesCache
V2:__ZN35RegisterRuntimeInitializeAndCleanup8RegisterEPFvPvES2_iS0_
f1i:_FieldBuilder_SetValue_m828035213
yOm:__ZN28GenericInterfaceFuncInvoker0IfE6InvokeEPK10MethodInfoP12Il2CppObject
wRe:__ZN5physx25PxcSweepConvexHeightfieldERKNS_11PxsCCDShapeES2_PKNS_12PxsRigidBodyES5_RKNS_11PxTransformES8_S8_S8_fRNS_6PxVec3ESA_RNS_10PxcNpCacheERNS_18PxcNpThreadContextEf
lTc:__Z21Object_CUSTOM_DestroyP12Il2CppObjectf
H_b:__ZN8Material26ResetAllCachedMaterialDataEP6Shader
Nri:__Z63RuntimeInvoker_Void_t1185182177_RuntimeObject_Int16_t2552820387PFvvEPK10MethodInfoPvPS4_
nxf:_UNITY_TT_Get_MM_Var
T7i:_ObjectManager_AddFixup_m2154325362
Cdi:_Comparer_1__cctor_m3761458313_gshared
vbl:_DateTimeOffset_CompareTo_m1350732322_AdjustorThunk
ba:invoke_diddi
zCf:__ZNK2UI6Canvas13GetRenderModeEv
Nij:_PersistentCall__ctor_m1217622171
FTj:_Array_compare_TisCustomAttributeTypedArgument_t2723150157_m1384644047_gshared
QRo:_unlink
Lnl:_StrongName_get_TokenAlgorithm_m1794722022
ysb:__Z18Transfer_BlittableI14SafeBinaryReadLb0EiEvRK29SerializationCommandArgumentsR31RuntimeSerializationCommandInfo
Mao:__ZN6il2cpp2vm13MetadataCache30GetPropertyDefinitionFromIndexEi
GDn:_SymmetricTransform_Transform_m1683494363
hze:__ZN5physx14NpRigidDynamic7releaseEv
KMf:__ZN22BaseUnityConnectClient17InitializeSessionERKN4core12basic_stringIcNS0_20StringStorageDefaultIcEEEES6_N19CloudServiceHandler13InitModeFlagsE
qpg:__ZL56KeyCollection_t4251528776_CustomAttributesCacheGeneratorP21CustomAttributesCache
tyi:__Z74RuntimeInvoker_RuntimeObject_Int32_t2950945753_RuntimeObject_RuntimeObjectPFvvEPK10MethodInfoPvPS4_
LNe:__ZN5physx6shdfnd8PoolBaseINS_21PxsBodyTransformVault13PxsBody2WorldENS0_19ReflectionAllocatorIS3_EEE15disposeElementsEv
djg:_TeleType__ctor_m1571455078
h0f:_TMP_MeshInfo__ctor_m3699236577_AdjustorThunk
ZOc:__ZN13MonoBehaviour34StopCoroutineFromEnumeratorManagedE18ScriptingObjectPtr
w_f:_TMP_InputField_Append_m3961630412
zu:__ZN9Scripting11UnityEngine9HumanBone12CleanupProxyEv
cUd:__ZN5physx2Gu30computeCapsule_TriangleMeshMTDERKNS_22PxTriangleMeshGeometryERKNS_11PxTransformERNS0_8CapsuleVEffbRNS_10PxSweepHitE
qrd:__ZN11UnityEngine9Analytics18SceneLoadTimeEvent12SetSceneLoadERKN4core12basic_stringIcNS2_20StringStorageDefaultIcEEEEiyyyy
S8a:__ZN30RuntimeInitializeOnLoadManager8TransferI18StreamedBinaryReadILb0EEEEvRT_
f5k:_DateTimeOffset__ctor_m2084804982
vYn:_CanvasRenderer_GetMaterial_m3822557591
Jtf:_UNITY_tt_face_load_pclt
qtc:__ZL34GetComponentsImplementationRecurseILb1ELi0ELi2EEbR10GameObjectbRK17CompareParametersRK39GetComponentsImplementation_ReturnValue
UZk:_Dictionary_2_Do_ICollectionCopyTo_TisRuntimeObject_m2206321454_gshared
xFn:_UnityWebRequest_set_downloadHandler_m970510352
KDd:__ZN10ClipperLib7Clipper24InsertLocalMinimaIntoAELEx
$lj:_Material_GetTexture_m3545614349
YEe:__ZThn8_N5physx2Sc19ShapeInstancePairLL10onActivateEj
Dii:__Z64RuntimeInvoker_RuntimeObject_Int32_t2950945753_Int16_t2552820387PFvvEPK10MethodInfoPvPS4_
v9c:__ZN16CustomDataModule8TransferI19StreamedBinaryWriteILb0EEEEvRT_
R6l:_EqualityComparer_1__cctor_m4244842342_gshared
r1b:__ZNK6Camera18WorldToScreenPointERK8Vector3fPb
DXe:__ZN5physx2Cm12DelegateTaskINS_10PxsContextEXadL_ZNS2_28mergeCMDiscreteUpdateResultsEPNS_10PxBaseTaskEEEE11runInternalEv
kwj:_SendMouseEvents_DoSendMouseEvents_m2140870850
vHf:__ZN14UnityAnalyticsD0Ev
lcf:__ZN5physx19TriangleMeshBuilder10importMeshERKNS_18PxTriangleMeshDescERKNS_15PxCookingParamsEb
Otn:_PatternCompiler_EmitJump_m3915926156
ePb:__Z18IsCompressedFormat14GraphicsFormat
TOc:__ZNK13MonoBehaviour6GetDSPEv
YKh:_MonoMethod_GetBaseDefinition_m2844667474
Nom:__Z33il2cpp_codegen_check_add_overflowxx
G8:__ZNSt3__227__insertion_sort_incompleteIRPFbRKN18AwakeFromLoadQueue4ItemES4_EPS2_EEbT0_S9_T_
DIg:__ZL73RuntimePlatform_t4159857903_CustomAttributesCacheGenerator_MetroPlayerARMP21CustomAttributesCache
_Ck:_InvalidOperationException__ctor_m1685032583
M8n:__ZN14dense_hash_mapI10KeyWrapperIN6il2cpp5utils13dynamic_arrayIPK10Il2CppTypeLj4EEEEPFvvENS1_8metadata19Il2CppSignatureHashENS8_14EqualsComparerINSB_22Il2CppSignatureCompareEEENSt3__29allocatorINSG_4pairIKS8_SA_EEEEE15set_deleted_keyERSJ_
tpm:_TimeSpan_op_Subtraction_m3592306516
lAn:_TMPro_EventManager_ON_COMPUTE_DT_EVENT_m4224094755
Ato:__ZN6il2cpp2vm9Exception25RaiseOutOfMemoryExceptionERKNS_5utils10StringViewIDsEEP19Il2CppSequencePoint
_Qi:__Z94RuntimeInvoker_RuntimeObject_Single_t1397266774_Single_t1397266774_RuntimeObject_RuntimeObjectPFvvEPK10MethodInfoPvPS4_
U8l:_EqualityComparer_1_System_Collections_IEqualityComparer_GetHashCode_m1517903420_gshared
ise:__ZN5physx6shdfnd5ArrayINS_18PxClothFabricPhaseENS0_19ReflectionAllocatorIS2_EEE8recreateEj
VYa:__ZN26EnlightenSystemInformation8TransferI14SafeBinaryReadEEvRT_
K9c:__ZN13InitialModule5ResetEv
AGm:_ReadOnlyCollection_1_System_Collections_IList_Add_m3968477706_gshared
G9a:__ZN24GenerateTypeTreeTransfer8TransferINSt3__26vectorIN15ResourceManager10DependencyE13stl_allocatorIS4_L18MemLabelIdentifier52ELi16EEEEEEvRT_PKc17TransferMetaFlags
zqn:_VertexJitter_ON_TEXT_CHANGED_m106761234
jBi:__Z119RuntimeInvoker_Void_t1185182177_RuntimeObject_Single_t1397266774_Single_t1397266774_SByte_t1669577662_Int32_t2950945753PFvvEPK10MethodInfoPvPS4_
WBa:__ZN27PerObjectLightCullingOutputD2Ev
LHe:__ZN5physx2Sq17SceneQueryManager11shiftOriginERKNS_6PxVec3E
j5a:__ZN12MeshRendererD0Ev
EV:__ZN12AudioManager35GetCurrentSpatializerDefinitionNameEv
URd:__ZN5physx2Gu16sweepBoxTriangleERKNS_10PxTriangleERKNS_9PxBounds3ERKNS_6PxVec3ES9_RS7_SA_Rf
toa:__ZN9Scripting11UnityEngine14WaitForSeconds9InitProxyEv
oi:_utime
Xcf:__ZN5physx10writeChunkEaaaaRNS_14PxOutputStreamE
hwn:_BalancingGroup_Compile_m2575117193
Vco:__ZN6il2cpp6icalls8mscorlib6System8MonoType18IsGenericParameterEPK10Il2CppType
cno:__ZNSt3__26vectorIN6il2cpp2vm17TypeNameParseInfoENS_9allocatorIS3_EEE8allocateEj
Eu:__ZN9Scripting11UnityEngine22AnimatorTransitionInfo9InitProxyEv
SRh:_Context_NotifyDynamicSinks_m1841702879
Jsn:_Mark_get_Index_m3048692661_AdjustorThunk
Qn:FUNCTION_TABLE_viiiiif
rem:_Array_InternalArray__Insert_TisRejectHandler_t1435172309_m1864675154_gshared
Kci:_DefaultComparer_Compare_m3931992727_gshared
zo:FUNCTION_TABLE_viiiiii
gbi:_InternalEnumerator_1_System_Collections_IEnumerator_get_Current_m1847780851_AdjustorThunk
wCn:_GUILayoutUtility_get_spaceStyle_m3392862907
v1j:_SecurityException_ToString_m3228070608
g5k:_DateTimeOffset__ctor_m74032857
BVi:_MonoType_IsPrimitiveImpl_m2401722705
_ie:__ZN5physx2Sc9RigidCore13onShapeChangeERNS0_9ShapeCoreENS_7PxFlagsINS0_21ShapeChangeNotifyFlag4EnumEjEENS4_INS_11PxShapeFlag4EnumEhEE
sKk:_SmallXmlParser_Error_m3899025466
GH:__ZN7mecanim9animation22DestroyAvatarWorkspaceEPNS0_15AvatarWorkspaceERNS_6memory9AllocatorE
WQh:_ConfigHandler_ParseElement_m3124222564
nqm:_Type_type_is_assignable_from_m76737532
pVc:__ZN9Scripting11UnityEngine14GUILayoutGroup12CleanupProxyEv
Hwe:__ZN5physx6shdfnd5ArrayIPvNS0_15InlineAllocatorILj256ENS0_19ReflectionAllocatorINS_2Sc19ParticlePacketShapeEEEEEE15growAndPushBackERKS2_
aUe:__ZN5physx17solveContactBlockEPKNS_23PxcSolverConstraintDescEjRNS_16PxcSolverContextE
edf:__ZN5physx6shdfnd10FoundationD2Ev
VQa:__ZN14PlayableOutput17SetSourcePlayableEP8Playable
K8a:__ZNSt3__26vectorIN4core12basic_stringIcNS1_20StringStorageDefaultIcEEEE13stl_allocatorIS5_L18MemLabelIdentifier13ELi16EEE8__appendEj
B5d:__ZN5physx9NpFactory21releaseConnectorArrayEPNS_16NpConnectorArrayE
hH:__ZN7mecanim9animation29MotionOutputGetDeltaTransformEPKNS0_12MotionOutputE
prd:__ZN27PerformanceReportingManager21OnSceneTimingCallbackERK15SceneLoadTimingRKN4core12basic_stringIcNS3_20StringStorageDefaultIcEEEE
pxc:__Z43Transform_CUSTOM_INTERNAL_get_localRotationP12Il2CppObjectP11Quaternionf
hOe:__ZN5physx2Sc10NPhaseCoreD2Ev
M6d:__ZN5physx2Sc7BodySim18onConstraintDetachEv
_Ko:__ZN6il2cpp6icalls8mscorlib6System10Reflection4Emit13ModuleBuilder13RegisterTokenEP29Il2CppReflectionModuleBuilderP12Il2CppObjecti
Eqh:_TextMeshProUGUI_set_maskOffset_m1831053298
gdk:_X509Certificate2_GetValueAsString_m1348462142
pfo:__ZN6il2cpp2os4File9SetLengthEPNS0_10FileHandleExPi
oEc:__ZZL23RegisterLightPropertiesR22GenericPropertyBindingEN20Wrapper_LightColorr013SetFloatValueEPvf
TRg:__ZL63SpriteBone_t303320096_CustomAttributesCacheGenerator_m_ParentIdP21CustomAttributesCache
Ti:_emscripten_glGetTexParameteriv
rma:__ZL49__ManagedRegistrationHelperFunction_ComputeBufferPv
GGe:__ZN5physx7NpScene8simulateEfPNS_10PxBaseTaskEPvjb
q$o:_glGenTextures__wrapper
lNd:__ZN5physx2Gu13GeometryUnion3setERKNS_10PxGeometryE
Yjc:__ZN9ShaderLab20SerializedSubProgram14ConstantBufferaSERKS1_
cGd:__ZN9Polygon2D8TransferI18StreamedBinaryReadILb0EEEEvRT_
shd:__Z25UpdateOrbitalAndRadialTplIL27ParticleSystemCurveEvalMode0ELS0_1ELS0_4EEvRK11MinMaxCurveS3_S3_S3_S3_S3_S3_R23ParticleSystemParticlesjjRKN4math8float3x3ERKNS6_7affineXERKNS6_7_float4E
BXg:__ZL74SharedBetweenAnimatorsAttribute_t2857104338_CustomAttributesCacheGeneratorP21CustomAttributesCache
RNa:__ZN8PlayableD0Ev
lh:emscriptenWebGLGetBufferBinding
TN:__ZN12AudioManager8TransferI19StreamedBinaryWriteILb0EEEEvRT_
hYn:_CanvasGroup_IsRaycastLocationValid_m2128397950
lLj:_Slider_UpdateCachedReferences_m3259451627
hqi:__Z50RuntimeInvoker_Double_t594665363_Double_t594665363PFvvEPK10MethodInfoPvPS4_
vol:_Enumerator_get_CurrentKey_m2230405065_gshared
vro:__ZN15dense_hashtableINSt3__24pairIK10KeyWrapperINS1_IP11Il2CppClassjEEES4_EES6_N6il2cpp8metadata14ArrayClassHashEN14dense_hash_mapIS6_S4_SB_NS6_14EqualsComparerINSA_17ArrayClassCompareEEENS0_9allocatorIS8_EEE9SelectKeyESF_SH_E6insertERKS8_
N4k:_DateTimeOffset__ctor_m1464148220
NCh:_U3CShowU3Ec__AnonStorey1_U3CU3Em__0_m2340880019
NMf:__ZN22BaseUnityConnectClient38PrepareConfigRequestOnMainThreadStaticEPS_
Ofe:__ZN5physx18NpArticulationLink10clearForceENS_11PxForceMode4EnumE
XTd:__ZN5physx2Gu30distanceSegmentTriangleSquaredERKNS_6PxVec3ES3_S3_S3_S3_PfS4_S4_
gcn:_TlsStream_Flush_m3793197834
yfb:__ZN22LocalFileSystemHandler9MakeLocalER13FileEntryDatab
tGo:__ZN6il2cpp2vm8Profiler10AllocationEP12Il2CppObjectP11Il2CppClass
Hxn:_Uri_IsHexEncoding_m3290929897
B5g:__ZL61Graphic_t1660335611_CustomAttributesCacheGenerator_m_MaterialP21CustomAttributesCache
Bia:__Z13FormatOrderedPKcz
cZh:_InternalEnumerator_1_System_Collections_IEnumerator_get_Current_m3925261124_AdjustorThunk
weo:__ZN6il2cpp2vm8basepathEPKc
i9h:_InternalEnumerator_1_get_Current_m1506120701_AdjustorThunk
Sdk:_X509Chain_GetAuthorityKeyIdentifier_m614536199
Mkf:__ZN14SafeBinaryRead21TransferSTLStyleArrayI10vector_mapINSt3__24pairIttEEfN20TextRenderingPrivate8FontImpl14KerningCompareENS2_9allocatorINS3_IS4_fEEEEEEEvRT_17TransferMetaFlags
vpk:_TlsServerFinished__ctor_m1445633918
bYi:_NumberFormatter_FastIntegerToString_m390846811
PEj:__ZN21InterfaceFuncInvoker0IfE6InvokeEjP11Il2CppClassP12Il2CppObject
h4a:__ZN14CompressedMesh10GetQualityE15MeshCompression
P8b:__ZN25DeferredRenderLoopScratchD0Ev
QA:__ZN27AnimationLayerMixerPlayable14SetInputWeightEif
dwi:__Z83RuntimeInvoker_Void_t1185182177_RuntimeObject_Single_t1397266774_Single_t1397266774PFvvEPK10MethodInfoPvPS4_
Luh:_PhysicsRaycaster_Raycast_m776323695
qoh:_TextContainer_GetAnchorPosition_m4045774284
ky:__ZN7mecanim9animation17EvaluateHumanPoseERKNS0_18ClipMuscleConstantERKNS0_15ClipMuscleInputEPKfRKNS0_12MotionOutputERNS_5human9HumanPoseE
rfm:_Array_InternalArray__Insert_TisTMP_LinkInfo_t1092083476_m719690151_gshared
KQf:__ZN21DownloadHandlerBufferD0Ev
hjc:__ZN15dense_hashtableINSt3__24pairIKiN4core17string_with_labelILi1EEEEEi18SInt32HashFunctionN14dense_hash_mapIiS5_S7_NS0_8equal_toIiEE13stl_allocatorIS6_L18MemLabelIdentifier1ELi16EEE9SelectKeyESA_SD_E9copy_fromERKSG_j
D_i:_CustomAttributeNamedArgument_GetHashCode_m2317130892
b9a:__ZN15ResourceManagerD0Ev
HDa:__ZN22CreateGpuProgramOutputD2Ev
m0d:__ZNK5physx3Cct15ObstacleContext14getNbObstaclesEv
TZk:_Dictionary_2_Do_ICollectionCopyTo_TisInt64_t3736567304_m855156891_gshared
tpd:__Z17UpdateSprites2TplIL27ParticleSystemCurveEvalMode2ELS0_3EEvfRK11MinMaxCurveS3_RK23ParticleSystemParticlesPf
Y9e:__ZN5physx6shdfnd8PoolBaseINS_11NpAggregateENS0_19ReflectionAllocatorIS2_EEE12allocateSlabEv
Hgd:__Z25UpdateOrbitalAndRadialTplIL27ParticleSystemCurveEvalMode3ELS0_4ELS0_0EEvRK11MinMaxCurveS3_S3_S3_S3_S3_S3_R23ParticleSystemParticlesjjRKN4math8float3x3ERKNS6_7affineXERKNS6_7_float4E
_Yj:_SHA1CryptoServiceProvider_Finalize_m1793183797
Jdj:_AnimationCurve_get_keys_m1672862131
Pam:_HashSet_1_System_Collections_Generic_ICollectionU3CTU3E_CopyTo_m408073502_gshared
Bxe:__ZN5physx7NpScene26removeFromParticleBaseListERNS_14PxParticleBaseE
H6i:_BinaryFormatter_Deserialize_m193346007
Sse:__ZN5physx2Sc9ClothCore23setSelfCollisionIndicesEPKjj
Nfb:__ZN12HandlerChain4OpenER13FileEntryData14FilePermission16FileAutoBehavior
ycm:_Array_InternalArray__ICollection_Add_TisPlayerLoopSystem_t105772105_m1930641144_gshared
wLi:__Z72RuntimeInvoker_Void_t1185182177_Int32_t2950945753_RaycastHit_t1056001966PFvvEPK10MethodInfoPvPS4_
uho:__ZN15dense_hashtableINSt3__24pairIK10KeyWrapperINS1_IPK10MethodInfoP11Il2CppClassEEEjEES9_17ReflectionMapHashIS8_EN14dense_hash_mapIS9_jSD_NS9_14EqualsComparerINS0_8equal_toIS8_EEEENS0_9allocatorISB_EEE9SelectKeyESI_SK_E6insertERKSB_
GM:__ZL55__ManagedRegistrationHelperFunction_AudioPlayableOutputPv
Brd:__ZN27PerformanceReportingManager29OnSceneLoadedAfterAwakeStaticEPS_iR18AwakeFromLoadQueueN19RuntimeSceneManager11LoadingModeE
xag:_GameController_SpawnBackgroundSpaceShip_m1444121968
hNk:_Array_SetValue_m394135409
EMm:__ZN28GenericInterfaceFuncInvoker2IiffE6InvokeEPK10MethodInfoP12Il2CppObjectff
Kba:__ZN14FileCacherReadD2Ev
Xbb:__ZN13RendererScene23UpdatePreviousFrameDataEii
Yoj:_MonoBehaviour_StopCoroutine_m615723318
Ysc:__Z50Register_UnityEngine_CullingGroup_FinalizerFailurev
cQl:_List_1_get_Item_m280817263_gshared
_nc:__ZN12ShaderErrors11ShaderErrorC2EOS0_
SSo:__ZNKSt3__221__basic_string_commonILb1EE20__throw_out_of_rangeEv
$Qe:__ZN5physx10PxsCCDPair12updateShapesEv
Vbo:_UpdatedEventHandler_Invoke_m1320302085
Fqh:_TextMeshProUGUI_UpdateMask_m1876478509
gU:__ZN9AudioClip23VirtualRedirectTransferER18StreamedBinaryReadILb0EE
CI:__ZN26AnimatorOverrideController23VirtualRedirectTransferER24GenerateTypeTreeTransfer
RXm:_List_1_AddEnumerable_m2724989594_gshared
qte:__ZN5physx2Sc9ClothCore22removeCollisionCapsuleEj
bAi:__Z82RuntimeInvoker_Vector2_t2156229523_Vector2_t2156229523_RuntimeObject_RuntimeObjectPFvvEPK10MethodInfoPvPS4_
kRc:__Z70Register_UnityEngine_Playables_PlayableHandle_GetPlayableType_Injectedv
NBl:_Enumerator_get_Current_m2708222222_AdjustorThunk
U7d:__ZN5physx16PxsIslandManager25setArticulationLinkHandleEjPvRKNS_20PxsIslandManagerHookIjLj4294967295EEE
sk:_glCopyTexSubImage2D
_cd:__ZNK21RotationBySpeedModule6UpdateERK27ParticleSystemReadOnlyStateRK19ParticleSystemStateR23ParticleSystemParticlesRKN4math7_float4Ejj
DCm:_ReadOnlyCollection_1_System_Collections_IList_Insert_m1104620799_gshared
qKn:_UnitySynchronizationContext_ExecuteTasks_m1310741010
q9m:_RIPEMD160Managed_CompressFinal_m497690796
MKb:__ZN18ScreenManagerWebGL13SetShowCursorEb
JYb:__ZN13DrawImmediateC2ER9GfxDevice
fGa:__ZN18VertexChannelsInfoC2ERA12_K11ChannelInfo
B7k:_Convert_ToInt64_m2849840611
kDf:__ZN2UI13CanvasManager14GetRenderOrderEPKNS_6CanvasE
Jhe:__ZN5physx6shdfnd5ArrayIPNS_3Scb5ShapeENS0_15InlineAllocatorILj16ENS0_19ReflectionAllocatorIS4_EEEEE15growAndPushBackERKS4_
jtb:__Z18Transfer_BlittableI14SafeBinaryReadLb0E5RectTIfEEvRK29SerializationCommandArgumentsR31RuntimeSerializationCommandInfo
fYi:_NumberFormatter_NumberToString_m2562899600
usf:_otv_u_C_x_Ox
FKd:__ZL44__ManagedRegistrationHelperFunction_ColliderPv
mpb:__ZN18AsyncUploadManager19AsyncResourceUploadER9GfxDeviceii9TextureID
e0o:_emscripten_glGenVertexArrays__wrapper
Hum:_Version_Clone_m1749041863
lSa:__ZN6prcoreL21CreateRemapAnyBlitterE13TextureFormatS0_
imk:_RSAManaged_ExportParameters_m1754454264
WMc:__ZN17AnimationCurveTplIfE16StripInvalidKeysEv
KPk:_Boolean_Equals_m535526264_AdjustorThunk
uDf:__ZNK2UI6Canvas17GetSortingLayerIDEv
kOc:__ZL12HashLen0to16PKcj
kyd:__ZN14Raycast2DQuery8RunQueryEb
oYa:__ZN8Renderer24SetupNewRendererForSceneEv
hqm:_Type_internal_from_name_m1721940673
tpo:_il2cpp_type_get_class_or_element_class
rgl:_Environment_get_TickCount_m2088073110
u5i:_RemotingServices_GetMethodBaseFromName_m3194612939
o4f:_TMP_Text_set_tintAllSprites_m2515828743
w1c:__Z35Transfer_Blittable_FixedBufferFieldI8JSONReadtEvRK29SerializationCommandArgumentsR31RuntimeSerializationCommandInfo
x0e:__ZN5physx2Sc8ClothSim16addCollisionMeshEPKNS0_8ShapeSimE
JJc:__ZN14PlayableOutput6HandleEv
AZa:__ZNK6Sprite22GetTypeVirtualInternalEv
Ira:__ZN9Scripting11UnityEngine12Experimental9Playables22MaterialEffectPlayable9InitProxyEv
to:FUNCTION_TABLE_iiiiiiiiiiiiii
A1n:_NativePropertyAttribute__ctor_m2033094153
z5e:__ZN5physx6shdfnd5ArrayIPKNS_10PxsCCDBodyENS0_19ReflectionAllocatorIS4_EEE8recreateEj
Dhe:__ZN5physx6shdfnd4sortINS_2Cm19PreallocatingRegionENS0_4LessIS3_EENS0_19ReflectionAllocatorIS3_EEEEvPT_jRKT0_RKT1_j
ltf:_UNITY_tt_get_cmap_info
Etk:_SslClientStream_RaiseServerCertificateValidation_m3477149273
Zzb:__Z29Transfer_Blittable_ArrayFieldI24GenerateTypeTreeTransfer5RectTIiEEvRT_R9ArrayInfoRK23StaticTransferFieldInfo
EIa:__ZN16ReflectionProbes8ScheduleEN18ReflectionProbeJob7JobTypeEP15ReflectionProbei
zpk:_ClientSessionInfo_KeepAlive_m1020179566
Lfg:_JSONNode_op_Implicit_m15872920
xGl:_Dictionary_2_InitArrays_m2954966963_gshared
Sca:__ZN16MessageForwarder13HandleMessageEPviR11MessageData
mhb:__Z18IsDirectoryCreatedRKN4core12basic_stringIcNS_20StringStorageDefaultIcEEEE
A$j:_String_FormatHelper_m3913915042
qBf:__ZN2UI13CanvasManagerD2Ev
pqd:__ZZN14ParticleSystem15InitializeClassEvEN52PreLateUpdateParticleSystemBeginUpdateAllRegistrator7ForwardEv
y5n:__ZN15dense_hashtableINSt3__24pairIK10KeyWrapperIPKcEP11Il2CppClassEES5_N6il2cpp5utils11StringUtils12StringHasherIS4_EEN14dense_hash_mapIS5_S8_SE_NS5_14EqualsComparerINSB_13VmStringUtils21CaseSensitiveComparerEEENS0_9allocatorIS9_EEE9SelectKeyESJ_SL_E15set_deleted_keyERKS9_
B_i:_CustomAttributeData_GetHashCode_m3727773664
cnf:_UNITY_FT_GlyphLoader_Done
cia:__ZNSt3__23mapIiN11TypeManager18TypeCallbackStructENS_4lessIiEENS_9allocatorINS_4pairIKiS2_EEEEEixERS7_
xKc:__ZN9Polygon2D16CheckConsistencyEv
Irb:__ZNK17InstancingBatcher15RenderInstancesERK19ShaderPropertySheetRKNS_22RenderInstancesConfigsERK11MeshBuffersRK16DrawBuffersRange16VertexInputMasks
nel:_StackTrace_get_FrameCount_m344690939
ein:_TMP_XmlTagStack_1_Push_m1847519558_gshared
oFk:_FileStream_BeginRead_m2419864669
_Si:_UnexceptionalStreamWriter_Write_m363195622
JUe:__ZN5physx18ComputeSortedListsEPNS_2Cm10BitMapBaseINS_6shdfnd9AllocatorEEEjjPKjPPNS_8SapBox1DES7_PjSB_jRKNS_2Gu4AxesESB_RjSB_SG_RbSH_
lNj:_Array_get_swapper_TisRuntimeObject_m1378919517_gshared
luf:_tt_cmap14_char_var_index
BZn:_Physics2D_Raycast_m1700114981
BBj:_Selectable_OnPointerDown_m1086067264
qyf:_psh_globals_new
fCh:_Dropdown_SetupTemplate_m628218778
dmm:_Thread_GetCompressedStack_m2923422412
wnj:_Matrix4x4_MultiplyPoint3x4_m4145063176
fck:_X509BasicConstraintsExtension_ToString_m1809935297
slb:__ZN9GfxDevice20SetMaxBufferedFramesEi
fof:__ZNK20TextRenderingPrivate8TextMesh22GetTypeVirtualInternalEv
spn:_TweenRunner_1_StartTween_m1055628540_gshared
_hm:_Array_qsort_TisUIVertex_t4057497605_TisUIVertex_t4057497605_m678708019_gshared
Rsd:__ZN10Collider2D19WakeAllBodyContactsEv
M_k:_GameObject_GetComponents_TisRuntimeObject_m1246177135_gshared
UTi:_MethodAccessException__ctor_m3542088436
Lgc:__Z23ConvertIntegerToTypePtrIsEbPvR14SafeBinaryRead
cv:__ZN9Scripting11UnityEngine10Animations26AnimatorControllerPlayable9InitProxyEv
Eud:__ZN12b2MouseJoint11ShiftOriginERK6b2Vec2
Sce:__ZNK5physx14NpArticulation17releaseDriveCacheERNS_24PxArticulationDriveCacheE
E4n:__ZN6il2cpp2vm5Class12HasAttributeEP11Il2CppClassS3_
WMf:__ZN11UnityEngine7Connect13ConfigHandler13ConfigChangedERKN4core12basic_stringIcNS2_20StringStorageDefaultIcEEEEb
Onh:_MaterialReferenceManager_TryGetSpriteAssetInternal_m3148505359
e6l:_EqualityComparer_1_System_Collections_IEqualityComparer_GetHashCode_m2230215241_gshared
nKg:__ZL91Quaternion_t2301928331_CustomAttributesCacheGenerator_Quaternion_FromToRotation_m3769621427P21CustomAttributesCache
I8g:__ZL60ContentSizeFitter_t3850442145_CustomAttributesCacheGeneratorP21CustomAttributesCache
vWk:_Hashtable_Contains_m2145146412
SKh:_MonoGenericCMethod__ctor_m1374831274
ula:__ZN6prcoreL29inner_stretch_rgb565_bilinearEPKNS_9InnerInfoE
Tse:__ZNK5physx2Sc9ClothCore25getSelfCollisionStiffnessEv
nbd:__Z13UpdateSizeTplIL27ParticleSystemCurveEvalMode3EEvRK11MinMaxCurveR23ParticleSystemParticlesbjj
oAo:__ZN6il2cpp2vm12GenericClass12SetupMethodsEP11Il2CppClass
rFa:__Z26TransformVerticesInnerLoopILb0ELb0ELb1EEvPhRK10Matrix4x4fRK10Matrix3x3fjPKhiS8_ii25GfxTransformVerticesFlagsj
hAk:_Int32_FindCurrency_m3541026887
Whk:_Interval_CompareTo_m3282557545
l1o:_pthread_cond_wait__wrapper
W7b:__ZNK14RenderSettings19GetFlatAmbientColorEv
MEa:__ZN8DrawUtil24DrawMeshRawFromNodeQueueERK15RenderNodeQueuej16VertexInputMasksi
U7a:__ZN18StreamedBinaryReadILb0EE21TransferSTLStyleArrayI10vector_mapIPKN5Unity4TypeE7Hash128NSt3__24lessIS6_EENS8_9allocatorINS8_4pairIS6_S7_EEEEEEEvRT_17TransferMetaFlags
NC:__ZNK27StateMachineBehaviourPlayer15IsSenderEnabledEv
Xho:__ZN6il2cpp2gc19AppendOnlyGCHashMapINSt3__24pairIPK11Il2CppImageP11Il2CppClassEEP22Il2CppReflectionModule17ReflectionMapHashIS9_ENS2_8equal_toIS9_EEE11TryGetValueERKS9_PSB_
$8m:_RijndaelManagedTransform_TransformBlock_m1610137419
ggi:_Enumerator_System_Collections_IDictionaryEnumerator_get_Entry_m1355283127_gshared
jyc:__Z40Register_UnityEngine_Transform_SetParentv
Yrn:_TMP_TextEventHandler_Awake_m3560580738
CRa:__ZN14Texture2DArray17UploadToGfxDeviceEv
PAn:_Event_set_displayIndex_m1342258734
QP:__Z14FMODMemoryFreePvjPKc
Bvh:_PointerEventData_ToString_m238029461
Bra:__ZN9Scripting11UnityEngine12Experimental10PlayerLoop11FixedUpdate12CleanupProxyEv
Kzk:_Int16_System_IConvertible_ToType_m3672347013
FMn:_NetFxCoreExtensions_GetMethodInfo_m444570327
_pm:_Type_get_IsSystemType_m624798880
ioj:_Mesh_SetNormals_m2521889643
S0f:_TMP_Settings_get_missingGlyphCharacter_m3560139616
jvf:_tt_cmap0_validate
Dpf:_cf2_glyphpath_moveTo
y9f:_EnemyScript_Start_m2844579575
CKe:__ZN5physx3Scb4Body9syncStateEv
lGd:__ZNK13BoxCollider2D22GetTypeVirtualInternalEv
ZPc:__Z51Register_UnityEngine_Texture_get_texelSize_Injectedv
$wj:_StackTraceUtility_SetProjectFolder_m830524047
ahe:__ZN5physx12PxsRigidBody23updatePoseDependenciesVERNS_10PxsContextE
lz:__ZN7mecanim23TransformValueArrayLoopEiiiRKN4math4trsXES3_RNS_10ValueArrayEf
Opk:_ClientSessionInfo_Finalize_m2165787049
RXc:__ZN5IMGUI14GUIWindowStateD2Ev
Lok:_ClientContext_Clear_m1774063253
TLc:__ZN4Mesh17SetIndicesComplexEPKvjj16GfxPrimitiveTypeij
tod:__Z20UpdateWholeSheet2TplIL27ParticleSystemCurveEvalMode1ELS0_0EEvfRK11MinMaxCurveS3_RK23ParticleSystemParticlesPf
x5f:_TMP_Text_get_mappingUvLineOffset_m762916951
Hal:_DateTime_AddSeconds_m332574389_AdjustorThunk
mQk:_Byte_System_IConvertible_ToSByte_m1869482168
ICh:_U3CDelayedDestroyDropdownListU3Ec__Iterator0_MoveNext_m213723240
LMb:__Z21PlayerStartFirstSceneb
mG:__ZN7mecanim5human10RetargetToEPKNS0_5HumanEPKNS0_9HumanPoseES6_RKN4math4trsXEPS4_PNS_8skeleton13SkeletonPoseTIS8_EESF_
ez:__ZN7mecanim9animation8SeekClipERKNS0_12StreamedClipERNS0_18StreamedClipMemoryEf
rkj:_GameObject_Internal_AddComponentWithType_m3797731663
cn:_emscripten_glIsTexture
xEi:__Z93RuntimeInvoker_Single_t1397266774_Vector3_t3722313464_Vector3_t3722313464_Vector3_t3722313464PFvvEPK10MethodInfoPvPS4_
Jl:_emscripten_glHint
_Dn:_Check_SourceAndPredicate_m2332465641
a$g:__ZL74ContactFilter2D_t3805203441_CustomAttributesCacheGenerator_useOutsideDepthP21CustomAttributesCache
$wf:_ft_var_readpackeddeltas
zrn:_U3CWarpTextU3Ec__Iterator0_MoveNext_m859178164
fDb:__Z35Transfer_Blittable_FixedBufferFieldI18StreamedBinaryReadILb1EEtEvRK29SerializationCommandArgumentsR31RuntimeSerializationCommandInfo
ssm:_UInt32_System_IConvertible_ToInt64_m2261037378
fn:_SDL_UpperBlit
jRl:_List_1_System_Collections_IList_Add_m49923158_gshared
zIa:__Z35GetTextureDecodeValuesWithIntensity16TextureUsageMode17TextureColorSpace10ColorSpacef
Sun:_Parser_ParseRepetitionBounds_m1246581246
iPj:_Array_InternalArray__ICollection_Remove_TisChar_t3634460470_m4143749387_gshared
XYb:__ZN15dense_hashtableINSt3__24pairIK9TextureIDiEES2_14GfxGenericHashIS2_EN14GfxDoubleCacheIS2_iS6_NS0_8equal_toIS2_EEN31GfxDoubleCacheConcurrencyPolicy11LocklessGetE42GfxDoubleCacheDefaultEmptyDeletedGeneratorIS2_EE9SelectKeyES9_13stl_allocatorIS4_L18MemLabelIdentifier24ELi16EEE14squash_deletedEv
rAc:__Z13RegisterClassI14Texture2DArrayEvPKc
EYf:_TMP_InputField_get_readOnly_m494535143
EWe:__ZN5physx14PxsAABBManager21processAggregatePairsEPKNS_19AggregateSortedDataE
Aud:__ZNK12b2MouseJoint10GetAnchorAEv
XCb:__Z18Transfer_BlittableI18StreamedBinaryReadILb1EELb0E9BoundsIntEvRK29SerializationCommandArgumentsR31RuntimeSerializationCommandInfo
Xuk:_GregorianCalendar__ctor_m979779718
dtk:_SslClientStream__ctor_m2402546929
AJb:__ZN14SafeBinaryRead20OverrideRootTypeNameEPKc
n8j:_DictionaryNodeEnumerator_get_Entry_m2309234501
Oba:__ZN14FileCacherRead16UnlockCacheBlockEj
CUf:_TMP_Text_set_extraPadding_m286773043
bJ:__ZN26AnimatorOverrideController8TransferI24GenerateTypeTreeTransferEEvRT_
Y5:__ZN10InstancingL21OnGraphicsCapsChangedEv
MOg:__ZL101SystemInfo_t3561985952_CustomAttributesCacheGenerator_SystemInfo_GetOperatingSystemFamily_m1440411909P21CustomAttributesCache
gom:_WaitHandle_get_Handle_m3260446580
uNl:_Enumerator_VerifyState_m1745883925_AdjustorThunk
vd:_emscripten_glUniform1f
Zpo:__ZN6il2cpp2vm6Thread28GetThreadStaticDataForThreadEiP12Il2CppThread
K6c:__ZN14SafeBinaryRead21TransferSTLStyleArrayI13dynamic_arrayIN8UVModule10SpriteDataELj0EEEEvRT_17TransferMetaFlags
Pnf:__Z20ParseImageParametersR11UTF16StringRiRN20TextRenderingPrivate16TextFormatChangeE
x8g:__ZL55CanvasScaler_t2767979955_CustomAttributesCacheGeneratorP21CustomAttributesCache
Ytm:_UIntPtr_ToString_m984583492_AdjustorThunk
Ad:_emscripten_glUniform1i
uyb:__Z18Transfer_BlittableI24GenerateTypeTreeTransferLb1EN4math12int3_storageEEvRK29SerializationCommandArgumentsR31RuntimeSerializationCommandInfo
i4e:__ZN5physx2Sc19ShapeInstancePairLL23postIslandGenSecondPassEv
$Ld:__ZN14PhysicsManager23VirtualRedirectTransferER19StreamedBinaryWriteILb0EE
Dqh:_TextMeshProUGUI_get_maskOffset_m421670010
o_:__ZN11UnityEngine15CloudWebService16SessionContainer20RestoreSessionHeaderERKN4core12basic_stringIcNS2_20StringStorageDefaultIcEEEES8_RNS0_13SessionHeaderE
SPe:__ZN5physx2Sq16BucketPrunerCore12updateObjectERKNS_9PxBounds3ERKNS0_13PrunerPayloadE
v3e:__ZN5physx18PxsDynamicsContext23atomIntegrationParallelEfPKPNS_11PxsBodyCoreEPKPNS_12PxsRigidBodyEjPKNS_2Cm13SpatialVectorEPNS_13PxcSolverBodyEPNS_17PxcSolverBodyDataEPSA_RjSI_RNS_10PxBaseTaskE
Zv:__ZN11UnityEngine9Animation27CreateAvatarBindingConstantER9TransformPKN7mecanim9animation14AvatarConstantERNS3_6memory9AllocatorE
yni:__Z151RuntimeInvoker_RuntimeObject_Int32_t2950945753_RuntimeObject_ObjectU5BU5DU26_t712384779_RuntimeObject_RuntimeObject_RuntimeObject_ObjectU26_t2146539884PFvvEPK10MethodInfoPvPS4_
HHf:__ZN8JSONRead19TransferSTLStyleMapINSt3__23mapIN4core12basic_stringIcNS3_20StringStorageDefaultIcEEEEN11UnityEngine9Analytics16LimitEventConfigENS1_4lessIS7_EE13stl_allocatorINS1_4pairIKS7_SA_EEL18MemLabelIdentifier6ELi16EEEEEEvRT_17TransferMetaFlags
iPc:__ZN9BlobWriteC2ER13dynamic_arrayIhLj16EE24TransferInstructionFlags19BuildTargetPlatform
W9:__ZN14MessageHandler3GetEv
Ftg:__ZL70ReliabilityContractAttribute_t502331440_CustomAttributesCacheGeneratorP21CustomAttributesCache
akj:_SupportedRenderingFeatures_FallbackMixedLightingModeByRef_m3859171964
Pd:_emscripten_glAttachShader
Aqc:__Z16tesedgeIntersectP10TESSvertexS0_S0_S0_S0_
Y3:__Z40DebugStringToFilePostprocessedStacktraceRK21DebugStringToFileData
plc:__ZNSt3__26vectorIN4core12basic_stringIcNS1_20StringStorageDefaultIcEEEENS_9allocatorIS5_EEE6assignIPS5_EENS_9enable_ifIXaasr21__is_forward_iteratorIT_EE5valuesr16is_constructibleIS5_NS_15iterator_traitsISC_E9referenceEEE5valueEvE4typeESC_SC_
YZd:__ZN5physx2Gu19GetRaycastFuncTableEv
MFn:_UploadHandler_Dispose_m3057340132
Kqn:_VertexShakeA_Start_m1684282329
CXa:__ZThn32_N8Renderer15AddAsRenderNodeER15RenderNodeQueueRK20DeprecatedSourceData
tVb:__ZN13dynamic_arrayIN18GlslGpuProgramGLES9GLProgramELj0EE6insertEPS1_jRKS1_
Ssb:__Z18Transfer_BlittableI14SafeBinaryReadLb0E11QuaternionfEvRK29SerializationCommandArgumentsR31RuntimeSerializationCommandInfo
iGd:__ZN13BoxCollider2D16CheckConsistencyEv
a4e:__ZN5physx17EdgeChangeManager23cleanupBrokenEdgeEventsEPKNS_4EdgeE
oGb:__Z18Transfer_BlittableI18StreamedBinaryReadILb0EELb1E12PropertyNameEvRK29SerializationCommandArgumentsR31RuntimeSerializationCommandInfo
G3:_tlsf_walk_heap
nni:__Z49RuntimeInvoker_Void_t1185182177_OpCode_t123070264PFvvEPK10MethodInfoPvPS4_
Q2d:__ZN5physx2Sc35ParticleElementRbElementInteraction7destroyEbj
Meo:__ZN6il2cpp2vm7Runtime6InvokeEPK10MethodInfoPvPS5_PP15Il2CppException
JXg:__ZL59AnimatorClipInfo_t3156717155_CustomAttributesCacheGeneratorP21CustomAttributesCache
M8k:_Convert_ToUInt32_m3592050311
Ab:invoke_vif
A_k:_Component_GetComponents_TisRuntimeObject_m2416546752_gshared
Bb:invoke_vid
Ezf:__Z38Register_UnityEngine_TextMesh_get_fontv
Db:invoke_vii
V0b:__ZNK12ImageFilters8DoRenderER17ShaderPassContextP13RenderTextureS3_RKNSt3__26vectorI11ImageFilterNS4_9allocatorIS6_EEEE
MMo:__GLOBAL__sub_I_Runtime_cpp_36473
VIe:__ZN5physx13NpVolumeCacheD2Ev
Q6f:_TMP_Text_SetVertexColorGradient_m1499765483
Gwa:__ZN12TLSAllocatorI14StackAllocatorE16ThreadInitializeEP13BaseAllocator
Noi:__Z82RuntimeInvoker_Boolean_t97287965_SByte_t1669577662_RuntimeObject_SByte_t1669577662PFvvEPK10MethodInfoPvPS4_
Dlb:__ZN9GfxDevice32UpdateStereoViewProjectionMatrixE21MonoOrStereoscopicEye
v8f:_BackgroundShipColour_Update_m1959052819
X0e:__ZThn8_N5physx2Sc35ParticleElementRbElementInteraction12onDeactivateEj
G0:__Z29GetCloudWebServicesModuleSpecv
vEf:__Z41CanvasRenderer_CUSTOM_DisableRectClippingP12Il2CppObject
eVi:_MonoType_GetConstructorImpl_m441167626
jig:_U3CStartU3Ec__Iterator0_Reset_m816692654
OSe:__ZN5physx16PxsThreadContextC2EPNS_10PxsContextE
tma:__ZL45__ManagedRegistrationHelperFunction_CoroutinePv
G4m:_Collection_1_IsFixedSize_m3709118201_gshared
Qjb:__ZN25SingleBlockMemoryFileDataD0Ev
XL:__ZNSt3__26vectorI14ConstantStringNS_9allocatorIS1_EEE6assignINS_11__wrap_iterIPS1_EEEENS_9enable_ifIXaasr21__is_forward_iteratorIT_EE5valuesr16is_constructibleIS1_NS_15iterator_traitsISA_E9referenceEEE5valueEvE4typeESA_SA_
ZVd:__ZN5physx3Cct10Controller4moveERNS0_11SweptVolumeERKNS_6PxVec3EffRKNS_19PxControllerFiltersEPKNS_17PxObstacleContextEb
j_:__ZN11UnityEngine15CloudWebService16SessionContainer21ConvertFromFolderTimeERKN4core12basic_stringIcNS2_20StringStorageDefaultIcEEEEPjPt
Uab:__Z15UnloadGameScenev
Cub:__ZNSt3__26vectorI8GUIStyle13stl_allocatorIS1_L18MemLabelIdentifier1ELi16EEE7reserveEj
Iso:__ZN6il2cpp6icalls8mscorlib6System9Threading6Thread27GetSerializedCurrentCultureEP12Il2CppThread
jqk:_Context_set_ReadSequenceNumber_m2154909392
W8m:_RijndaelTransform_SubByte_m3037693507
ncm:_Array_InternalArray__ICollection_Add_TisTMP_LinkInfo_t1092083476_m2596765647_gshared
rCc:__Z31CalculateHierarchyTransformType23TransformAccessReadOnly
qP:__ZN4FMOD8ChannelI11setPositionEjj
hlj:_Input_INTERNAL_CALL_GetTouch_m3481893561
GIo:_GC_set_fl_marks
A9d:__ZN5physx6shdfnd8PoolBaseINS_2Sc12SimStateDataENS0_19ReflectionAllocatorIS3_EEE17releaseEmptySlabsEv
HFh:_Image__ctor_m2551076292
Glb:__ZN9GfxDevice17SetStereoViewportE15StereoscopicEyeRK5RectTIiE
Uha:__ZN17BaseObjectManager13StaticDestroyEPv
z2:__GLOBAL__sub_I_Runtime_Graphics_Mesh_1_cpp
inh:_KerningTable_RemoveKerningPair_m3737762598
xzd:__ZN27b2UpdateTriggerContactsTask8FinalizeEv
yQd:__ZN5physx2Gu22closestPtPointTriangleEPNS_6shdfnd3aos5Vec3VES4_S4_Rj
PUj:_Array_InternalArray__IndexOf_TisKeyValuePair_2_t4237331251_m1795282647_gshared
_U:__ZN12AudioManager14UpdateListenerERK8Vector3fS2_S2_S2_
xje:__ZN5physx2Cm8PtrTableC2Ev
JLn:_Vector3_get_forward_m3100859705
cfl:_Double_Equals_m2309369974_AdjustorThunk
sN:__ZN4FMOD6Reverb13setPropertiesEPK22FMOD_REVERB_PROPERTIES
H2b:__ZN9DepthPass13PrepareSubsetEjRK10RenderNodeifRK17ShaderReplaceData
YVe:__ZN5physx16PxsBroadPhaseMBP6updateEjjRKNS_23PxcBroadPhaseUpdateDataEPNS_10PxBaseTaskE
lne:__ZN5physx9NpPhysics18createRigidDynamicERKNS_11PxTransformE
o4d:__ZN5physx6shdfnd5ArrayIPvNS0_19ReflectionAllocatorINS_2Sc18TriggerInteractionEEEE15growAndPushBackERKS2_
n5f:_TMP_Text_get_isOrthographic_m424304365
fkc:__ZN9ShaderLab20SerializedSubProgram16TextureParameter8TransferI14SafeBinaryReadEEvRT_
$sf:_otv_BaseCoord_validate
cMc:__Z35SetMeshComponentFromArrayFromScriptR4Mesh30InternalScriptingShaderChannel34InternalScriptingVertexChannelTypei17ScriptingArrayPtri
Mtc:__Z18ExtractTagThrowingR11ICallString
xXj:_Array_InternalArray__ICollection_Add_TisCustomAttributeNamedArgument_t287865710_m4157175270_gshared
$Sd:__ZN5physx2Gu17intersectRayAABB2ERKNS_6shdfnd3aos5Vec3VES5_S5_S5_RKNS2_6FloatVERS6_S9_
ms:__ZN4core20StringStorageDefaultIcE6assignEPKcj
itl:_KeyCollection_System_Collections_Generic_ICollectionU3CTKeyU3E_Remove_m1071033400_gshared
poe:__ZNK5physx7NpShape17getSphereGeometryERNS_16PxSphereGeometryE
bjk:_BigInteger_ModPow_m3776562770
EZd:__ZL18intersectAnyVsMeshILi1EEbPKN5physx2Gu6SphereEPKNS1_7CapsuleEPKNS1_3BoxERKNS1_13RTreeMidphaseERKNS0_11PxTransformERKNS0_11PxMeshScaleEP14LimitedResults
A5f:_TMP_Text_set_renderMode_m3516136471
SLf:__ZNSt3__26__treeINS_12__value_typeIN4core12basic_stringIcNS2_20StringStorageDefaultIcEEEE14CallbackArray3IRKS6_R8JSONReadbEEENS_19__map_value_compareIS6_SD_NS_4lessIS6_EELb1EEE13stl_allocatorISD_L18MemLabelIdentifier6ELi16EEE25__emplace_unique_key_argsIS6_JNS_4pairIS6_SC_EEEEENSN_INS_15__tree_iteratorISD_PNS_11__tree_nodeISD_PvEEiEEbEERKT_DpOT0_
REc:__ZN15SharedLightDataC2E10MemLabelId
I7d:__ZN5physx6shdfnd5ArrayIPvNS0_15InlineAllocatorILj256ENS0_19ReflectionAllocatorINS_2Cm5BlockIhLj128EEEEEEEE15growAndPushBackERKS2_
Hcc:__ZN6Camera6SetFarEf
q6i:_FormatterConverter_ToBoolean_m1680758923
EWo:dynCall_viiiiiiii
lPj:_Array_InternalArray__ICollection_Remove_TisKeyValuePair_2_t1383673463_m2503620538_gshared
ela:__ZN6prcoreL12RemapGenericI17TexFormatABGR888817TexFormatARGB8888EEvPKNS_9InnerInfoE
dxa:__ZN11GameManager17MainThreadCleanupEv
Dfd:__Z25UpdateOrbitalAndRadialTplIL27ParticleSystemCurveEvalMode1ELS0_4ELS0_2EEvRK11MinMaxCurveS3_S3_S3_S3_S3_S3_R23ParticleSystemParticlesjjRKN4math8float3x3ERKNS6_7affineXERKNS6_7_float4E
cEf:__Z50Register_UnityEngine_UISystemProfilerApi_EndSamplev
jTo:__ZNKSt3__212basic_stringIcNS_11char_traitsIcEENS_9allocatorIcEEE4findEcj
g_f:_TMP_InputField_PageDownCharacterPosition_m1882261777
uZn:_Physics2D_Raycast_m2082490717
RCd:__ZN10Collider2D12AddToManagerEv
zad:__ZN14ParticleSystem10ResetSeedsEv
s7i:_SerializationCallbacks_GetSerializationCallbacks_m2939476649
Sqe:__ZNK5physx7NpCloth24getParticleAccelerationsEPNS_6PxVec4E
Nvf:_UNITY_tt_slot_init
p_b:__ZZ23InitPlayerLoopCallbacksvEN41PostLateUpdateUpdateResolutionRegistrator7ForwardEv
dIb:__Z25scripting_array_class_get17ScriptingClassPtrj
TT:__ZNK10SampleClip22GetTypeVirtualInternalEv
ymb:__ZN9GfxDevice20DestroyRenderSurfaceER12ObjectHandleI17RenderSurface_TagP17RenderSurfaceBaseE
f3k:_Stack__ctor_m2602729586
bxc:__Z35Resources_CUSTOM_GetBuiltinResourceP12Il2CppObjectP12Il2CppString
aOk:_Array_slow_swapper_m4116724811
zbc:__ZN12_GLOBAL__N_15qAsinEff
k0h:_InternalEnumerator_1_System_Collections_IEnumerator_get_Current_m2629988057_AdjustorThunk
Hwa:__ZN12TLSAllocatorI14StackAllocatorE13ThreadCleanupEv
T1l:_Dictionary_2_get_Item_m2136868513_gshared
x0a:__ZN14SafeBinaryRead21TransferSTLStyleArrayI13dynamic_arrayI8Vector4fLj0EEEEvRT_17TransferMetaFlags
rum:_ValueType_InternalEquals_m1384040357
kGo:__ZThn4_N6il2cpp2vm13ComObjectBase16MarshalInterfaceEP13Il2CppIStreamRK10Il2CppGuidPvjS7_j
Xhc:__Z27FindActiveTransformWithPathPKc
vIm:_ReadOnlyCollection_1_System_Collections_IList_Remove_m4169110229_gshared
Yrm:_UInt16_ToString_m3020002356
HEe:__ZN5physx16PxsIslandManager14setEdgeRigidCMERKNS_20PxsIslandManagerHookIjLj4294967295EEEPNS_17PxsContactManagerE
sEj:_LayoutRebuilder_LayoutComplete_m68578143
G2k:_SortedList_Find_m3363512987
v8e:__ZN5physx2Gu11HeightField7releaseEv
O4b:__ZNK6Camera7GetNearEv
m1i:_GenericTypeParameterBuilder_GetConstructorImpl_m863833310
Dsl:_Enumerator_get_Current_m3687673883_AdjustorThunk
LCf:__ZN2UI13CanvasManager8SortListEv
aVb:__ZN7ApiGLES11UnmapBufferEjN2gl12BufferTargetE
BGo:__ZN6il2cpp5utilsL24Utf32CharToSurrogatePairEjRA2_Ds
qUa:__Z25GetNextAllowedTextureSizeib13TextureFormat
WKb:__ZN20LocalFileSystemWebGL4CopyER13FileEntryDataS1_
p1:__ZN19CloudServiceHandler6RetainEv
pag:_GameController_SpawnPowerUpWaves_m3905404505
JDm:_ReadOnlyCollection_1_System_Collections_IList_IndexOf_m198887188_gshared
T0k:_Component_GetComponent_TisRuntimeObject_m2906321015_gshared
QVc:__Z36Event_CUSTOM_Internal_SetNativeEventPv
Lkm:_UTF32Encoding_GetBytes_m3180303867
y0e:__ZN5physx2Sc8ClothSim23addCollisionHeightfieldEPKNS0_8ShapeSimE
_Xl:_List_1_System_Collections_IList_Add_m1651178974_gshared
Ycb:__Z34scripting_liveness_calculation_endPv
TQk:_Char_GetDataTablePointers_m754571594
SCo:__ZN6il2cpp2os6ThreadC2Ev
pFc:__ZN28ReflectionProbeAnchorManager7CleanupEv
xUm:_List_1_set_Capacity_m725662605_gshared
Jbl:_DateTimeOffset_get_UtcDateTime_m1021718282_AdjustorThunk
zy:__ZN21AnimationClipPlayable22ProcessAnimationNoClipEPK35AnimationPlayableEvaluationConstantPK32AnimationPlayableEvaluationInputP33AnimationPlayableEvaluationOutput
L7j:_HybridDictionary_get_Count_m1166314536
bcn:_TlsStream_Write_m1412844442
_0c:__Z18Transfer_BlittableI8JSONReadLb0E8Vector3fEvRK29SerializationCommandArgumentsR31RuntimeSerializationCommandInfo
jnj:_Matrix4x4__ctor_m53065545_AdjustorThunk
Apo:__ZN6il2cpp2vm6Thread6DetachEP12Il2CppThread
Ecn:_GeneralNames_get_DNSNames_m3788548987
Fyf:_Render_Single_Pass
p_j:_SymmetricAlgorithm_get_IV_m1875559108
Mma:__ZL56__ManagedRegistrationHelperFunction_TextureMixerPlayablePv
lw:__ZN7mecanim8skeleton30SkeletonBuildReverseIndexArrayEPiPKiPKNS0_8SkeletonES6_
ehd:__Z22UpdateOrbitalOffsetTplIL27ParticleSystemCurveEvalMode0ELS0_0EEvRK11MinMaxCurveS3_S3_S3_S3_S3_S3_R23ParticleSystemParticlesjjRKN4math8float3x3ERKNS6_7affineXERKNS6_7_float4E
lWc:__Z19GetGUIBlendMaterialv
HTi:_Math_Round_m3018379666
HDo:__ZN6il2cpp2os10ThreadImpl5SleepEjb
edi:_Comparer_1__cctor_m269133611_gshared
zQc:__Z53Register_UnityEngine_Quaternion_LookRotation_Injectedv
kVe:__ZN5physx14SapPairManager12shrinkMemoryEv
HMf:__ZN22BaseUnityConnectClient12IsNewSessionEv
$Yg:__ZL82LayoutCache_t78309876_CustomAttributesCacheGenerator_LayoutCache__ctor_m3885940174P21CustomAttributesCache
Gcf:__ZN5physx6shdfnd8internal7median3IjKNS_19SortBoundsPredicateEEEvPT_iiRT0_
ZQj:_PlayableHandle_IsPlayableOfType_TisRuntimeObject_m503495943_AdjustorThunk
G$o:_glBindSampler__wrapper
xZb:__ZNSt3__26vectorIN20ArchiveStorageHeader12StorageBlockE13stl_allocatorIS2_L18MemLabelIdentifier55ELi16EEE8__appendEj
wg:_emscripten_set_mouseup_callback
Sic:__Z14resize_trimmedINSt3__26vectorIN9ShaderLab14SerializedPassENS0_9allocatorIS3_EEEEEvRT_j
$mj:_Mathf_Clamp_m3350697880
_oi:__Z165RuntimeInvoker_Void_t1185182177_UInt32U26_t3735378166_Int32_t2950945753_UInt32U26_t3735378166_Int32_t2950945753_Int32_t2950945753_Int32_t2950945753_Int32_t2950945753PFvvEPK10MethodInfoPvPS4_
hVl:_List_1_System_Collections_IList_Remove_m3140917266_gshared
kdg:_PowerUpSpeed_Update_m2424033379
tHe:__ZN5physx7NpScene22removeBroadPhaseRegionEj
H4d:__ZL34GeomOverlapCallback_CapsuleCapsuleRKN5physx10PxGeometryERKNS_11PxTransformES2_S5_PNS_2Gu12TriggerCacheE
PKb:__ZNK18ScreenManagerWebGL8GetWidthEv
BGe:__ZNK5physx7NpScene23getFilterShaderDataSizeEv
lwl:_Transform_1_Invoke_m1211838035_gshared
Iom:_TimeSpan_get_TotalHours_m306507525_AdjustorThunk
QT:__ZN10SampleClipD2Ev
zgn:_Predicate_1_Invoke_m2389850270_gshared
qcb:__Z13GetGISettingsv
Iqc:__ZN19SpriteMeshGenerator7contourERNSt3__26vectorINS_6vertexENS0_9allocatorIS2_EEEERiRf
$0:__ZN11UnityEngine15CloudWebService20WebRequestRestClientC2Ev
mrf:_cff_cmap_unicode_init
jzf:__Z31Font_CUSTOM_Internal_CreateFontP12Il2CppObjectP12Il2CppString
$la:__ZL60__ManagedRegistrationHelperFunction_AssemblyIsEditorAssemblyPv
j3m:_Collection_1_IsValidItem_m3080586124_gshared
rzh:_ClipperRegistry_Register_m2407166513
KRo:_readlink
pjo:__ZN15dense_hashtableINSt3__24pairIK10KeyWrapperINS1_IPK9EventInfoP11Il2CppClassEEEjEES9_17ReflectionMapHashIS8_EN14dense_hash_mapIS9_jSD_NS9_14EqualsComparerINS0_8equal_toIS8_EEEENS0_9allocatorISB_EEE9SelectKeyESI_SK_E12resize_deltaEjj
XJh:_MonoCMethod_Invoke_m2700167622
W1k:_KeyMarker__cctor_m2590194914
bcd:__ZN14ParticleSystem38UpdateModulesPostSimulationIncrementalER24ParticleSystemUpdateDataR23ParticleSystemParticlesjRKf
RMo:__ZN6il2cpp8metadata14Il2CppTypeHash4HashEPK10Il2CppType
TNo:__ZN6il2cpp2os13SemaphoreImplC2Eii
YTl:_List_1_get_Item_m3345800295_gshared
r2a:__ZNK6Sprite9GetBoundsE8Vector2fbb
JBa:__ZNK19RenderEventsContext21CleanupCommandBuffersEv
gXn:_TextGenerator_PopulateWithErrors_m1222498386
BSb:__ZN11ContextGLES6CreateEi
eZd:__ZN5physx6shdfnd5ArrayINS_10PxTriangleENS0_19ReflectionAllocatorIS2_EEE15growAndPushBackERKS2_
Puj:_RectTransform_INTERNAL_set_anchoredPosition_m939517950
L_l:_List_1_set_Capacity_m3382070520_gshared
jdl:_Decimal_CompareTo_m3502307243_AdjustorThunk
dHb:__Z19TransferField_ArrayI18StreamedBinaryReadILb0EE27Converter_SimpleNativeClassI17AnimationCurveTplIfEEEvRK23StaticTransferFieldInfoR31RuntimeSerializationCommandInfoRT0_
$wa:__ZN14StackAllocator16FrameMaintenanceEb
HYd:__ZL11SweepBoxBoxPKN5physx3Cct9SweepTestEPKNS0_11SweptVolumeEPKNS0_11TouchedGeomERKNS_14PxExtendedVec3ERKNS_6PxVec3ERNS0_12SweptContactE
VWa:__Z18ReadStringFromFilePN4core17string_with_labelILi1EEERKNS_12basic_stringIcNS_20StringStorageDefaultIcEEEE
T$c:__ZN9JSONWrite8TransferI13dynamic_arrayIjLj0EEEEvRT_PKc17TransferMetaFlags
zca:__ZNK10GameObject20QueryComponentByTypeEPKN5Unity4TypeE
Ccl:_Decimal_System_IConvertible_ToInt32_m1488426794_AdjustorThunk
kUi:_MonoCustomAttrs_IsUserCattrProvider_m2878058089
kxj:_TextAsset_ToString_m2170047097
h6g:__ZL71InputField_t3762917431_CustomAttributesCacheGenerator_m_HideMobileInputP21CustomAttributesCache
CGn:_UploadHandler_Finalize_m3322774190
$Sa:__ZN11TextureData5ResetEv
luc:__Z53Register_UnityEngine_GameObject_get_activeInHierarchyv
M_j:_ToBase64Transform_InternalTransformFinalBlock_m360524956
lLk:_ActivationContext_Dispose_m2038725770
F7:__ZL30InitializeCoreScriptingClassesv
eIa:__ZN15SerializeTraitsI12fixed_bitsetILi28EjEE8TransferI18StreamedBinaryReadILb0EEEEvRS1_RT_
th:_glBlitFramebuffer
fPe:__ZN5physx2Sq10AABBPrunerC2Eb
rwb:__Z35Transfer_Blittable_SingleValueFieldI14SafeBinaryReadhEvRT_R17GeneralMonoObjectRK23StaticTransferFieldInfo
iOc:__ZN4core8hash_setINS_4pairIKy9PlaneDataLb0EEENS_9hash_pairIN32PlaneColliderCache_dense_hashmap17UInt64HashFunctorES2_S3_EENS_10equal_pairINSt3__28equal_toIyEES2_S3_EEE4growEv
Wom:_TimeSpan_Duration_m2963553230
lFf:__Z47Register_UnityEngine_CanvasRenderer_GetMaterialv
jOc:__ZN4core8hash_setINS_4pairIKy9PlaneDataLb0EEENS_9hash_pairIN32PlaneColliderCache_dense_hashmap17UInt64HashFunctorES2_S3_EENS_10equal_pairINSt3__28equal_toIyEES2_S3_EEE4growEi
J7c:__ZN24GenerateTypeTreeTransfer8TransferI13dynamic_arrayIN8UVModule10SpriteDataELj0EEEEvRT_PKc17TransferMetaFlags
ldm:_Array_InternalArray__ICollection_CopyTo_TisInt64_t3736567304_m2845057751_gshared
hTa:__ZNK12CubemapArray22GetTypeVirtualInternalEv
Wo:FUNCTION_TABLE_vif
Xo:FUNCTION_TABLE_vid
Zo:FUNCTION_TABLE_vii
hdb:__Z40scripting_liveness_calculation_from_root18ScriptingObjectPtrPv
gXg:__ZL102UnityWebRequest_t463507806_CustomAttributesCacheGenerator_UnityWebRequest_get_isModifiable_m4181352937P21CustomAttributesCache
yjd:__ZN13InitialModuleD2Ev
O$l:_Dictionary_2_System_Collections_IDictionary_get_Item_m2163779460_gshared
ANa:__ZN7Texture23VirtualRedirectTransferER24GenerateTypeTreeTransfer
hmf:_UNITY_FT_Set_Transform
J1a:__ZN14SpriteRenderer16CheckConsistencyEv
j$o:_glDeleteFramebuffers__wrapper
wli:__Z220RuntimeInvoker_Boolean_t97287965_RuntimeObject_Int32U26_t1369213839_Int32_t2950945753_Int32_t2950945753_Int32_t2950945753_RuntimeObject_SByte_t1669577662_Int32_t2950945753_ContractionU26_t961830454_ContextU26_t3937453398PFvvEPK10MethodInfoPvPS4_
wpf:_cff_blend_build_vector
yUf:_TMP_DefaultControls_CreateScrollbar_m4251525859
dMh:_GetterAdapter_Invoke_m3767885970
P$l:_Dictionary_2_System_Collections_IDictionary_set_Item_m977858099_gshared
w5j:_String_CreateString_m2818852475
zHc:__Z22GenerateBoxTilingShapeP22GenerateTilingAreaInfo
XYa:__ZN28EnlightenRendererInformation8TransferI14SafeBinaryReadEEvRT_
LYn:_CanvasRenderer_get_hasMoved_m2236392341
bke:__ZN5physx12NpBatchQuery13getUserMemoryEv
Apj:_MessageEvent__ctor_m1231650089
hfb:__ZNK15Lz4Decompressor16DecompressMemoryEPKvPjPvS2_
guf:_UNITY_tt_face_build_cmaps
Hoc:__ZN4core8hash_mapINS_12basic_stringIcNS_20StringStorageDefaultIcEEEE10vector_setI4PPtrI11SpriteAtlasENSt3__24lessIS8_EE13stl_allocatorIS8_L18MemLabelIdentifier81ELi16EEENS_4hashIS4_EENS9_8equal_toIS4_EEEixERKS4_
vHd:__ZN11Rigidbody2D8TransferI24GenerateTypeTreeTransferEEvRT_
lQa:__Z35UnityPropertySheet_MakeSortedColorsRKNSt3__23mapIN9ShaderLab16FastPropertyNameE10ColorRGBAfNS_4lessIS2_EENS_9allocatorINS_4pairIKS2_S3_EEEEEER10vector_mapIS2_S3_S5_NS6_INS7_IS2_S3_EEEEE
n9m:_RIPEMD160Managed_ProcessBlock_m3304263146
Dtf:_UNITY_tt_face_load_os2
_Fd:__ZN17PolygonCollider2D8TransferI24GenerateTypeTreeTransferEEvRT_
gem:_Array_InternalArray__ICollection_CopyTo_TisUICharInfo_t75501106_m4268526610_gshared
w7d:__ZN5physx6shdfnd8PoolBaseINS_2Sc19ConstraintGroupNodeENS0_19ReflectionAllocatorIS3_EEE17releaseEmptySlabsEv
Mvb:__Z29Transfer_Blittable_ArrayFieldI14SafeBinaryRead8Vector4fEvRT_R9ArrayInfoRK23StaticTransferFieldInfo
BBo:__GLOBAL__sub_I_BoehmGC_cpp
yI:__ZNK26AnimatorOverrideController22GetTypeVirtualInternalEv
fff:__ZNSt3__27__sort4IRNS_6__lessI24InterpolationDepthHandleS2_EEPS2_EEjT0_S6_S6_S6_T_
Rlm:_UTF8Encoding_GetMaxCharCount_m3762459613
d$i:_ModuleBuilder_RegisterToken_m4166846047
aph:_TextMeshPro_get_transform_m2127581678
g_b:__ZZ23InitPlayerLoopCallbacksvEN51PostLateUpdateUpdateCustomRenderTexturesRegistrator7ForwardEv
BGj:_RawImage_OnPopulateMesh_m1115858855
ibo:__ZN6il2cpp2vm13MetadataCache25GetStringLiteralFromIndexEi
MLk:_Hashtable_ToPrime_m33531354
Yy:__ZN7mecanim9animation12EvaluateClipEPKNS0_4ClipEPKNS0_9ClipInputEPNS0_10ClipMemoryEPNS0_10ClipOutputE
dxm:_Collection_1_IsSynchronized_m1117613618_gshared
SPf:__ZN20UnityWebRequestProtoI24UnityWebRequestTransport16AtomicRefCounter14RedirectHelper14ResponseHelper15DownloadHandler13UploadHandler18CertificateHandler12HeaderHelper14AsyncOperationE19Task_FinishRedirectEPv
jxh:_TouchInputModule_ProcessTouchPress_m3504077560
x0d:__ZN5physx3Cct9SweepTest15onObstacleAddedEjPKNS_17PxObstacleContextERKNS_6PxVec3ES7_f
brm:_TypeInitializationException__ctor_m3546444694
qxc:__ZNK9Transform16GetLocalRotationEv
b0:__ZN11UnityEngine15CloudWebService23WebRequestUploadHandler17ConsumeUploadDataEj
zGk:_MemoryStream_set_Position_m3169779190
Bbc:__ZN13RenderManager29SetCurrentCameraAndStackStateEP6CameraP25CameraStackRenderingState
quh:_ExecuteEvents_get_scrollHandler_m2659345019
Axa:__ZNSt3__26__treeINS_12__value_typeIjN4core12basic_stringIcNS2_20StringStorageDefaultIcEEEEEENS_19__map_value_compareIjS7_NS_4lessIjEELb1EEE13stl_allocatorIS7_L18MemLabelIdentifier7ELi16EEE7destroyEPNS_11__tree_nodeIS7_PvEE
Dro:__ZN15dense_hashtableINSt3__24pairIK10KeyWrapperINS1_IP11Il2CppClassjEEES4_EES6_N6il2cpp8metadata14ArrayClassHashEN14dense_hash_mapIS6_S4_SB_NS6_14EqualsComparerINSA_17ArrayClassCompareEEENS0_9allocatorIS8_EEE9SelectKeyESF_SH_E12resize_deltaEjj
Ii:_JS_WebRequest_Release
WOg:__ZL85Time_t2420636075_CustomAttributesCacheGenerator_Time_t2420636075____time_PropertyInfoP21CustomAttributesCache
dfi:_Enumerator_System_Collections_IEnumerator_Reset_m2031362704_AdjustorThunk
L_:__ZN11UnityEngine15CloudWebService14DataErrorEventD0Ev
Q$m:_Collection_1_ConvertItem_m525844156_gshared
Ruo:__ZN6il2cpp6icalls8mscorlib6System4Type20internal_from_handleEi
LGg:__ZL72RequiredByNativeCodeAttribute_t4130846357_CustomAttributesCacheGeneratorP21CustomAttributesCache
yPk:_Boolean_System_IConvertible_ToUInt16_m3465173538_AdjustorThunk
M9c:__ZN14EmissionModule5ResetEv
vYl:_List_1_CheckMatch_m2532733861_gshared
wRh:_Context__ctor_m254302079
QQe:__ZN5physx13PxsCCDContext12postCCDSweepEPNS_10PxBaseTaskE
Gra:__ZN9Scripting11UnityEngine12Experimental9Playables20TextureMixerPlayable9InitProxyEv
bWa:__ZN19ShaderPropertySheet16SetArrayPropertyEN9ShaderLab16FastPropertyNameENS_12PropertyTypeEPKvj
vIj:_Selectable_FindSelectable_m2348614027
$Qf:__ZN16UploadHandlerRaw17ConsumeUploadDataEj
PCh:_DropdownItem_OnPointerEnter_m1492957598
mdf:__ZN5physx6shdfnd10Foundation19AlignCheckAllocator28deregisterAllocationListenerERNS_20PxAllocationListenerE
Ksa:__ZN9Scripting11UnityEngine9BoundsInt9InitProxyEv
GWc:__ZN8GUIState8EndOnGUIEv
YKf:__ZN11UnityEngine15PlatformWrapper16GetApplicationIdEv
Oso:__ZN6il2cpp6icalls8mscorlib6System2IO6MonoIO16get_ConsoleErrorEv
Uvf:_UNITY_TT_Get_VMetrics
dTe:__ZN5physx33solveContactCoulombBlockWriteBackEPKNS_23PxcSolverConstraintDescEjRNS_16PxcSolverContextEPNS_25PxcThresholdStreamElementEjPi
VTk:_SimpleEnumerator__cctor_m2844299657
pTi:_LocalDataStoreSlot__ctor_m4104083971
OIm:_ReadOnlyCollection_1_System_Collections_Generic_IListU3CTU3E_RemoveAt_m3849058645_gshared
QTn:_AudioSource_ReadExtensionName_m725112169
Een:_X509CertificateEnumerator_System_Collections_IEnumerator_Reset_m2039524926
S_e:__ZN5physx9PxTaskMgr17submitUnnamedTaskERNS_6PxTaskENS_10PxTaskType4EnumE
hsi:__Z128RuntimeInvoker_Void_t1185182177_RuntimeObject_BooleanU26_t4125257963_SByte_t1669577662_Int32U26_t1369213839_Int32U26_t1369213839PFvvEPK10MethodInfoPvPS4_
ZNa:__ZN7Texture21GetMasterTextureLimitEv
g6a:__ZN13dynamic_arrayI9InputAxisLj0EE18resize_initializedEj12ResizePolicy
tdc:__Z12CanAddScriptR10GameObject17ScriptingClassPtrPS1_S2_
uMm:_Comparison_1_BeginInvoke_m3263247262_gshared
z6:__ZN9ShaderLabL25StaticInitializeShaderLabEPv
JOe:__ZNK5physx2Sq12BucketPruner5sweepERKNS0_9ShapeDataERKNS_6PxVec3ERfRNS0_14PrunerCallbackE
U:Math_max
S8g:__ZL64HorizontalLayoutGroup_t2586782146_CustomAttributesCacheGeneratorP21CustomAttributesCache
lGn:_UnityWebRequest_SerializeFormSections_m557418047
goo:_il2cpp_class_get_methods
iIl:_Dictionary_2_make_pair_m891994456_gshared
m4c:__GLOBAL__sub_I_artifacts_WebGL_codegenerator_0_cpp_3493
twj:_HitInfo_SendMessage_m1343099429_AdjustorThunk
xyb:__Z18Transfer_BlittableI24GenerateTypeTreeTransferLb0EN4math12int2_storageEEvRK29SerializationCommandArgumentsR31RuntimeSerializationCommandInfo
fEn:_AesManaged_GenerateKey_m2004209814
cSf:__Z64Register_UnityEngine_Networking_UnityWebRequest_get_isModifiablev
A2j:_Single_CompareTo_m2785801815_AdjustorThunk
_Co:__ZN6il2cpp2os6Thread16GetCurrentThreadEv
oMf:__ZN11UnityEngine7Connect20RemoteConfigSettings10UnregisterEv
Kfm:_Array_InternalArray__Insert_TisUILineInfo_t4195266810_m3191124053_gshared
wpc:__ZN10GameObject13ComponentPair15SetComponentPtrEPN5Unity9ComponentE
xZo:_glBlitFramebuffer__wrapper
tif:__ZN5physx6shdfnd8internal8HashBaseINS0_4PairIKPKNS0_14NamedAllocatorEPKcEES6_NS0_4HashIS6_EENS1_11HashMapBaseIS6_S9_SC_NS0_20NonTrackingAllocatorEE6GetKeyESE_Lb1EE15reserveInternalEj
Gxa:__ZN10TagManager8TransferI19StreamedBinaryWriteILb0EEEEvRT_
Dcb:__ZN11PreloadData23VirtualRedirectTransferER18StreamedBinaryReadILb0EE
wgi:_Enumerator_VerifyCurrent_m2516497577_AdjustorThunk
ovl:_ShimEnumerator_Reset_m1479883403_gshared
fta:__ZN9Scripting11UnityEngine24AssemblyIsEditorAssembly12CleanupProxyEv
$Qk:_Char_System_IConvertible_ToDateTime_m3564102661
xM:__ZN13RuntimeStaticINSt3__26vectorI12WebCamDeviceNS0_9allocatorIS2_EEEELb0EE13StaticDestroyEPv
yZa:__ZN6Sprite17MainThreadCleanupEv
KZo:_glBlendFuncSeparate__wrapper
qR:__ZN10AudioMixer14UpdateMuteSoloEv
VCa:__ZN12BaseRenderer25FlattenSharedMaterialDataILb0EEEbRKS_R22PerThreadPageAllocatorR10RenderNode
Fme:__ZN5physx6shdfnd5ArrayINS_3Scb13MaterialEventENS0_19ReflectionAllocatorIS3_EEE15growAndPushBackERKS3_
Yya:__ZN9Transform35SetLocalPositionWithoutNotificationERKN4math7_float3Ey
XKg:__ZL101MonoBehaviour_t3962482529_CustomAttributesCacheGenerator_MonoBehaviour_StartCoroutine_Auto_m594129169P21CustomAttributesCache
Jj:_JS_Eval_ClearTimeout
uDg:__ZL64ThreadStaticAttribute_t3840787420_CustomAttributesCacheGeneratorP21CustomAttributesCache
_qb:__ZN7ApiGLES16SetPatchVerticesEi
Dwn:_CharacterClass_Compile_m3296067317
l9d:__ZN5physx2Sc5Scene11onBodySleepEPNS0_7BodySimE
CCo:__ZN6il2cpp2gc16GarbageCollector16InvokeFinalizersEv
lQk:_Byte_System_IConvertible_ToInt64_m285584218_AdjustorThunk
Ltj:_Rect_get_size_m477575021_AdjustorThunk
Z2n:__ZN6il2cpp2vm5Class20FromGenericParameterEPK22Il2CppGenericParameter
BUj:_Array_IndexOf_TisVector3_t3722313464_m4284163268_gshared
HWd:__ZL28GeomMTDCallback_PlaneCapsuleRN5physx6PxVec3ERfRKNS_10PxGeometryERKNS_11PxTransformES5_S8_
QGl:_Dictionary_2_ContainsKeyValuePair_m2384174870_gshared
nha:__ZN15GlobalCallbacksC2Ev
Sud:__ZN7b2World10CreateBodyEPK9b2BodyDef
Vei:_Comparer_1_System_Collections_IComparer_Compare_m2016223770_gshared
p7j:_Encoding_GetBytes_m3823106599
ufg:_JSONNode_get_AsInt_m1705691929
Vnf:_UNITY_FT_New_Memory_Face
PJf:__ZN22BaseUnityConnectClient18QueueAppStartEventERN11UnityEngine15CloudWebService26CloudServiceEventWithParamE
z7m:_Collection_1_System_Collections_IList_IndexOf_m3271188411_gshared
PEn:_DownloadHandler_GetText_m600283602
Blf:__ZN20TextRenderingPrivate21TextMeshGeneratorImpl5FlushEv
kGk:_MonoIO_GetFileStat_m678141354
Urf:_UNITY_FT_Load_Sfnt_Table
NBm:_ReadOnlyCollection_1_System_Collections_Generic_ICollectionU3CTU3E_Remove_m1363008147_gshared
VUf:__Z15CastclassSealedP12Il2CppObjectP11Il2CppClass
ane:__ZN5physx9NpPhysics16createConvexMeshERNS_13PxInputStreamE
_cl:_Decimal_IsZero_m4250358244_AdjustorThunk
$Si:_UnmanagedMemoryStream_get_CanRead_m3770815400
hcc:__ZN16ReflectionProbes40UpdateRealtimeReflectionProbesTimeslicedEv
OZa:__ZN14SafeBinaryRead21TransferSTLStyleArrayI13dynamic_arrayI8Vector2fLj0EEEEvRT_17TransferMetaFlags
xem:_Array_InternalArray__Insert_TisKeyValuePair_2_t1383673463_m1372785123_gshared
h4k:_Decimal_u64_m3374804932
y8d:__ZN5physx2Sq17SceneQueryManager8addShapeERKNS_7NpShapeERKNS_12PxRigidActorEbPNS_9PxBounds3E
urm:_UInt16_System_IConvertible_ToInt32_m1950778303_AdjustorThunk
g8a:__ZNK30RuntimeInitializeOnLoadManager22GetTypeVirtualInternalEv
ITj:__ZN21InterfaceFuncInvoker2IiffE6InvokeEjP11Il2CppClassP12Il2CppObjectff
e8n:__ZN15dense_hashtableINSt3__24pairIK10KeyWrapperIN6il2cpp5utils13dynamic_arrayIPK10Il2CppTypeLj4EEEEPFvvEEESA_NS3_8metadata19Il2CppSignatureHashEN14dense_hash_mapISA_SD_SG_NSA_14EqualsComparerINSF_22Il2CppSignatureCompareEEENS0_9allocatorISE_EEE9SelectKeyESK_SM_E12resize_deltaEjj
YFc:__ZN16ReflectionProbes15InitializeClassEv
V_:__ZN13dynamic_arrayIN11UnityEngine15CloudWebService14DataErrorEvent15FileErrorDetailELj0EE18resize_initializedEj12ResizePolicy
yGm:_ReadOnlyCollection_1_System_Collections_ICollection_CopyTo_m2527663815_gshared
PKl:_Enumerator_VerifyState_m1375238439_AdjustorThunk
qwo:__ZN6il2cpp2vm5Image9GetCorlibEv
NLn:_Vector3_get_left_m2428419009
zAo:__ZN6il2cpp2vm11MethodStack17GetStackFramesRawEv
MSe:__ZNK5physx2Gu29EPASupportMapPairRelativeImplINS0_8CapsuleVES2_E9doSupportERKNS_6shdfnd3aos5Vec3VERS6_S9_S9_
Jda:__ZN13RuntimeStaticINSt3__23mapIN4core12basic_stringIcNS2_20StringStorageDefaultIcEEEES6_NS0_4lessIS6_EE13stl_allocatorINS0_4pairIKS6_S6_EEL18MemLabelIdentifier13ELi16EEEELb0EE13StaticDestroyEPv
_gj:_Coroutine_ReleaseCoroutine_m947702340
wcf:__ZN5physx10SubSortSAH5sort4EPjjRNS_6shdfnd5ArrayINS_11RTreeNodeNQENS2_19ReflectionAllocatorIS4_EEEERjjPS4_
ool:_Enumerator_System_Collections_IEnumerator_get_Current_m2979767597_AdjustorThunk
Iln:__ZN30GenericInterfaceActionInvoker1I17Color_t2555686324E6InvokeEPK10MethodInfoP12Il2CppObjectS0_
ddj:_MD5CryptoServiceProvider_ProcessFinalBlock_m2241588515
FJj:_ScrollRect_GetBounds_m449872505
Hk:_glIsVertexArray
Ugd:__Z25UpdateOrbitalAndRadialTplIL27ParticleSystemCurveEvalMode3ELS0_2ELS0_1EEvRK11MinMaxCurveS3_S3_S3_S3_S3_S3_R23ParticleSystemParticlesjjRKN4math8float3x3ERKNS6_7affineXERKNS6_7_float4E
Zzk:_Int16_Parse_m2276856944
mBf:__ZL42__ManagedRegistrationHelperFunction_CanvasPv
ha:invoke_fff
zRo:_mbsinit
oQj:_Array_InternalArray__ICollection_Remove_TisContactPoint2D_t3390240644_m284878234_gshared
kYo:b14
nif:__ZN5physx2Sc7PhysicsC2ERKNS_17PxTolerancesScaleERKNS_14PxvOffsetTableE
UPc:__Z34RenderTexture_Get_Custom_PropWidthP12Il2CppObject
dff:__ZNSt3__26__sortIRNS_6__lessI24InterpolationDepthHandleS2_EEPS2_EEvT0_S6_T_
dCf:__ZN2UI6Canvas17MainThreadCleanupEv
Zka:__ZN6prcoreL12RemapGenericI17TexFormatARGB155517TexFormatRGBA8888EEvPKNS_9InnerInfoE
S4n:__ZN13Il2CppHashMapIPK19Il2CppGenericMethodPK26Il2CppGenericMethodIndicesN6il2cpp8metadata23Il2CppGenericMethodHashENS7_26Il2CppGenericMethodCompareENSt3__29allocatorINSA_4pairIK10KeyWrapperIS2_ES5_EEEEEC2EjRKS8_RKS9_
aIh:_TypeBuilder_HasElementTypeImpl_m1871001960
F1j:_SecurityFrame__ctor_m2140076703_AdjustorThunk
djm:_Array_Resize_TisVector2_t2156229523_m3382835435_gshared
i5l:_DefaultComparer_Equals_m2458578172_gshared
srb:__ZN7ApiGLES13CreateProgramEv
eKa:__ZN11HaloManager7AddHaloEv
OAj:_InputField_set_caretPositionInternal_m3823580651
npl:_Enumerator_VerifyState_m4003066746_gshared
CUa:__ZN4crnd12crn_unpackerD2Ev
NM:__ZN9Scripting11UnityEngine12Experimental5Audio19AudioSampleProvider9InitProxyEv
Yk:_emscripten_glTexImage2D
Ddi:_Comparer_1_System_Collections_IComparer_Compare_m2537217645_gshared
UEa:__ZN16MeshVertexFormat20GetVertexDeclarationER9GfxDevice16VertexInputMasksPKS_
u7:__ZN18ScriptingArguments9AddStringEPKc
PJo:_setup_header
_Rk:_Char_ToString_m3588025615
LSe:__ZNK5physx2Gu29EPASupportMapPairRelativeImplINS0_8CapsuleVES2_E18doWarmStartSupportEiiRNS_6shdfnd3aos5Vec3VES7_S7_
gll:_CryptoConvert_ToCapiKeyBlob_m3371450375
VRa:__ZL23stbir__resize_arbitraryPvPKviiiS_iiiffffPfiij14stbir_datatype12stbir_filterS4_10stbir_edgeS5_16stbir_colorspace
wad:__ZN23ParticleSystemParticles13array_reserveEj
Hqc:__ZN19SpriteMeshGenerator4maskC2EP11ColorRGBA32iihj
Ryb:__Z18Transfer_BlittableI24GenerateTypeTreeTransferLb1E8Vector4fEvRK29SerializationCommandArgumentsR31RuntimeSerializationCommandInfo
oYo:b18
hl:_pthread_detach
aco:__ZN6il2cpp2vm19SocketPollingThread7RunLoopEv
vDh:_FontUpdateTracker_UntrackText_m1981515690
Lfh:__ZL64AnalyticsEventTracker_t2285229262_CustomAttributesCacheGeneratorP21CustomAttributesCache
SNe:__ZN5physx11EdgeManager6resizeEj
Bid:__Z16EmitterStoreDataRKN4math8float3x3ERKNS_7affineXER23ParticleSystemParticlesRK19ParticleSystemStatejRNS_8floatNx3ESC_RKNS_4pix4ER5RandNfffbb
OJc:__ZN15DirectorManager20ScheduleGraphDestroyERK14HPlayableGraph
UHb:__ZNSt3__213__stable_sortIRN10vector_mapI17ScriptingClassPtrPKN5Unity4TypeENS_4lessIS2_EENS_9allocatorINS_4pairIS2_S6_EEEEE13value_compareENS_11__wrap_iterIPSB_EEEEvT0_SJ_T_NS_15iterator_traitsISJ_E15difference_typeEPNSM_10value_typeEi
nPi:__Z92RuntimeInvoker_RuntimeObject_Int32_t2950945753_Int64_t3736567304_RuntimeObject_RuntimeObjectPFvvEPK10MethodInfoPvPS4_
XUm:_List_1_AddEnumerable_m1284696147_gshared
wak:_IPAddress_Equals_m1823478787
jSh:_Context_CreateNewContext_m3053563976
Ooh:_TextContainer_get_rectTransform_m3829128540
Qlc:__ZN9ShaderLab25SerializedTextureProperty8TransferI24GenerateTypeTreeTransferEEvRT_
Jvl:_ShimEnumerator_Reset_m227785477_gshared
gko:__ZN6il2cpp2gc19AppendOnlyGCHashMapINSt3__24pairIPK14Il2CppAssemblyP11Il2CppClassEEP24Il2CppReflectionAssembly17ReflectionMapHashIS9_ENS2_8equal_toIS9_EEEC2Ev
DBb:__Z18Transfer_BlittableI19StreamedBinaryWriteILb0EELb0EdEvRK29SerializationCommandArgumentsR31RuntimeSerializationCommandInfo
LAe:__ZN5physx2Sc5Scene12removeStaticERNS0_10StaticCoreERNS_6shdfnd11InlineArrayIPKNS0_9ShapeCoreELj64ENS4_19ReflectionAllocatorIS8_EEEEb
p2:__GLOBAL__sub_I_Runtime_Camera_RenderLoops_2_cpp
cwa:__ZN11NamedObject8TransferI18StreamedBinaryReadILb0EEEEvRT_
F6n:__ZNK15dense_hashtableINSt3__24pairIK10KeyWrapperIPK19Il2CppGenericMethodEPK26Il2CppGenericMethodIndicesEES6_N6il2cpp8metadata23Il2CppGenericMethodHashEN14dense_hash_mapIS6_SA_SE_NS6_14EqualsComparerINSD_26Il2CppGenericMethodCompareEEENS0_9allocatorISB_EEE9SelectKeyESI_SK_E5beginEv
Dij:_InvokableCall_remove_Delegate_m1376110510
uWk:_Hashtable_Clear_m3112193608
zlm:_UTF8Encoding_InternalGetByteCount_m771565606
Y1c:__Z18Transfer_BlittableI8JSONReadLb1EyEvRK29SerializationCommandArgumentsR31RuntimeSerializationCommandInfo
dXl:_List_1_System_Collections_IList_Remove_m3654336679_gshared
WSg:__ZL51GUILayer_t2783472903_CustomAttributesCacheGeneratorP21CustomAttributesCache
WEa:__ZN9GfxDevice20GetVertexDeclarationERK18VertexChannelsInfoNS_30VertexDeclarationMRUCacheIndexE
El:_emscripten_glMatrixMode
OFj:_MaskableGraphic_UnityEngine_UI_IClippable_get_gameObject_m1739855597
Gw:__ZN8Animator23VirtualRedirectTransferER18StreamedBinaryReadILb0EE
Myk:_Guid__ctor_m3562600567_AdjustorThunk
C1:__ZN19CloudServiceHandler19StopEventDispatcherEv
q8e:__ZN5physx13GuMeshFactory17createHeightFieldERNS_13PxInputStreamE
UDe:__ZN5physx2Sc10NPhaseCore25createShapeInstancePairLLERNS0_8ShapeSimES3_NS_7PxFlagsINS_10PxPairFlag4EnumEtEE
O0f:_TMP_Settings_get_enableKerning_m2305860424
Q9k:_DateTime_System_IConvertible_ToInt16_m3239820399
d_:__ZN11UnityEngine15CloudWebService14DataDispatcher16PrepareDataBlockERNS0_16SessionContainerE
iYb:__ZN18GfxFramebufferGLES5ClearE13GfxClearFlagsRK10ColorRGBAffib
ZEe:__ZThn8_N5physx2Sc19ShapeInstancePairLL12onDeactivateEj
pTj:_Array_compare_TisProgressHandler_t926933139_m465927472_gshared
J7i:_ObjectManager_DoFixups_m3038765937
N1f:_TMP_SpriteAsset_SearchForSpriteByUnicodeInternal_m1359718671
tGb:__ZL26Transfer_SimpleNativeClassI18StreamedBinaryReadILb0EE10RectOffsetLb0EEvRK29SerializationCommandArgumentsR31RuntimeSerializationCommandInfo
Z2h:_InternalEnumerator_1_get_Current_m2316281569_gshared
r2b:__ZL12DepthPassJobPN21GfxDeviceAsyncCommand10ArgScratchEPKNS_3ArgE
hkc:__ZNSt3__26vectorIN9ShaderLab20SerializedSubProgram16TextureParameterENS_9allocatorIS3_EEE6assignINS_11__wrap_iterIPS3_EEEENS_9enable_ifIXaasr21__is_forward_iteratorIT_EE5valuesr16is_constructibleIS3_NS_15iterator_traitsISC_E9referenceEEE5valueEvE4typeESC_SC_
Qoj:_MonoBehaviour_IsInvoking_m3285132449
mZc:__ZN5Unity9rapidjson6WriterI16TempBufferWriterNS0_4UTF8IcEES4_13JSONAllocatorE11WriteDoubleEd
w0l:_Dictionary_2_TryGetValue_m3741534516_gshared
ALd:__ZN9Rigidbody16ApplyConstraintsEv
hnm:_Thread_SetCachedCurrentUICulture_m1729523031
Epb:__ZN14GfxDeviceStats16CopyAllDrawStatsERKS_
W5c:__ZN11MinMaxCurve5ResetE23ParticleSystemCurveModef
Mn:FUNCTION_TABLE_iiiiiiiiiiii
vad:__ZNK14ParticleSystem27CalculateMaxActiveParticlesEv
o9i:_SByte_System_IConvertible_ToDateTime_m1659899958
Bwe:__ZN5physx2Sc17ParticleSystemSim8setFlagsEj
$Ga:__ZN16GraphicsSettingsD0Ev
p4:__Z12FormatBufferPciPKcz
eMf:__ZNSt3__26__treeINS_12__value_typeIN4core12basic_stringIcNS2_20StringStorageDefaultIcEEEE14CallbackArray3IRKS6_R8JSONReadbEEENS_19__map_value_compareIS6_SD_NS_4lessIS6_EELb1EEE13stl_allocatorISD_L18MemLabelIdentifier6ELi16EEE7destroyEPNS_11__tree_nodeISD_PvEE
n:cttz_i8
kpf:_UNITY_FT_GlyphLoader_Add
pbf:__ZN5physx2Gu15EdgeListBuilder18CreateEdgesToFacesEjPKjPKt
QPn:__ZL25UnresolvedVirtualCall_168P12Il2CppObjectf19Vector2_t2156229523aPK10MethodInfo
RYd:__ZN5physx11PxMeshQuery5sweepERKNS_6PxVec3EfRKNS_10PxGeometryERKNS_11PxTransformEjPKNS_10PxTriangleERNS_10PxSweepHitENS_7PxFlagsINS_9PxHitFlag4EnumEtEEPKjfb
Sbi:_DefaultComparer_Compare_m1878901918_gshared
mPf:__ZN9Scripting11UnityEngine10Networking29UnityWebRequestAsyncOperation9InitProxyEv
kUn:_AudioListener_INTERNAL_CALL_ReadExtensionPropertyName_m330480156
q8k:_Convert_ToUInt16_m867476252
Bm:_emscripten_glViewport
lHc:__Z21GenerateTilingAreaJobP22GenerateTilingAreaInfoj
rGo:__ZN6il2cpp6icalls8mscorlib6System15MonoCustomAttrs17IsDefinedInternalEP12Il2CppObjectP20Il2CppReflectionType
pQe:__ZN5physx6shdfnd5ArrayIPhNS0_19ReflectionAllocatorIS2_EEE8recreateEj
__n:_SkeletonBone_t4134054672_marshal_pinvoke_back
Gsa:__ZN9Scripting11UnityEngine10CacheIndex9InitProxyEv
Luo:__Z18RegisterAllClassesv
Hqf:_cff_parse_font_bbox
pMd:__ZThn28_N14PhysicsManagerD0Ev
k$e:__ZN5physx2Sc27ConstraintProjectionManagerC2Ev
ZZd:__Z14raycast_sphereRKN5physx10PxGeometryERKNS_11PxTransformERKNS_6PxVec3ES8_fNS_7PxFlagsINS_9PxHitFlag4EnumEtEEjPNS_12PxRaycastHitEbPFbRSD_PvESG_
w6a:__ZN14PlayerSettings23VirtualRedirectTransferER18StreamedBinaryReadILb0EE
Tki:__Z85RuntimeInvoker_Void_t1185182177_Int32_t2950945753_Int32_t2950945753_Int32_t2950945753PFvvEPK10MethodInfoPvPS4_
Del:_Double_System_IConvertible_ToDateTime_m2414543049_AdjustorThunk
vKf:__ZN11UnityEngine15PlatformWrapper16GetVRFieldOfViewEv
Fpi:__Z235RuntimeInvoker_Int32_t2950945753_RuntimeObject_Int32_t2950945753_RuntimeObject_Int32_t2950945753_UInt32U26_t3735378166_UInt32U26_t3735378166_RuntimeObject_DecoderFallbackBufferU26_t3866396827_ByteU5BU5DU26_t4057885439_SByte_t1669577662PFvvEPK10MethodInfoPvPS4_
ZOo:__ZN6il2cpp2os5Event5ResetEv
Wtf:_tt_name_ascii_from_other
GSi:_TextWriter_Write_m2252948084
qJn:_ToggleGroup__ctor_m3308114662
j0l:_Dictionary_2_CopyToCheck_m4199563090_gshared
tyo:__ZN6il2cpp8metadata15GenericMetadata17InflateParametersEPK13ParameterInfohPK20Il2CppGenericContextb
BYj:_RSAParameters_t1728406613_marshal_pinvoke_back
RXk:_Array_Sort_TisUILineInfo_t4195266810_m3737783007_gshared
R$f:_TMP_MaterialManager_GetFallbackMaterial_m1227931643
Ivj:_RenderTexture_get_width_m2160921386
Vz:__ZNK17AnimationPlayable27GetNextCompatibleDescendantEj
Wnf:__ZN13dynamic_arrayIN4core17string_with_labelILi35EEELj0EE6insertEPS2_jRKS2_
TZg:__ZL64GUIUtility_t1868551600_CustomAttributesCacheGenerator_s_SkinModeP21CustomAttributesCache
uAm:_ReadOnlyCollection_1_System_Collections_IList_set_Item_m4251477320_gshared
UAd:__ZN34b2SolveDiscreteIslandBodySleepTask7TaskJobEPS_j
dMm:_Comparison_1_BeginInvoke_m829878058_gshared
Ssf:_otv_LigatureSubst_validate
Nui:__Z50RuntimeInvoker_Ray_t3785851493_Vector3_t3722313464PFvvEPK10MethodInfoPvPS4_
CLb:__Z25SetNeedToPerformRenderingb
h8c:__ZN12LightsModule8TransferI17RemapPPtrTransferEEvRT_
JHf:__ZN8JSONRead12TransferPairINSt3__24pairIN4core12basic_stringIcNS3_20StringStorageDefaultIcEEEEN11UnityEngine9Analytics16LimitEventConfigEEEEEvRT_17TransferMetaFlagsPKN5Unity9rapidjson12GenericValueINSG_4UTF8IcEE13JSONAllocatorEE
gya:__ZN10GameObjectD2Ev
F2b:__ZN14qsort_internal30FindAndMovePivotToLastPositionIP15RODataDepthPassi17ROSorterDepthPassEEvT_S4_T0_T1_
tld:__ZN29InitialModulePropertyBindings13GetFloatValueERK14ParticleSystemi
cSc:__Z27Mesh_CUSTOM_MarkDynamicImplP12Il2CppObject
Arm:_UInt16_System_IConvertible_ToSingle_m2654722405_AdjustorThunk
$yj:_Transform_TransformDirection_m3193513622
NRe:__ZN5physxL27PxcSweepAnyShapeHeightfieldERKNS_11PxsCCDShapeES2_PKNS_12PxsRigidBodyES5_RKNS_11PxTransformES8_fRNS_6PxVec3ESA_RNS_10PxcNpCacheERNS_18PxcNpThreadContextE
fbc:__ZN12CullingGroup10SendEventsEPK17CullingGroupEventj
jYi:_CustomInfo__ctor_m426096741
Evh:_PointerInputModule__ctor_m3728889932
DXa:__ZThn32_NK8Renderer8GetLayerEv
xVj:_Array_InternalArray__IndexOf_TisUInt64_t4134040092_m1206929132_gshared
SMe:__ZN5physx3Scb5SceneD2Ev
SMl:_Enumerator_System_Collections_IEnumerator_Reset_m2915500989_gshared
Mqf:_cff_parse_vsindex
Vmo:__ZNSt3__26vectorIiNS_9allocatorIiEEEC2ERKS3_
iAk:_Int32_ValidDigit_m1059003769
LEn:_DownloadHandler_Dispose_m2747726581
e2o:_emscripten_glTexParameterfv__wrapper
Ruj:_RectTransform_INTERNAL_get_sizeDelta_m2173368204
CDj:_LayoutGroup_get_rectTransform_m442863741
Zsb:__Z18Transfer_BlittableI14SafeBinaryReadLb1E9BoundsIntEvRK29SerializationCommandArgumentsR31RuntimeSerializationCommandInfo
vBc:__ZN2UI13RectTransform17GetLocalPositionZEv
uZo:b63
Zoo:_il2cpp_method_get_param_count
lda:__ZNK5Unity4Type21FindAllDerivedClassesER13dynamic_arrayIPKS0_Lj0EENS0_17TypeFilterOptionsE
Lwc:__ZN10systeminfo19ISOToSystemLanguageERN4core12basic_stringIcNS0_20StringStorageDefaultIcEEEE
$io:__ZNK15dense_hashtableINSt3__24pairIK10KeyWrapperINS1_IPK12PropertyInfoP11Il2CppClassEEEjEES9_17ReflectionMapHashIS8_EN14dense_hash_mapIS9_jSD_NS9_14EqualsComparerINS0_8equal_toIS8_EEEENS0_9allocatorISB_EEE9SelectKeyESI_SK_E3endEv
g_h:_InternalEnumerator_1_System_Collections_IEnumerator_get_Current_m16058121_gshared
xHd:__ZN11Rigidbody2D8TransferI19StreamedBinaryWriteILb0EEEEvRT_
tLd:__Z16GetDynamicsScenev
AOf:__ZN22BaseUnityConnectClient14AppRunningTickEj
Sxf:_ps_dimension_done
Qzf:__Z46Register_UnityEngine_TextGenerator_Dispose_cppv
dxk:_GregorianCalendar_GetYear_m854131864
lhd:__Z25UpdateOrbitalAndRadialTplIL27ParticleSystemCurveEvalMode0ELS0_4ELS0_2EEvRK11MinMaxCurveS3_S3_S3_S3_S3_S3_R23ParticleSystemParticlesjjRKN4math8float3x3ERKNS6_7affineXERKNS6_7_float4E
CYa:__ZN16LightmapSettings8TransferI14SafeBinaryReadEEvRT_
wSb:__ZN17BufferManagerGLES13ReleaseBufferEP14DataBufferGLES
Jnk:_CipherSuite_Write_m1172814058
E5d:__ZN5physx6shdfnd5ArrayIPvNS0_19ReflectionAllocatorINS_16NpConnectorArrayEEEE15growAndPushBackERKS2_
jSi:_SynchronizedWriter_Write_m301917713
d5:__ZN9profiling6MarkerC2EPKc13ProfilerGroupNS0_5FlagsE
aDe:__ZN5physx2Sc5Scene15prepareSimulateEv
V1c:__Z18Transfer_BlittableI8JSONReadLb1EjEvRK29SerializationCommandArgumentsR31RuntimeSerializationCommandInfo
i7d:__ZN5physx6shdfnd5ArrayIPNS_2Sc11InteractionENS0_19ReflectionAllocatorIS4_EEE8recreateEj
h$i:_ConstructorBuilder_get_IsCompilerContext_m3364441562
Ehj:_Debug_LogWarning_m3752629331
DAc:__Z13RegisterClassIN2UI13RectTransformEEvPKc
msa:__ZN9Scripting11UnityEngine7Texture9InitProxyEv
_Km:_ReadOnlyCollection_1_System_Collections_Generic_IListU3CTU3E_RemoveAt_m4037795630_gshared
qpi:__Z117RuntimeInvoker_Void_t1185182177_RuntimeObject_Int32_t2950945753_Int32_t2950945753_Int32_t2950945753_Int32_t2950945753PFvvEPK10MethodInfoPvPS4_
SS:__Z30GetAudioSpatializerDefinitionsR13dynamic_arrayIP29AudioEffectInternalDefinitionLj0EE31UnityAudioEffectDefinitionFlags
pyh:_U3COnFinishSubmitU3Ec__Iterator0_Reset_m3632769946
Fq:stackSave
D0:__ZN5Unity9rapidjson15GenericDocumentINS0_4UTF8IcEE13JSONAllocatorNS0_12CrtAllocatorEE6StringEPKcjb
lyf:_ps_dimension_end
dSc:__Z41Register_UnityEngine_Mesh_Internal_Createv
Q1a:__ZN14SpriteRenderer23VirtualRedirectTransferER24GenerateTypeTreeTransfer
$Dk:_Path_GetServerAndShare_m2640882202
vyd:__ZNSt3__27__sort3IRN18Overlap2DQueryBase29ColliderHitsByDepthComparitorEPP10Collider2DEEjT0_S7_S7_T_
xrn:_WarpTextExample_CopyAnimationCurve_m2588067094
ief:__Z63Register_UnityEngine_Physics_INTERNAL_CALL_Internal_RaycastTestv
ryn:_Uri_get_Fragment_m575158891
C3k:_Console_Open_m3077673205
Fhn:_TMP_ObjectPool_1_Release_m423123894_gshared
nig:_U3CStartU3Ec__Iterator0_MoveNext_m1995155061
Occ:__ZN6Camera9SetAspectEf
ZUj:_Array_InternalArray__IndexOf_TisDateTime_t3738529785_m2463359116_gshared
Da:invoke_viiffiii
w8c:__ZN8UVModule8TransferI18StreamedBinaryReadILb0EEEEvRT_
G3o:_emscripten_glBindVertexArray__wrapper
gLl:_Enumerator_VerifyState_m2933667029_gshared
UAo:__ZN6il2cpp6icalls8mscorlib6System4Enum19get_underlying_typeEP20Il2CppReflectionType
lxn:_Parser_IsECMAScript_m674158805
sok:_CipherSuiteCollection_get_Item_m3790183696
fza:__ZN9Transform37InitializeTransformHierarchyRecursiveER18TransformHierarchyRii
Drb:__ZN26SinglePassStereoSupportExt23SetupStereoMatrixParamsE21MonoOrStereoscopicEye24BuiltinShaderMatrixParamRK10Matrix4x4f
S3l:_DefaultComparer_Equals_m3770904334_gshared
lob:__ZN9GfxDevice23CreateAsyncReadbackDataEv
uqd:__ZN14ParticleSystem22UpdateAllTransformDataEv
uRo:_fscanf
APf:__ZNK25UnityWebRequestJavaScript16GetUploadedBytesEv
PV:__Z46AudioListener_CUSTOM_GetNumExtensionPropertiesP12Il2CppObject
ldo:__ZN6il2cpp6icalls8mscorlib6SystemL16CheckMemberMatchI9FieldInfoNS_5utils10functional6FilterINSt3__212basic_stringIcNS8_11char_traitsIcEENS8_9allocatorIcEEEENS5_13VmStringUtils23CaseInsensitiveComparerEEEEEbPKT_PK11Il2CppClassSN_iRKT0_
Ufo:__ZN30dense_hashtable_const_iteratorINSt3__24pairIK10KeyWrapperINS1_IPK14Il2CppAssemblyP11Il2CppClassEEEjEES9_17ReflectionMapHashIS8_EN14dense_hash_mapIS9_jSD_NS9_14EqualsComparerINS0_8equal_toIS8_EEEENS0_9allocatorISB_EEE9SelectKeyESI_SK_EppEv
Kkd:__ZN27ColorModulePropertyBindings13AddPropertiesER10vector_mapIi22ParticleModulePropertyNSt3__24lessIiEENS2_9allocatorINS2_4pairIiS1_EEEEE
vtk:_SslClientStream_Finalize_m1251363641
Sui:__Z84RuntimeInvoker_RuntimeObject_RayU26_t3515555043_Single_t1397266774_Int32_t2950945753PFvvEPK10MethodInfoPvPS4_
Zbd:__ZN13InitialModule18SetInheritedParamsERK23SubEmitterInheritValues
kVj:_Array_InternalArray__IndexOf_TisMonoResource_t4103430009_m1351751258_gshared
Nx:__ZN17AnimationPlayable34CollectAnimatorControllerPlayablesER13dynamic_arrayIP26AnimatorControllerPlayableLj0EE
fCe:__ZN5physx2Sc9StaticSim21postActor2WorldChangeEv
auk:_FieldAccessException__ctor_m3583219052
Gnd:__ZL16ParticleGeomInitILb0EEvRK31ParticleSystemParticlesTempDatajRN4math8floatNx3ERK23ParticleSystemParticlesS5_S5_RKNS3_7_float4EPKfSB_SD_SB_RKNS3_5_int4EbSB_
xcl:_Decimal_System_IConvertible_ToDouble_m3125524987
dgn:__ZN28GenericInterfaceFuncInvoker1Ib19Color32_t2600501292E6InvokeEPK10MethodInfoP12Il2CppObjectS0_
ayc:__Z57Register_UnityEngine_Transform_INTERNAL_set_localPositionv
lRb:__ZN13GfxDeviceGLES26SetRandomWriteTargetBufferEi15ComputeBufferID
OJo:_GC_split_block
Zim:_Array_Resize_TisUICharInfo_t75501106_m3903846016_gshared
WZb:__ZZ23InitPlayerLoopCallbacksvEN49EarlyUpdateResetFrameStatsAfterPresentRegistrator7ForwardEv
jie:__ZN5physx6shdfnd4sortIPvNS0_4LessIS2_EENS0_19ReflectionAllocatorINS_2Cm5BlockIhLj256EEEEEEEvPT_jRKT0_RKT1_j
WRo:_poll
KHm:_ReadOnlyCollection_1_System_Collections_IEnumerable_GetEnumerator_m1671097018_gshared
Ltm:_UInt64_ToString_m1529093114_AdjustorThunk
vPh:_TypeLibImportClassAttribute__ctor_m2302178978
Ren:_X509Store_LoadCertificate_m1587806288
xil:_Escape_t3294788190_marshal_pinvoke
Wlj:_Material__ctor_m1662457592
B5l:_EqualityComparer_1__cctor_m2335367819_gshared
YBj:_InputField_OnUpdateSelected_m1118869681
e9e:__ZN5physx20InternalTriangleMesh7releaseEv
sQe:__ZN5physx6shdfnd5ArrayINS_16PxsCCDBlockArrayINS_13PxsCCDOverlapELi128EE9BlockInfoENS0_19ReflectionAllocatorIS5_EEE15growAndPushBackERKS5_
x8d:__ZNK5physx7NpShape8getFlagsEv
LUa:__ZN4crnd12crn_unpacker11unpack_dxt1EPPhjjj
rL:__ZL55__ManagedRegistrationHelperFunction_CoordinateFramePairPv
xoc:__ZNK11ICallString6ToUTF8Ev
d3n:__ZN15dense_hashtableINSt3__24pairIK10KeyWrapperIPK22Il2CppGenericParameterEP11Il2CppClassEES6_N6il2cpp5utils11PointerHashIS4_EEN14dense_hash_mapIS6_S9_SE_NS6_14EqualsComparerINS0_8equal_toIS5_EEEENS0_9allocatorISA_EEE9SelectKeyESJ_SL_E15insert_noresizeERKSA_
rzl:_Transform_1_Invoke_m2468053724_gshared
eZ:__ZL60__ManagedRegistrationHelperFunction_ClothSkinningCoefficientPv
G2b:__ZNSt3__211__sift_downIR17ROSorterDepthPassP15RODataDepthPassEEvT0_S5_T_NS_15iterator_traitsIS5_E15difference_typeES5_
Ure:__ZNK5physx7NpCloth16getContactOffsetEv
hMk:_ArgumentException__ctor_m3200406061
bF:__ZN8Animator17ApplyOnAnimatorIKEiRNS_11AnimatorJobE
Zba:__ZN12FileAccessor4ReadEyyPvPy
tWm:_List_1_set_Capacity_m2777925136_gshared
hNc:__Z21GetSceneHierarchyPathPK6Object
vzm:_ReadOnlyCollection_1_System_Collections_Generic_ICollectionU3CTU3E_Remove_m1581675040_gshared
qcc:__ZN13RenderTexture9SetHeightEi
_nh:_ShaderUtilities_GetFontExtent_m2484659839
Daa:__ZN17PersistentManager25PreallocateObjectThreadedEiNS_9LockFlagsE
gy:__ZN7mecanim9animation17ClearMotionOutputEPNS0_18AnimationNodeStateE
vok:_CipherSuiteCollection_get_IsFixedSize_m3127823890
tkg:_TMP_TextSelector_A_OnPointerExit_m1409227044
obi:_InternalEnumerator_1_System_Collections_IEnumerator_get_Current_m3537550566_gshared
MHj:_Scrollbar_UpdateVisuals_m2492252165
Bdn:_PKCS12_get_Keys_m2165478388
Vso:__ZN6il2cpp6icalls8mscorlib6System2IO6MonoIO17GetFileAttributesEP12Il2CppStringPi
ucj:_HMACMD5__ctor_m3008609295
ebl:_DateTime_ToString_m2992030064_AdjustorThunk
Ouf:_tt_cmap8_char_index
dqc:__Z14tessMeshDeleteP8TESSmeshP12TESShalfEdge
l$m:_Collection_1_System_Collections_ICollection_CopyTo_m388022681_gshared
T7:__Z24scripting_class_get_name17ScriptingClassPtr
Hbk:_Oid__ctor_m911618594
rqn:_U3CAnimateVertexColorsU3Ec__Iterator0_Dispose_m2414077547
fea:__ZN13RuntimeStaticI15GUIEventManagerLb0EE13StaticDestroyEPv
ZUi:_ShortComparer_Compare_m1881262465
Pub:__Z29Transfer_Blittable_ArrayFieldI14SafeBinaryReadjEvRT_R9ArrayInfoRK23StaticTransferFieldInfo
FEf:__ZN2UI14CanvasRenderer11GetMaterialEi
Ve:_emscripten_set_keydown_callback
V6j:_EncoderReplacementFallback__ctor_m1483565116
ihk:_Interpreter_IsWordChar_m2858055765
O5c:__ZN18ColorBySpeedModule8TransferI14SafeBinaryReadEEvRT_
hsa:__ZN9Scripting11UnityEngine29CustomRenderTextureUpdateZone12CleanupProxyEv
fca:__ZN12FileAccessorC2Ev
ade:__ZN5physx2Sc15ArticulationSim12applyImpulseERNS0_8BodyCoreERKNS_9PxcFsDataERKNS_6PxVec3ES9_
PXa:__ZNK8Renderer29FlattenPerMaterialCustomPropsER22PerThreadPageAllocatorR10RenderNode
Ndd:__Z15UpdateRandomTplIL27ParticleSystemCurveEvalMode0EEvRK11MinMaxCurveS3_S3_R5RandNR23ParticleSystemParticlesjjRKN4math8float3x3ERKNS8_7_float4E
Qxl:_Transform_1_Invoke_m1062341206_gshared
oC:__ZThn152_NK26AnimatorControllerPlayable25GetStateMachineBehavioursEv
Aon:_EventFunction_1_Invoke_m2429482587_gshared
Fth:_EventTrigger_OnDeselect_m1919608102
xqd:__ZN14ParticleSystem16AssignRayBudgetsEv
_Hd:__ZN23ColliderTilingExtensionC2Ev
C4:__ZN14StackAllocator10ReallocateEPvji
V5a:__ZNK12InputManager22GetTypeVirtualInternalEv
ikd:__ZN16CustomDataModuleD2Ev
cyd:__ZNSt3__27__sort3IR22InverseDepthComparitorP8DepthHitEEjT0_S5_S5_T_
qMl:_Enumerator_MoveNext_m1177880931_AdjustorThunk
vce:__ZNK5physx14NpArticulation26getInternalDriveIterationsEv
zAd:__ZN14qsort_internal18QSortSingleJobDataIPN25b2SynchronizeFixturesTask14b2DeferredMoveEiPFbRKS2_S5_EE7SortJobEPS8_
iwj:_SendMouseEvents_SetMouseMoved_m2822596724
YWj:_Array_InternalArray__ICollection_Add_TisResolveHandler_t4124874245_m584706233_gshared
fin:_TMP_XmlTagStack_1_Push_m1847519558_AdjustorThunk
e0i:_DerivedType_get_FullName_m1025358827
Aaj:_CryptoConfig_MapNameToOID_m2044758263
doa:__ZL50__ManagedRegistrationHelperFunction_SetupCoroutinePv
ht:__ZN13ConstraintJob23ConstraintComponentDataC2ERKS0_
G5c:__ZN14VelocityModule8TransferI14SafeBinaryReadEEvRT_
l6g:__ZL70InputField_t3762917431_CustomAttributesCacheGenerator_m_OnValueChangedP21CustomAttributesCache
dKb:__Z39WriteQueueForTransferSignatureIntoCacheRK31TransferFunctionScriptingTraitsRK24TransferRequestSignature17ScriptingClassPtrR23CachedSerializationDataRb
A7j:_Encoding_get_UTF8UnmarkedUnsafe_m320312322
qnm:_Thread_Thread_free_internal_m333849022
I_c:__Z35Transfer_Blittable_FixedBufferFieldI9JSONWritexEvRK29SerializationCommandArgumentsR31RuntimeSerializationCommandInfo
wsn:_CostDelegate_BeginInvoke_m2828452701
LJf:__ZN22BaseUnityConnectClient30OnEnteringStatePausedOrStoppedEv
cEd:__ZN10ClipperLib7Clipper18SwapPositionsInAELEPNS_5TEdgeES2_
_Om:_U3CCreateWhereIteratorU3Ec__Iterator1D_1_MoveNext_m3448330397_gshared
VGn:_AnalyticsEventParam_get_value_m2837935290
BXk:_Array_Sort_TisSpriteData_t3048397587_m3876534650_gshared
Fvm:_Collection_1_ConvertItem_m1556170494_gshared
uy:__ZN7mecanim5human12HumanPoseAddERNS0_9HumanPoseERKS1_S4_
j5k:_DateTime_ToUniversalTime_m1945318289
USk:_ArrayList_ToArray_m3827492363
Aod:__Z20UpdateWholeSheet2TplIL27ParticleSystemCurveEvalMode2ELS0_2EEvfRK11MinMaxCurveS3_RK23ParticleSystemParticlesPf
ELj:_Slider_get_stepSize_m1423227661
Gtm:_UInt64_Parse_m819899889
wyo:__ZN6il2cpp8metadata15GenericMetadata15GetGenericClassEiPK17Il2CppGenericInst
q_j:_SymmetricAlgorithm_set_IV_m3196220308
X5h:_InternalEnumerator_1_get_Current_m3433165672_gshared
I8k:_Convert_ToUInt32_m1453583008
gvk:_CompareInfo_Compare_m894311506
Mya:__Z24MergeTransformComponentsR9TransformS0_b
x7n:__ZNK15dense_hashtableI10KeyWrapperIPK19Il2CppGenericMethodES4_N6il2cpp8metadata23Il2CppGenericMethodHashEN14dense_hash_setIS4_S7_NS4_14EqualsComparerINS6_26Il2CppGenericMethodCompareEEENSt3__29allocatorIS4_EEE8IdentityESB_SE_E10test_emptyEj
Abi:_InternalEnumerator_1_System_Collections_IEnumerator_get_Current_m3982010935_AdjustorThunk
a8d:__ZThn24_N5physx2Sc20ArticulationJointSimD0Ev
qsh:_EventSystem_UpdateModules_m3643806022
mOd:__ZN14PhysicsManager32AddToTriggerStayStatesIfRequiredEPK9Rigidbody
z_n:_AnimationOffsetPlayable__cctor_m1029460816
h2d:__ZN5physx14PxsAABBManager12createBPElemEv
Voe:__ZThn12_N5physx7NpShape14onRefCountZeroEv
UWd:__ZL26GeomMTDCallback_ConvexMeshRN5physx6PxVec3ERfRKNS_10PxGeometryERKNS_11PxTransformES5_S8_
$Fo:__ZN6il2cpp2vm13ComObjectBase19GetRuntimeClassNameEPP15Il2CppHString__
WFa:__Z37GetBarycentricCoordinatesForOuterCellPPK8Vector3fRK13dynamic_arrayIS_Lj0EERS0_RK11TetrahedronR8Vector4f
Fk:_emscripten_glVertexAttribPointer
SMb:__ZN14PreloadManager26UpdatePreloadingSingleStepENS_21UpdatePreloadingFlagsEi
sKj:_ScrollRect_SetLayoutHorizontal_m3078869633
w4e:__ZN18ScBeforeSolverTask11runInternalEv
B3k:_Console_OpenStandardInput_m3262421490
mhl:_SimpleCollator__ctor_m1587210019
psc:__Z57Register_UnityEngine_RectTransform_INTERNAL_set_anchorMinv
J4d:__ZL33GeomOverlapCallback_CapsuleConvexRKN5physx10PxGeometryERKNS_11PxTransformES2_S5_PNS_2Gu12TriggerCacheE
z8k:_Convert_ToUInt16_m1480956416
tla:__ZN6prcoreL25inner_stretch_i8_bilinearEPKNS_9InnerInfoE
QXj:_Array_InternalArray__ICollection_Add_TisUriScheme_t722425697_m3142345403_gshared
Qcb:__ZL30RegisterFilteredObjectCallbackPP12Il2CppObjectiPv
wKm:_ReadOnlyCollection_1_System_Collections_Generic_IListU3CTU3E_RemoveAt_m3317217538_gshared
VVg:__ZL54AudioSource_t3935305588_CustomAttributesCacheGeneratorP21CustomAttributesCache
ivd:__ZN16PhysicsManager2D19ApplyParticleForcesER13dynamic_arrayI21BatchedColliderResultLj0EE
i9b:__Z30GetScriptableCullingParametersR6CamerabR27ScriptableCullingParameters
A_:__ZN11UnityEngine15CloudWebService16SessionContainer24GetSessionHeaderJsonDataERKN4core12basic_stringIcNS2_20StringStorageDefaultIcEEEERNS2_13StringBuilderE
J$i:_DerivedType_GetEvent_m4157575360
xda:__ZN13RuntimeStaticI21AssetReferenceStorageLb0EE13StaticDestroyEPv
l9e:__ZN5physx20InternalTriangleMesh9loadRTreeERNS_13PxInputStreamEj
xug:__ZL56_MethodBuilder_t600455149_CustomAttributesCacheGeneratorP21CustomAttributesCache
ggm:_Array_InternalArray__set_Item_TisKeyValuePair_2_t2530217319_m258011711_gshared
LBi:__Z72RuntimeInvoker_Bounds_t2266837910_RuntimeObject_Matrix4x4U26_t3606180965PFvvEPK10MethodInfoPvPS4_
GKl:_Enumerator_MoveNext_m2041610666_AdjustorThunk
JCo:__ZN6il2cpp6icalls8mscorlib6System9AppDomain22InternalGetProcessGuidEP12Il2CppString
hxe:__ZN5physx2Sc18ParticleSystemCore16releaseParticlesEv
RZd:__ZN5physx2Gu20intersectTriangleBoxERKNS_6shdfnd3aos5Vec3VES5_S5_S5_S5_
av:__ZN9Scripting11UnityEngine10Animations16ConstraintSource9InitProxyEv
gQc:__Z34Quaternion_CUSTOM_Inverse_InjectedRK11QuaternionfRS_
E9k:_DateTime__cctor_m1880035693
mzb:__Z18Transfer_BlittableI24GenerateTypeTreeTransferLb1EjEvRK29SerializationCommandArgumentsR31RuntimeSerializationCommandInfo
dcm:_KeyValuePair_2_ToString_m3013572783_gshared
Lzi:__Z103RuntimeInvoker_Boolean_t97287965_Ray_t3785851493_Single_t1397266774_Int32_t2950945753_Int32_t2950945753PFvvEPK10MethodInfoPvPS4_
OAc:__ZNK28RectTransformPropertyBinding9BindValueER6ObjectRKN11UnityEngine9Animation14GenericBindingERNS3_10BoundCurveE
JIa:__ZN11ColorRGBA328TransferI14SafeBinaryReadEEvRT_
_qf:_cff_vstore_done
fgf:__ZN5physx6shdfnd5ArrayIPvNS0_19ReflectionAllocatorINS_24NpPtrTableStorageManager8PtrBlockILi4EEEEEE15growAndPushBackERKS2_
emb:__ZN9GfxDevice33ScheduleComputeBufferJobsInternalEPFvP20ComputeBufferJobDataEPFvRK8JobFenceEPK27ComputeBufferJobInstructionj
sui:__Z68RuntimeInvoker_Void_t1185182177_UInt16_t2177724958_SByte_t1669577662PFvvEPK10MethodInfoPvPS4_
e0h:_InternalEnumerator_1_get_Current_m3008260692_AdjustorThunk
lof:__ZN20TextRenderingPrivate8TextMesh8TransferI14SafeBinaryReadEEvRT_
Tcj:_MACTripleDES_HashFinal_m3613553534
atm:_UInt64_System_IConvertible_ToChar_m2074245892
RRa:__Z11IsHDRFormat13TextureFormat
Dlm:_UTF8Encoding_InternalGetBytes_m1965760031
yg:_emscripten_glClearDepth
KCc:__ZNK8GUILayer22GetTypeVirtualInternalEv
rWa:__ZN14SafeBinaryRead21TransferSTLStyleArrayINSt3__26vectorIN15QualitySettings14QualitySettingENS1_9allocatorIS4_EEEEEEvRT_17TransferMetaFlags
gul:_KeyCollection__ctor_m2388548663_gshared
JMm:_Comparison_1_Invoke_m3423206938_gshared
P7a:__ZNSt3__26vectorINS_4pairIPKN5Unity4TypeE7Hash128EENS_9allocatorIS7_EEE8__appendEj
I2c:__ZN8JSONRead21TransferSTLStyleArrayI13dynamic_arrayIaLj0EEEEvRT_17TransferMetaFlags
brf:_cff_font_load
nDo:__GLOBAL__sub_I_LibraryLoader_cpp
YNc:__Z13IsPathCreatedRKN4core12basic_stringIcNS_20StringStorageDefaultIcEEEE
hUe:__ZN5physx35solveContactPreBlock_ConcludeStaticEPKNS_23PxcSolverConstraintDescEjRNS_16PxcSolverContextE
Ghj:_Debug_LogWarningFormat_m2535776735
$Ra:__ZL22stbir__encode_scanlineP11stbir__infoiPvPfiii
HOh:_ExternalException__ctor_m2877839282
Bjf:__ZN20QuadTreeNodeRenderer13StaticDestroyEPv
w$:__ZN11UnityEngine15CloudWebService20WebRequestRestClient5AbortEv
xvn:_Regex_Matches_m2080913806
JBc:__ZN9Transform12CleanupClassEv
E0f:_TMP_MeshInfo__cctor_m2816277573
m5g:__ZL57FontData_t746620069_CustomAttributesCacheGenerator_m_FontP21CustomAttributesCache
Y6d:__ZN5physx6shdfnd5ArrayIPvNS0_15InlineAllocatorILj256ENS0_19ReflectionAllocatorINS_2Cm5BlockIS2_Lj32EEEEEEEE15growAndPushBackERKS2_
w3e:__ZN5physx18PxsSolverStartTask13setupDescTaskEv
Ynf:_UNITY_FT_Set_Pixel_Sizes
xYi:_OperatingSystem_Clone_m1122165140
X0k:_GameObject_AddComponent_TisRuntimeObject_m3469369570_gshared
CE:__ZN11UnityEngine9Animation33SetGenericTransformPropertyValuesERKNS0_30AnimatorGenericBindingConstantERKN7mecanim10ValueArrayEP9Transformy
VXn:_Canvas_add_willRenderCanvases_m1234571137
xVd:__ZN5physx3Cct13BoxController6resizeEf
tSm:_List_1_RemoveAll_m3165362277_gshared
$pm:_Type_type_is_subtype_of_m1406623598
hoa:__ZL54__ManagedRegistrationHelperFunction_SpriteAtlasManagerPv
cSl:_List_1__ctor_m3151640588_gshared
a5e:__ZN5physx6shdfnd5ArrayINS_2Cm12DelegateTaskINS_2Sc5SceneEXadL_ZNS5_19updateCCDSinglePassEPNS_10PxBaseTaskEEEEENS0_19ReflectionAllocatorIS8_EEE8recreateEj
cmm:_Thread_get_CurrentThread_m4142136012
iFa:__Z30ProcessDynamicBatchGeometryJobP25DynamicVBOGeometryJobDataj
h3b:__ZNSt3__27__sort4IRNS_6__lessI11CulledLightS2_EEPS2_EEjT0_S6_S6_S6_T_
zmo:__ZN6il2cpp2vm14TypeNameParser26ParseArrayModifierOptionalEv
l9:__Z26scripting_object_get_class18ScriptingObjectPtr
Yro:__ZN6il2cpp6icalls8mscorlib6System10Reflection8Assembly13get_code_baseEP24Il2CppReflectionAssemblyb
I8a:__ZNSt3__26vectorIN4core12basic_stringIcNS1_20StringStorageDefaultIcEEEE13stl_allocatorIS5_L18MemLabelIdentifier13ELi16EEE7reserveEj
ZNj:_Array_InternalArray__ICollection_Contains_TisInt16_t2552820387_m2915683400_gshared
Qfd:__Z25UpdateOrbitalAndRadialTplIL27ParticleSystemCurveEvalMode1ELS0_3ELS0_0EEvRK11MinMaxCurveS3_S3_S3_S3_S3_S3_R23ParticleSystemParticlesjjRKN4math8float3x3ERKNS6_7affineXERKNS6_7_float4E
IDc:__ZNK28MonoBehaviourPropertyBinding15GenerateBindingERKN4core12basic_stringIcNS0_20StringStorageDefaultIcEEEEbRN11UnityEngine9Animation14GenericBindingE
Xuj:_RectTransform_INTERNAL_set_pivot_m1160676233
uXm:_List_1_set_Item_m35836043_gshared
Pek:_X509ChainElementCollection__ctor_m3424079155
Icj:_HMACSHA512__cctor_m4155933671
Esn:_LinkStack_Push_m3081279930
z_k:_TMP_TextInfo_Resize_TisTMP_WordInfo_t3331066303_m943255601_gshared
I0f:_TMP_ScrollbarEventHandler_OnDeselect_m2716618027
iid:__Z20StartSingleSidedEdgeILN11ShapeModule14MultiModeValueE0EEvRS0_R23ParticleSystemParticlesRK19ParticleSystemStateRK27ParticleSystemEmissionStateRKN4math8float3x3ERKNSB_7affineXEjbj
yql:_Enumerator_MoveNext_m1107569389_gshared
Qae:__ZNK5physx21PxsBodyTransformVault12getTransformERKNS_11PxsBodyCoreE
eEo:__ZN6il2cpp6icalls8mscorlib6System11Environment15internalGetHomeEv
Yql:_Enumerator_System_Collections_IEnumerator_get_Current_m2223443336_AdjustorThunk
qnj:_Matrix4x4_GetHashCode_m4034747639_AdjustorThunk
JNh:_ResourceCacheItem_t51292791_marshal_pinvoke_cleanup
Zta:__ZNK5Unity9Component7GetNameEv
sIf:__ZN11UnityEngine9Analytics15UserCustomEvent15Internal_CreateE18ScriptingObjectPtrRKN4core12basic_stringIcNS3_20StringStorageDefaultIcEEEE
ndc:__Z23FindMonoScriptFromClass17ScriptingClassPtr
q6f:_TMP_Text_ReplaceClosingStyleTag_m761056113
jXd:__ZN44ConvexVsHeightfieldContactGenerationCallback7onEventEjPj
jrn:_VertexZoom_AnimateVertexColors_m3033224630
$pb:__ZN21ScalableBufferManager23UnregisterRenderSurfaceEP17RenderSurfaceBaseb
KVm:_List_1_System_Collections_IList_Remove_m1070694895_gshared
HBn:_LayoutCache__ctor_m3885940174
rtd:__ZNK11b2RopeJoint16GetReactionForceEf
VF:__ZN7mecanim8skeleton26SkeletonPoseComputeGlobalQEPKNS0_8SkeletonEPKNS0_13SkeletonPoseTIN4math4trsXEEEPS7_ii
$sm:_UInt64_System_IConvertible_ToByte_m1501504925_AdjustorThunk
SWn:_TextGenerator_Invalidate_m1072346986
sXn:_TextMesh_set_anchor_m3559070145
Xmd:__ZN14ParticleSystem40OnTrailGeometryJobsScheduledRenderThreadERK8JobFence
frk:_TlsClientHello_ProcessAsTls1_m2549285167
mQi:__Z74RuntimeInvoker_Boolean_t97287965_UIVertex_t4057497605_UIVertex_t4057497605PFvvEPK10MethodInfoPvPS4_
FCm:_ReadOnlyCollection_1_System_Collections_IList_RemoveAt_m3006136027_gshared
nSe:__ZN5physx2Gu19_gjkRelativeRayCastINS0_9TriangleVENS0_8CapsuleVEEEbRT_RT0_RKNS_6shdfnd3aos15PsMatTransformVERKNS9_6FloatVERKNS9_5Vec3VESI_RSD_RSG_SK_f
fqn:_TMP_UiFrameRateCounter_Update_m2632221777
r9c:__ZN13TriggerModule8TransferI19StreamedBinaryWriteILb0EEEEvRT_
vF:__ZN9BlobWrite8TransferI22OffsetPtrArrayTransferIiEEEvRT_PKc17TransferMetaFlags
K6j:_EncoderExceptionFallback_Equals_m2760188920
zbe:__ZN5physx6shdfnd5ArrayIPvNS0_15InlineAllocatorILj256ENS0_19ReflectionAllocatorINS_11NpAggregateEEEEEE15growAndPushBackERKS2_
Xac:__ZNK15LODGroupManager17CalculateLODMasksERK13LODParametersfPhPf
eQ:__ZN4FMOD6System7releaseEv
mOe:__ZN5physx6shdfnd8PoolBaseINS_2Sc18TriggerInteractionENS0_19ReflectionAllocatorIS3_EEE15disposeElementsEv
DPk:_Boolean_CompareTo_m3665076258
B3j:_String_Split_m3580120853
Cml:_PrivateKeyInfo__ctor_m2811023496
Cba:__Z18PathToAbsolutePathRKN4core12basic_stringIcNS_20StringStorageDefaultIcEEEE
DCn:_GUILayoutUtility_LayoutFromEditorWindow_m2914699782
ura:__ZN9Scripting11UnityEngine12Experimental10PlayerLoop13PreLateUpdate9InitProxyEv
Eff:__ZN5physx28PxcContactCapsuleHeightFieldERKNS_2Gu13GeometryUnionES3_RKNS_11PxTransformES6_RKfRNS_10PxcNpCacheERNS0_13ContactBufferE
hJo:_GC_push_finalizer_structures
THf:__ZN21UnityAnalyticsManager15ThreadedCleanupEv
oLo:__ZN6il2cpp6icalls8mscorlib6System10Reflection16MonoPropertyInfo16GetTypeModifiersEPvb
GFd:__ZThn160_N17PolygonCollider2D5ResetEv
fXd:__ZL31PointInConvexPolygon2D_OutCodesPKfjffffRh
FRa:__ZL13BlitImageImplR14ImageReferenceiiRKS_NS_10ColorSpaceENS_8BlitModeEb
KJc:__ZN15DirectorManager17AcquireOutputNodeEv
Eed:__ZL15AccumulateNoiseILb1ELi1EEN4math8floatNx2ERKNS0_8floatNx3ERKfiS6_S6_
NZa:__Z14resize_trimmedINSt3__26vectorI13dynamic_arrayI8Vector2fLj0EENS0_9allocatorIS4_EEEEEvRT_j
$gm:_Array_InternalArray__set_Item_TisColor32_t2600501292_m1891325855_gshared
_0k:_GameObject_GetComponentInChildren_TisRuntimeObject_m1310240902_gshared
$df:__ZN9Rigidbody12MoveRotationERK11Quaternionf
FPg:__ZL69PersistentCall_t3407714124_CustomAttributesCacheGenerator_m_ArgumentsP21CustomAttributesCache
kJa:__ZN16ReflectionProbes28GetMinBakedCubemapResolutionEv
k6e:__ZN5physx2Cm12DelegateTaskINS_2Sc5SceneEXadL_ZNS3_15postNarrowPhaseEPNS_10PxBaseTaskEEEE11runInternalEv
kjf:__Z20ConvertContactToMonoP9Collision
a3n:__ZN15dense_hashtableINSt3__24pairIK10KeyWrapperIPK22Il2CppGenericParameterEP11Il2CppClassEES6_N6il2cpp5utils11PointerHashIS4_EEN14dense_hash_mapIS6_S9_SE_NS6_14EqualsComparerINS0_8equal_toIS5_EEEENS0_9allocatorISA_EEE9SelectKeyESJ_SL_E6insertERKSA_
zYf:_TMP_InputField_get_characterValidation_m293459329
s3f:_TMP_SubMeshUI_get_mesh_m1845552462
tdn:_X509CertificateEnumerator__ctor_m85694331
qSb:__ZN14DataBufferGLES16RecreateWithDataEjPKv
vua:__Z29GetGlobalAllowNameConversionsv
eXd:__ZL17transformVerticesRfS_S_S_PfjPKN5physx6PxVec3EPKhRKNS1_7PxMat33E
Jff:__ZNK5physx2Gu15HeightFieldUtil31getFaceIndexAtShapePointNoTest2Ejff
nem:_Array_InternalArray__Insert_TisTableRange_t3332867892_m558285859_gshared
xOd:__ZNK12PhysXRaycast20FindParticleOverlapsER13dynamic_arrayI15BatchedOverlapsLj0EEPP8Colliderj
dec:__ZN8Material8SetColorEN9ShaderLab16FastPropertyNameERK10ColorRGBAf
YNl:_Enumerator_System_Collections_IEnumerator_Reset_m3754523291_gshared
G5l:_EqualityComparer_1__cctor_m2645305258_gshared
sMf:__ZN11UnityEngine7Connect20RemoteConfigSettings19ConfigUpdatedStaticEPS1_bbi
$R:__ZN11AudioSource23VirtualRedirectTransferER18StreamedBinaryReadILb0EE
Fek:_X509CertificateEnumerator__ctor_m943731472
$Zj:_SHA512Managed_processLength_m2162821715
Xsj:_RangeInt_get_end_m4128831787
nPe:__ZNK5physx2Sq10AABBPruner5sweepERKNS0_9ShapeDataERKNS_6PxVec3ERfRNS0_14PrunerCallbackE
jVo:dynCall_iiifiii
cOf:__Z25GetUnityConnectModuleSpecv
AUm:_List_1_set_Item_m2082115010_gshared
MCd:__ZN23ColliderTilingExtension5ResetEv
HVb:__ZN14GfxContextGLES43AddRenderSurfaceToDeferredFBOInvalidateListEPK17RenderSurfaceGLES
TQe:__ZN5physx17PxsCCDAdvanceTask11runInternalEv
vwa:__ZN11NamedObject23VirtualRedirectTransferER14SafeBinaryRead
xWo:dynCall_vifiii
yMj:_Text_get_resizeTextMinSize_m1002355407
Mnf:__ZNSt3__26vectorIN20TextRenderingPrivate8FontImpl13CharacterInfoE13stl_allocatorIS3_L18MemLabelIdentifier1ELi16EEE6insertENS_11__wrap_iterIPKS3_EERS9_
lo:FUNCTION_TABLE_vifiiiiiiiiiiiii
rNk:_Array_CreateInstance_m1027597705
xIj:_Selectable_get_navigation_m3508916916
aJd:__ZN10Effector2D10EndContactEP9b2Contact
nFo:__ZN6il2cpp5utils11StringUtils11Utf16ToUtf8ERKNSt3__212basic_stringIDsNS2_11char_traitsIDsEENS2_9allocatorIDsEEEE
$kk:_MD4Managed_Decode_m4273685594
qbg:_U3CSpawnWormholesU3Ec__Iterator7_MoveNext_m2826318515
Q$d:__ZN5physx3Cct26CharacterControllerManagerD2Ev
Gvi:__Z57RuntimeInvoker_Quaternion_t2301928331_Vector3_t3722313464PFvvEPK10MethodInfoPvPS4_
cmh:_Compute_DT_EventArgs__ctor_m1008311213
Wbb:__ZN21LightProbeProxyVolume18HasHardwareSupportEv
t6b:__ZN26LightProbeProxyVolumeCacheC2ER13BatchRendererR15RenderLoopStats
BCk:_IntPtr__ctor_m620280096
sla:__ZN6prcoreL31inner_stretch_argb8888_bilinearEPKNS_9InnerInfoE
rDb:__Z18Transfer_BlittableI18StreamedBinaryReadILb1EELb1E8BitFieldEvRK29SerializationCommandArgumentsR31RuntimeSerializationCommandInfo
svf:_UNITY_FT_Outline_Decompose
XIl:_Enumerator_System_Collections_IEnumerator_get_Current_m3484854280_gshared
ABk:_Int64_System_IConvertible_ToChar_m1509243576_AdjustorThunk
NWb:__ZNK12GraphicsCaps24GetFallbackSampledFormatE14GraphicsFormat
Fcn:_GeneralNames_get_IPAddresses_m4242915644
g6k:_Decimal_op_Implicit_m3873897383
eKo:_GC_init_size_map
nAm:_ReadOnlyCollection_1_System_Collections_IList_RemoveAt_m1118392812_gshared
uQe:__ZN5physx6shdfnd8internal8HashBaseINS0_4PairIKNS3_IPKNS_12PxsRigidCoreEPKNS_12PxsShapeCoreEEEPNS_11PxsCCDShapeEEESA_NS0_4HashISA_EENS1_11HashMapBaseISA_SD_SG_NS0_9AllocatorEE6GetKeyESI_Lb1EE15reserveInternalEj
ZUf:_TMP_Dropdown_set_captionText_m4280879908
ABa:__Z20scripting_object_new17ScriptingClassPtr
CWo:dynCall_iiiiifi
tta:__ZN9Scripting5Unity11Collections39NativeMatchesParallelForLengthAttribute12CleanupProxyEv
Pml:_KeyGeneratedEventHandler_Invoke_m2527485594
Vhd:__Z16RandomUnitVectorRKN4math7_float4ES2_
rYm:_List_1_get_Item_m200663048_gshared
aLe:__ZN5physx2Sc5Scene21setDominanceGroupPairEhhRKNS_20PxDominanceGroupPairE
hcl:_Decimal__ctor_m1925875020_AdjustorThunk
Zra:__ZN9Scripting11UnityEngine6Events14UnityEventBase12CleanupProxyEv
ZGa:__ZN18ShadowMapJobHeaderD0Ev
L8c:__ZN16CustomDataModule8TransferI18StreamedBinaryReadILb0EEEEvRT_
P:Math_exp
E$l:_Dictionary_2_ToTKey_m224697230_gshared
bq:FUNCTION_TABLE_iiifi
OAo:__ZN6il2cpp2os5posix13PosixAutoLockD2Ev
aId:__ZN13BoxCollider2D15InitializeClassEv
JDn:_SymmetricTransform_OFB_m3690147804
zJb:__ZN13MonoBehaviour9SetScriptERK4PPtrI10MonoScriptE18ScriptingObjectPtr
TZn:_RaycastHit2D_get_collider_m1549426026
uZk:_Dictionary_2_Do_CopyTo_TisKeyValuePair_2_t727985506_TisKeyValuePair_2_t727985506_m1839692500_gshared
Ryj:_Transform_Translate_m1990195114
BCe:__ZN5physx7NpScene12loadFromDescERKNS_11PxSceneDescE
qhb:__ZNK10FileSystem16LastErrorMessageEv
Ofm:_Array_InternalArray__Insert_TisVector3_t3722313464_m3862657277_gshared
lFm:_ReadOnlyCollection_1_System_Collections_Generic_IListU3CTU3E_get_Item_m1659090079_gshared
h_a:__ZN15SerializeTraitsI13dynamic_arrayI12SpriteVertexLj0EEE19ResizeSTLStyleArrayERS2_i
I0j:_SecurityException__ctor_m1631242336
b5n:__ZN15dense_hashtableINSt3__24pairIK10KeyWrapperIPK11Il2CppClassEPKcEES6_N6il2cpp5utils11PointerHashIS3_EEN14dense_hash_mapIS6_S9_SE_NS6_14EqualsComparerINS0_8equal_toIS5_EEEENS0_9allocatorISA_EEE9SelectKeyESJ_SL_E14squash_deletedEv
pth:_EventSystem_Update_m1662072334
rMc:__ZN11TimeManager16HasFixedTimeStepEv
vYf:_TMP_InputField_set_inputType_m3691041596
hRf:__ZN22UnityWebRequestManager10InitializeEv
jgl:_Enum_ToString_m2477889358
E9a:__ZNSt3__26__treeINS_12__value_typeIN4core12basic_stringIcNS2_20StringStorageDefaultIcEEEE4PPtrI6ObjectEEENS_19__map_value_compareIS6_SA_NS_4lessIS6_EELb1EEE13stl_allocatorISA_L18MemLabelIdentifier52ELi16EEE15__emplace_multiIJRNS_4pairIS6_S9_EEEEENS_15__tree_iteratorISA_PNS_11__tree_nodeISA_PvEEiEEDpOT_
txb:__ZL26Transfer_SimpleNativeClassI17RemapPPtrTransfer8GradientLb1EEvRK29SerializationCommandArgumentsR31RuntimeSerializationCommandInfo
Tsh:_RaycasterManager_RemoveRaycasters_m3057093063
Y5f:_TMP_Text_set_isVolumetricText_m2363419080
Voc:__ZN12CachedWriter9InitWriteER15CacheWriterBase
zJc:__Z21UnsignedInt64ToStringy
XGj:_GetRaycastNonAllocCallback_BeginInvoke_m3984885848
Gtn:_PatternCompiler_BeginLink_m1295557963
_Ke:__ZN5physx14PxsAABBManager15createAggregateEPvb
Wwn:_Group_GetAnchorInfo_m3730312864
A5g:__ZL50Graphic_t1660335611_CustomAttributesCacheGeneratorP21CustomAttributesCache
gFh:_GridLayoutGroup_set_constraint_m3308895167
Jul:_KeyCollection_System_Collections_Generic_ICollectionU3CTKeyU3E_Add_m454648927_gshared
spm:_TimeSpan_op_LessThanOrEqual_m300470010
_Xg:__ZL139AnimatorOverrideController_t3582062219_CustomAttributesCacheGenerator_AnimatorOverrideController_OnInvalidateOverrideController_m3380737075P21CustomAttributesCache
z6e:__ZN5physx2Sc15ClothFabricCore4loadERKNS_17PxClothFabricDescE
pyc:__Z66Register_UnityEngine_Transform_INTERNAL_CALL_InverseTransformPointv
iQm:_Nullable_1_GetHashCode_m1030690889_gshared
Tfa:__ZZN15DirectorManager15InitializeClassEvEN41FixedUpdateDirectorFixedUpdateRegistrator7ForwardEv
yGk:_MemoryStream_get_Position_m3733941202
ib:invoke_iiiiifiiiif
D1i:_GenericTypeParameterBuilder_InvokeMember_m1647304778
EFh:_HorizontalOrVerticalLayoutGroup_set_childControlWidth_m3261460516
p3o:_glLinkProgram__wrapper
Kfb:__ZN18ScriptingArguments8AddInt64Ex
Dka:__ZN6prcoreL12RemapGenericI17TexFormatARGB888815TexFormatBGR888EEvPKNS_9InnerInfoE
xrb:__ZN26SinglePassStereoSupportExt19SaveStereoConstantsEv
sha:__ZNSt3__26vectorIP10MemoryPool13stl_allocatorIS2_L18MemLabelIdentifier76ELi16EEE21__push_back_slow_pathIRKS2_EEvOT_
kyk:_TextInfo_get_ListSeparator_m1628160079
bdd:__Z20UpdateCustomCurveTplIL27ParticleSystemCurveEvalMode1EEvRK11MinMaxCurveR23ParticleSystemParticlesiijjRKN4math5_int4E
TKj:_Selectable_OnCanvasGroupChanged_m472903475
lmm:_EventWaitHandle_Reset_m3348053200
kbd:__ZNK10SizeModule6UpdateER23ParticleSystemParticlesjj
Qoe:__ZN5physx7NpShape8requiresERNS_23PxProcessPxBaseCallbackE
hvo:__ZN6il2cpp6icalls8mscorlib6System13Globalization11CultureInfo35construct_internal_locale_from_nameEP17Il2CppCultureInfoP12Il2CppString
hSl:_List_1_System_Collections_IList_Add_m2656245659_gshared
Bzb:__ZL22Transfer_ManagedObjectI24GenerateTypeTreeTransferLb1EEvRK29SerializationCommandArgumentsR31RuntimeSerializationCommandInfo
G0b:__ZN15RenderNodeQueueC2E10MemLabelId
o1m:_Collection_1_System_Collections_ICollection_CopyTo_m1597420376_gshared
FNh:_ResourceEnumerator_FillCache_m1661715061
Iyg:__ZL72SecuritySafeCriticalAttribute_t3505979402_CustomAttributesCacheGeneratorP21CustomAttributesCache
Qk:_emscripten_set_main_loop_timing
efj:_Bounds_get_min_m3755135869
SUj:_Array_InternalArray__IndexOf_TisKeyValuePair_2_t2245450819_m1517102824_gshared
s8k:_Convert_ToUInt16_m3523269149
GTb:__ZN14DataBufferGLES12RecordRenderEv
ouh:_ExecuteEvents_get_endDragHandler_m2879610446
qzn:_TMP_TextUtilities_FindIntersectingLink_m2257840797
rXe:__ZNK5physx20SingleAABBUpdateTask7getNameEv
Jdc:__ZN14ImageReference10FlipImageYEv
Ogk:_Interpreter_GetLastDefined_m4107643411
Y7c:__ZN21InheritVelocityModule8TransferI17RemapPPtrTransferEEvRT_
iFk:_FileStream_RefillBuffer_m4186945278
fAa:__ZN21ScalableBufferManager20GetHeightScaleFactorEv
B8f:_BossBullet_Update_m3668511664
ZM:__ZN4FMOD3DSP9setBypassEb
jhc:__Z19NormalizeWheelInputf
iEh:_Graphic_DoMeshGeneration_m3548487693
sJ:__ZN11KeyframeTplIfE8TransferI14SafeBinaryReadEEvRT_
Tun:_Repetition__ctor_m1672362629
W3c:__Z29Transfer_Blittable_ArrayFieldI8JSONReadhEvRT_R9ArrayInfoRK23StaticTransferFieldInfo
M1j:_SecurityFrame_ToString_m339310712_AdjustorThunk
IHh:_TypeBuilder_create_runtime_class_m2581270900
noc:__ZN11MonoManager25GetImageFromAssemblyIndexEi
$$h:_InternalEnumerator_1_get_Current_m3008260692_gshared
ote:__ZN5physx2Sc9ClothCore17addCollisionPlaneERKNS_21PxClothCollisionPlaneE
hCa:__ZN22RenderingCommandBuffer20CleanupCommandBufferEv
i6k:_Decimal_op_Implicit_m2299919277
VLl:_Enumerator_MoveNext_m3275886745_gshared
K_c:__Z18Transfer_BlittableI9JSONWriteLb1EtEvRK29SerializationCommandArgumentsR31RuntimeSerializationCommandInfo
nid:__Z10StartDonutILN11ShapeModule14MultiModeValueE0EEvRS0_R23ParticleSystemParticlesRK19ParticleSystemStateRK27ParticleSystemEmissionStateRKN4math8float3x3ERKNSB_7affineXEjbj
USi:_UnexceptionalStreamReader_ReadToEnd_m920589220
_9k:_DateTime_System_IConvertible_ToType_m1242864300
_3j:_String_IndexOf_m1298810678
jl:___syscall85
cFf:__ZN2UI14CanvasRenderer18UpdateTRSHierarchyEb
z8e:__ZNK5physx13PxHeightField8isKindOfEPKc
L0b:__ZNSt3__26__sortIRPFbP10GUIElementS2_EPS2_EEvT0_S7_T_
x$i:_ConstructorBuilder_GetILGenerator_m1750792206
p5j:_EncoderFallback_get_ReplacementFallback_m818398284
jDo:__ZN6il2cpp2os6Thread19DetachCurrentThreadEv
Kth:_EventTrigger_OnBeginDrag_m4203438710
w3n:__ZN6il2cpp2vmL21SetupInterfacesLockedEP11Il2CppClassRKNS_2os12FastAutoLockE
bsb:__ZN11MonoManager23VirtualRedirectTransferER24GenerateTypeTreeTransfer
tD:__ZN23AnimationPlayableOutput17SetSourcePlayableEP8Playable
cqd:__ZL24BuildParticleLineSegmentILb1EEvjRPhRKN4math8float4x4EPK15LineBuilderDataRKfSA_11ColorRGBA32
Tom:_TimeSpan_CompareTo_m3633415627_AdjustorThunk
b7h:_InternalEnumerator_1_get_Current_m1900477722_gshared
tBk:_Int32_ToString_m2507389746_AdjustorThunk
ZYl:_List_1_System_Collections_IList_Contains_m3829146114_gshared
ehj:_CullingGroup_Dispose_m782801025
w_d:__ZN16ControllerFilter9preFilterERKN5physx12PxFilterDataEPKNS0_7PxShapeEPKNS0_12PxRigidActorERNS0_7PxFlagsINS0_9PxHitFlag4EnumEtEE
w_:__ZN11UnityEngine15CloudWebService14DataDispatcher15SetupWebRequestEv
_7m:_Collection_1_ConvertItem_m492501417_gshared
lLf:__ZN11UnityEngine15PlatformWrapper13GetShaderCapsEv
nWe:__ZN16MBPOS_TmpBuffers16allocateSleepingEjj
J1i:_GenericTypeParameterBuilder_IsDefined_m98179866
Mll:_KeyPairPersistence_get_MachinePath_m3812267291
q3k:_Stack_Peek_m2216191248
N9k:_DateTime_System_IConvertible_ToDecimal_m1044850612_AdjustorThunk
aDc:__ZN21FixedBehaviourManager6UpdateEv
xxc:__ZN9Transform9SetParentEPS_NS_15SetParentOptionE
G8c:__ZN15CollisionModule8TransferI18StreamedBinaryReadILb0EEEEvRT_
E_n:_AnimatorControllerPlayable_SetHandle_m2260644454_AdjustorThunk
tEa:__ZN19ShaderPropertySheet8SetFloatEN9ShaderLab16FastPropertyNameEfNS_8SetFlagsE
w0n:_Physics_Raycast_m952690504
sab:__ZN19RuntimeSceneManager24BeginIntegrateMainThreadEP10UnityScene
wce:__ZN5physx14NpArticulation26setExternalDriveIterationsEj
lRd:__ZN16RayRTreeCallbackILi0ELb0EED0Ev
Wyn:_TMP_TextInfo__ctor_m1227556611
L$e:__ZN5physx20PxsParticleSystemSim23scheduleCollisionUpdateERNS_10PxBaseTaskE
XDo:__ZNSt3__2plIcNS_11char_traitsIcEENS_9allocatorIcEEEENS_12basic_stringIT_T0_T1_EERKS9_S6_
SRi:_StringReader_CheckObjectDisposedException_m3796163530
osm:_UInt32_System_IConvertible_ToInt16_m1659441601
Dkc:__ZN9ShaderLab20SerializedSubProgramaSERKS0_
EUo:_roundf
pQk:_Byte_System_IConvertible_ToSingle_m324484566_AdjustorThunk
g4k:_Decimal_op_Explicit_m2848387298
Ybm:_KeyValuePair_2_ToString_m1238786018_gshared
Ow:__ZN8Animator15SetPrepareStageEv
OK:__ZN8AnimatorC2E10MemLabelId18ObjectCreationMode
x3n:__ZN6il2cpp2vmL24SetupTypeHierarchyLockedEP11Il2CppClassRKNS_2os12FastAutoLockE
thc:__ZL11TextHandleriPK23EmscriptenKeyboardEventPv
c6b:__Z20CalculateLightMatrixRK15SharedLightDataP10Matrix4x4f
_mf:_destroy_face
bLn:_Vector3__ctor_m1719387948
_Rc:__Z31Mesh_CUSTOM_get_bounds_InjectedP12Il2CppObjectR4AABB
DLo:__ZN6il2cpp6icalls8mscorlib6System8Security12Cryptography24RNGCryptoServiceProvider13RngInitializeEP11Il2CppArray
KGg:__ZL68UsedByNativeCodeAttribute_t1703770351_CustomAttributesCacheGeneratorP21CustomAttributesCache
Yjd:__ZN21RotationBySpeedModuleD0Ev
iS:__ZN20SoundChannelInstance7setMuteEb
J$d:__ZN5physx3Cct26CharacterControllerManager21createObstacleContextEv
aal:_DateTimeUtils_ToString_m1782212840
Jcm:_Array_InternalArray__ICollection_Add_TisVector2_t2156229523_m4029235359_gshared
eYi:_NumberFormatter_NumberToString_m3906556024
sEb:__Z19TransferField_ArrayI18StreamedBinaryReadILb1EE27Converter_SimpleNativeClassI17AnimationCurveTplIfEEEvRK23StaticTransferFieldInfoR31RuntimeSerializationCommandInfoRT0_
BId:__ZN7b2World18SetContactListenerEP17b2ContactListener
Tod:__Z19UpdateSingleRow2TplIL27ParticleSystemCurveEvalMode1ELS0_1EEvfRK11MinMaxCurveS3_RK23ParticleSystemParticlesPfbiii
YTb:__ZN18GfxFramebufferGLES22MakeCurrentFramebufferENS_7BuiltinE
NEe:__ZN5physx6shdfnd5ArrayIPNS_2Sc19ShapeInstancePairLLENS0_19ReflectionAllocatorIS4_EEE15growAndPushBackERKS4_
gIa:__ZN12CachedReader4ReadEPvj
epf:_cf2_blues_init
Kge:__ZN5physx2Sc8BodyCore24clearSpatialAccelerationEbb
x0g:__ZL49Canvas_t3310196443_CustomAttributesCacheGeneratorP21CustomAttributesCache
pLh:_MonoMethod_ShouldPrintFullName_m1607666412
nJn:_Toggle_OnPointerClick_m3526893169
Tcd:__ZNK14RotationModule6UpdateERK27ParticleSystemReadOnlyStateRK19ParticleSystemStateR23ParticleSystemParticlesRKN4math7_float4Ejj
b8:__ZN19RuntimeSceneManagerD2Ev
NNj:_Array_InternalArray__ICollection_Contains_TisKeyValuePair_2_t727985506_m2528174741_gshared
Buk:_CCGregorianCalendar_GetMonth_m1547203696
M$:__ZN11UnityEngine15CloudWebService25WebRequestDownloadHandler17OnCompleteContentEv
mSa:__ZN6prcore17GetIntegerBlitterE13TextureFormatS0_N14ImageReference8BlitModeE
FJo:_GC_print_block_descr
GEe:__ZN5physx10PxsContext20createContactManagerERKNS_24PxvManagerDescRigidRigidEPNS_18PxsMaterialManagerE
hGd:__ZN13BoxCollider2DD0Ev
Zna:__ZL51__ManagedRegistrationHelperFunction_ResourceRequestPv
F6d:__ZN5physx2Sc5Scene31removeActiveBreakableConstraintEPNS0_13ConstraintSimE
WFl:_Dictionary_2_ToTKey_m59443895_gshared
VBm:_ReadOnlyCollection_1_System_Collections_IList_Clear_m1160136535_gshared
rPc:__ZN9BlobWrite14ReduceCopyImplERK14ReduceCopyDataj
fWj:_Array_LastIndexOf_TisRuntimeObject_m1677937501_gshared
cW:__ZN11AudioSource18IsPlayingScriptingEv
Ell:_KeyBuilder_IV_m2230195376
Syl:_Transform_1_Invoke_m3983555223_gshared
Std:__ZNK12b2WheelJoint10GetAnchorAEv
bJe:__ZN5physx6shdfnd5ArrayINS_12PxActorShapeENS0_19ReflectionAllocatorIS2_EEE15growAndPushBackERKS2_
ejb:__ZN25MultiBlocksMemoryFileData17AdjustBlocksCountEj
iso:__ZNSt3__214__split_bufferIN6il2cpp2vm22EmbeddedResourceRecordERNS_9allocatorIS3_EEED2Ev
qPj:_Array_InternalArray__ICollection_Remove_TisKeyValuePair_2_t2245450819_m3064110492_gshared
flf:__ZN13TextRendering4Font8TransferI24GenerateTypeTreeTransferEEvRT_
YXf:_TMP_InputField_set_onValueChanged_m1887358354
Usc:__Z27CullingGroup_CUSTOM_DisposeP12Il2CppObject
eod:__Z18UpdateSingleRowTplIL27ParticleSystemCurveEvalMode0EEvfRK11MinMaxCurveS3_RK23ParticleSystemParticlesPfbiii
lYn:_CanvasRenderer_INTERNAL_CALL_GetColor_m597074473
ule:__ZN5physx2Sc14ConstraintCore8setFlagsENS_7PxFlagsINS_16PxConstraintFlag4EnumEtEE
sn:_glStencilMask
JDo:__ZN6il2cpp2os10ThreadImpl16GetCurrentThreadEv
v7e:__ZNK5physx2Sc15ClothFabricCore20getNbParticleIndicesEv
lhc:__ZN15GUIEventManager10QueueEventERK10InputEvent
yNh:_ResourceReader_ReadNonPredefinedValue_m2638853518
pbo:_AnalyticsEvent_OnValidationFailed_m2609604624
Hgg:_LinqEnumerator_Reset_m1049794237
pOh:_DecimalConstantAttribute__ctor_m3583301917
w1f:_TMP_SpriteAnimator_DoSpriteAnimation_m4244961026
vvi:__Z116RuntimeInvoker_Vector3_t3722313464_Vector3_t3722313464_Vector3_t3722313464_Vector3U26_t3464235976_Single_t1397266774PFvvEPK10MethodInfoPvPS4_
fJo:_GC_push_conditional_with_exclusions
wPe:__ZN5physx2Sq8AABBTree11shiftOriginERKNS_6PxVec3E
Yxo:__GLOBAL__sub_I_GenericMetadata_cpp
Wmn:__ZN30GenericInterfaceActionInvoker4IP12Il2CppObjectS1_S1_S1_E6InvokeEPK10MethodInfoS1_S1_S1_S1_S1_
F2a:__Z31DrawSpriteDeformedFromNodeQueueRK15RenderNodeQueuej16VertexInputMasksi
Qyn:_UriParser_InitializeAndValidate_m2008117311
LIo:_GC_make_disappearing_links_disappear
X5d:__ZN5physx2Sc7BodySim6wakeUpEv
wxh:_UIBehaviour_IsDestroyed_m3033055982
wEe:__ZN5physx6shdfnd8PoolBaseINS_2Gu30LargePersistentContactManifoldENS0_19ReflectionAllocatorIS3_EEE17releaseEmptySlabsEv
s6d:__ZN5physx2Sc21ConstraintInteraction7destroyEv
sUc:__Z33Register_UnityEngine_Random_Rangev
GAj:_InputField_get_readOnly_m3111985574
xJa:__ZN14RenderSettings27UpdateIndirectSpecularColorEv
ONg:__ZL59RectOffset_t1369453676_CustomAttributesCacheGenerator_m_PtrP21CustomAttributesCache
Y6a:__ZN14PlayerSettings8TransferI18StreamedBinaryReadILb0EEEEvRT_
Ddo:__ZN6il2cpp6icalls8mscorlib6System8MonoType16GetMethodsByNameEP20Il2CppReflectionTypeP12Il2CppStringibS5_
Bbg:_GameOverMenu_SendScore_m2393156162
aGe:__ZNK5physx7NpScene16getNbConstraintsEv
WKc:__ZN8Renderer20SetShadowCastingModeE17ShadowCastingMode
Gqn:_VertexShakeA__ctor_m1957129449
Zre:__ZN5physx7NpCloth14setWakeCounterEf
b9m:_RijndaelTransform__cctor_m2439033240
cOb:__ZNSt3__27__sort3IRNS_4lessIN22BuiltinResourceManager8ResourceEEEPS3_EEjT0_S7_S7_T_
_xf:_ps_hints_t2mask
j$k:_LayoutGroup_SetProperty_TisVector2_t2156229523_m2721164497_gshared
KPj:_Array_InternalArray__ICollection_Remove_TisMonoResource_t4103430009_m238733686_gshared
OLj:_Slider_Set_m1476104429
VFh:_Image_set_fillClockwise_m2210525152
s4a:__ZN10BlendShape8TransferI19StreamedBinaryWriteILb0EEEEvRT_
Bif:__ZN14PhysicsManagerC2E10MemLabelId18ObjectCreationMode
z$k:_Array_InternalArray__get_Item_TisKeyValuePair_2_t625878672_m751890403_gshared
Qpj:_PlayerConnection_DisconnectedCallback_m1697017309
N5a:__Z19GetTimeSinceStartupv
tGh:_Image_AddQuad_m2161647989
MNl:_Enumerator_System_Collections_IEnumerator_Reset_m2953002685_gshared
uxf:_TT_Load_Composite_Glyph
T4a:__Z33MultiplyMatrixArrayWithBase4x4REFPK10Matrix4x4fS1_S1_PS_j
du:__ZL51__ManagedRegistrationHelperFunction_ScaleConstraintPv
Rim:_Array_Resize_TisTMP_WordInfo_t3331066303_m2364034418_gshared
wOa:__ZN9ShaderLab11shaderprops9GetTexEnvEPK19ShaderPropertySheetS3_NS_16FastPropertyNameE16TextureDimensionb
f$g:__ZL67ContactFilter2D_t3805203441_CustomAttributesCacheGenerator_maxDepthP21CustomAttributesCache
zCn:_GUILayoutGroup_CalcHeight_m1669391299
B3b:__ZN29RenderNodeQueuePrepareContextC2Ev
Loo:_il2cpp_gc_disable
$Vh:_Promise_1_Reject_m617672045_gshared
Mlc:__ZN9ShaderLab20SerializedSubProgram16TextureParameter8TransferI24GenerateTypeTreeTransferEEvRT_
zta:__ZN9Scripting5Unity11Collections8LowLevel6Unsafe29NativeSetThreadIndexAttribute12CleanupProxyEv
Kbj:_DSASignatureDeformatter_SetKey_m2999549245
$2f:_TMP_SubMeshUI_get_mainTexture_m2995021644
bMo:__ZN6il2cpp2os11MutexHandle4WaitEb
Klb:__ZN9GfxDevice19SaveStereoConstantsEv
aMo:__ZN6il2cpp2os11MutexHandle4WaitEj
ftc:__ZL34GetComponentsImplementationRecurseILb1ELi1ELi1EEbR10GameObjectbRK17CompareParametersRK39GetComponentsImplementation_ReturnValue
lli:__Z114RuntimeInvoker_Boolean_t97287965_RuntimeObject_RuntimeObject_Int32_t2950945753_Int32_t2950945753_Int32_t2950945753PFvvEPK10MethodInfoPvPS4_
T_i:_AssemblyBuilder_GetTypes_m3415680380
Rja:__ZN6prcoreL17RemapGenericFloatI15TexFormatRGHalf18TexFormatARGBFloatEEvPKNS_9InnerInfoE
_Lb:__Z18SimulateMouseInputi
x$b:__ZN13RenderManager23AddRemoveCamerasDelayedEv
XHf:__ZN11UnityEngine9Analytics15AnalyticsConfigC2Ev
GYi:_OverflowException__ctor_m4029085969
ROk:_BitConverter__cctor_m3841343255
P3k:_Decimal_Compare_m3062820418
aik:_IntervalCollection_GetMetaCollection_m4029522214
Mdf:__ZNK5Unity5Joint16GetCurrentForcesER8Vector3fS2_
lXn:_TextGenerator_get_characterCount_m864136654
$8f:_CollisionCheckerPowerUp_OnCollisionEnter2D_m1489399106
uom:_TimeSpan__ctor_m2047388489_AdjustorThunk
pcc:__ZN13RenderTexture8SetWidthEi
Ijd:__ZN11ColorModuleD0Ev
Ada:__ZN22BuiltinResourceManager16StaticInitializeEPv
J4m:_Collection_1_System_Collections_ICollection_CopyTo_m1516601228_gshared
kea:__ZN23DefaultMeshVertexFormatC2E18VertexChannelsInfo
yzk:_Int16_System_IConvertible_ToDouble_m1661805412
Zne:__ZNK5physx9NpFactory11getNbShapesEv
$Xk:_Array_Sort_TisVector3_t3722313464_m1030213405_gshared
f3c:__ZN8JSONRead21TransferSTLStyleArrayI13dynamic_arrayI5RectTIiELj0EEEEvRT_17TransferMetaFlags
R5:__ZN9ShaderLab16FastPropertyName4InitEPKc
ENa:__ZN6ObjectC2E10MemLabelId18ObjectCreationMode
qo:FUNCTION_TABLE_iiiii
zQg:__ZL56PlayableGraph_t3515989261_CustomAttributesCacheGeneratorP21CustomAttributesCache
Q3h:_InternalEnumerator_1_get_Current_m3911557813_AdjustorThunk
QKf:__ZN11UnityEngine15PlatformWrapper19GetPhysicalMemoryMBEv
Dz:__ZN17AnimationPlayable17GetAnimationClipsER13dynamic_arrayIP13AnimationClipLj0EE
ZQk:_Char_System_IConvertible_ToByte_m2347554595_AdjustorThunk
Jod:__Z20UpdateWholeSheet2TplIL27ParticleSystemCurveEvalMode0ELS0_2EEvfRK11MinMaxCurveS3_RK23ParticleSystemParticlesPf
ysd:__ZN9Scripting11UnityEngine14ContactPoint2D9InitProxyEv
v5j:_String_CreateString_m860434552
sga:__Z18GetDirectorManagerv
uai:_InternalEnumerator_1_System_Collections_IEnumerator_get_Current_m2649471526_AdjustorThunk
nxc:__Z38Transform_CUSTOM_INTERNAL_get_rotationP12Il2CppObjectP11Quaternionf
fUg:__ZL99SceneManager_t2787271929_CustomAttributesCacheGenerator_SceneManager_LoadScene_m2298600132____mode1P21CustomAttributesCache
Tqo:__ZNK15dense_hashtableINSt3__24pairIK10KeyWrapperIP11Il2CppClassES4_EES5_N6il2cpp8metadata16SZArrayClassHashEN14dense_hash_mapIS5_S4_SA_NS5_14EqualsComparerINS9_19SZArrayClassCompareEEENS0_9allocatorIS7_EEE9SelectKeyESE_SG_E3endEv
Pwi:__Z73RuntimeInvoker_Single_t1397266774_Vector2_t2156229523_Vector2_t2156229523PFvvEPK10MethodInfoPvPS4_
Mho:__ZNK15dense_hashtableINSt3__24pairIK10KeyWrapperINS1_IPK10MethodInfoP11Il2CppClassEEEjEES9_17ReflectionMapHashIS8_EN14dense_hash_mapIS9_jSD_NS9_14EqualsComparerINS0_8equal_toIS8_EEEENS0_9allocatorISB_EEE9SelectKeyESI_SK_E5beginEv
rSb:__ZN7ApiGLES19UploadBufferSubDataEjN2gl12BufferTargetEllPKv
dQe:__ZN5physx2Sc5Scene17createClothSolverEv
Lia:__ZNSt3__216__rotate_forwardINS_11__wrap_iterIPN4core12basic_stringIcNS2_20StringStorageDefaultIcEEEEEEEET_S9_S9_S9_
vKk:_SmallXmlParserException__ctor_m1976648878
aWi:_MulticastDelegate_Equals_m2502840627
u_j:_SymmetricAlgorithm_set_KeySize_m3805756466
yrc:__Z40SpriteRenderer_CUSTOM_INTERNAL_get_colorP12Il2CppObjectP10ColorRGBAf
PDf:__Z44Register_UnityEngine_Canvas_get_pixelPerfectv
CVe:__ZN15MBP_PairManager17removeMarkedPairsEPK10MBP_ObjectPN5physx16PxsBroadPhaseMBPERK8BitArrayS8_
tQk:_Byte_System_IConvertible_ToUInt32_m1049546902_AdjustorThunk
ovo:__ZN6il2cpp6icalls8mscorlib6System10Reflection10MonoMethod19GetGenericArgumentsEP22Il2CppReflectionMethod
gui:__Z53RuntimeInvoker_Double_t594665363_Interval_t1802865632PFvvEPK10MethodInfoPvPS4_
mOb:__Z21InitializeBatchedJobsv
fYn:_CanvasGroup_get_blocksRaycasts_m1805542303
cZj:_SHA1Internal_ProcessBlock_m1991889327
tub:__Z19TransferField_ArrayI14SafeBinaryRead27Converter_SimpleNativeClassI8GUIStyleEEvRK23StaticTransferFieldInfoR31RuntimeSerializationCommandInfoRT0_
oIb:__ZN9TextAsset23VirtualRedirectTransferER19StreamedBinaryWriteILb0EE
gXk:_Array_Sort_TisRuntimeObject_TisRuntimeObject_m1685639929_gshared
phd:__Z25UpdateOrbitalAndRadialTplIL27ParticleSystemCurveEvalMode0ELS0_1ELS0_3EEvRK11MinMaxCurveS3_S3_S3_S3_S3_S3_R23ParticleSystemParticlesjjRKN4math8float3x3ERKNS6_7affineXERKNS6_7_float4E
$nm:_TimerCallback_Invoke_m1938221087
SIa:__ZN14RenderSettings5ResetEv
Joc:__ZN6Sprite9BindAtlasERK4PPtrI11SpriteAtlasE
EZc:__ZN5Unity9rapidjson12GenericValueINS0_4UTF8IcEE13JSONAllocatorE10FindMemberIS4_EENS0_21GenericMemberIteratorILb0ES3_S4_EERKNS1_IS3_T_EE
Ane:__ZN5physx9NpPhysics33unregisterDeletionListenerObjectsERNS_18PxDeletionListenerEPKPKNS_6PxBaseEj
M3h:_InternalEnumerator_1_System_Collections_IEnumerator_get_Current_m3892960115_AdjustorThunk
doc:__ZN9ShaderLabL18AddPropertyToArrayERK19ShaderPropertySheetR13dynamic_arrayIiLj0EERKNS_8FloatValE
Xte:__ZNK5physx2Sc9ClothCore22getAngularInertiaScaleEv
WSk:_ArrayList_Clone_m2682741233
z5k:_Convert_ToDateTime_m1800003024
ocj:_HMAC_HashCore_m3684104066
dOf:__Z13RegisterClassI20UnityConnectSettingsEvPKc
uNm:__ZN28GenericInterfaceFuncInvoker2Ii20UIVertex_t4057497605S0_E6InvokeEPK10MethodInfoP12Il2CppObjectS0_S0_
RYc:__ZN5Unity9rapidjson13GenericReaderINS0_4UTF8IcEES3_13JSONAllocatorE11ParseNumberILj1ENS0_25GenericInsituStringStreamIS3_EENS0_15GenericDocumentIS3_S4_S4_EEEEvRT0_RT1_
hfe:__ZN5physx20NpRigidActorTemplateINS_18PxArticulationLinkEE12setActorFlagENS_11PxActorFlag4EnumEb
kKf:__ZN22BaseUnityConnectClient20StartEventDispatcherEv
U1a:__ZN14SpriteRenderer14OnChangeSpriteEv
tDo:__ZN6il2cpp2os10ThreadImplD2Ev
wqd:__ZN14ParticleSystem18MarkAllSubEmittersEPS_
TZc:__ZN8Gradient8TransferI9JSONWriteEEvRT_
YCi:__Z90RuntimeInvoker_Boolean_t97287965_Vector3_t3722313464_Vector3_t3722313464_Int32_t2950945753PFvvEPK10MethodInfoPvPS4_
Dwa:__ZNK12TLSAllocatorI14StackAllocatorE22GetAllocatedMemorySizeEv
iNc:__Z32GetSceneHierarchyPathDescriptivePK6Object
z7l:_EqualityComparer_1_System_Collections_IEqualityComparer_GetHashCode_m2138064395_gshared
agb:__ZN12HandlerChain4NameEv
Tyc:__ZN17AnimationCurveTplIfE15SetPostInfinityE8WrapMode
Lzk:_Int16_System_IConvertible_ToType_m3672347013_AdjustorThunk
Fn:FUNCTION_TABLE_fiiiiiifiiiiiif
SAk:_Int32_System_IConvertible_ToType_m3009233912_AdjustorThunk
qAk:_Int16_ToString_m2013897809
R2e:__ZN5physx37setupFinalizeSolverConstraintsCoulombERNS_13PxcNpWorkUnitERKNS_2Gu13ContactBufferERKNS_27PxcCorrelationBufferCoulombERKNS_11PxTransformESB_bPhRKNS_13PxcSolverBodyESF_RKNS_17PxcSolverBodyDataESI_ffjffff
jgd:__Z25UpdateOrbitalAndRadialTplIL27ParticleSystemCurveEvalMode2ELS0_1ELS0_3EEvRK11MinMaxCurveS3_S3_S3_S3_S3_S3_R23ParticleSystemParticlesjjRKN4math8float3x3ERKNS6_7affineXERKNS6_7_float4E
vFf:__Z44Register_UnityEngine_CanvasRenderer_get_cullv
e1k:_ScriptableObject_CreateInstance_TisRuntimeObject_m1552711675_gshared
kro:__ZNSt3__214__split_bufferIN6il2cpp8metadata18GenericArrayMethodERNS_9allocatorIS3_EEEC2EjjS6_
sKf:__ZN11UnityEngine7Connect17XRDeviceInfoEvent12XRDeviceInfoD2Ev
wsb:__Z44InitializeTransferFunctionScriptingTraitsForI17RemapPPtrTransferEvR31TransferFunctionScriptingTraits
wBc:__ZNSt3__26vectorI16MessageForwarder13stl_allocatorIS1_L18MemLabelIdentifier7ELi8EEE6resizeEj
kek:_X509Chain_SelectBestFromCollection_m1068759221
MDn:_SymmetricTransform_TransformBlock_m851059707
Sbd:__Z19UpdateProceduralTplIL27ParticleSystemCurveEvalMode4EEvRK20DualMinMaxPolyCurvesR23ParticleSystemParticlesPfRKN4math7_float4E
DZm:_Enumerator_System_Collections_IEnumerator_Reset_m2261065994_AdjustorThunk
EJj:_ScrollRect_get_verticalNormalizedPosition_m3693218937
DUe:__ZN5physx31ComputeCreatedDeletedPairsListsEPKjS1_jRPNS_17PxcBroadPhasePairERjS5_S4_S5_S5_RNS_14SapPairManagerE
rab:__ZN18LoadSceneOperation21MustCompleteNextFrameEv
QLj:_Slider_UpdateDrag_m1102107039
ALh:_MonoMethodInfo_get_method_info_m88651774
IV:__ZNK12AudioManager16GetAudioListenerEv
CAk:_Int32_System_IConvertible_ToDateTime_m1824716955
MDo:__ZN6il2cpp2osL23CleanupThreadIfCanceledEPv
d9i:_RuntimeTypeHandle__ctor_m3315980708_AdjustorThunk
mIl:_Dictionary_2_Resize_m536405636_gshared
Ubc:__ZNSt3__26vectorI11CameraStackNS_9allocatorIS1_EEE8__appendEj
EZe:__ZN5physx2Gu16pcmContactBoxBoxERKNS0_13GeometryUnionES3_RKNS_11PxTransformES6_RKfRNS0_5CacheERNS0_13ContactBufferE
aXl:_List_1_System_Collections_IList_Contains_m776542980_gshared
my:__ZN7mecanim9animation12GetHumanPoseERKNS0_18ClipMuscleConstantEPKNS0_10ValueDeltaERNS_5human9HumanPoseE
uIf:__ZN11UnityEngine9Analytics15UserCustomEvent12CustomParams6InsertEPKcRNS1_11CustomValueE
gA:__ZN22AnimationMixerPlayable17ProcessRootMotionEP35AnimationPlayableEvaluationConstantP32AnimationPlayableEvaluationInputP33AnimationPlayableEvaluationOutput
Iba:__Z13GetFileSystemv
OEc:__ZZL23RegisterLightPropertiesR22GenericPropertyBindingEN29Wrapper_LightColorTemperature13SetFloatValueEPvf
eea:__ZN13RuntimeStaticI15GUIEventManagerLb0EE16StaticInitializeEPv
Toj:_MonoBehaviour_IsObjectMonoBehaviour_m2134950949
yqh:_TextMeshProUGUI_Rebuild_m2217366760
IOd:__ZN15RaycastCallback14processTouchesEPKN5physx12PxRaycastHitEj
foa:__ZL45__ManagedRegistrationHelperFunction_Texture2DPv
udi:_Comparer_1__cctor_m2209434164_gshared
Jum:_Version_CompareTo_m3146217210
uvd:__ZN24RigidbodyMovementState2D21ResetAngularMoveStateEv
Y1a:__ZThn32_N14SpriteRenderer15AddAsRenderNodeER15RenderNodeQueueRK20DeprecatedSourceData
_cm:_Array_InternalArray__ICollection_CopyTo_TisKeyValuePair_2_t71524366_m1056941380_gshared
W9e:__ZN5physx2Gu5RTree15exportExtraDataERNS_22PxSerializationContextE
Opm:_Type_get_IsClass_m589177581
vHg:__ZL62NativeTypeAttribute_t2250406315_CustomAttributesCacheGeneratorP21CustomAttributesCache
x4j:_String_ReplaceUnchecked_m1381393810
Jrb:__ZN19ShaderPropertySheet9SetMatrixEN9ShaderLab16FastPropertyNameERK10Matrix4x4fNS_8SetFlagsE
wUa:__Z29GetTextureSizeAllowedMultiple13TextureFormat
mPe:__ZNK5physx2Sq10AABBPruner7overlapERKNS0_9ShapeDataERNS0_14PrunerCallbackE
Scl:_Decimal_Subtract_m835601464
UBc:__Z46CleanupSpriteRendererAnimationBindingInterfacev
_Wj:_Array_InternalArray__ICollection_Add_TisBoolean_t97287965_m1361760099_gshared
osj:_Quaternion_Internal_ToEulerRad_m1503250752
som:_TimeSpan__ctor_m3689759052_AdjustorThunk
xhd:__Z25UpdateOrbitalAndRadialTplIL27ParticleSystemCurveEvalMode0ELS0_2ELS0_4EEvRK11MinMaxCurveS3_S3_S3_S3_S3_S3_R23ParticleSystemParticlesjjRKN4math8float3x3ERKNS6_7affineXERKNS6_7_float4E
Wno:_il2cpp_array_element_size
xEe:__ZN5physx6shdfnd5ArrayIPvNS0_19ReflectionAllocatorINS_2Gu30LargePersistentContactManifoldEEEE4copyINS0_15InlineAllocatorILj256ES6_EEEEvRKNS1_IS2_T_EE
nOa:__ZN19ShaderPropertySheet22CopyVectorPropertyFromERKS_i
Tkg:__ZL62ComVisibleAttribute_t1362837655_CustomAttributesCacheGeneratorP21CustomAttributesCache
xxa:__ZNSt3__26__treeINS_12__value_typeIN4core12basic_stringIcNS2_20StringStorageDefaultIcEEEEjEENS_19__map_value_compareIS6_S7_NS_4lessIS6_EELb1EEE13stl_allocatorIS7_L18MemLabelIdentifier7ELi16EEE25__emplace_unique_key_argsIS6_JNS_4pairIS6_jEEEEENSH_INS_15__tree_iteratorIS7_PNS_11__tree_nodeIS7_PvEEiEEbEERKT_DpOT0_
Tuj:_RectTransform_INTERNAL_set_sizeDelta_m188783163
Lg:_glCheckFramebufferStatus
hLo:__ZN6il2cpp2os11EventHandle4WaitEv
O7:__Z43scripting_class_get_method_from_name_filter17ScriptingClassPtrPKciN24ScriptingMethodFiltering18MethodSearchFilterEPK16ScriptingTypePtr
LFf:__Z13RegisterClassIN2UI6CanvasEEvPKc
y1:__ZN19CloudServiceHandler20StartEventDispatcherERKN11UnityEngine15CloudWebService18CloudServiceConfigERNS1_23WebRequestRestHeaderMapE
IEh:_GraphicRaycaster__ctor_m646559428
p5e:__ZN5physx2Cm12DelegateTaskINS_2Sc5SceneEXadL_ZNS3_19updateCCDSinglePassEPNS_10PxBaseTaskEEEE11runInternalEv
q1d:__ZN5physx6string9sprintf_sEPcjPKcz
Ocf:__ZThn8_N5physx19TriangleMeshBuilderD1Ev
RUk:_BitArrayEnumerator_get_Current_m4220391712
qZi:__Z37il2cpp_codegen_get_executing_assemblyPK10MethodInfo
S9j:_HttpWebRequest_GetServicePoint_m2640244283
nvj:_Transform_get_parent_m835071599
bSd:__ZN5physx2Gu16intersectRayAABBERKNS_6PxVec3ES3_S3_S3_RfS4_
qak:_IPAddress_get_ScopeId_m4237202723
tra:__ZN9Scripting11UnityEngine12Experimental10PlayerLoop9PreUpdate12CleanupProxyEv
yx:__ZN21AnimationClipPlayable7SetTimeEd
Xun:_ExpressionCollection_get_Item_m3510736379
s5g:__ZL62FontData_t746620069_CustomAttributesCacheGenerator_m_AlignmentP21CustomAttributesCache
vwh:_StandaloneInputModule_get_inputActionsPerSecond_m3946624274
Ilm:_UTF8Encoding_InternalGetCharCount_m82458470
$Kn:_Vector2__cctor_m2108982652
zEc:__ZZL23RegisterLightPropertiesR22GenericPropertyBindingEN22Wrapper_LightIntensity13GetFloatValueEPv
kpa:__ZN9Scripting11UnityEngine9Rendering20SphericalHarmonicsL29InitProxyEv
Z2e:__ZN5physx30setupFinalizeSolverConstraintsERNS_13PxcNpWorkUnitERKNS_2Gu13ContactBufferERKNS_20PxcCorrelationBufferERKNS_11PxTransformESB_bPhRKNS_13PxcSolverBodyESF_RKNS_17PxcSolverBodyDataESI_ffffff
xvo:__ZN14dense_hash_mapI10KeyWrapperIP14Il2CppIUnknownEjN6il2cpp5utils11PointerHashIS1_EENS3_14EqualsComparerINSt3__28equal_toIS2_EEEENS9_9allocatorINS9_4pairIKS3_jEEEEE15set_deleted_keyERSF_
Yqc:__ZN19SpriteMeshGenerator12path_segment12max_distanceENSt3__26vectorINS_6vertexENS1_9allocatorIS3_EEEEii
pke:__ZN5physx7NpScene17releaseBatchQueryEPNS_12PxBatchQueryE
pko:__ZN13Il2CppHashMapIPK14Il2CppAssemblyPK22Il2CppMonoAssemblyNameN6il2cpp5utils11PointerHashIS1_EENSt3__28equal_toIS2_EENSA_9allocatorINSA_4pairIK10KeyWrapperIS2_ES5_EEEEEC2EjRKS9_RKSC_
Avc:__ZN9Scripting39GetScriptingArrayStringElementNoRefImplE17ScriptingArrayPtri
q2e:__ZN5physx26solveVBlockDefaultFrictionEPNS_13PxsSolverCoreEfjjPNS_13PxcSolverBodyEPNS_17PxcSolverBodyDataEjjPNS_25PxcArticulationSolverDescEjPNS_23PxcSolverConstraintDescEjS9_jRNS_6shdfnd5ArrayINS_24PxsConstraintBatchHeaderENSA_19ReflectionAllocatorISC_EEEESG_PNS_2Cm13SpatialVectorEPNS_25PxcThresholdStreamElementEjRj
RLk:_DelegatePInvokeWrapper_AppDomainInitializer_t682969308
Jfd:__Z25UpdateOrbitalAndRadialTplIL27ParticleSystemCurveEvalMode1ELS0_1ELS0_1EEvRK11MinMaxCurveS3_S3_S3_S3_S3_S3_R23ParticleSystemParticlesjjRKN4math8float3x3ERKNS6_7affineXERKNS6_7_float4E
Naa:__ZN8Remapper6RemoveEi
b2m:_Collection_1_System_Collections_IList_IndexOf_m3538466904_gshared
yTe:__ZN5physx11writeBack1DERKNS_23PxcSolverConstraintDescERNS_16PxcSolverContextERNS_17PxcSolverBodyDataES6_
ijn:_TMP_XmlTagStack_1_SetDefault_m3926551933_AdjustorThunk
q7j:_Encoding_GetBytes_m3148649984
rOc:__ZN9Scripting27CreateArgumentNullExceptionEPKc
Unf:__ZL36CleanupTextRenderingScriptingClassesv
qRd:__ZThn4_N16RayRTreeCallbackILi0ELb0EED0Ev
mcc:__ZN15ReflectionProbe17UseRendererResultEP13ProbeRenderer
WRc:__Z34Mesh_CUSTOM_SetArrayForChannelImplP12Il2CppObject30InternalScriptingShaderChannel34InternalScriptingVertexChannelTypeiP11Il2CppArrayi
S7:__Z32scripting_class_get_nested_types17ScriptingClassPtrRNSt3__26vectorIS_13stl_allocatorIS_L18MemLabelIdentifier1ELi16EEEE
nYn:_CanvasRenderer_INTERNAL_CALL_EnableRectClipping_m3318097918
ftm:_UInt64_System_IConvertible_ToDecimal_m806594027_AdjustorThunk
Lma:__ZL58__ManagedRegistrationHelperFunction_MaterialEffectPlayablePv
rOf:__ZN11UnityEngine7Connect20RemoteConfigSettings18StaticCallOnUpdateEPS1_
Ypl:_Enumerator_get_CurrentValue_m3103267885_gshared
WWl:_List_1__ctor_m3395838871_gshared
Mvk:_CultureInfo_get_Parent_m672689885
XTi:_MissingMemberException__ctor_m2571045846
QL:__ZN9Scripting11UnityEngine18AssetBundleRequest9InitProxyEv
Vcn:_PKCS12__ctor_m1854440921
xim:_Array_Resize_TisCustomAttributeNamedArgument_t287865710_m885566878_gshared
Nca:__ZN17TransformInternal19FreeTransformThreadER18TransformHierarchyjj
vu:__ZN9Scripting11UnityEngine12SkeletonBone12CleanupProxyEv
Lv:__ZN11UnityEngine9Animation28GenericAnimationBindingCache25RegisterIAnimationBindingEPKN5Unity4TypeEiP17IAnimationBinding
VSk:_ArrayList_ToArray_m3439706433
sOe:__ZN5physx2Gu17GetGeomSweepFuncsEv
k8d:__ZN5physx6shdfnd8PoolBaseINS_15PxsArticulationENS0_16AlignedAllocatorILj64ENS0_9AllocatorEEEE17releaseEmptySlabsEv
nEk:_DirectoryInfo__ctor_m481305441
mVo:dynCall_viiffiii
Epc:__ZNK6Sprite15GenerateOutlineEfhbRNSt3__26vectorI13dynamic_arrayI8Vector2fLj0EENS0_9allocatorIS4_EEEEi
Q5:__ZN10MemoryPoolC2E10MemLabelIdbPKciii
yHf:__ZN14UnityAnalytics25UnregisterGlobalCallbacksEv
VFi:__Z80RuntimeInvoker_Boolean_t97287965_ColorBlockU26_t337120346_ColorBlock_t2139031574PFvvEPK10MethodInfoPvPS4_
Eac:__Z40ProcessCameraIndexListIsNodeVisibleInOutRK22SceneCullingParametersPK9SceneNodePK4AABBR9IndexList
HCn:_GUIScrollGroup_SetHorizontal_m291416666
XHa:__ZN16GraphicsSettings8TransferI17RemapPPtrTransferEEvRT_
sGf:__ZN2UI6Canvas13UpdateBatchesEb
gck:_X509BasicConstraintsExtension_Decode_m120598446
qD:__ZNK23AnimationPlayableOutput11DerivesFromE17ScriptingClassPtr
TZo:_glGetShaderInfoLog__wrapper
C7i:_ObjectReader_ReadObjectGraph_m340866276
dpe:__ZN5physx2Gu5Debug9visualizeERKNS_13PxBoxGeometryERNS_2Cm12RenderOutputERKNS5_8Matrix34ERKNS_9PxBounds3Eyfj
oWd:__ZN5physx6shdfnd5ArrayIPKvNS0_19ReflectionAllocatorIS3_EEE6resizeEjRKS3_
iXj:_Array_InternalArray__ICollection_Add_TisKeyValuePair_2_t2245450819_m3591771797_gshared
KLf:__ZN11UnityEngine7Connect13ConfigHandler12GetListenersERKN4core12basic_stringIcNS2_20StringStorageDefaultIcEEEE
Kmb:__ZN9GfxDevice18AllocRenderSurfaceEb
SQk:_Char__cctor_m2787437263
d3e:__ZN5physx31setupFinalizeSolverConstraints4EPNS_21PxcSolverContact4DescERNS_18PxcNpThreadContextEPhffRKNS_6shdfnd3aos5Vec4VES9_S9_S9_
LGe:__ZN5physx7NpScene5flushEb
hHc:__ZN10TagManager32GetSortingLayerUniqueIDFromValueEi
VJf:__ZN11UnityEngine7Connect15DeviceInfoEvent7GFXInfoD2Ev
Kxh:_AspectRatioFitter_get_rectTransform_m2996235303
G7:__ZL27CleanupCoreScriptingClassesv
dQj:_Array_InternalArray__ICollection_Remove_TisContentType_t1128941285_m2281326462_gshared
Yod:__Z19UpdateSingleRow2TplIL27ParticleSystemCurveEvalMode2ELS0_1EEvfRK11MinMaxCurveS3_RK23ParticleSystemParticlesPfbiii
Fei:_Comparer_1_System_Collections_IComparer_Compare_m1313384821_gshared
Uyc:__Z26AnimationCurve_CUSTOM_InitP12Il2CppObjectP11Il2CppArray
M1o:_glUniform1uiv__wrapper
Bwd:__ZNK14b2PolygonShape5CloneEP16b2BlockAllocator
ako:__ZN6il2cpp2vm10Reflection7IsEventEP12Il2CppObject
Oaa:__ZN17PersistentManager26GetStreamNameSpaceInternalEi
_S:__ZN4FMOD6System11createSoundEPKcjP22FMOD_CREATESOUNDEXINFOPPNS_5SoundE
kp:FUNCTION_TABLE_iiifiiii
Jjf:__ZN13SpeedTreeWind20AdvanceWithoutUpdateEd
ybm:_KeyValuePair_2_ToString_m823870646_AdjustorThunk
Dvc:__Z48Register_UnityEngine_Material_get_shaderKeywordsv
M9k:_DateTime_System_IConvertible_ToDecimal_m1044850612
Wdk:_X509Store_get_Factory_m3282910266
Chf:__ZThn128_N5physx7profile8ZoneImplINS_28PxProfileNameProviderForwardEED1Ev
M6:__ZN9ShaderLab19CommonPropertyNames13StaticCleanupEPv
baa:__Z31scripting_method_get_returntype18ScriptingMethodPtr
JPe:__ZN5physx2Sq17AABBTreeUpdateMap10invalidateEjjRNS0_8AABBTreeE
_Ya:__ZN15SerializeTraitsI12LightmapDataE8TransferI24GenerateTypeTreeTransferEEvRS0_RT_
S$j:_SecurityElement_AddAttribute_m311510562
xta:__ZN9Scripting5Unity11Collections44NativeDisableParallelForRestrictionAttribute12CleanupProxyEv
v2e:__ZN5physx28solveParallelDefaultFrictionERNS_18PxsDynamicsContextEjjPNS_13PxcSolverBodyEPNS_17PxcSolverBodyDataEjjPNS_25PxcArticulationSolverDescEjPNS_23PxcSolverConstraintDescEjS9_jPiSA_SA_SA_SA_SA_PNS_25PxcThresholdStreamElementEjSA_PNS_2Cm13SpatialVectorEPKPNS_11PxsBodyCoreERNSD_10BitMapBaseINS_6shdfnd9AllocatorEEEPKPNS_15PxsArticulationEjPViRNSL_5ArrayINS_24PxsConstraintBatchHeaderENSL_19ReflectionAllocatorISW_EEEES10_RNSV_IjNSX_IjEEEES13_PPNS_12PxsRigidBodyEj
ZZo:_glStencilOpSeparate__wrapper
LLc:__ZN4Mesh5SetUvEiPKfjj
KWa:__ZN7Texture13SetAnisoLimitENS_20AnisotropicFilteringE
yxa:__ZNSt3__26__treeINS_12__value_typeIjN4core12basic_stringIcNS2_20StringStorageDefaultIcEEEEEENS_19__map_value_compareIjS7_NS_4lessIjEELb1EEE13stl_allocatorIS7_L18MemLabelIdentifier7ELi16EEE25__emplace_unique_key_argsIjJNS_4pairIjS6_EEEEENSH_INS_15__tree_iteratorIS7_PNS_11__tree_nodeIS7_PvEEiEEbEERKT_DpOT0_
Mx:__ZN21AnimationClipPlayable22PrepareAnimationEventsEfR13dynamic_arrayI22AnimationClipEventInfoLj0EE
HOk:_Attribute_IsDefined_m4069052474
Fi:_emscripten_glCompressedTexSubImage2D
wVb:__ZN13GfxDeviceGLES22MemoryBarrierImmediateEyN2gl17MemoryBarrierTypeE
Im:_abort
tka:__ZN6prcoreL26RemapGenericFloatToIntegerI18TexFormatARGBFloat17TexFormatARGB8888EEvPKNS_9InnerInfoE
cAd:__ZN14qsort_internal5QSortIPN35b2SynchronizeContinuousFixturesTask14b2DeferredMoveEiPFbRKS2_S5_EEEvT_S8_T0_T1_
pYm:_List_1_set_Capacity_m1977188119_gshared
avl:_ShimEnumerator_Reset_m4072444564_gshared
ENc:__Z46GetShaderModelNumericValueFromRequirementsMask18ShaderRequirements
glm:_UTF7Encoding_InternalGetBytes_m797138468
Krf:_cff_ps_has_glyph_names
Tcf:__ZN5physx15writeWordBufferEPKtjbRNS_14PxOutputStreamE
T2l:_Dictionary_2_Resize_m3287623642_gshared
JHo:_GC_write
EBi:__Z68RuntimeInvoker_Void_t1185182177_Single_t1397266774_SByte_t1669577662PFvvEPK10MethodInfoPvPS4_
yXg:__ZL57UploadHandlerRaw_t25761545_CustomAttributesCacheGeneratorP21CustomAttributesCache
Ys:__ZN17ConstraintManagerD2Ev
A$l:_Dictionary_2_Remove_m4193450060_gshared
Rpc:__Z13tessTesselateP14TESStesselatoriiiiPKf
mCk:_Int64_TryParse_m3606398488
q5i:_RemotingServices_IsTransparentProxy_m1535738947
Ggm:_Array_InternalArray__set_Item_TisMark_t3471605523_m1299772331_gshared
uXc:__Z44Register_UnityEngine_GUIStyle_SetDefaultFontv
Lpc:__ZN19SpriteMeshGenerator9MakeShapeEP11ColorRGBA32iifhbjfi
zCb:__Z18Transfer_BlittableI18StreamedBinaryReadILb1EELb1EiEvRK29SerializationCommandArgumentsR31RuntimeSerializationCommandInfo
tF:__ZN9BlobWrite8TransferI22OffsetPtrArrayTransferIKN4math7_float3EEEEvRT_PKc17TransferMetaFlags
J4a:__ZN16MeshSkinningData14GetBoneWeightsEi
rli:__Z173RuntimeInvoker_Int32_t2950945753_RuntimeObject_Int32_t2950945753_Int32_t2950945753_Int32_t2950945753_RuntimeObject_Int32_t2950945753_SByte_t1669577662_ContextU26_t3937453398PFvvEPK10MethodInfoPvPS4_
JRm:_List_1__ctor_m2576108087_gshared
Rio:__ZN15dense_hashtableINSt3__24pairIK10KeyWrapperINS1_IPK12PropertyInfoP11Il2CppClassEEEjEES9_17ReflectionMapHashIS8_EN14dense_hash_mapIS9_jSD_NS9_14EqualsComparerINS0_8equal_toIS8_EEEENS0_9allocatorISB_EEE9SelectKeyESI_SK_E12maybe_shrinkEv
Z5d:__ZN5physx2Sc7BodySim37checkSleepReadinessBesidesWakeCounterEv
yPn:__ZL25UnresolvedVirtualCall_150P12Il2CppObject19Vector2_t2156229523S1_fiPK10MethodInfo
qdn:_X509Certificate_get_DSA_m565099499
_Cb:__Z18Transfer_BlittableI18StreamedBinaryReadILb1EELb1EsEvRK29SerializationCommandArgumentsR31RuntimeSerializationCommandInfo
Sjm:_StringBuilder_Remove_m940064945
N6a:__ZN14SafeBinaryRead21TransferSTLStyleArrayI13dynamic_arrayI16SplashScreenLogoLj0EEEEvRT_17TransferMetaFlags
pqb:__ZN13dynamic_arrayIN16GeometryJobTasks15GeometryJobTaskELj0EE18resize_initializedEjRKS1_12ResizePolicy
zvl:_ShimEnumerator_get_Key_m2888790658_gshared
Sod:__Z19UpdateSingleRow2TplIL27ParticleSystemCurveEvalMode1ELS0_2EEvfRK11MinMaxCurveS3_RK23ParticleSystemParticlesPfbiii
QWa:__ZL21SetAnisoLimitEnumImplN7Texture20AnisotropicFilteringEb
FLf:__ZN22BaseUnityConnectClient17OnEnterStateReadyEv
_Ne:__ZN5physx13PxsCCDContextD2Ev
GMj:_Text_get_fontSize_m1677872538
nVl:_List_1_System_Collections_IList_get_Item_m995551621_gshared
ara:__ZN9Scripting11UnityEngine12Experimental9Rendering15ShadowSplitData9InitProxyEv
DPd:__ZN5physx2Gu9ContainerD2Ev
qzc:__Z29Input_CUSTOM_GetMouseButtonUpi
VXd:__ZN5physx2Gu12selectNormalEhff
beo:__ZN6il2cpp6icalls8mscorlib6System8MonoType16InternalGetEventEP20Il2CppReflectionTypeP12Il2CppStringi
nef:__Z13RegisterClassI9RigidbodyEvPKc
Jyn:_UriScheme_t722425697_marshal_pinvoke_back
Ctf:_UNITY_tt_face_load_maxp
Gzc:__Z46Input_CUSTOM_INTERNAL_set_compositionCursorPosRK13Vector2fIcall
qx:__ZN7mecanim5human12FullBodyMaskEv
ixe:__ZN5physx3Scb14ParticleSystem16releaseParticlesEjRKNS_16PxStrideIteratorIKjEE
x2b:__ZN13BatchRenderer15ApplyShaderPassER17ShaderPassContextPK18SharedMaterialDataP6ShaderPN9ShaderLab4PassEi13BatchingFlagsbbPKNS7_10GrabPassesEPK22DeviceRenderStateBlock
C2a:__ZN19ShaderPropertySheet11ComputeHashEv
y7n:__ZN30dense_hashtable_const_iteratorI10KeyWrapperIPK19Il2CppGenericMethodES4_N6il2cpp8metadata23Il2CppGenericMethodHashEN14dense_hash_setIS4_S7_NS4_14EqualsComparerINS6_26Il2CppGenericMethodCompareEEENSt3__29allocatorIS4_EEE8IdentityESB_SE_EppEv
UJe:__ZN5physx2Sc5Scene21processLostTouchPairsEv
fxd:__ZN12b2EPCollider24ComputePolygonSeparationEv
wCm:_ReadOnlyCollection_1_System_Collections_ICollection_CopyTo_m95132623_gshared
v$:__ZN11UnityEngine15CloudWebService20WebRequestRestClient6IsDoneEv
a5f:_TMP_Text_get_firstOverflowCharacterIndex_m2980550079
ran:_X509CertificateCollection_get_Item_m1033426577
Cj:_llvm_fabs_f32
__:__ZN11UnityEngine15CloudWebService16SessionContainer16GetJsonDataBlockEjRKN4core12basic_stringIcNS2_20StringStorageDefaultIcEEEERS6_PjSA_
L1f:_TMP_SpriteAsset_GetSpriteIndexFromName_m4129359537
tkl:_ASN1_Decode_m1695284166
eXg:__ZL100UnityWebRequest_t463507806_CustomAttributesCacheGenerator_UnityWebRequest_BeginWebRequest_m464964044P21CustomAttributesCache
kYe:__ZN5physx22PxcContactConvexConvexERKNS_2Gu13GeometryUnionES3_RKNS_11PxTransformES6_RKfRNS_10PxcNpCacheERNS0_13ContactBufferE
Ifl:_Enum_ToString_m3248653065
fQh:_ChannelServices__cctor_m2475086854
aQd:__ZNK5physx2Gu11ConvexHullV12HillClimbingERKNS_6shdfnd3aos5Vec3VE
f9:__ZN14SafeBinaryReadD2Ev
Qck:_X509BasicConstraintsExtension_CopyFrom_m1931463033
Ywe:__ZN5physx2Sc18ParticleSystemCore10setDampingEf
TNl:_Enumerator_MoveNext_m3859993671_gshared
Kkf:__ZN14SafeBinaryRead21TransferSTLStyleArrayI13dynamic_arrayIN20TextRenderingPrivate8FontImpl13CharacterInfoELj0EEEEvRT_17TransferMetaFlags
oEb:__ZN8Gradient8TransferI18StreamedBinaryReadILb1EEEEvRT_
Tfk:_Capture__ctor_m3103117740
pki:__Z113RuntimeInvoker_Void_t1185182177_RuntimeObject_Int64_t3736567304_RuntimeObject_Int64_t3736567304_Int64_t3736567304PFvvEPK10MethodInfoPvPS4_
Ksm:_UInt32_CompareTo_m2218823230
I2d:__ZN5physx2Sc10NPhaseCore16deleteFilterPairEPNS0_10FilterPairE
bQj:_Array_InternalArray__ICollection_Remove_TisTMP_CharacterInfo_t3185626797_m1831411579_gshared
ujd:__ZN14ParticleSystem15ThreadedCleanupEv
Ysj:_RangeInt_get_end_m4128831787_AdjustorThunk
Vuo:__ZN6il2cpp6icalls8mscorlib6System4Type15MakeGenericTypeEP20Il2CppReflectionTypeP11Il2CppArray
Qef:_PxCreateBasePhysics
ywj:_Shader__ctor_m837260462
ck:_SDL_PauseAudio
oGi:__Z72RuntimeInvoker_Boolean_t97287965_Int64_t3736567304_ObjectU26_t2146539884PFvvEPK10MethodInfoPvPS4_
nqj:_Object_Internal_InstantiateSingle_m4074556765
roo:_il2cpp_class_from_type
bfo:__ZN6il2cpp2os4File11GetStdErrorEv
ukg:_TMP_TextSelector_B__ctor_m619334773
DRc:__Z48Register_UnityEngine_Camera_set_orthographicSizev
i_n:_AnimationLayerMixerPlayable__ctor_m860721801
J6d:__ZN5physx2Sc5Scene28addActiveBreakableConstraintEPNS0_13ConstraintSimE
L6:__ZN9ShaderLab19CommonPropertyNames16StaticInitializeEPv
Jle:__ZN5physx6shdfnd8PoolBaseINS_16NpParticleSystemENS0_19ReflectionAllocatorIS2_EEE15disposeElementsEv
mdi:_Comparer_1__cctor_m2517796511_gshared
Xv:__ZN7mecanim9animation18CreateAvatarOutputEPKNS0_14AvatarConstantEbbRNS_6memory9AllocatorE
Yhf:__ZN5physx7profile11EventBufferINS_24PxDefaultContextProviderENS_6shdfnd6MutexTINS0_26WrapperReflectionAllocatorIhEEEENS0_14ScopedLockImplIS7_EENS_24PxProfileNullEventFilterEE10eventValueEtyx
srk:_TlsServerCertificateRequest_Update_m2763887540
Hed:__Z14UpdateSpeedTplIL27ParticleSystemCurveEvalMode1EEvRK11MinMaxCurveR23ParticleSystemParticlesjj
wLj:_Slider_set_maxValue_m2251404465
xGn:_UnityWebRequestAsyncOperation__ctor_m1252495487
bS:__ZN11AudioSource23VirtualRedirectTransferER24GenerateTypeTreeTransfer
YRd:__ZN5physx2Gu11getBoxEdgesEv
Dmj:_Material_CopyPropertiesFromMaterial_m2896226580
tRa:__ZN14Texture2DArray23VirtualRedirectTransferER14SafeBinaryRead
_Ti:_MissingMemberException__ctor_m1220732369
k5b:__ZNK6Camera21CalculateCanDoShadowsEv
tIe:__ZNK5physx2Sc5Scene17getBroadPhaseCapsERNS_16PxBroadPhaseCapsE
vie:__ZN5physx9NpFactory14onActorReleaseEPNS_7PxActorE
Udj:_Application_InvokeOnBeforeRender_m2875673833
L8d:__ZN5physx2Sc5Actor15onElementAttachERNS0_7ElementE
R$k:_Array_InternalArray__get_Item_TisRuntimeObject_m3347010206_gshared
nIh:_TypeBuilder_IsSubclassOf_m3458909121
f_i:_Default_check_arguments_with_score_m3467814020
vVo:dynCall_viffii
Jwe:__ZN5physx2Sc18ParticleSystemCore23setSimulationFilterDataERKNS_12PxFilterDataE
xFb:__Z18Transfer_BlittableI18StreamedBinaryReadILb0EELb1EhEvRK29SerializationCommandArgumentsR31RuntimeSerializationCommandInfo
MJk:_X509Certificate__cctor_m198658613
mHc:__ZL24GenerateTilingJobCombineP22GenerateTilingAreaInfo
oJ:__ZN14SafeBinaryRead21TransferSTLStyleArrayI13dynamic_arrayI11KeyframeTplIfELj0EEEEvRT_17TransferMetaFlags
$qj:_PlayableHandle_Equals_m1666612586_AdjustorThunk
$ja:__ZN6prcoreL27StretchGenericFloatBilinearI15TexFormatRFloatEEvPKNS_9InnerInfoE
BVj:_Array_InternalArray__IndexOf_TisSpriteData_t3048397587_m1184765788_gshared
COe:__ZN5physx6shdfnd8internal8HashBaseINS0_4PairIKNS_2Sq13PrunerPayloadEjEES5_NS0_4HashIS5_EENS1_11HashMapBaseIS5_jS9_NS0_9AllocatorEE6GetKeyESB_Lb1EE15reserveInternalEj
aFg:__ZL139ServicePointManager_t170559685_CustomAttributesCacheGenerator_ServicePointManager_t170559685____CheckCertificateRevocationList_PropertyInfoP21CustomAttributesCache
KP:__ZNK11AudioSource19GetFilterComponentsERNSt3__26vectorIPN4FMOD3DSPENS0_9allocatorIS4_EEEEb
jA:__Z24ProcessAnimationMixBeginP35AnimationPlayableEvaluationConstantP32AnimationPlayableEvaluationInputP33AnimationPlayableEvaluationOutput
hIk:_StreamWriter_LowLevelWrite_m1081676583
M_a:__ZN19StreamedBinaryWriteILb0EE21TransferSTLStyleArrayI13dynamic_arrayI8Vector2fLj0EEEEvRT_17TransferMetaFlags
eVa:__Z14PadImageBorderR14ImageReferenceii
rho:__ZN15dense_hashtableINSt3__24pairIK10KeyWrapperINS1_IPK10MethodInfoP11Il2CppClassEEEjEES9_17ReflectionMapHashIS8_EN14dense_hash_mapIS9_jSD_NS9_14EqualsComparerINS0_8equal_toIS8_EEEENS0_9allocatorISB_EEE9SelectKeyESI_SK_E4findERSA_
Iao:__ZN6il2cpp2vm13MetadataCache28GetFieldDefaultValueForFieldEPK9FieldInfo
zUj:_Array_IndexOf_TisUIVertex_t4057497605_m3336763564_gshared
w4f:_TMP_Text_set_outlineWidth_m3845803135
NA:__ZN27AnimationLayerMixerPlayableD2Ev
Szh:_ColorBlock_Equals_m518833916_AdjustorThunk
oSe:__ZN5physx2Gu22gjkRelativePenetrationINS0_9TriangleVENS0_8CapsuleVEEEjRKT_RKT0_RKNS_6shdfnd3aos15PsMatTransformVERKNSB_6FloatVERNSB_5Vec3VESJ_SJ_RSF_PhSL_Rh
ANo:__ZN6il2cpp2os9FastMutexC2Ev
pLd:__ZN9Rigidbody14SetIsKinematicEb
a0h:_InternalEnumerator_1_System_Collections_IEnumerator_get_Current_m1514266661_AdjustorThunk
aO:__ZN12AudioManager39HandlePendingAudioConfigurationCallbackEv
moa:__ZL43__ManagedRegistrationHelperFunction_Vector3Pv
cl:_emscripten_glIsFramebuffer
Uml:_RSAManaged_EncryptValue_m799827583
ybc:__ZN12_GLOBAL__N_16qAtan2Eff
gl:_JS_Sound_SetLoopPoints
iWn:_RestClient_Post_m775137210
qMo:__ZN6il2cpp2vm26MetadataAllocGenericMethodEv
VPj:_Array_InternalArray__ICollection_Remove_TisUInt16_t2177724958_m1766181761_gshared
MXb:__ZN19ConstantBuffersGLES12RecordRenderEv
dOe:__ZN5physx13ActorAABBTaskD2Ev
J$c:__ZN9JSONWrite8TransferI10RectOffsetEEvRT_PKc17TransferMetaFlags
XUa:__ZN4crnd12symbol_codec11decode_bitsEj
Bxd:__ZN15b2CircleContact8EvaluateEP10b2ManifoldRK11b2TransformS4_
eEn:_AesManaged_GenerateIV_m1368817386
Y0f:_TMP_Settings_get_defaultTextMeshProUITextContainerSize_m3222036350
mN:__ZN4FMOD6System12createReverbEPPNS_6ReverbE
NFo:__ZN6il2cpp2vm6String21InitializeEmptyStringEP11Il2CppClass
end:__ZL17DrawMeshParticlesILb1EL25ParticleSystemRenderSpace1EEvRK26ParticleSystemTempMeshDataRK22ParticleSystemTempDataRK23ParticleSystemParticlesRK31ParticleSystemParticlesTempDataRK26ParticleSystemRendererDataRK21ParticleSystemModulesPfPv
EA:__ZN7mecanim19ValueArrayBlendNodeILb1EEEvRKNS_10ValueArrayERKNS_14ValueArrayMaskERS1_RS4_RNS_16ValueArrayWeightEf
Wcb:__Z16MarkDependenciesR27GarbageCollectorThreadStatej
s4i:_RemotingServices_DisposeIdentity_m2605848806
Yia:__ZNK9Transform11GetPositionEv
Cyk:_GuidParser_Reset_m2640004655
Zlh:_ColorTween_AddOnChangedCallback_m2712346959_AdjustorThunk
trc:__ZN23SharedMeshRenderingData18UnloadVertexStreamEi
t0d:__ZN5physx3Cct13HandleManager3AddEPv
hJc:__ZN31CanvasBatchIntermediateRenderer11AddSubBatchERK16DrawBuffersRangePK19ShaderPropertySheet
TEc:__ZN19RenderEventsContextC2Ei
SY:__Z6simd4fRKf
Kl:_emscripten_glEnable
I1h:_InternalEnumerator_1_System_Collections_IEnumerator_get_Current_m2982675020_gshared
smd:__ZNK14ParticleSystem16GetParticleCountEv
mxa:__ZN10TagManager23VirtualRedirectTransferER14SafeBinaryRead
Y6g:__ZL51RawImage_t3182918964_CustomAttributesCacheGeneratorP21CustomAttributesCache
w7e:__ZNK5physx2Sc15ClothFabricCore9getNbSetsEv
kKn:_UnityException__ctor_m1456865679
uga:__ZN14PlayableOutput26ClearInvalidSourcePlayableEv
g8b:__Z15InitLightMeshesv
wSf:__Z60Register_UnityEngine_Networking_DownloadHandlerBuffer_Createv
$0n:_RaycastHit_get_collider_m1464180279
AHe:__ZNK5physx7NpScene26getNbContactDataBlocksUsedEv
Do:FUNCTION_TABLE_iifiii
LTd:__ZN5physx2Gu29computeCapsule_HeightFieldMTDERKNS_21PxHeightFieldGeometryERKNS_11PxTransformERNS0_8CapsuleVEffbjRNS_10PxSweepHitE
N8e:__ZN5physx2Gu11HeightField15exportExtraDataERNS_22PxSerializationContextE
FWa:__ZN15QualitySettings8TransferI19StreamedBinaryWriteILb0EEEEvRT_
fyk:_SortKey_GetHashCode_m3547067087
WEj:_LayoutUtility_U3CGetFlexibleHeightU3Em__7_m2991026842
mpf:_cf2_arrstack_init
_$k:_Array_InternalArray__get_Item_TisResourceCacheItem_t51292791_m1306056717_gshared
Pim:_Array_Resize_TisTMP_PageInfo_t2608430633_m3712126464_gshared
$3:__Z15CleanLogHandler7LogTypePKcz
lXi:_NumberFormatter_NumberToString_m2481532188
pmc:__ZN9ShaderLab19SerializedSubShader8TransferI19StreamedBinaryWriteILb0EEEEvRT_
Kne:__ZN5physx10NpMaterialC2ERKNS_2Sc12MaterialCoreE
ZUh:_DictionaryEnumerator_MoveNext_m1462973125
g$e:__ZN5physx9PxTaskMgr10resolveRowEjb
Qta:__ZN9Scripting5Unity11Collections8LowLevel6Unsafe41NativeContainerIsAtomicWriteOnlyAttribute9InitProxyEv
jJb:__ZN6Camera17RemoveImageFilterERK11ImageFilter
Vqb:__ZNSt3__218__insertion_sort_3IR25ValueParameterArraySorterPN20GpuProgramParameters14ValueParameterEEEvT0_S6_T_
NDd:__ZN10ClipperLib7Clipper27ProcessEdgesAtTopOfScanbeamEx
Vbd:__ZN14EmissionModule15AccumulateBurstER27ParticleSystemEmissionStateRK11MinMaxCurvef
HVk:_Comparer__cctor_m3311686689
EXf:_TMP_InputField_set_scrollSensitivity_m275207258
sjd:__ZN11ShapeModule17MainThreadCleanupEv
Yrk:_HttpsClientStream_U3CHttpsClientStreamU3Em__1_m1202173386
aad:__ZN9SubModule5ResetEv
byn:_Uri__ctor_m3040793867
E_f:_TMP_InputField_Rebuild_m919426078
k1h:_InternalEnumerator_1_get_Current_m3500427238_AdjustorThunk
eHf:__ZN2UI26InitializeDeviceForOverlayEi
S6e:__ZNK5physx13NpClothFabric13getRestvaluesEPfj
v5:__Z27LogRepeatingStringWithFlagsRKN4core12basic_stringIcNS_20StringStorageDefaultIcEEEE15LogMessageFlagsi
vQd:__ZN5physx2Gu16_gjkLocalRayCastINS0_9TriangleVENS0_11ConvexHullVEEEbRT_RT0_RKNS_6shdfnd3aos6FloatVERKNS9_5Vec3VESF_RSA_RSD_SH_f
Vfl:_Enum_IsDefined_m1442314461
frh:_TextMeshProUGUI_SetSharedMaterials_m854082582
MTn:_AudioExtensionManager_RegisterBuiltinDefinitions_m2742744104
Sx:__ZN17AnimationPlayable28ComputeNeedsBindingRebuildedEv
Xw:__ZN17AnimationPlayable23RequestAllocateBindingsEv
U6d:__ZN5physx6shdfnd8PoolBaseINS_2Cm5BlockIPvLj32EEENS0_19ReflectionAllocatorIS5_EEE17releaseEmptySlabsEv
tUe:__ZN5physx23PxsBroadPhaseContextSap21batchUpdateFewUpdatesEjRPNS_17PxcBroadPhasePairERjS4_
D6j:_DecoderReplacementFallbackBuffer_Fallback_m1261056214
VYd:__ZN5physx3Cct17getSceneTimestampEPKNS0_30InternalCBData_FindTouchedGeomE
V1g:__ZL78g_UnityEngine_UnityWebRequestWWWModule_Assembly_CustomAttributesCacheGeneratorP21CustomAttributesCache
gVi:_Binder_get_DefaultBinder_m950908649
CMf:__ZN18UnityConnectClient33OnPlayerSessionStateChangedStaticEPS_jyy
dzd:__ZN19ProcessContactsDataD2Ev
Bzi:__Z109RuntimeInvoker_Boolean_t97287965_Vector3_t3722313464_Vector3_t3722313464_Single_t1397266774_Int32_t2950945753PFvvEPK10MethodInfoPvPS4_
W8f:_CollisionCheckerHazard_HazardDestroyedByEnemy_m1188291889
f0:__ZNK11UnityEngine15CloudWebService23WebRequestUploadHandler11GetProgressEv
avc:__Z25PlayerPrefs_CUSTOM_GetIntP12Il2CppStringi
bTb:__ZN7ApiGLES4LoadE16GfxDeviceLevelGL
vqm:_Type_GetMethod_m1479779718
Tme:__ZN5physx9NpPhysics15createAggregateEjb
RUa:__ZN4crnd12crn_unpacker22decode_color_endpointsEv
Byo:__ZN15dense_hashtableI10KeyWrapperIP18Il2CppGenericClassES3_N6il2cpp8metadata22Il2CppGenericClassHashEN14dense_hash_setIS3_S6_NS3_14EqualsComparerINS5_25Il2CppGenericClassCompareEEENSt3__29allocatorIS3_EEE8IdentityESA_SD_E15insert_noresizeERKS3_
vGc:__ZZL31RegisterOtherRendererPropertiesR22GenericPropertyBindingEN30Wrapper_RendererReceiveShadows13GetFloatValueEPv
bOd:__ZN9Rigidbody5ResetEv
VNj:_Array_InternalArray__ICollection_Contains_TisSlot_t384495010_m688761886_gshared
XPj:_Array_InternalArray__ICollection_Remove_TisUInt64_t4134040092_m2664745791_gshared
uUa:__ZN17SharedTextureDataC2E10MemLabelIdii13TextureFormatjiibb
ZBi:__Z114RuntimeInvoker_RuntimeObject_RuntimeObject_Int32_t2950945753_Int32_t2950945753_Int32_t2950945753_Int32_t2950945753PFvvEPK10MethodInfoPvPS4_
mMb:__ZN8Material11SetPassFastEPN9ShaderLab4PassER17ShaderPassContextP6Shaderib
lMf:__ZN11UnityEngine7Connect20BasePersistentValues10SaveValuesER9JSONWrite
Evl:_ShimEnumerator_MoveNext_m2632237013_gshared
O9k:_DateTime_System_IConvertible_ToDouble_m2116720007
fkk:_BitConverterLE_GetUIntBytes_m795219058
Whj:_Display_GetSystemExtImpl_m2808197389
U9i:_SByte_Parse_m2899090751
H9c:__ZN11ShapeModule18MultiModeParameterIN25IParticleSystemProperties8PropertyIfNS1_5ClampILi0ELi360EEEEEE8TransferI19StreamedBinaryWriteILb0EEEEvRT_
PWj:_Promise_1_InvokeHandler_TisRuntimeObject_m339964354_gshared
rqa:__ZN9Scripting11UnityEngine20ManagedStreamHelpers12CleanupProxyEv
BXh:_ArrayReadOnlyList_1_GetEnumerator_m1835926958_gshared
Z_e:__ZN5physx9PxTaskMgr12addReferenceEj
p0f:_TMP_MeshInfo_Clear_m2171221426_AdjustorThunk
VMc:__Z14ScaleCurveTimeR17AnimationCurveTplIfEf
Tda:__ZN20GlobalCachingManager7DisposeEv
R1b:__Z12SetupLODFadeR9GfxDeviceR17ShaderPassContextf
TQa:__ZNK14PlayableOutput7GetTypeEv
z0c:__ZN9JSONWrite8TransferI13dynamic_arrayI4AABBLj0EEEEvRT_PKc17TransferMetaFlags
V7b:__ZL24CollectForwardObjectsJobP27CollectForwardObjectsHeader
tXm:_List_1_get_Item_m1378751541_gshared
z2c:__ZN8JSONRead21TransferSTLStyleArrayI13dynamic_arrayIdLj0EEEEvRT_17TransferMetaFlags
pac:__Z13IsNodeVisibleRK9SceneNodeRK4AABBRK22SceneCullingParameters
Ohl:_SortKeyBuffer_AppendCJKExtension_m2591091991
Vqd:__ZN11ShapeModuleC2E10MemLabelId
Clm:_UTF8Encoding_GetByteCount_m4153686982
T3o:_emscripten_glStencilMask__wrapper
dji:__Z49RuntimeInvoker_Void_t1185182177_Double_t594665363PFvvEPK10MethodInfoPvPS4_
o7n:__ZN15dense_hashtableI10KeyWrapperIPK19Il2CppGenericMethodES4_N6il2cpp8metadata23Il2CppGenericMethodHashEN14dense_hash_setIS4_S7_NS4_14EqualsComparerINS6_26Il2CppGenericMethodCompareEEENSt3__29allocatorIS4_EEE8IdentityESB_SE_EC2ERKSH_j
Q8n:__ZN15dense_hashtableINSt3__24pairIK10KeyWrapperIN6il2cpp5utils13dynamic_arrayIPK10Il2CppTypeLj4EEEEPFvvEEESA_NS3_8metadata19Il2CppSignatureHashEN14dense_hash_mapISA_SD_SG_NSA_14EqualsComparerINSF_22Il2CppSignatureCompareEEENS0_9allocatorISE_EEE9SelectKeyESK_SM_EC2EjRKSG_RKSK_RKSO_
ZBa:__ZN15RenderNodeQueue7CleanupEv
xIg:__ZL66RuntimePlatform_t4159857903_CustomAttributesCacheGenerator_XBOX360P21CustomAttributesCache
wKd:__ZN16NovodexAllocator8allocateEjPKcS1_i
p7b:__Z17PrepareShadowMapsRK11CullResultsRK11ActiveLightRK10MinMaxAABB
hdn:_DeriveBytes_DeriveIV_m973925711
NAk:_Int32_System_IConvertible_ToSByte_m3133688512
uio:__ZN30dense_hashtable_const_iteratorINSt3__24pairIK10KeyWrapperINS1_IPK11Il2CppImageP11Il2CppClassEEEjEES9_17ReflectionMapHashIS8_EN14dense_hash_mapIS9_jSD_NS9_14EqualsComparerINS0_8equal_toIS8_EEEENS0_9allocatorISB_EEE9SelectKeyESI_SK_EppEv
WTf:__ZN9Scripting11UnityEngine12Experimental23SubsystemDescriptorBase9InitProxyEv
R7b:__ZN9ShaderLab10GrabPassesD2Ev
QJj:_ScrollRect_CalculateOffset_m927043599
uSa:__ZN14Texture2DArray13UploadTextureEv
xFj:_MaskableGraphic_UpdateCull_m2805101913
iuf:_tt_cmap14_done
Wab:__ZN18AwakeFromLoadQueue25RegisterObjectInstanceIDsEv
Fzj:_InputField_UpdateLabel_m1837760870
p7f:_TMP_Text_AddFloatToCharArray_m3062272884
SA:__ZNK27AnimationLayerMixerPlayable11DerivesFromE17ScriptingClassPtr
Rlf:__ZN20TextRenderingPrivate19NativeTextGenerator15InsertCharacterEiPj
lIe:__ZN5physx2Sc5Scene22removeBroadPhaseRegionEj
L0d:__ZN5physx2Cm12RenderBuffer5clearEv
mgi:_Enumerator_get_CurrentValue_m3438280969_gshared
ikj:_SpriteBone_t303320096_marshal_pinvoke_back
Zte:__ZNK5physx2Sc9ClothCore21getStiffnessFrequencyEv
vtd:__ZN11b2RopeJoint24SolveVelocityConstraintsERK12b2SolverData
aVi:_MonoType_get_attributes_m1332507727
WBn:_GUIContent_ClearStaticCache_m1205116045
uXg:__ZL107DownloadHandler_t2937767557_CustomAttributesCacheGenerator_DownloadHandler_InternalGetByteArray_m4277508027P21CustomAttributesCache
Z5c:__ZN24OptimizedPolynomialCurve19BuildOptimizedCurveERK17AnimationCurveTplIfEf
DQe:__ZN5physx13PxsCCDContext14postCCDAdvanceEPNS_10PxBaseTaskE
Z0j:_WindowsIdentity_Dispose_m3466258450
w6i:_BinaryCommon__cctor_m2978407547
h2:__GLOBAL__sub_I_Runtime_Burst_0_cpp
U5b:__Z19GetReflectionSampleRK23ReflectionProbesContextRK22ActiveReflectionProbesRK27PerObjectLightCullingOutputRK10RenderNodejP16ReflectionSample
gGc:__ZN28ReflectionProbeAnchorManager23HandleAnchorDestructionEPK15TransformAccessj
fto:__ZN6il2cpp6icalls8mscorlib6System2IO6MonoIO20GetFileSystemEntriesEP12Il2CppStringS6_iiPi
iPf:__ZL65__ManagedRegistrationHelperFunction_UnityWebRequestAsyncOperationPv
Trm:_UInt16_TryParse_m4139137016
EQc:__Z41MonoBehaviour_Set_Custom_PropUseGUILayoutP12Il2CppObjecth
hpa:__ZN9Scripting11UnityEngine15ResourceRequest12CleanupProxyEv
h7j:_Encoding__ctor_m2997749867
Ulj:_ManagedStreamHelpers_ManagedStreamSeek_m3158782053
Qwn:_ExpressionAssertion_Compile_m2166597834
Trb:__ZN16ScriptingManagerD0Ev
l2j:_Single_System_IConvertible_ToSByte_m1208276900_AdjustorThunk
Tqk:_TlsClientCertificate_ProcessAsSsl3_m3265529850
EGo:__ZN6il2cpp6icalls8mscorlib6System7Convert24InternalFromBase64StringEP12Il2CppStringb
UWe:__ZNK5physx10BPWorkTask7getNameEv
bje:__ZN5physx2Sc8ShapeSim16onResetFilteringEv
ohd:__Z25UpdateOrbitalAndRadialTplIL27ParticleSystemCurveEvalMode0ELS0_1ELS0_0EEvRK11MinMaxCurveS3_S3_S3_S3_S3_S3_R23ParticleSystemParticlesjjRKN4math8float3x3ERKNS6_7affineXERKNS6_7_float4E
Rwo:__ZN30dense_hashtable_const_iteratorINSt3__24pairIK10KeyWrapperINS1_IPKcS4_EEEiEES6_24NamespaceAndNamePairHashN14dense_hash_mapIS6_iS9_NS6_14EqualsComparerI26NamespaceAndNamePairEqualsEENS0_9allocatorIS8_EEE9SelectKeyESD_SF_EppEv
MTc:__Z44Register_UnityEngine_Component_get_transformv
Ltc:__Z39GameObject_CUSTOM_FindGameObjectWithTagP12Il2CppString
yG:__ZN12_GLOBAL__N_120ProcessPlayableGraphERN8Animator11AnimatorJobER35AnimationPlayableEvaluationConstantR32AnimationPlayableEvaluationInputR33AnimationPlayableEvaluationOutputPFvS4_R17AnimationPlayableEPFvS4_S6_S8_EPFvS8_S4_S6_S8_fESE_MS9_FvPS3_PS5_PS7_E
oyk:_TextInfo_ToLower_m2744057472
eZb:__ZN17ArchiveFileSystem12MountArchiveEPKcS1_
X5n:__ZN14dense_hash_mapI10KeyWrapperIP9FieldInfoEiN6il2cpp5utils11PointerHashIS1_EENS3_14EqualsComparerINSt3__28equal_toIS2_EEEENS9_9allocatorINS9_4pairIKS3_iEEEEE15set_deleted_keyERSF_
V8l:_EqualityComparer_1_System_Collections_IEqualityComparer_Equals_m3977314386_gshared
N_c:__Z18Transfer_BlittableI9JSONWriteLb1E8Vector4fEvRK29SerializationCommandArgumentsR31RuntimeSerializationCommandInfo
J7:__Z11RequireTypePKcS0_S0_
uuk:_CCGregorianCalendar_year_from_fixed_m463929682
rBf:__ZN2UI13CanvasManagerD0Ev
Ark:_TlsServerHello_Update_m3935081401
Rdj:_Debug_get_unityLogger_m2239795986
pBm:_ReadOnlyCollection_1_System_Collections_IEnumerable_GetEnumerator_m2123446296_gshared
Qkk:_MD2Managed_Initialize_m2341076836
_Jm:_ReadOnlyCollection_1_System_Collections_IList_Add_m4240023232_gshared
rnb:__ZN9GfxDevice15ImmediateVertexEfff
Nhg:_U3CU3Ec__Iterator0_Reset_m4207183941
wYa:__ZNK16LightmapSettings22GetTypeVirtualInternalEv
U1f:_TMP_Style_set_name_m734708838
TXk:_Array_Sort_TisUIVertex_t4057497605_TisUIVertex_t4057497605_m4243853890_gshared
xPb:__ZN13GfxDeviceGLES15SetStencilStateEPK18DeviceStencilStatei
UPk:_Buffer_BlockCopyInternal_m418318694
KQo:_cycle
uGo:__ZN6il2cpp2vm8Profiler7GCEventE13Il2CppGCEvent
Rki:__Z76RuntimeInvoker_Void_t1185182177_RuntimeObject_RuntimeFieldHandle_t1871169219PFvvEPK10MethodInfoPvPS4_
qwm:_Collection_1_ConvertItem_m4023613763_gshared
xph:_TextMeshPro_GetTextInfo_m3192935234
O8m:_Rijndael_Create_m3053077028
se:_emscripten_glUniform1iv
bqb:__ZN13ComputeShader14SetBufferParamEjRKN9ShaderLab16FastPropertyNameE15ComputeBufferIDb
unm:_Thread_get_ManagedThreadId_m1068113671
Qvd:__ZN15b2DistanceProxy3SetEPK7b2Shapei
NUj:_Array_InternalArray__IndexOf_TisKeyValuePair_2_t1383673463_m3347832327_gshared
ikb:__ZN16MemoryFileSystemD2Ev
gli:__Z150RuntimeInvoker_Int32_t2950945753_RuntimeObject_Int32_t2950945753_Int32_t2950945753_RuntimeObject_Int32_t2950945753_Int32_t2950945753_Int32_t2950945753PFvvEPK10MethodInfoPvPS4_
J7f:_TMP_Text_GetPreferredValues_m2784517200
K4k:_DateTime_Parse_m3729096069
Rnh:_MaterialReferenceManager_TryGetMaterial_m183071449
ORm:_List_1_System_Collections_IList_Add_m1540114404_gshared
s1f:_TMP_SpriteAnimator_Awake_m377449737
qHa:__ZN16GraphicsSettings27SetLightsUseLinearIntensityEb
ZBd:__ZN29b2InitializeContactSolverTask7TaskJobEPS_j
qGc:__ZZN8Renderer15InitializeClassEvEN32FunctorImpl_146kCullSceneChanged4CallEPviR11MessageData
TRi:_StringReader_Read_m3322058819
uQh:_CrossAppDomainChannel_get_ChannelPriority_m3418073750
tCj:_Selectable_StartColorTween_m3618813981
ysh:_BaseInputModule_HandlePointerExitAndEnter_m1705532066
_gf:__ZN5physx7profile8ZoneImplINS_28PxProfileNameProviderForwardEE10startEventEty
XQe:__ZN5physx10PxsCCDPair17sweepAdvanceToToiEfb
Mgc:__Z23ConvertIntegerToTypePtrItEbPvR14SafeBinaryRead
Pdl:_Delegate_CombineImpl_m3572135514
NHc:__Z13RegisterClassI15EditorExtensionEvPKc
mXi:_NumberFormatter_IntegerToString_m1679294587
lHm:_ReadOnlyCollection_1_System_Collections_IList_RemoveAt_m422909114_gshared
kH:__ZN7mecanim5human29HumanGetGoalOrientationOffsetENS0_4GoalE
Je:_emscripten_glStencilFunc
die:__ZN5physx6shdfnd8PoolBaseINS_2Cm5BlockIhLj384EEENS0_19ReflectionAllocatorIS4_EEE17releaseEmptySlabsEv
Z4e:__ZN5physx16PxsIslandManager11freeBuffersEv
ACm:_ReadOnlyCollection_1_System_Collections_IList_Contains_m1942059508_gshared
njf:__ZN5Unity12PhysicsQuery21OverlapBoxUserCollectERK8Vector3fS3_RK11Quaternionfi23QueryTriggerInteractionRN8IPhysics12IUserCollectE
Enc:__ZN9ShaderLab20SerializedSubProgram14AddMatrixParamEPKcii15ShaderParamTypei
Qe:_glGetActiveUniformBlockName
Xz:__ZN7mecanim13CopyValueMaskILb0EEEvPKNS_14ValueArrayMaskEPS1_
N0f:_TMP_Settings_get_enableWordWrapping_m1488159339
dQl:_List_1_set_Item_m1240329677_gshared
jxn:_Parser_IsIgnoreCase_m2210120858
Fkd:__ZN31CollisionModulePropertyBindings13GetFloatValueERK14ParticleSystemi
O$j:_SecurityPermission_IsSubsetOf_m545000671
kPj:_Array_InternalArray__ICollection_Remove_TisLink_t3209266973_m897088622_gshared
Kcb:__ZN27UnloadUnusedAssetsOperationD0Ev
ZO:__ZN4FMOD7Channel20set3DConeOrientationEP11FMOD_VECTOR
so:FUNCTION_TABLE_iiifii
S_i:_AssemblyBuilder_not_supported_m1735277432
rAo:__ZN6il2cpp2vm12GenericClass11SetupEventsEP11Il2CppClass
Kmf:_ft_open_face_internal
Guf:_tt_cmap12_get_info
lWk:_Hashtable_get_Keys_m625158339
$vo:__ZN6il2cpp2vm15ReboxIReferenceEP14Il2CppIUnknownP11Il2CppClass
k$n:__ZN6il2cpp6icalls8mscorlib6System7Decimal14decimalCompareEP19il2cpp_decimal_reprS5_
z$l:_Dictionary_2_OnDeserialization_m4209543208_gshared
cHo:__ZThn4_N6il2cpp2vm13CachedCCWBaseINS0_13ManagedObjectEE7ReleaseEv
lde:__ZN5physx26PxcFsComputeJointLoadsSimdERKNS_9PxcFsDataEPKNS_12PxcFsInertiaEPNS_6shdfnd3aos6Mat33VEPKfjjNS_21PxcFsScratchAllocatorE
QCe:__ZN5physx6shdfnd8SyncImpl7getSizeEv
eYj:_RNGCryptoServiceProvider_GetNonZeroBytes_m1918423726
ugd:__Z25UpdateOrbitalAndRadialTplIL27ParticleSystemCurveEvalMode2ELS0_3ELS0_2EEvRK11MinMaxCurveS3_S3_S3_S3_S3_S3_R23ParticleSystemParticlesjjRKN4math8float3x3ERKNS6_7affineXERKNS6_7_float4E
I0o:_glCopyTexImage2D__wrapper
GId:__ZN16PhysicsManager2D11CreateWorldERK8Vector2f
UAh:_FloatTween_TweenValue_m52237061
K_f:_TMP_InputField_AdjustRectTransformRelativeToViewport_m2545853035
xMb:__Z18ClearByDrawingQuad13GfxClearFlagsRK10ColorRGBAffjR17ShaderPassContext
Gja:__ZN6prcoreL17RemapGenericFloatI14TexFormatRHalf15TexFormatRFloatEEvPKNS_9InnerInfoE
KXi:_NumberFormatter_FormatExponential_m2139559983
zoi:__Z155RuntimeInvoker_Void_t1185182177_RuntimeObject_SByte_t1669577662_SByte_t1669577662_Int64U26_t200113976_ObjectU26_t2146539884_SerializationInfoU26_t419328957PFvvEPK10MethodInfoPvPS4_
nga:__ZN15DirectorManager21RebuildStageCallbacksEv
PMb:__ZN19RuntimeSceneManager9LoadSceneERKN4core12basic_stringIcNS0_20StringStorageDefaultIcEEEES6_S6_RK9UnityGUIDiNS_11LoadingModeE
Sol:_Enumerator_Reset_m1756580451_gshared
Tdj:_Application_Internal_ApplicationQuit_m2936209313
fSb:__ZN7ApiGLES10DrawArraysE16GfxPrimitiveTypejjj
TS:__ZN10SampleClip13LoadBaseSoundEv
zRd:__ZN5physx2Gu22gjkRelativePenetrationINS0_17ShrunkConvexHullVES2_EEjRKT_RKT0_RKNS_6shdfnd3aos15PsMatTransformVERKNSA_6FloatVERNSA_5Vec3VESI_SI_RSE_PhSK_Rh
DKk:_SmallXmlParser_SkipWhitespaces_m4243606597
TSk:_ArrayList_Sort_m4234055499
Dvb:__ZN14SafeBinaryRead21TransferSTLStyleArrayI13dynamic_arrayI10Matrix4x4fLj0EEEEvRT_17TransferMetaFlags
wQk:_Byte_CompareTo_m4285128861
Pth:_TriggerEvent__ctor_m87299207
$Tf:__ZN9Scripting11UnityEngine12Experimental27Internal_SubsystemInstances12CleanupProxyEv
pW:__Z57AudioSource_CUSTOM_INTERNAL_CALL_ClearExtensionPropertiesP12Il2CppObjectRK12PropertyName
kAo:__ZN15dense_hashtableINSt3__24pairIK10KeyWrapperIP12Il2CppObjectEN6il2cpp2gc9CachedCCWEEES5_NS7_5utils11PointerHashIS3_EEN14dense_hash_mapIS5_S9_SD_NS5_14EqualsComparerINS0_8equal_toIS4_EEEENS0_9allocatorISA_EEE9SelectKeyESI_SK_E15insert_noresizeERKSA_
lnd:__ZL17DrawMeshParticlesILb0EL25ParticleSystemRenderSpace3EEvRK26ParticleSystemTempMeshDataRK22ParticleSystemTempDataRK23ParticleSystemParticlesRK31ParticleSystemParticlesTempDataRK26ParticleSystemRendererDataRK21ParticleSystemModulesPfPv
Eyl:_Transform_1_Invoke_m2167534993_gshared
X5e:__ZN5physx2Sc19ParticlePacketShapeC2ERNS0_17ParticleSystemSimEjPNS_16PxvParticleShapeE
T4f:_TMP_Text_set_paragraphSpacing_m3392922741
OQa:__ZN22DeviceMVPMatricesStateC2ER9GfxDevice
s8f:_TMP_Text_PackUV_m2186616011
Vdd:__Z9UpdateTplIL27ParticleSystemCurveEvalMode1EEvRK11MinMaxCurveS3_S3_R23ParticleSystemParticlesjjRKN4math8float3x3ERKNS6_7_float4E
Vme:__ZN5physx9NpPhysics18createTriangleMeshERNS_13PxInputStreamE
Eo:FUNCTION_TABLE_iiiiifiiiif
_n:FUNCTION_TABLE_iifii
_Uk:_Comparer_Compare_m3984347512
pmo:__ZN6il2cpp2vm10Reflection12HasAttributeEP9FieldInfoP11Il2CppClass
ira:__ZN9Scripting11UnityEngine12Experimental9Rendering11CullResults9InitProxyEv
Rc:invoke_viiifi
tAc:__Z13RegisterClassI6SpriteEvPKc
ULh:_MonoProperty_GetCustomAttributes_m3619796755
faf:__ZN5physx6shdfnd5ArrayIPNS_7PxActorENS0_19ReflectionAllocatorIS3_EEE8recreateEj
HUh:_MethodDictionary_System_Collections_IEnumerable_GetEnumerator_m4169036899
Byl:_Transform_1_BeginInvoke_m1042516857_gshared
x9m:_RIPEMD160Managed_JJJ_m4161373884
G3l:_DefaultComparer_Equals_m3257444875_gshared
_f:_JS_Sound_SetPosition
GLa:__ZN19RenderBufferManager13GetTempBufferEii17DepthBufferFormat19RenderTextureFormatj22RenderTextureReadWrite14VRTextureUsagei23RenderTextureMemoryless
jao:__ZL13GetSharedInstPK17Il2CppGenericInst
cGa:__Z27ConvertSubMeshesToTrianglesIjEvR13dynamic_arrayI7SubMeshLj0EERS0_IhLj0EE
J5n:__ZNK15dense_hashtableINSt3__24pairIK10KeyWrapperIPKcEP11Il2CppClassEES5_N6il2cpp5utils11StringUtils12StringHasherIS4_EEN14dense_hash_mapIS5_S8_SE_NS5_14EqualsComparerINSB_13VmStringUtils21CaseSensitiveComparerEEENS0_9allocatorIS9_EEE9SelectKeyESJ_SL_E3endEv
gKf:__ZN22BaseUnityConnectClient17SaveSessionValuesEv
n$h:_InternalEnumerator_1_get_Current_m476140818_gshared
mqe:__ZNK5physx7NpCloth14getNbParticlesEv
Zei:_Enumerator_System_Collections_IEnumerator_get_Current_m1741827799_gshared
O2d:__ZN5physx2Sc10NPhaseCore24releaseShapeInstancePairEPNS0_19ShapeInstancePairLLEjj
Y7b:__Z24SetupActiveLightsContextR21ActiveLightingContextRK12ActiveLightsRK11CullResultsP14ShadowMapCacheRK10MinMaxAABB
mrc:__Z38Sprite_CUSTOM_INTERNAL_get_textureRectP12Il2CppObjectP5RectTIfE
_tc:__ZN9TextAsset7SetTextERKN4core12basic_stringIcNS0_20StringStorageDefaultIcEEEE
LAa:__ZN6Camera8TransferI24GenerateTypeTreeTransferEEvRT_
Ua:invoke_iiiiiiif
Na:invoke_iiiiiiii
Wfm:_Array_InternalArray__set_Item_TisByte_t1134296376_m3104140039_gshared
upi:__Z194RuntimeInvoker_Int32_t2950945753_RuntimeObject_Int32_t2950945753_Int32_t2950945753_RuntimeObject_Int32_t2950945753_SByte_t1669577662_Int32U26_t1369213839_BooleanU26_t4125257963_SByte_t1669577662PFvvEPK10MethodInfoPvPS4_
Ldn:_PKCS12_GetBytes_m415958948
M$b:__ZN8Renderer17PendingAddToSceneEv
Mie:__ZN5physx7NpActor18releaseConstraintsERNS_12PxRigidActorE
R0d:__ZN5physx6shdfnd5ArrayINS_11PxDebugLineENS0_19ReflectionAllocatorIS2_EEE8recreateEj
Z2o:b125
Y2o:b124
Y3o:b127
X3o:b126
u4o:b129
nsc:__Z52Register_UnityEngine_RectTransform_INTERNAL_get_rectv
BSc:__Z38Material_CUSTOM_SetMatrixImpl_InjectedP12Il2CppObjectiRK10Matrix4x4f
t7:__Z21PostprocessStacktracePKcRN4core12basic_stringIcNS1_20StringStorageDefaultIcEEEE
g$g:__ZL73ContactFilter2D_t3805203441_CustomAttributesCacheGenerator_minNormalAngleP21CustomAttributesCache
Vlj:_ManagedStreamHelpers_ManagedStreamLength_m2930872960
Zrc:__Z43RectTransform_CUSTOM_INTERNAL_get_anchorMinP12Il2CppObjectP13Vector2fIcall
BAe:__ZNK5physx14NpRigidDynamic25getContactReportThresholdEv
fGk:_FileStreamAsyncResult_CBWrapper_m1670848754
Pvc:__Z47Register_UnityEngine_Camera_get_allCamerasCountv
vv:__ZN16MecanimAnimation25RegisterIAnimationBindingEPKN5Unity4TypeEiP17IAnimationBinding
RLc:__ZNSt3__26vectorIj13stl_allocatorIjL18MemLabelIdentifier1ELi16EEE6assignIPKtEENS_9enable_ifIXaasr21__is_forward_iteratorIT_EE5valuesr16is_constructibleIjNS_15iterator_traitsIS9_E9referenceEEE5valueEvE4typeES9_S9_
PF:__ZN7mecanim9animation16EvaluateAvatarIKEPKNS0_14AvatarConstantEPKNS0_11AvatarInputEPNS0_12AvatarOutputEPNS0_12AvatarMemoryEPNS0_15AvatarWorkspaceEb
cC:__ZN26AnimatorControllerPlayable10GetIntegerEiRi
z1e:__Z22updateIslandsToProcessRKN5physx2Cm10BitMapBaseINS_6shdfnd9AllocatorEEEPKjRKNS_11NodeManagerERS4_
Y_b:__ZN12InputManager13InputEndFrameEv
Cqh:_TextMeshProUGUI_UpdateMaterial_m902456839
noj:_Object_get_name_m4211327027
Hpo:__ZN6il2cpp2vm6Thread5SetupEP12Il2CppThread
aNd:__ZN8Collider30GetRelativePositionAndRotationERK9TransformR10Matrix4x4f
bRe:__ZN5physx35PxcSweepEstimateAnyShapeHeightfieldERKNS_11PxsCCDShapeES2_PKNS_12PxsRigidBodyES5_RKNS_11PxTransformES8_f
sql:_Enumerator_System_Collections_IDictionaryEnumerator_get_Key_m2500634048_gshared
c1d:__ZN5physx3Cct13BoxControllerC2ERKNS_16PxControllerDescERNS_9PxPhysicsEPNS_7PxSceneE
y1n:_NativeNameAttribute__ctor_m3296876808
PRo:___munmap
Rml:_RSAManaged_get_PublicOnly_m595121416
Rg:_localtime_r
l0b:__ZN22RenderingCommandBuffer13GetAndCheckRTE24BuiltinRenderTextureTypeRKN9ShaderLab16FastPropertyNameEPKcPP13RenderTexture
Qcd:__ZN14ParticleSystem13KillParticlesILb1EEEvRjbR24ParticleSystemUpdateDataR23ParticleSystemParticlesjPj
aod:__Z16UpdateSpritesTplIL27ParticleSystemCurveEvalMode3EEvfRK11MinMaxCurveS3_RK23ParticleSystemParticlesPf
Z2:__Z19free_alloc_internalPv10MemLabelId
C3n:__ZNSt3__26vectorIjNS_9allocatorIjEEE6resizeEj
Yu:__ZN9Scripting11UnityEngine10Animations18PositionConstraint9InitProxyEv
Ug:_strftime
XLa:__ZN7Texture33SetStoredColorSpaceNoDirtyNoApplyE17TextureColorSpace
YNh:_ResourceSet__ctor_m3618395942
ycl:_Decimal_System_IConvertible_ToDouble_m3125524987_AdjustorThunk
gca:__ZN12FileAccessorD2Ev
rGa:__ZN14VertexDataInfoC2Ev
lCo:__ZN6il2cpp2gc16GarbageCollector14CollectALittleEv
BJc:__ZNK9HPlayable15GetPlayableTypeEv
NDb:__ZL17Transfer_GUIStyleI18StreamedBinaryReadILb1EELb1EEvRK29SerializationCommandArgumentsR31RuntimeSerializationCommandInfo
Mcd:__ZNSt3__227__insertion_sort_incompleteIR31SortCollisionEventsByGameObjectP22ParticleCollisionEventEEbT0_S5_T_
KGj:_RectMask2D_IsRaycastLocationValid_m1652308696
w5:__ZNSt3__26__treeINS_12__value_typeIPKciEENS_19__map_value_compareIS3_S4_15compare_tstringIS3_ELb1EEENS_9allocatorIS4_EEE21__emplace_unique_implIJNS_4pairIPciEEEEENSD_INS_15__tree_iteratorIS4_PNS_11__tree_nodeIS4_PvEEiEEbEEDpOT_
Nfi:_Enumerator_System_Collections_IDictionaryEnumerator_get_Value_m1780001393_AdjustorThunk
Tdo:__ZN6il2cpp6icalls8mscorlib6SystemL9IsPrivateEPK12PropertyInfo
Udn:_X501_ToString_m1148552872
hRe:__ZNK5physx18PxcConvexTriangles16getPolygonNormalEj
Yuj:_RectTransform_add_reapplyDrivenProperties_m1374850920
H6:__ZN9shadertag10InitializeEv
$ff:__ZN5physx24NpPtrTableStorageManager8canReuseEjj
vjf:__GLOBAL__sub_I_Modules_Terrain_Public_1_cpp
CWa:__ZN15QualitySettings14QualitySetting8TransferI24GenerateTypeTreeTransferEEvRT_
YFn:_UnityWebRequest_get_isHttpError_m797082501
rFe:__ZN5physx2Sc27ConstraintProjectionManager33processConstraintForGroupBuildingEPNS0_13ConstraintSimERNS0_20ScratchAllocatorListIS3_Lj64EEE
mzf:__Z28Font_Get_Custom_PropMaterialP12Il2CppObject
a8k:_Convert_ToSingle_m835189399
bpc:__ZN22BlockMemoryCacheWriter14LockCacheBlockEjPPhS1_
UAf:__ZN9Scripting11UnityEngine8Tilemaps8TileData12CleanupProxyEv
vDe:__ZN5physx2Cm29ConstraintImmediateVisualizer19visualizeDoubleConeERKNS_11PxTransformEfb
Otm:_UInt64_ToString_m2177233542
su:__ZN9Scripting11UnityEngine21StateMachineBehaviour9InitProxyEv
y2c:__Z22TransferField_NonArrayI8JSONRead27Converter_SimpleNativeClassI8GUIStyleEEvRK23StaticTransferFieldInfoR31RuntimeSerializationCommandInfoRT0_
rWd:__ZN5physx6shdfnd5ArrayINS_13PxExtendedBoxENS0_19ReflectionAllocatorIS2_EEE8recreateEj
Sra:__ZN9Scripting11UnityEngine26ExcludeFromPresetAttribute9InitProxyEv
Z6d:__ZN5physx6shdfnd5ArrayIPvNS0_19ReflectionAllocatorINS_2Cm5BlockIS2_Lj16EEEEEE4copyINS0_15InlineAllocatorILj256ES7_EEEEvRKNS1_IS2_T_EE
zh:_llvm_eh_typeid_for
h1o:_glGetUniformLocation__wrapper
v5i:_RemotingServices_FindInterfaceMethod_m2125212568
pD:__ZNK23AnimationPlayableOutput7GetTypeEv
ZFe:__ZN5physx7NpScene19getActiveTransformsERjh
$Hk:_StreamWriter__cctor_m1229272693
nJc:__ZN13RendererScene38UpdatePreviousFrameDataForRendererTypeEii12RendererType
y3e:__ZN5physx6shdfnd5ArrayIPKNS_24PxsIndexedContactManagerENS0_19ReflectionAllocatorIS4_EEE8recreateEj
wCi:__Z109RuntimeInvoker_RuntimeObject_Ray_t3785851493_Single_t1397266774_Int32_t2950945753_RuntimeObject_RuntimeObjectPFvvEPK10MethodInfoPvPS4_
XPe:__ZN5physx6shdfnd8internal8HashBaseIjjNS0_4HashIjEENS1_11HashSetBaseIjS4_NS0_9AllocatorELb0EE6GetKeyES6_Lb0EE6createERKjRb
cGb:__Z18Transfer_BlittableI18StreamedBinaryReadILb0EELb1E8Vector4fEvRK29SerializationCommandArgumentsR31RuntimeSerializationCommandInfo
Okf:__ZN14SafeBinaryRead21TransferSTLStyleArrayI13dynamic_arrayIN4core17string_with_labelILi35EEELj0EEEEvRT_17TransferMetaFlags
qPn:__ZL25UnresolvedVirtualCall_142P12Il2CppObject17Color_t2555686324faaaPK10MethodInfo
f3l:_Dictionary_2_U3CCopyToU3Em__0_m2023886030_gshared
cvl:_ShimEnumerator_MoveNext_m1353453605_gshared
t3o:_glBindVertexArray__wrapper
Ccf:__ZN5physx6shdfnd5ArrayINS_11RTreeNodeNQENS0_19ReflectionAllocatorIS2_EEE19resizeUninitializedEj
K3d:__ZNK5physx2Sc16InteractionScene18getLLIslandManagerEv
r7i:_SerializationInfo__ctor_m2923079689
ePa:__ZN8Material8TransferI14SafeBinaryReadEEvRT_
GQe:__ZN5physx17PxcNpMemBlockPool34acquireExceptionalConstraintMemoryEj
wTa:__ZN12CubemapArray17UploadToGfxDeviceEv
fAk:_Int32_JumpOverWhite_m208298144
SRe:__ZN5physxL23PxcSweepConvexTrianglesERKNS_11PxsCCDShapeES2_RKNS_11PxTransformES5_S5_S5_fRNS_6PxVec3ES7_RNS_10PxcNpCacheERNS_18PxcNpThreadContextERKNS_2Cm23FastVertex2ShapeScalingERNS_2Gu9TriangleVEf
roe:__ZNK5physx7NpShape16getPlaneGeometryERNS_15PxPlaneGeometryE
uJi:__Z53RuntimeInvoker_Int32_t2950945753_UIVertex_t4057497605PFvvEPK10MethodInfoPvPS4_
j2o:_emscripten_glGetUniformiv__wrapper
XGo:__ZN6il2cpp2vm13ManagedObject14QueryInterfaceERK10Il2CppGuidPPv
Mcf:__ZN5physx27InternalTriangleMeshBuilder14fillRemapTableEv
GP:__ZN11AudioSource4StopEb
kbe:__ZN5physx6shdfnd8PoolBaseINS_13NpRigidStaticENS0_19ReflectionAllocatorIS2_EEE17releaseEmptySlabsEv
zLk:_AppDomain_LoadAssembly_m1557889794
trb:__ZN18GlslGpuProgramGLESD2Ev
mec:__ZN13RenderTexture14SetVolumeDepthEi
jhf:__ZThn116_NK5physx7profile8ZoneImplINS_28PxProfileNameProviderForwardEE10hasClientsEv
$Ze:__ZN5physx2Gu20pcmContactCapsuleBoxERKNS0_13GeometryUnionES3_RKNS_11PxTransformES6_RKfRNS0_5CacheERNS0_13ContactBufferE
Nti:__Z86RuntimeInvoker_Void_t1185182177_UInt16_t2177724958_SByte_t1669577662_SByte_t1669577662PFvvEPK10MethodInfoPvPS4_
rnc:__Z22LoadGpuProgramFromDataPKhS0_Rj
c3c:__ZN10Matrix4x4f8TransferI8JSONReadEEvRT_
CFb:__Z15Transfer_StringI18StreamedBinaryReadILb0EELb0EEvRK29SerializationCommandArgumentsR31RuntimeSerializationCommandInfo
tGj:_PositionAsUV1_ModifyMesh_m4231919476
aWk:_Hashtable__ctor_m1941859523
q5b:__Z26FindForwardLightsForObjectR13dynamic_arrayIhLj0EEPK11CulledLightjRK12ActiveLightsRK10RenderNodePK19ShaderPropertySheetbRK23FindForwardLightsParamsf
Una:__ZL44__ManagedRegistrationHelperFunction_GPUFencePv
pJj:_ScrollRect_set_horizontalScrollbarSpacing_m2209919081
hWb:__ZN25TransformFeedbackSkinning31CleanupTransformFeedbackShadersEv
lqm:_Type_GetTypeCodeInternal_m1968182887
sBa:__Z22scripting_object_unbox18ScriptingObjectPtr
Tlf:__ZNK20TextRenderingPrivate8FontImpl19GetCharacterAdvanceEjijfPj
sNo:__ZN6il2cpp6icalls8mscorlib4Mono8Security12Cryptography18KeyPairPersistence16_IsUserProtectedEP12Il2CppString
P0f:_TMP_Settings_get_enableExtraPadding_m167438525
lQo:_fmt_u
E_a:__ZN10VertexData8TransferI18StreamedBinaryReadILb0EEEEvRT_
_ae:__ZN5physx2Sc5Scene9addStaticERNS0_10StaticCoreEPKPvjj
nPo:__ZN6il2cpp8metadata25Il2CppGenericClassCompare7CompareEPK18Il2CppGenericClassS4_
CFh:_HorizontalOrVerticalLayoutGroup_set_childForceExpandHeight_m1754245348
bGf:__ZN2UI29ResetVRScreenSpaceWarningFlagEv
IVi:_MonoType_get_Assembly_m4290914179
aoc:__ZN9ShaderLab7ProgramC2E10MemLabelIdi10ShaderType
xec:__ZN14PreloadManager16UpdatePreloadingEv
tza:__ZN12BaseRendererD2Ev
Ztc:__ZNSt3__26vectorI4PPtrI10MonoScriptE13stl_allocatorIS3_L18MemLabelIdentifier79ELi16EEE6insertENS_11__wrap_iterIPKS3_EERS9_
xXf:_TMP_InputField_set_caretWidth_m141005399
FMe:__ZN5physx2Sc5Scene9addShapesEPKPvjjRNS0_8RigidSimEPNS_12PxsRigidBodyERPNS0_8ShapeSimEPNS_9PxBounds3E
lhm:_Array_InternalArray__set_Item_TisUILineInfo_t4195266810_m2313892078_gshared
ZVn:_U3CDefaultUnityWebRequestU3Ed__0_System_Collections_IEnumerator_Reset_m2946020892
Ezj:_InputField_SendOnValueChanged_m2560301445
RYe:__ZN5physx23PxcPCMContactConvexMeshERKNS_2Gu13GeometryUnionES3_RKNS_11PxTransformES6_RKfRNS_10PxcNpCacheERNS0_13ContactBufferE
Jhc:__ZNK21UnityDefaultAllocatorI17LowLevelAllocatorE8ContainsEPKv
f9i:_RuntimeTypeHandle_Equals_m2857439487
Ji:_emscripten_get_main_loop_timing
uPh:_SafeHandle_Finalize_m3866180675
BWa:__ZN24GenerateTypeTreeTransfer21TransferSTLStyleArrayINSt3__26vectorIN15QualitySettings14QualitySettingENS1_9allocatorIS4_EEEEEEvRT_17TransferMetaFlags
IGk:_MemoryStream_ToArray_m3911744835
Adc:__ZN23ManagedAttributeManager52CallManagedGetParentTypeDisallowingMultipleInclusionE17ScriptingClassPtr
b6a:__Z10AddGUIAxesR13dynamic_arrayI9InputAxisLj0EE
sqm:_Type_GetHashCode_m1947148725
Xoi:__Z91RuntimeInvoker_Void_t1185182177_RuntimeObject_RuntimeObject_RuntimeObject_SByte_t1669577662PFvvEPK10MethodInfoPvPS4_
eeb:__ZNK2UI13RectTransform22GetTypeVirtualInternalEv
p5c:__ZNK15PolynomialCurve18EvaluateIntegratedERKN4math7_float4E
Kq:getTempRet0
wkd:__ZN26SizeModulePropertyBindings13GetFloatValueERK14ParticleSystemi
LKl:_Enumerator_System_Collections_IEnumerator_Reset_m2394182378_AdjustorThunk
Qsh:_BaseRaycaster_OnEnable_m2678466030
qDl:_ValueCollection__ctor_m825399723_gshared
djj:_UnityEventBase__ctor_m1851535676
cYk:_Array_Sort_TisVector4_t3319028937_m2797285308_gshared
Oqk:_HandshakeMessage_Update_m2417837686
Q0n:_Physics_RaycastAll_m3796226007
Dso:__ZN6il2cpp6icalls8mscorlib6System9ThreadingL21lookup_cached_cultureEP12Il2CppThreadi
EMn:_NetFxCoreExtensions_CreateDelegate_m751211712
V8b:__ZN18DeferredRenderLoopD2Ev
n_n:_AnimationLayerMixerPlayable__cctor_m4086299972
rua:__ZNK16TypeTreeIterator4NameEv
Gba:__ZN15FileSystemEntry3SetEPKc
V3e:__ZN5physx6shdfnd5ArrayIPNS_13PxcNpMemBlockENS0_19ReflectionAllocatorIS3_EEE6resizeEjRKS3_
Qwc:__Z52Register_UnityEngine_Application_set_targetFrameRatev
WCm:_ReadOnlyCollection_1_System_Collections_Generic_IListU3CTU3E_Insert_m568455025_gshared
GO:__ZN20SoundChannelInstance15ParameterBuffer5ApplyEPN4FMOD7ChannelE
D2m:_Collection_1_CheckWritable_m2727304722_gshared
jak:_IPv6Address__ctor_m4117281080
gXf:_SelectionEvent__ctor_m3977662582
w7k:_Convert_ToInt64_m2075293963
Qlf:__ZN20TextRenderingPrivate19NativeTextGenerator9InsertTabEv
GUo:_sbrk
Hdd:__Z13DragUpdateTplIL27ParticleSystemCurveEvalMode2EEvRK11MinMaxCurvebbR23ParticleSystemParticlesjjRKN4math7_float4E
IM:__ZL49__ManagedRegistrationHelperFunction_AudioSettingsPv
Rgf:__ZN5physx7profile8ZoneImplINS_28PxProfileNameProviderForwardEE21setProfileZoneManagerEPNS_20PxProfileZoneManagerE
GLf:__ZN11UnityEngine15PlatformWrapper24GetRuntimePlatformStringEv
tj:_glIsEnabled
M_d:__ZN5physx3Cct17CapsuleController15setFootPositionERKNS_14PxExtendedVec3E
QTd:__ZN5physx2Gu33PCMCapsuleVsMeshContactGeneration13generateEEMTDERKNS_6shdfnd3aos5Vec3VES6_RKNS3_6FloatVES6_jS6_S6_PNS0_21MeshPersistentContactERj
X_i:_DerivedType__ctor_m1853298054
pub:__Z25scripting_class_get_image17ScriptingClassPtr
q_a:__ZN10SpriteBone8TransferI24GenerateTypeTreeTransferEEvRT_
KVl:_List_1_RemoveAt_m2730968292_gshared
L8a:__ZNSt3__26vectorIN4core12basic_stringIcNS1_20StringStorageDefaultIcEEEE13stl_allocatorIS5_L18MemLabelIdentifier13ELi16EEEC2INS_11__wrap_iterIPS5_EEEET_SE_RKS8_PNS_9enable_ifIXaasr21__is_forward_iteratorISE_EE5valuesr16is_constructibleIS5_NS_15iterator_traitsISE_E9referenceEEE5valueEvE4typeE
xj:_emscripten_glDrawElementsInstanced
_B:__ZN26AnimatorControllerPlayable27SetupStateMachineBehavioursEv
xkk:_KeyBuilder_get_Rng_m983065666
zKg:__ZL48Mathf_t3464937446_CustomAttributesCacheGeneratorP21CustomAttributesCache
NIg:__ZL79Camera_t4157153871_CustomAttributesCacheGenerator_Camera_RaycastTry_m3913529496P21CustomAttributesCache
HDj:_LayoutGroup_get_preferredWidth_m3816902260
Iqh:_TextMeshProUGUI_Cull_m2430697619
bKa:__ZN18JobBatchDispatcherD2Ev
$db:__ZN9Transform17MainThreadCleanupEv
u4l:_DefaultComparer_Equals_m1870794912_gshared
LJo:_GC_clear_hdr_marks
rpd:__Z17UpdateSprites2TplIL27ParticleSystemCurveEvalMode1ELS0_4EEvfRK11MinMaxCurveS3_RK23ParticleSystemParticlesPf
N5f:_TMP_Text_get_pageToDisplay_m1088040628
Lof:_cff_fd_select_get
xMj:_Text_set_resizeTextForBestFit_m4095249125
sck:_OidEnumerator_MoveNext_m3138911739
Ij:_emscripten_glGetShaderiv
ZP:__ZN4FMOD6System10getVersionEPj
Q4e:__ZN5physx2Sc7BodySim10sleepCheckEffb
kCf:__ZN2UI6Canvas23VirtualRedirectTransferER24GenerateTypeTreeTransfer
GKj:_Selectable_set_animationTriggers_m2970345687
Feg:_JSONLazyCreator_get_AsFloat_m3551746937
G0c:__ZN9JSONWrite8TransferIN4math12int2_storageEEEvRT_PKc17TransferMetaFlags
Akf:__ZN13TextRendering4Font13AwakeFromLoadE17AwakeFromLoadMode
uvk:_CompareInfo_LastIndexOf_m2688553706
P3o:_emscripten_glCullFace__wrapper
nmb:__ZN9GfxDevice21ReleaseSharedMeshDataEP14SharedMeshData
Fvh:_MouseState__ctor_m1467839005
$xn:_Uri_IsDomainAddress_m2867513594
M7a:__ZNSt3__27__sort5IRNS_6__lessINS_4pairIPKN5Unity4TypeE7Hash128EES8_EEPS8_EEjT0_SC_SC_SC_SC_T_
ACh:_Dropdown_CreateItem_m2954407740
SIo:_GC_unreachable_finalize_mark_proc
xrj:_PlayerConnectionInternal_PollInternal_m3759016321
Pdk:_X509Chain_ProcessCrlExtensions_m236234529
Pg:___syscall192
u4k:_Convert_ToByte_m2375887898
N4n:__ZN6il2cpp2vm5Class40GetInterfaceInvokeDataFromVTableSlowPathEPK12Il2CppObjectPK11Il2CppClassj
M7c:__ZN11ShapeModule18MultiModeParameterIN25IParticleSystemProperties8PropertyIfNS1_5ClampILi0ELi360EEEEEE8TransferI24GenerateTypeTreeTransferEEvRT_
asc:__Z43RectTransform_CUSTOM_INTERNAL_get_anchorMaxP12Il2CppObjectP13Vector2fIcall
wje:__ZN5physx14NpShapeManagerC2Ev
O5k:_Decimal_Parse_m942471224
aEa:__ZN8Material28UpdateHashesOnPropertyChangeEN9ShaderLab16FastPropertyNameE
ivc:__Z53Register_UnityEngine_SortingLayer_GetLayerValueFromIDv
cqn:_TMP_UiFrameRateCounter_Awake_m2736519745
$jk:_ASN1_GetBytes_m1968380955
itb:__Z18Transfer_BlittableI14SafeBinaryReadLb1E8Vector4fEvRK29SerializationCommandArgumentsR31RuntimeSerializationCommandInfo
XSf:__ZN13RuntimeStaticINSt3__26vectorI23UnityVRDeviceDefinition13stl_allocatorIS2_L18MemLabelIdentifier90ELi16EEEELb0EE13StaticDestroyEPv
fS:__ZN11AudioSource12AddToManagerEv
Fw:__ZN8Animator23VirtualRedirectTransferER19StreamedBinaryWriteILb0EE
LD:__ZN11UnityEngine9Animation32CreateAnimatorGenericBindingsOptERKNS0_20AnimationSetBindingsER9TransformPKN7mecanim9animation14AvatarConstantEPKNS0_21AvatarBindingConstantEbRNS6_6memory9AllocatorER8Animator
Wwo:__ZN6il2cpp2vm5Image13ClassFromNameEPK11Il2CppImagePKcS6_
zVo:dynCall_vdddddd
zlc:__ZN24GenerateTypeTreeTransfer21TransferSTLStyleArrayINSt3__26vectorIN9ShaderLab14SerializedPassENS1_9allocatorIS4_EEEEEEvRT_17TransferMetaFlags
h7:__ZL32MarkLevelGameManagerDependenciesR27GarbageCollectorThreadState
nRb:__ZNK13GfxDeviceGLES26HasActiveRandomWriteTargetEv
NSk:_ArrayList_CopyTo_m3962521159
eQc:__Z29Matrix4x4_CUSTOM_TRS_InjectedRK8Vector3fRK11QuaternionfS1_R10Matrix4x4f
O_o:_glGetActiveUniformsiv__wrapper
sPa:__ZN14SafeBinaryRead8TransferINSt3__24pairIN9ShaderLab16FastPropertyNameE10ColorRGBAfEEEEvRT_PKc17TransferMetaFlags
VVd:__ZNK5physx3Cct10Controller16getInternalStateERNS_17PxControllerStateE
voj:_Mesh_GetIndices_m2873123901
xef:__ZZN8Collider15InitializeClassEvEN37FunctorImpl_822kForceRecreateCollider4CallEPviR11MessageData
C9:__ZN13MonoBehaviour19SetupScriptingCacheE17ScriptingClassPtrP10MonoScript
e$n:__ZL9rshift128PyS_
UG:__Z20AnimationEventToMonoRK14AnimationEventR18MonoAnimationEvent
pGc:__ZZN8Renderer15InitializeClassEvEN28FunctorImpl_145kLayerChanged4CallEPviR11MessageData
tvh:_PointerEventData_get_dragging_m746831934
FLe:__ZN5physx10PxsContext15setScratchBlockEPvj
ZJm:_ReadOnlyCollection_1_System_Collections_IEnumerable_GetEnumerator_m2781605075_gshared
tin:_TMP_XmlTagStack_1_Remove_m1417473052_AdjustorThunk
bra:__ZN9Scripting11UnityEngine12Experimental9Rendering15ShadowSplitData12CleanupProxyEv
Zfa:__ZZN15DirectorManager15InitializeClassEvEN52PreLateUpdateDirectorUpdateAnimationBeginRegistrator7ForwardEv
EEh:_Graphic_RegisterDirtyMaterialCallback_m106898453
$Bn:_GUILayoutEntry_get_margin_m3174861737
o2d:__ZN5physx2Cm27getDynamicGlobalPoseAlignedERKNS_11PxTransformES3_S3_RS1_
Pcm:_Array_InternalArray__ICollection_CopyTo_TisResolveHandler_t4124874245_m1101829896_gshared
ywo:__ZNK15dense_hashtableINSt3__24pairIK10KeyWrapperINS1_IPKcS4_EEEiEES6_24NamespaceAndNamePairHashN14dense_hash_mapIS6_iS9_NS6_14EqualsComparerI26NamespaceAndNamePairEqualsEENS0_9allocatorIS8_EEE9SelectKeyESD_SF_E13find_positionERS7_
Qkc:__ZNSt3__26vectorIN9ShaderLab14SerializedPassENS_9allocatorIS2_EEE8__appendEj
uaf:__ZN5physx6shdfnd5ArrayIPvNS0_19ReflectionAllocatorIN17PxcPoolMallocData10PoolData32EEEE15growAndPushBackERKS2_
dkc:__ZNSt3__26vectorIN9ShaderLab20SerializedSubProgram13BufferBindingENS_9allocatorIS3_EEEC2INS_11__wrap_iterIPS3_EEEET_SB_RKS5_PNS_9enable_ifIXaasr21__is_forward_iteratorISB_EE5valuesr16is_constructibleIS3_NS_15iterator_traitsISB_E9referenceEEE5valueEvE4typeE
k5j:_Encoding_get_ISOLatin1_m2107621369
nvd:__ZNK16PhysicsManager2D21GetAutoSyncTransformsEv
rEc:__ZZL23RegisterLightPropertiesR22GenericPropertyBindingEN20Wrapper_LightColorb213GetFloatValueEPv
Ytd:__ZN12b2WheelJoint24SolveVelocityConstraintsERK12b2SolverData
tsj:_Quaternion_LookRotation_Injected_m3680180073
CKb:__ZNK25PathNamePersistentManager30PathIDToFileIdentifierInternalEi
HVa:__ZN9Texture2D23VirtualRedirectTransferER18StreamedBinaryReadILb0EE
HEd:__ZN10Collider2D8TransferI24GenerateTypeTreeTransferEEvRT_
XRf:__Z53Register_UnityEngine_Networking_UnityWebRequest_Abortv
ofg:_JSONNode_get_Linq_m3913908471
j3f:_TMP_SubMeshUI_set_fallbackMaterial_m2367683490
pMl:_Enumerator_MoveNext_m1177880931_gshared
iWg:__ZL73g_UnityEngine_TextRenderingModule_Assembly_CustomAttributesCacheGeneratorP21CustomAttributesCache
haa:__ZN16ScriptingManager27NativeTypeForScriptingClassE17ScriptingClassPtr
ctm:_UInt64_System_IConvertible_ToDateTime_m3434604642
Zpm:_Type_get_IsSerializable_m1040556850
stf:_get_sfnt_table
zun:_Parser_ResolveReferences_m1518052352
rAb:__Z29Transfer_Blittable_ArrayFieldI24GenerateTypeTreeTransferiEvRT_R9ArrayInfoRK23StaticTransferFieldInfo
rXa:__ZN8Renderer20RendererAddedToSceneEv
xac:__ZL22ScheduleSceneNodesJobsP25ScheduleSceneNodesJobDataj
kUe:__ZN5physx22concludeContactCoulombERKNS_23PxcSolverConstraintDescERNS_16PxcSolverContextE
Bl:_emscripten_set_canvas_size
IDh:_Graphic_SetVerticesDirty_m2124914069
Dve:__ZNK5physx15NpParticleFluid12getStiffnessEv
xvk:_CultureInfo__ctor_m3285927757
wFj:_MaskableGraphic_get_rootCanvasRect_m3492154629
wsd:__ZN9Scripting11UnityEngine9Physics2D9InitProxyEv
Xim:_Array_Resize_TisRaycastResult_t3360306849_m1811054291_gshared
XDc:__ZN12MeshRenderer27PrepareSingleRendererUpdateER13RendererSceneRS_10MemLabelId
wkc:__ZNSt3__26vectorIN9ShaderLab20SerializedSubProgramENS_9allocatorIS2_EEE8__appendEj
k3:__ZN20DynamicHeapAllocatorI17LowLevelAllocatorE8AllocateEji
_Hf:__ZN11UnityEngine9Analytics15UserCustomEvent12ToJsonStringER9JSONWrite
xDn:_Locale_GetText_m2427493201
A2b:__ZN20DynamicPropertySheet15SetVectorQueuedERKN9ShaderLab16FastPropertyNameERK8Vector4fN19ShaderPropertySheet8SetFlagsE
_E:__ZN7mecanim9animation22EvaluateAvatarRetargetEPKNS0_14AvatarConstantEPKNS0_11AvatarInputEPNS0_12AvatarOutputEPNS0_12AvatarMemoryEPNS0_15AvatarWorkspaceEb
UIa:__ZN14RenderSettings23VirtualRedirectTransferER19StreamedBinaryWriteILb0EE
c$c:__ZL26Transfer_SimpleNativeClassI9JSONWrite10RectOffsetLb0EEvRK29SerializationCommandArgumentsR31RuntimeSerializationCommandInfo
kJo:_GC_push_conditional
RHf:__ZN21UnityAnalyticsManager23VirtualRedirectTransferER24GenerateTypeTreeTransfer
i1a:__ZN17GenericDynamicVBO10AllocateVBEjR21DynamicVBOChunkHandle
pYe:__ZL27PxcTestFacesSepAxesBackfaceRKN5physx2Gu13PolygonalDataES3_RKNS_2Cm8Matrix34ES7_RKNS4_23FastVertex2ShapeScalingESA_S7_RKNS_6PxVec3ERfRSB_RjPjSG_fSD_
acl:_DBNull_ToString_m3638608738
oyo:__ZN30dense_hashtable_const_iteratorI10KeyWrapperIP18Il2CppGenericClassES3_N6il2cpp8metadata22Il2CppGenericClassHashEN14dense_hash_setIS3_S6_NS3_14EqualsComparerINS5_25Il2CppGenericClassCompareEEENSt3__29allocatorIS3_EEE8IdentityESA_SD_EppEv
MUk:_BitArray_Clone_m3537018332
V6i:_ObjectRecord_UnchainFixup_m3191243952
Sbn:_TlsStream_get_CanWrite_m16389328
KFf:__Z15GetUIModuleSpecv
mkf:__ZN9Scripting11UnityEngine8UIVertex9InitProxyEv
_l:_glMapBufferRange
zVa:__ZN9Texture2D8TransferI18StreamedBinaryReadILb0EEEEvRT_
pzc:__Z31Input_CUSTOM_GetMouseButtonDowni
QJc:__ZN13PlayableGraph4PlayEv
Qqe:__ZNK5physx7NpCloth23getExternalAccelerationEv
Meb:__ZNK9Transform16GetLocalPositionEv
LVi:_MonoType_get_BaseType_m1098640416
T9a:__ZN13LoadOperation19IntegrateTimeSlicedEi
jcn:_TlsStream_Read_m3392972801
KVe:__ZN5physx16PxsBroadPhaseMBP9updatePPUEPNS_10PxBaseTaskE
xRb:__ZN13GfxDeviceGLES22DispatchComputeProgramE12ObjectHandleI18ComputeProgram_TagPvE15ComputeBufferIDj
fvj:_Transform_get_localToWorldMatrix_m4155710351
Ajm:_Latin1Encoding_GetString_m254210343
ilk:_MD4Managed_GG_m1845276249
Vbb:__Z17TransformAABBSlowRK4AABBRK10Matrix4x4fRS_
ONk:_Array_combsort_m4052486289
pRk:_Char_System_IConvertible_ToUInt16_m2449138174
WQ:__ZN24AudioScriptBufferManager27InitialCompleteDomainReloadEv
Wic:__ZN9ShaderLab21SerializedShaderState8TransferI14SafeBinaryReadEEvRT_
ugl:_Environment_GetWindowsFolderPath_m1738399646
s9e:__ZN5physx2Gu13RTreeMidphaseC2Ev
Lpf:_cf2_stack_pushInt
SE:__ZN8Animator19FireAnimationEventsERNS_11AnimatorJobE
Mxe:__ZN5physx6shdfnd8PoolBaseINS_16NpParticleSystemENS0_19ReflectionAllocatorIS2_EEE12allocateSlabEv
JJh:_Module_GetCustomAttributes_m76573271
tph:_TextMeshPro_UpdateMaterial_m854395998
VPa:__ZN15SerializeTraitsINSt3__24pairIN4core12basic_stringIcNS2_20StringStorageDefaultIcEEEES6_EEE8TransferI24GenerateTypeTreeTransferEEvRS7_RT_
r0o:b89
q0o:b88
$_o:b81
Y_o:b80
JWb:__ZN7ApiGLES19CreateSparseTextureEjj14GraphicsFormatiiiiRiS1_S1_
Xaa:__ZN18ResourceImageGroup7CleanupEv
n0o:b85
b5d:__ZN5physx2Gu36closestPtPointTetrahedronTesselationEPNS_6shdfnd3aos5Vec3VES4_S4_RjRS3_S6_
p0o:b87
EYe:__ZN5physx25PxcPCMContactSphereConvexERKNS_2Gu13GeometryUnionES3_RKNS_11PxTransformES6_RKfRNS_10PxcNpCacheERNS0_13ContactBufferE
wVh:_RemotingSurrogateSelector_GetSurrogate_m3900875713
nrk:_TlsServerCertificate_validateCertificates_m4242999387
Wmk:_CertificateValidationCallback_Invoke_m1014111289
tLa:__ZN8Playable19SetOutputConnectionEPS_i
LEa:__Z20RenderMultipleMeshesRK15RenderNodeQueueRK18RenderMultipleData16VertexInputMasks
Om:_glDeleteShader
aXk:_Array_Sort_TisChar_t3634460470_TisChar_t3634460470_m992244203_gshared
Oja:__ZN6prcoreL17RemapGenericFloatI15TexFormatRGHalf16TexFormatRGFloatEEvPKNS_9InnerInfoE
PXk:_Array_Sort_TisUICharInfo_t75501106_m128665067_gshared
Yrf:_otv_GSUB_validate
OYj:_RSAPKCS1SignatureDeformatter_SetHashAlgorithm_m1602190713
wfl:_Enum_System_IConvertible_ToByte_m1219166845
Nle:__ZN5physx6shdfnd8PoolBaseINS_10NpMaterialENS0_19ReflectionAllocatorIS2_EEE15disposeElementsEv
o$l:_Dictionary_2_CopyToCheck_m45332585_gshared
f6m:_Collection_1_System_Collections_IList_IndexOf_m2831626011_gshared
Rdm:_Array_InternalArray__ICollection_CopyTo_TisTMP_MeshInfo_t2771747634_m3871978652_gshared
i_i:_ConstructorInfo__cctor_m1016079270
r0f:_TMP_MeshInfo_ClearUnusedVertices_m888817622_AdjustorThunk
wLf:__ZN11UnityEngine15PlatformWrapper20IsRootedOrJailbrokenEv
hoc:__Z27scripting_add_internal_callPKcPKv
ALk:_AppDomain_Load_m4174353770
Ikc:__ZNSt3__26vectorIN9ShaderLab20SerializedSubProgram16SamplerParameterENS_9allocatorIS3_EEE6assignIPS3_EENS_9enable_ifIXaasr21__is_forward_iteratorIT_EE5valuesr16is_constructibleIS3_NS_15iterator_traitsISA_E9referenceEEE5valueEvE4typeESA_SA_
Ahm:_Array_qsort_TisByte_t1134296376_m726517433_gshared
sVc:__ZN9Scripting11UnityEngine3GUI9InitProxyEv
lmh:_FastAction_Call_m217488180
$pl:_Enumerator_MoveNext_m1556953412_AdjustorThunk
$w:__ZN26AnimatorControllerPlayable18SetLayerAutoWeightEv
gc:invoke_vffff
_wn:_Literal_GetAnchorInfo_m810577400
hIo:_GC_alloc_large
k9c:__ZN20ExternalForcesModule8TransferI19StreamedBinaryWriteILb0EEEEvRT_
ZGf:__ZN2UI14CanvasRenderer12SyncMaterialENS0_8SyncFlagE
vnh:_MaterialReference_AddMaterialReference_m1459790169
kIk:_StreamWriter_Write_m1660535366
Duh:_PhysicsRaycaster_get_finalEventMask_m5197086
kNo:__ZN6il2cpp2vm9Parameter30GetDefaultParameterValueObjectEPK10MethodInfoPK13ParameterInfoPb
Blm:_UTF8Encoding_GetByteCount_m4152118078
aml:_KeyPairPersistence__CanSecure_m3516574278
$cj:_MD5CryptoServiceProvider_Dispose_m3502499818
G7m:_Collection_1_System_Collections_IList_get_Item_m2422562729_gshared
IJa:__ZN12LightManager28IsLightTransformDataUpToDateEPK5Light
euf:_UNITY_tt_face_done_kern
FXh:_ArrayReadOnlyList_1_RemoveAt_m2104218585_gshared
Pfd:__Z25UpdateOrbitalAndRadialTplIL27ParticleSystemCurveEvalMode1ELS0_2ELS0_4EEvRK11MinMaxCurveS3_S3_S3_S3_S3_S3_R23ParticleSystemParticlesjjRKN4math8float3x3ERKNS6_7affineXERKNS6_7_float4E
u_a:__ZN12BoneWeights48TransferI24GenerateTypeTreeTransferEEvRT_
Sma:__ZL49__ManagedRegistrationHelperFunction_PreLateUpdatePv
sLb:__Z19scripting_gc_enablev
n9h:_InternalEnumerator_1_get_Current_m2907722321_gshared
QZb:__ZZ23InitPlayerLoopCallbacksvEN41InitializationPlayerUpdateTimeRegistrator7ForwardEv
$Nc:__ZN11UTF16StringC2ERKS_10MemLabelId
_hf:__ZN5physx7profile11EventBufferINS_24PxDefaultContextProviderENS_6shdfnd6MutexTINS0_26WrapperReflectionAllocatorIhEEEENS0_14ScopedLockImplIS7_EENS_24PxProfileNullEventFilterEE9stopEventEty
yai:_InternalEnumerator_1_get_Current_m3792939945_AdjustorThunk
gFf:__Z55Register_UnityEngine_CanvasRenderer_DisableRectClippingv
bv:__ZN9Scripting11UnityEngine10Animations16ConstraintSource12CleanupProxyEv
jpm:_TimeSpan_Subtract_m1264203589_AdjustorThunk
Eyd:__ZN19OverlapPointQuery2D14InitializeAABBER6b2AABB
isj:_Quaternion_SlerpUnclamped_m3270925602
W0h:_InternalEnumerator_1_System_Collections_IEnumerator_get_Current_m888718134_gshared
Bli:__Z175RuntimeInvoker_Void_t1185182177_SByte_t1669577662_SByte_t1669577662_SByte_t1669577662_SByte_t1669577662_SByte_t1669577662_SByte_t1669577662_SByte_t1669577662_SByte_t1669577662PFvvEPK10MethodInfoPvPS4_
OTj:_Array_compare_TisRaycastResult_t3360306849_m822404090_gshared
$no:_il2cpp_class_is_inflated
pqj:_Object_Destroy_m3118546832
mBm:_ReadOnlyCollection_1_System_Collections_Generic_IListU3CTU3E_set_Item_m519295790_gshared
lal:_DateTime_FromTicks_m4059645178_AdjustorThunk
k7h:_InternalEnumerator_1_System_Collections_IEnumerator_get_Current_m1470676642_gshared
p$k:_Array_InternalArray__get_Item_TisClientCertificateType_t1004704908_m2297379651_gshared
kRh:_ConfigHandler_ParseTime_m1787834288
jnc:__ZN9ShaderLab7Program27CreateFromSerializedProgramERKNS_17SerializedProgramE10ShaderTypeiP16PropertyNamesSetPK6Shader
oZi:_Assembly_Load_m3487507613
kM:__ZNSt3__27__sort4IRNS_6__lessIN4core12basic_stringIcNS2_20StringStorageDefaultIcEEEES6_EEPS6_EEjT0_SA_SA_SA_T_
aWo:dynCall_viiiifii
lko:__ZN6il2cpp2gc19AppendOnlyGCHashMapINSt3__24pairIPK11Il2CppImageP11Il2CppClassEEP22Il2CppReflectionModule17ReflectionMapHashIS9_ENS2_8equal_toIS9_EEEC2Ev
n8:__Z20GetPersistentManagerv
oxf:_UNITY_TT_Set_Var_Design
hLi:__Z79RuntimeInvoker_Void_t1185182177_Int32_t2950945753_TMP_CharacterInfo_t3185626797PFvvEPK10MethodInfoPvPS4_
I4:__ZN21SystemInfoStringCache16StaticInitializeEPv
Ybg:_JSONNode_ParseElement_m214103003
Y3m:_Collection_1__ctor_m3380123530_gshared
H3d:__ZN5physx2Sc7BodySim18internalWakeUpBaseEf
XCm:_ReadOnlyCollection_1_System_Collections_Generic_ICollectionU3CTU3E_Remove_m1100818788_gshared
Zjc:__ZNSt3__26vectorIN9ShaderLab20SerializedSubProgram15StructParameterENS_9allocatorIS3_EEE6assignIPS3_EENS_9enable_ifIXaasr21__is_forward_iteratorIT_EE5valuesr16is_constructibleIS3_NS_15iterator_traitsISA_E9referenceEEE5valueEvE4typeESA_SA_
Dym:_Collection_1_IsSynchronized_m2291009199_gshared
pJf:__ZN9Scripting11UnityEngine9Analytics21AnalyticsSessionState12CleanupProxyEv
TIb:__ZNK13MonoBehaviour7GetNameEv
Fxf:_ft_var_load_item_variation_store
adb:__ZN19ScriptingInvocation28AdjustArgumentsToMatchMethodEv
oFl:_Dictionary_2_System_Collections_IDictionary_Remove_m2463639949_gshared
gO:__Z15_CheckFMODError11FMOD_RESULTPKciS1_
uto:__ZN6il2cpp6icalls8mscorlib6SystemL16ThrowInvalidCastEPK11Il2CppClassS5_
w_k:_TMP_TextInfo_Resize_TisTMP_LinkInfo_t1092083476_m1050620713_gshared
lcj:_HMAC_KeySetup_m661741544
Kxo:__ZN6il2cpp2vm5Field11SetValueRawEPK10Il2CppTypePvS5_b
ojm:_Latin1Encoding__ctor_m498920120
NHk:_StreamReader_Peek_m2272511193
L9c:__ZN11ShapeModule5ResetEv
nEf:__Z51Register_UnityEngine_CanvasGroup_get_blocksRaycastsv
$Wi:_NumberFormatter_get_IsFloatingSource_m3714711779
G2o:b119
uvc:__Z38Material_Set_Custom_PropShaderKeywordsP12Il2CppObjectP11Il2CppArray
O7e:__ZN5physx13BigConvexData5VLoadERNS_13PxInputStreamE
gAm:_ReadOnlyCollection_1_System_Collections_IList_Add_m3258677755_gshared
Iqm:_Type_GetConstructor_m1195697116
ge:_glBeginQuery
hKj:_ScrollRect_SetNormalizedPosition_m3260907438
cna:__ZL48__ManagedRegistrationHelperFunction_VisibleLightPv
PNe:__ZN5physx11NodeManager6resizeEj
RId:__ZN10Effector2D25CheckEffectorColliderMaskEP10Collider2DS1_
F$b:__ZN6Camera12RenderStereoENS_10RenderFlagE8CullFlagPNS_24PerformEyeRenderFunctionE
Lgb:__ZN20LocalFileSystemPosix10ToAbsoluteEPKc
mIa:__ZN20TierGraphicsSettings8TransferI19StreamedBinaryWriteILb0EEEEvRT_
p1o:b111
$bb:__Z23CollectSceneGameObjectsR13dynamic_arrayIiLj0EE
hGo:__ZN6il2cpp2vm13ComObjectBase16DisconnectObjectEj
nHe:__ZNK5physx7NpScene28getSceneQueryStaticTimestampEv
un:f0
lRo:_getcwd
hwd:__ZN16b2CapsuleContact6CreateEP9b2FixtureiS1_iP16b2BlockAllocator
Kwa:__ZN25ThreadsafeLinearAllocatorD2Ev
LNc:__ZL50GetAndClearChangedTransformsForMultilpleSystemsJobP45GetChangedTransformsForMultipleSystemsJobDatajPK23TransformAccessReadOnlyPKyj
pPe:__ZN5physx2Sq10AABBPruner11preallocateEj
$ab:__Z21SendMessageToEveryoneRK17MessageIdentifier11MessageData
Bea:__ZN21BillboardBatchManager16StaticInitializeEPv
r5k:_DateTime_AbsoluteDays_m4235097773
d6:__ZN12_GLOBAL__N_138ArchiveRedirectFileSystemStaticDestroyEPv
Jgi:__Z74RuntimeInvoker_RuntimeObject_RuntimeObject_RuntimeObject_SByte_t1669577662PFvvEPK10MethodInfoPvPS4_
ABh:_DefaultControls_CreateScrollView_m3842770629
qsd:__ZL55__ManagedRegistrationHelperFunction_PhysicsJobOptions2DPv
tTa:__ZN12CubemapArray34UpdateFileTextureUploadInstructionEP26FileAssetUploadInstructionj
OEe:__ZN5physx2Sc19ShapeInstancePairLLC2ERNS0_8ShapeSimES3_RNS0_9ActorPairENS_7PxFlagsINS_10PxPairFlag4EnumEtEE
IWb:__Z23CreateSparseTextureGLES9TextureIDii14GraphicsFormati
Esf:_otv_Anchor_validate
gzd:__Z18AddCollisionReportP11Collision2DR13dynamic_arrayINS_15CollisionReportELj0EE
era:__ZN9Scripting11UnityEngine12Experimental9Rendering21RenderPipelineManager9InitProxyEv
hpm:_TimeSpan_Negate_m1889505500_AdjustorThunk
JHm:_ReadOnlyCollection_1_System_Collections_ICollection_CopyTo_m2715087453_gshared
jkb:__ZN16MemoryFileSystemD0Ev
zte:__ZN5physx2Sc9ClothCore16setStretchConfigENS_22PxClothFabricPhaseType4EnumERKNS_20PxClothStretchConfigE
Ood:__Z19UpdateSingleRow2TplIL27ParticleSystemCurveEvalMode4ELS0_1EEvfRK11MinMaxCurveS3_RK23ParticleSystemParticlesPfbiii
zMf:__ZN11UnityEngine7Connect20RemoteConfigSettings7SetJSONER8JSONReadb
s9c:__ZN9SubModule8TransferI19StreamedBinaryWriteILb0EEEEvRT_
oHn:_AnalyticsEventTracker_Awake_m2780522130
Pef:_PxCreateFoundation
htd:__ZNK12b2MotorJoint16GetReactionForceEf
woo:_il2cpp_class_get_assemblyname
p3n:__ZN6il2cpp2vm5Class15GetEnumBaseTypeEP11Il2CppClass
hqk:_Context_set_WriteSequenceNumber_m942577065
Me:_glVertexAttrib4fv
Mek:_X509CertificateEnumerator_Reset_m4026698923
DGo:__ZNK6il2cpp5utils13VmStringUtils23CaseInsensitiveComparerclERKNSt3__212basic_stringIcNS3_11char_traitsIcEENS3_9allocatorIcEEEEPKc
Nyh:_CanvasScaler_SetScaleFactor_m3006968999
hQi:__Z78RuntimeInvoker_Boolean_t97287965_Navigation_t3049316579_Navigation_t3049316579PFvvEPK10MethodInfoPvPS4_
UTa:__ZNK9Texture2D16GetNpotTexelSizeEv
PWi:_NumberFormatter_Init_m3576155222
Jhb:__ZL33FileEntryInfoListToFolderContentsRKN4core12basic_stringIcNS_20StringStorageDefaultIcEEEERK19dynamic_block_arrayI13FileEntryInfoLj32EERNSt3__23setIS3_NSB_4lessIS3_EENSB_9allocatorIS3_EEEE
HEj:_LayoutUtility_GetLayoutProperty_m714717302
wJl:_LinkedList_1_Remove_m776321970_gshared
ped:__Z20EvaluateSlowThreadedRK11MinMaxCurveRNS_5CacheERKN4math7_float4ES7_
Cfi:_Enumerator_System_Collections_IEnumerator_get_Current_m2678986219_AdjustorThunk
F6m:_Collection_1_IsValidItem_m3076520886_gshared
amb:__ZN9GfxDevice22GetDefaultVertexBufferE26GfxDefaultVertexBufferTypej
$Nj:_Array_InternalArray__ICollection_Contains_TisInt64_t3736567304_m2911357929_gshared
zMb:__Z17BeginSplashScreenb
S7m:_Collection_1_Remove_m3022471627_gshared
DRo:___fseeko_unlocked
Fra:__ZN9Scripting11UnityEngine12Experimental9Playables21TexturePlayableOutput12CleanupProxyEv
oYi:_Object_ToString_m1740002499
vRo:_sscanf
V0d:__ZN5physx3Cct17CapsuleControllerC2ERKNS_16PxControllerDescERNS_9PxPhysicsEPNS_7PxSceneE
F3a:__ZN14SafeBinaryRead21TransferSTLStyleArrayINSt3__26vectorI17BlendShapeChannelNS1_9allocatorIS3_EEEEEEvRT_17TransferMetaFlags
WJl:_Enumerator_System_Collections_IEnumerator_get_Current_m4138390031_gshared
$im:_Array_Resize_TisUILineInfo_t4195266810_m3763058392_gshared
X9i:_SByte_ToString_m3584531119_AdjustorThunk
mmc:__ZN9ShaderLab16SerializedShader8TransferI19StreamedBinaryWriteILb0EEEEvRT_
Uv:__ZN7mecanim9animation18CreateAvatarMemoryEPKNS0_14AvatarConstantERNS_6memory9AllocatorE
Oik:_ModulusRing__ctor_m2420310199
iWf:_TMP_Dropdown_OnSelectItem_m1536972123
w5k:_Convert_ToDateTime_m626620011
uql:_Enumerator_System_Collections_IDictionaryEnumerator_get_Key_m2500634048_AdjustorThunk
wpd:__Z17UpdateSprites2TplIL27ParticleSystemCurveEvalMode2ELS0_4EEvfRK11MinMaxCurveS3_RK23ParticleSystemParticlesPf
iG:__ZN7mecanim8skeleton16SkeletonPoseCopyIN4math4trsXENS2_7affineXEEEvPKNS0_13SkeletonPoseTIT_EEPNS5_IT0_EE
kUb:__ZN18GfxFramebufferGLES18GetFramebufferNameERK20GfxRenderTargetSetup
wpa:__ZN9Scripting11UnityEngine9Transform9InitProxyEv
W1m:_Collection_1_IsFixedSize_m1766078928_gshared
EJo:_GC_print_block_list
_9j:_IPAddress__ctor_m921977496
yUo:_saveSetjmp
VBj:_InputField_MoveDown_m1455948167
uyc:__Z45Register_UnityEngine_Transform_get_hasChangedv
NVc:__Z30Event_Get_Custom_PropCharacterP12Il2CppObject
jga:__ZN13PlayableGraph27SchedulePlayableDestructionERK9HPlayable
Prf:_cff_get_mm_var
pZd:__ZN5physx6shdfnd5ArrayINS_12PxDebugPointENS0_19ReflectionAllocatorIS2_EEE15growAndPushBackERKS2_
QZo:_glGetFramebufferAttachmentParameteriv__wrapper
dQh:_ChannelServices_GetCurrentChannelInfo_m3041604116
mub:__Z22scripting_array_length17ScriptingArrayPtr
ZRi:_SynchronizedReader_Peek_m148942882
CNd:__ZN8Collider13AwakeFromLoadE17AwakeFromLoadMode
uRm:_Predicate_1_Invoke_m2308795536_gshared
Ayd:__ZNK13b2DynamicTree5QueryI19b2WorldQueryWrapperEEvPT_RK6b2AABB
V1a:__ZN14SpriteRenderer18UpdateCachedSpriteEb
fCo:__ZN15dense_hashtableINSt3__24pairIK10KeyWrapperIPcES3_EES4_N6il2cpp5utils15PassThroughHashIS3_EEN14dense_hash_mapIS4_S3_SA_NS4_14EqualsComparerINS0_8equal_toIS3_EEEENS0_9allocatorIS6_EEE9SelectKeyESF_SH_E3endEv
eEa:__Z19GetActiveColorSpacev
D8c:__ZN17SizeBySpeedModule8TransferI18StreamedBinaryReadILb0EEEEvRT_
i0n:_BoxCollider_INTERNAL_set_center_m471190135
Htf:_UNITY_tt_face_load_kern
dKh:_MonoMethodInfo_GetDeclaringType_m2924452727
yHl:_Dictionary_2_ContainsKey_m3601783571_gshared
tVh:_RemotingSurrogate_SetObjectData_m2713731796
u5:__Z6StrCmpPKcS0_
$nc:__Z21CheckGpuProgramUsable20ShaderGpuProgramType
hDc:__ZN13ProduceHelperI14Texture2DArrayLb0EE7ProduceE10MemLabelId18ObjectCreationMode
UDo:__ZN6il2cpp2os9Directory20GetFileSystemEntriesERKNSt3__212basic_stringIcNS2_11char_traitsIcEENS2_9allocatorIcEEEESA_iiPi
AMk:_Array_System_Collections_IList_Add_m1063688101
kie:__ZN5physx6shdfnd5ArrayIPvNS0_19ReflectionAllocatorINS_2Cm5BlockIhLj128EEEEEE4copyINS0_15InlineAllocatorILj256ES7_EEEEvRKNS1_IS2_T_EE
Hlf:__ZN20TextRenderingPrivate19NativeTextGenerator5SetupEv
t7b:__ZNK15SharedLightData24GetFinalShadowResolutionEv
Tle:__ZN5physx6shdfnd8PoolBaseINS_16NpConnectorArrayENS0_19ReflectionAllocatorIS2_EEE15disposeElementsEv
$6a:__ZN12AspectRatios8TransferI18StreamedBinaryReadILb0EEEEvRT_
Kef:__ZN14PhysicsManager19CreatePvdConnectionEv
uhg:_JSONObject_GetEnumerator_m3251166103
RWf:_TMP_Settings_get_fallbackFontAssets_m4226204732
vpc:__ZN10GameObject14CopyPropertiesERS_
pXc:__Z44Register_UnityEngine_GUIStyle_get_fixedWidthv
uPj:_Array_InternalArray__ICollection_Remove_TisLink_t544317964_m1280781374_gshared
SOk:_BitConverter_DoubleWordsAreSwapped_m1474345095
izi:__Z114RuntimeInvoker_Int32_t2950945753_Vector2_t2156229523_Vector2_t2156229523_ContactFilter2D_t3805203441_RuntimeObjectPFvvEPK10MethodInfoPvPS4_
GTk:_FixedSizeArrayListWrapper_set_Capacity_m4221053039
YRo:_rand
s_o:_emscripten_glFramebufferRenderbuffer__wrapper
fMc:__ZN13MeshScripting10CreateMeshE21ScriptingObjectOfTypeI4MeshE
ale:__ZNK5physx12NpConstraint9getActorsERPNS_12PxRigidActorES3_
Ez:__ZN17AnimationPlayable22PrepareAnimationEventsEfR13dynamic_arrayI22AnimationClipEventInfoLj0EE
lvb:__ZN14SafeBinaryRead21TransferSTLStyleArrayINSt3__26vectorI17AnimationCurveTplIfE13stl_allocatorIS4_L18MemLabelIdentifier1ELi16EEEEEEvRT_17TransferMetaFlags
jUk:_SynchronizedArrayListWrapper_Contains_m3809499313
yrk:_HandshakeMessage_Compare_m2214647946
oaf:__ZN5physx6shdfnd8PoolBaseIN17PxcPoolMallocData10PoolData16ENS0_19ReflectionAllocatorIS3_EEE15disposeElementsEv
uLd:__ZN9Rigidbody23UpdateInterpolationNodeEv
zcj:_HMACSHA256__ctor_m346174875
S9b:__Z22PrepareOptimizedPlanesPK5PlaneiPKN4math7_float4E
V1:__ZN11UnityEngine15CloudWebService17WebFileDownloaderINS0_20WebRequestRestClientENS0_23WebRequestRestHeaderMapEE10InitializeERKN4core12basic_stringIcNS5_20StringStorageDefaultIcEEEE
zea:__ZN17UniqueIDGenerator15CreatePureIndexEv
$Wo:dynCall_fiifi
YAc:__Z48InitializeRectTransformAnimationBindingInterfacev
L0a:__ZN16BlitStereoHelper16PrepareEyeRenderEiRK19ShaderPropertySheetRS0_bRK8Vector2fS6_14VRTextureUsage
QFe:__ZN5physx7NpScene8addActorERNS_7PxActorE
y9a:__ZNSt3__26vectorIN15ResourceManager10DependencyE13stl_allocatorIS2_L18MemLabelIdentifier52ELi16EEE6assignINS_11__wrap_iterIPS2_EEEENS_9enable_ifIXaasr21__is_forward_iteratorIT_EE5valuesr16is_constructibleIS2_NS_15iterator_traitsISC_E9referenceEEE5valueEvE4typeESC_SC_
E2n:__ZN15dense_hashtableINSt3__24pairIK10KeyWrapperIPK22Il2CppGenericParameterEP11Il2CppClassEES6_N6il2cpp5utils11PointerHashIS4_EEN14dense_hash_mapIS6_S9_SE_NS6_14EqualsComparerINS0_8equal_toIS5_EEEENS0_9allocatorISA_EEE9SelectKeyESJ_SL_E14squash_deletedEv
hOa:__ZN9ShaderLabL27GetDesiredRenderTextureDescEPK6Camera
Dud:__ZNK12b2MouseJoint17GetReactionTorqueEf
dfm:_Array_InternalArray__Insert_TisMark_t3471605523_m2854535880_gshared
GLc:__ZN4Mesh24UpdateSubMeshVertexRangeEi
CEc:__ZZL23RegisterLightPropertiesR22GenericPropertyBindingEN18Wrapper_LightRange13SetFloatValueEPvf
gYg:__ZL52HumanBone_t2465339518_CustomAttributesCacheGeneratorP21CustomAttributesCache
Jfg:_JSONNode_op_Implicit_m3237263780
dVh:_MethodReturnDictionary__cctor_m278392388
p1b:__ZNK9Transform18TransformDirectionERK8Vector3f
l6e:__ZN5physx21PxsBodyTransformVault6updateEv
z8g:__ZL80CanvasScaler_t2767979955_CustomAttributesCacheGenerator_m_ReferencePixelsPerUnitP21CustomAttributesCache
psf:_otv_MarkLigPos_validate
Ijl:_PrimalityTests_RabinMillerTest_m1471415870
MWd:__ZL29GeomMTDCallback_CapsuleConvexRN5physx6PxVec3ERfRKNS_10PxGeometryERKNS_11PxTransformES5_S8_
L1i:_GenericTypeParameterBuilder_GetCustomAttributes_m580748276
t9n:__ZN15dense_hashtableINSt3__24pairIK10KeyWrapperIPK11Il2CppClassEPKcEES6_N6il2cpp5utils11PointerHashIS3_EEN14dense_hash_mapIS6_S9_SE_NS6_14EqualsComparerINS0_8equal_toIS5_EEEENS0_9allocatorISA_EEE9SelectKeyESJ_SL_E12resize_deltaEjj
U_f:_TMP_InputField_DoStateTransition_m1946589647
Tik:_Kernel_LeftShift_m4140742987
bZi:_Assembly_GetManifestResourceInternal_m1224391897
TEa:__Z30AddDefaultStreamsToMeshBuffersR9GfxDeviceR11MeshBuffersj17ShaderChannelMaskS3_
G5:__ZL16GetInterfaceImpl18UnityInterfaceGUID
uUf:_TMP_DefaultControls_SetLayerRecursively_m3201739960
qGo:__ZN6il2cpp6icalls8mscorlib6System15MonoCustomAttrs27GetCustomAttributesInternalEP12Il2CppObjectP20Il2CppReflectionTypeb
wc:invoke_viifi
rQc:__Z55Register_UnityEngine_Quaternion_FromToRotation_Injectedv
Lxf:_UNITY_TT_Set_MM_Blend
gta:__ZN9Scripting11UnityEngine11Application9InitProxyEv
cAn:_TMPro_EventManager_ON_FONT_PROPERTY_CHANGED_m1466790487
RMb:__ZN14PreloadManager35WaitForAllAsyncOperationsToCompleteEv
T4n:__ZN13Il2CppHashMapIP9FieldInfoiN6il2cpp5utils11PointerHashIS0_EENSt3__28equal_toIS1_EENS6_9allocatorINS6_4pairIK10KeyWrapperIS1_EiEEEEEC2EjRKS5_RKS8_
E6:__ZNSt3__26__treeINS_12__value_typeIPKc11ShaderTagIDEENS_19__map_value_compareIS3_S5_27compare_tstring_insensitiveIS3_ELb1EEENS_9allocatorIS5_EEE7destroyEPNS_11__tree_nodeIS5_PvEE
kPd:__Z27sweepCCTBox_HeightFieldGeomRKN5physx10PxGeometryERKNS_11PxTransformERKNS_2Gu3BoxERKNS_6PxVec3EfRNS_10PxSweepHitENS_7PxFlagsINS_9PxHitFlag4EnumEtEEf
cO:__ZL31InitializeAudioScriptingClassesv
K0b:__Z14SortGUIByDepthP10GUIElementS0_
Pbd:__Z19UpdateProceduralTplIL27ParticleSystemCurveEvalMode0EEvRK20DualMinMaxPolyCurvesR23ParticleSystemParticlesPfRKN4math7_float4E
upj:_PlayerConnection_OnEnable_m4286555589
BWf:_TMP_Settings_get_warningsDisabled_m4194286636
aH:__ZN12_GLOBAL__N_120ProcessRootMotionMixER33AnimationPlayableEvaluationOutputR35AnimationPlayableEvaluationConstantR32AnimationPlayableEvaluationInputS1_f
Pyn:_UriParser__cctor_m3655686731
uWd:__ZN5physx3Cct9SweepTest18updateTouchedGeomsEPKNS0_30InternalCBData_FindTouchedGeomERKNS0_13UserObstaclesERKNS_17PxExtendedBounds3ERKNS_19PxControllerFiltersERKNS_6PxVec3E
umj:_Material_SetColor_m355160541
xEj:_LayoutRebuilder_U3Cs_RebuildersU3Em__0_m589488547
Aif:_PxCloseExtensions
lhb:__ZNK20LocalFileSystemPosix21GetAvailableDiskSpaceEPKcRy
gM:__ZNSt3__26__treeIiNS_4lessIiEENS_9allocatorIiEEE7destroyEPNS_11__tree_nodeIiPvEE
Nlb:__ZNK9GfxDevice14GetWorldMatrixEv
Ikn:_InvokableCall_2_Invoke_m3594767000_gshared
Kyj:_Transform_set_parent_m786917804
WUn:_AudioSampleProvider_InternalSetScriptingPtr_m3742743270
zLj:_Slider_get_value_m739683640
Jfb:__Z19scripting_array_new17ScriptingClassPtrjj
wT:__ZN11SoundHandle13CreateChannelEb
Ekc:__ZNSt3__26vectorIN9ShaderLab20SerializedSubProgram16TextureParameterENS_9allocatorIS3_EEE6assignIPS3_EENS_9enable_ifIXaasr21__is_forward_iteratorIT_EE5valuesr16is_constructibleIS3_NS_15iterator_traitsISA_E9referenceEEE5valueEvE4typeESA_SA_
W7n:__ZN13Il2CppHashMapIN6il2cpp5utils13dynamic_arrayIPK10Il2CppTypeLj4EEEPFvvENS0_8metadata19Il2CppSignatureHashENS9_22Il2CppSignatureCompareENSt3__29allocatorINSC_4pairIK10KeyWrapperIS6_ES8_EEEEEC2EjRKSA_RKSB_
W_g:__ZL104Physics2D_t1528932956_CustomAttributesCacheGenerator_Physics2D_GetRayIntersectionAll_Internal_m643548862P21CustomAttributesCache
Tko:__ZN15dense_hashtableINSt3__24pairIK10KeyWrapperIPK22Il2CppGenericParameterEPK24MonoGenericParameterInfoEES6_N6il2cpp5utils11PointerHashIS4_EEN14dense_hash_mapIS6_SA_SF_NS6_14EqualsComparerINS0_8equal_toIS5_EEEENS0_9allocatorISB_EEE9SelectKeyESK_SM_E15set_deleted_keyERKSB_
V9i:_SByte_TryParse_m2431806379
sKa:__ZN6prcoreL11inner_clearILj2EEEvPhjjj
MZk:_Dictionary_2_Do_CopyTo_TisDictionaryEntry_t3123975638_TisDictionaryEntry_t3123975638_m2909244099_gshared
Sta:__ZN9Scripting5Unity11Collections8LowLevel6Unsafe24NativeContainerAttribute9InitProxyEv
xbj:_DSACryptoServiceProvider_get_KeySize_m786836990
Ztd:__ZN12b2WheelJoint24SolvePositionConstraintsERK12b2SolverData
lte:__ZNK5physx2Sc9ClothCore20getNbCollisionPlanesEv
xh:_emscripten_exit_fullscreen
ABf:__ZN2UI11CanvasGroup23VirtualRedirectTransferER18StreamedBinaryReadILb0EE
p8e:__ZNK5physx13GuMeshFactory17getNbHeightFieldsEv
xhm:_Array_qsort_TisBoolean_t97287965_TisBoolean_t97287965_m214793583_gshared
nKl:_Enumerator_System_Collections_IEnumerator_Reset_m1564381721_gshared
Uef:__ZN14PhysicsManager19CreateDynamicsSceneEbb14BroadphaseType16ContactPairsModeRK4AABBi
cBc:__ZZL31RegisterRectTransformPropertiesR22GenericPropertyBindingEN39Wrapper_RectTransformAnchoredPositiony113GetFloatValueEPv
iYi:_Object_MemberwiseClone_m1474068832
NCo:__ZN6il2cpp6icalls8mscorlib6System6String19InternalAllocateStrEi
E3c:__Z29Transfer_Blittable_ArrayFieldI8JSONRead11QuaternionfEvRT_R9ArrayInfoRK23StaticTransferFieldInfo
iNk:_Array_SetValue_m282347242
DPe:__ZNK5physx2Gu12OBBAABBTestsILb1EEclENS_6shdfnd3aos5Vec3VES5_
Ovc:__Z45Register_UnityEngine_Camera_get_targetDisplayv
PGc:__ZNK24RendererAnimationBinding15GenerateBindingERKN4core12basic_stringIcNS0_20StringStorageDefaultIcEEEEbRN11UnityEngine9Animation14GenericBindingE
Hza:__ZN33RendererCullingCallbackPropertiesC2ERK6CameraRK10Matrix4x4f
zak:_IPv6Address__ctor_m3704187391
GJa:__Z15GetFlareManagerv
rLc:__ZN4Mesh15AppendTrianglesERNSt3__26vectorIj13stl_allocatorIjL18MemLabelIdentifier1ELi16EEEEjRK13dynamic_arrayI7SubMeshLj0EEPK14SharedMeshDatab
QVd:__ZN5physx3Cct9SweepTestD2Ev
Yv:__ZN8Animator13GetAvatarRootEv
YPo:___toread
GKb:__ZNSt3__26vectorI10vector_mapIiiNS_4lessIiEE13stl_allocatorINS_4pairIiiEEL18MemLabelIdentifier38ELi16EEES4_IS9_LS7_38ELi16EEE26__swap_out_circular_bufferERNS_14__split_bufferIS9_RSA_EE
M0f:_TMP_Settings_get_version_m3911328366
pik:_BigInteger_get_Rng_m3283260184
iUo:___cxa_is_pointer_type
YK:__ZN8Animator22ScriptingStringToCRC32ERK11ICallString
cH:__ZN7mecanim9animation16EvaluateAvatarDXEPKNS0_14AvatarConstantEPKNS0_11AvatarInputEPNS0_12AvatarMemoryEPNS0_15AvatarWorkspaceEPNS0_12AvatarOutputE
JVb:__ZN4gles20DestroyRenderSurfaceEP7ApiGLESP17RenderSurfaceGLES
G$k:_Array_InternalArray__get_Item_TisKeyValuePair_2_t2530217319_m2886833132_gshared
Dma:__ZL50__ManagedRegistrationHelperFunction_UnityEventBasePv
Nxc:__Z34Transform_CUSTOM_SetAsFirstSiblingP12Il2CppObject
o9c:__ZN21RotationBySpeedModule8TransferI19StreamedBinaryWriteILb0EEEEvRT_
vrn:_WarpTextExample_Start_m647679331
KBj:_InputField_Delete_m3471899192
Q4i:_RemotingConfiguration_get_ProcessId_m2180277012
r_:__ZN11UnityEngine15CloudWebService17SessionEventQueue14ParseEventDataERKN4core12basic_stringIcNS2_20StringStorageDefaultIcEEEE
Cke:__ZN12GeomQueryAnyIN5physx10PxSweepHitEE7geomHitERKNS0_2Sq17SceneQueryManagerERKNS0_15MultiQueryInputERKNS3_9ShapeDataERKNS0_10PxGeometryERKNS0_11PxTransformENS0_7PxFlagsINS0_9PxHitFlag4EnumEtEEjPS1_fbPNS0_9PxBounds3E
hxl:_Transform_1_BeginInvoke_m4058251461_gshared
dTb:__ZN13TranslateGLES4InitERK12GraphicsCaps16GfxDeviceLevelGL
TXd:__ZN43CapsuleHeightfieldContactGenerationCallback7onEventEjPj
lAm:_ReadOnlyCollection_1_System_Collections_IList_Insert_m4244537418_gshared
VNd:__ZThn4_N12MemoryStream4readEPvj
UBk:_Int64_System_IConvertible_ToUInt16_m848637338_AdjustorThunk
SIf:__Z32CustomEventData_CUSTOM_AddUInt32P12Il2CppObjectP12Il2CppStringj
vyn:_Uri_get_PathAndQuery_m2396197970
WUj:_Array_InternalArray__IndexOf_TisLink_t544317964_m455584088_gshared
KZm:_Enumerator_get_Current_m2282646120_AdjustorThunk
xHm:_ReadOnlyCollection_1_IndexOf_m2539022912_gshared
H7g:__ZL66Selectable_t3250028441_CustomAttributesCacheGenerator_m_TransitionP21CustomAttributesCache
QNo:__ZN6il2cpp2os6Memory12AlignedAllocEjj
I0c:__ZN9JSONWrite8TransferI13dynamic_arrayIN4math12int3_storageELj0EEEEvRT_PKc17TransferMetaFlags
FMj:_Text_set_alignByGeometry_m3828822280
dXj:_Array_InternalArray__ICollection_Add_TisKeyValuePair_2_t1383673463_m1385069916_gshared
pHo:__ZN6il2cpp8metadataL7CompareEPK10Il2CppTypeS3_
G7j:_HybridDictionary__ctor_m1681134385
dAa:__ZN21ScalableBufferManager11GetInstanceEv
PFb:__Z18Transfer_BlittableI18StreamedBinaryReadILb0EELb1E10ColorRGBAfEvRK29SerializationCommandArgumentsR31RuntimeSerializationCommandInfo
rpm:_TimeSpan_op_LessThan_m1594498345
jtc:__ZL27GetComponentsImplementationILb0ELi0EEbR10GameObjectbRK17CompareParametersRK39GetComponentsImplementation_ReturnValue
FJb:__ZN9Scripting36IsSystemCollectionsGenericDictionaryE17ScriptingClassPtr
qnn:_UnityEvent_1_FindMethod_Impl_m322741469_gshared
mje:__ZN5physx12NpConstraint12actorDeletedEPNS_12PxRigidActorE
URf:__Z54Register_UnityEngine_Networking_UnityWebRequest_Createv
UJn:_Enumerator_get_Current_m2591725252
Aba:__ZL16ReadTypeTreeImplILb0EEbR8TypeTreeRK16TypeTreeIteratorRPKhS6_i
Rhk:_Interval_Contains_m110351300_AdjustorThunk
b7k:_Convert_ToInt32_m3048308591
mw:__ZN25RuntimeAnimatorControllerD2Ev
OGj:_RectMask2D_OnCanvasHierarchyChanged_m3195492255
ybl:_DateTimeOffset_Equals_m3030958070
Y1d:__ZN5physx2Sc8ShapeSim18reinsertBroadPhaseEv
jJa:__ZNK22BuiltinResourceManager21GetResourceInstanceIDEPKN5Unity4TypeERKN4core12basic_stringIcNS4_20StringStorageDefaultIcEEEE
Quc:__Z42Register_UnityEngine_RectOffset_set_bottomv
PHn:_AnalyticsTracker_BuildParameters_m43920649
Bhe:__ZN5physx2Sc5Scene11removeShapeERNS0_8ShapeSimEb
uwk:_DateTimeFormatInfo_GetMonthName_m2034512315
P2b:__ZN28LightProbeProxyVolumeContext8CopyFromERKS_
iIm:_ReadOnlyCollection_1_System_Collections_Generic_IListU3CTU3E_Insert_m2489506856_gshared
jza:__ZN23TransformChangeDispatch32QueueTransformChangeIfHasChangedER18TransformHierarchy
Nnl:_Enumerator_System_Collections_IEnumerator_get_Current_m1145487420_gshared
PXf:_TMP_InputField_get_onSelect_m1664894426
unj:_Matrix4x4_MultiplyPoint_m1575665487
KVb:__ZN7ApiGLES18DeleteRenderbufferERj
G5d:__ZN5physx6shdfnd5ArrayIPvNS0_15InlineAllocatorILj256ENS0_19ReflectionAllocatorINS_16NpConnectorArrayEEEEEE15growAndPushBackERKS2_
WUb:__ZL23ProgramUniformMatrix4fvPK7ApiGLESjiihPKv
XOb:__ZN7ApiGLES13CreateTextureEjj14GraphicsFormatiiiii
TNk:_Array_new_gap_m262136975
Exd:__Z10b2DistanceP16b2DistanceOutputP14b2SimplexCachePK15b2DistanceInput
pXe:__ZN5physx14SingleAABBTaskC2Ev
kkc:__ZN9ShaderLab20SerializedSubProgram15MatrixParameter8TransferI14SafeBinaryReadEEvRT_
B7f:_TMP_Text_SetCharArray_m3635885420
UXa:__ZN4core8hash_mapIiN28ReflectionProbeAnchorManager16CachedAnchorDataENS_4hashIiEENSt3__28equal_toIiEEEixERKi
XDf:__Z46Register_UnityEngine_Canvas_set_sortingLayerIDv
T7f:_TMP_Text_HexCharsToColor_m2075419509
MKl:_Enumerator_System_Collections_IEnumerator_get_Current_m1846615603_gshared
ltc:__ZL27GetComponentsImplementationILb0ELi1EEbR10GameObjectbRK17CompareParametersRK39GetComponentsImplementation_ReturnValue
Udk:_X509Store__ctor_m275383717
myj:_Transform_INTERNAL_get_position_m1310184257
Pao:__ZN6il2cpp2vm13MetadataCache40AddThreadLocalStaticOffsetForFieldLockedEP9FieldInfoiRKNS_2os12FastAutoLockE
Vcf:__ZN5physx12storeIndicesEjjPKjRNS_14PxOutputStreamEb
DBa:__ZN13RenderTexture7ReleaseEv
b1c:__Z18Transfer_BlittableI8JSONReadLb1EN4math12int3_storageEEvRK29SerializationCommandArgumentsR31RuntimeSerializationCommandInfo
v1a:__ZN10MeshFilter23VirtualRedirectTransferER14SafeBinaryRead
k5a:__ZN12MeshRenderer17MainThreadCleanupEv
t3n:__ZN6il2cpp2vmL10InitLockedEP11Il2CppClassRKNS_2os12FastAutoLockE
wqb:__ZN22CreateGpuProgramOutput12CreateParamsEv
kP:__ZN10ObjectPoolIN4FMOD7ChannelENS0_8ChannelIEE7GetFreeEi
ju:__ZL62__ManagedRegistrationHelperFunction_AnimatorOverrideControllerPv
bge:__ZNK5physx18NpArticulationLink11getChildrenEPPNS_18PxArticulationLinkEj
y1h:_InternalEnumerator_1_System_Collections_IEnumerator_get_Current_m548105685_gshared
WSb:__ZNK14GfxContextGLES13GetDefaultFBOEv
VPk:_Byte_System_IConvertible_ToType_m2251112646
aRc:__Z55Register_UnityEngine_MonoBehaviour_StopCoroutineManagedv
xBi:__Z81RuntimeInvoker_Char_t3634460470_RuntimeObject_Int32_t2950945753_Int16_t2552820387PFvvEPK10MethodInfoPvPS4_
K3e:__Z15atomIntegrationfPKPN5physx11PxsBodyCoreEPKPNS_12PxsRigidBodyEjPKNS_2Cm13SpatialVectorEPNS_13PxcSolverBodyEPNS_17PxcSolverBodyDataEPS9_RjSH_
qal:_DateTime_get_Hour_m4153505178_AdjustorThunk
dMb:__ZN14GraphicsHelper5ClearE13GfxClearFlagsRK10ColorRGBAffjR17ShaderPassContext
cEm:_ReadOnlyCollection_1_System_Collections_Generic_IListU3CTU3E_RemoveAt_m2659121554_gshared
s0j:_Evidence_Equals_m1478353107
UBe:__ZN5physx13NpRigidStatic11createShapeERKNS_10PxGeometryEPKPNS_10PxMaterialEtNS_7PxFlagsINS_11PxShapeFlag4EnumEhEE
IKc:__Z13GetImagePixelI10ColorRGBAfET_PKhii13TextureFormat15TextureWrapModeS5_ii
XSm:_List_1_System_Collections_IList_set_Item_m1842844683_gshared
Npo:__ZN6il2cpp2vm6Thread49CheckCurrentThreadForInterruptAndThrowIfNecessaryEv
H4k:_Convert_ToChar_m3757390865
yEa:__ZNSt3__23mapIN9ShaderLab16FastPropertyNameEN18UnityPropertySheet11UnityTexEnvENS_4lessIS2_EENS_9allocatorINS_4pairIKS2_S4_EEEEEixERS9_
YOb:__ZNK13TranslateGLES25GetTextureTargetDimensionEj
I9d:__ZN5physx11NpAggregate22removeActorAndReinsertERNS_7PxActorEb
Wqn:_VertexShakeB_OnDisable_m1594553736
oEm:_ReadOnlyCollection_1_System_Collections_IList_Remove_m1842121503_gshared
gbf:__ZZL19ExtractHullPolygonsRjRN5physx2Gu9ContainerERKNS0_17ConvexHullBuilderEPS2_S3_EN5Local9FloodFillES3_PKNS0_11AdjTriangleEjPb
CEk:_File_OpenRead_m2936789020
o7:__ZN9Scripting12LogExceptionE21ScriptingExceptionPtriPKcb
gxi:__Z94RuntimeInvoker_Void_t1185182177_RuntimeObject_PlayableGraph_t3515989261_RuntimeObject_IntPtr_tPFvvEPK10MethodInfoPvPS4_
yj:_emscripten_glVertexAttrib4f
jwb:__ZN14SafeBinaryRead21TransferSTLStyleArrayI13dynamic_arrayIN4math12int3_storageELj0EEEEvRT_17TransferMetaFlags
Qph:_TextMeshPro_GetSharedMaterials_m3782928491
ync:__ZNSt3__26vectorIN20GpuProgramParameters14ConstantBufferENS_9allocatorIS2_EEE8__appendEj
Cek:_X509CertificateCollection_AddRange_m3683116910
CRm:_Predicate_1_Invoke_m2315049893_gshared
dp:FUNCTION_TABLE_vf
qce:__ZN5physx14NpArticulation26setMaxProjectionIterationsEj
k0d:__ZN5physx3Cct15ObstacleContext14removeObstacleEj
z_i:_CustomAttributeTypedArgument_Equals_m2261980307
EB:__ZN7mecanim12statemachine24CreateStateMachineMemoryEPKNS0_20StateMachineConstantERNS_6memory9AllocatorE
Inb:__ZN9GfxDevice18SetGlobalDepthBiasEff
Sco:__ZN6il2cpp6icalls8mscorlib6System8MonoType12get_AssemblyEP20Il2CppReflectionType
Mj:_emscripten_glGetPointerv
wXk:_Array_Sort_TisSingle_t1397266774_TisSingle_t1397266774_m1233431437_gshared
LG:__ZN8Animator22ApplyBuiltinRootMotionEv
Hyc:__Z14BezierExtractUfff
nMb:__Z26ApplyMaterialPassWithCacheRK18SharedMaterialDataR17ShaderPassContextP6ShaderPN9ShaderLab4PassEibPKNS6_10GrabPassesEPNS6_11SubProgramsEPK22DeviceRenderStateBlock
Mgf:__ZN5physx7profile8ZoneImplINS_28PxProfileNameProviderForwardEE17handleBufferFlushEPKhj
OIg:__ZL81Camera_t4157153871_CustomAttributesCacheGenerator_Camera_RaycastTry2D_m2460696262P21CustomAttributesCache
F9d:__ZN5physx2Sc5ActorC2ERNS0_16InteractionSceneEhNS0_14IslandNodeInfo4TypeE
r$f:_TMP_LinkInfo_SetLinkID_m3158822466_AdjustorThunk
e5h:_InternalEnumerator_1_get_Current_m1897120917_AdjustorThunk
EVi:_MonoType_ReorderParamArrayArguments_m2458683451
r6i:_FormatterConverter_ToInt16_m4282804414
y3f:_TMP_SubMeshUI_OnTransformParentChanged_m2009301060
Uwh:_StandaloneInputModule_ProcessTouchPress_m4019232747
yEk:_FileStream__ctor_m3151488352
SNk:_Array_swap_m547389985
kue:__ZN5physx15NpActorTemplateINS_7PxClothEED2Ev
Vsm:_UInt32_ToString_m2420423038
$Wl:_List_1_System_Collections_IList_Add_m634558835_gshared
aFk:_FileStream_get_Length_m426703983
qeo:_WWW_get_text_m898164367
XIc:__Z13RegisterClassI10TagManagerEvPKc
Pse:__ZN5physx2Sc9ClothCore16setRestPositionsEPKNS_6PxVec4E
b9e:__ZN5physx2Gu12TriangleMesh4loadERNS_13PxInputStreamE
knd:__ZL17DrawMeshParticlesILb0EL25ParticleSystemRenderSpace2EEvRK26ParticleSystemTempMeshDataRK22ParticleSystemTempDataRK23ParticleSystemParticlesRK31ParticleSystemParticlesTempDataRK26ParticleSystemRendererDataRK21ParticleSystemModulesPfPv
JN:__ZN12AudioManager5ResetEv
jIg:__ZL68DisallowMultipleComponent_t1422053217_CustomAttributesCacheGeneratorP21CustomAttributesCache
_ja:__ZN6prcoreL17RemapGenericFloatI17TexFormatRGBAHalf15TexFormatRGHalfEEvPKNS_9InnerInfoE
Snl:_Enumerator_Reset_m576306132_gshared
dEo:__ZN6il2cpp6icalls8mscorlib6System11Environment20GetWindowsFolderPathEi
SFm:_ReadOnlyCollection_1_System_Collections_Generic_IListU3CTU3E_set_Item_m2921615109_gshared
rrf:_UNITY_FT_Stream_ReadFields
sA:__ZN7mecanim5human18HumanPoseBlendNodeERNS0_9HumanPoseEPS1_f
Pqf:_UNITY_FT_RoundFix
imh:_FastAction__ctor_m80680614
vsd:__ZN9Scripting11UnityEngine19PhysicsJobOptions2D12CleanupProxyEv
LKo:_GC_is_heap_ptr
uPd:__ZNK5physx2Gu15HeightFieldUtil12traceSegmentI24ConvexVsHeightfieldSweepLb0ELb0ELb1EEEvRKNS_6PxVec3ES6_PT_PS5_
ukl:_ASN1_DecodeTLV_m1200977460
kjj:_UnityEventBase_PrepareInvoke_m1785382128
U7e:__ZNK5physx12PxConvexMesh19getConcreteTypeNameEv
m5a:__ZNK12MeshRenderer22GetTypeVirtualInternalEv
rRk:_Char_System_IConvertible_ToUInt32_m3901815580
ZHj:_Scrollbar_set_onValueChanged_m346467699
$Hd:__ZN13ProduceHelperI13BoxCollider2DLb0EE7ProduceE10MemLabelId18ObjectCreationMode
Izh:_ColorBlock_set_disabledColor_m2996580094
wQd:__ZN5physx2Gu19gjkLocalPenetrationINS0_9TriangleVENS0_17ShrunkConvexHullVEEEjRKT_RKT0_RKNS_6shdfnd3aos6FloatVERNSB_5Vec3VESG_SG_RSC_PhSI_Rhb
jri:__Z157RuntimeInvoker_Int32_t2950945753_RuntimeObject_Int32_t2950945753_Int32_t2950945753_Int32_t2950945753_SByte_t1669577662_SByte_t1669577662_Int32U26_t1369213839PFvvEPK10MethodInfoPvPS4_
HQ:__ZN4FMOD6System17setSoftwareFormatEi17FMOD_SOUND_FORMATii18FMOD_DSP_RESAMPLER
Pln:__ZN30GenericInterfaceActionInvoker1I17Scene_t2348375561E6InvokeEPK10MethodInfoP12Il2CppObjectS0_
W1d:__ZN5physx2Sc13ShapeIterator4initERKNS0_8ActorSimE
fPa:__ZN14SafeBinaryRead19TransferSTLStyleMapINSt3__23mapIN4core12basic_stringIcNS3_20StringStorageDefaultIcEEEES7_NS1_4lessIS7_EE13stl_allocatorINS1_4pairIKS7_S7_EEL18MemLabelIdentifier1ELi16EEEEEEvRT_17TransferMetaFlags
Tt:__ZL49__ManagedRegistrationHelperFunction_AimConstraintPv
bHf:__ZN2UI6Canvas27UpdateEventIndexesRecursiveERi
Zy:__ZN7mecanim9animation18EvaluateRootMotionERKNS0_18ClipMuscleConstantERKNS0_15ClipMuscleInputEPKfS8_RNS0_12MotionOutputEb
y_:__ZN11UnityEngine15CloudWebService16SessionContainer21PrepareDataErrorEventERN4core12basic_stringIcNS2_20StringStorageDefaultIcEEEE
juh:_ExecuteEvents_get_pointerUpHandler_m3515704212
sSk:_ArrayList_set_Item_m2003485935
lOh:_SatelliteContractVersionAttribute__ctor_m3630863995
bwh:_MouseButtonEventData_PressedThisFrame_m1060658845
ZQf:__ZN16UploadHandlerRaw13TransmitBytesEPvjj
QBb:__Z19TransferField_ArrayI19StreamedBinaryWriteILb0EE27Converter_SimpleNativeClassI8GUIStyleEEvRK23StaticTransferFieldInfoR31RuntimeSerializationCommandInfoRT0_
iUc:__Z43Register_UnityEngine_Renderer_get_isVisiblev
HEm:_ReadOnlyCollection_1_System_Collections_Generic_IListU3CTU3E_RemoveAt_m3969985996_gshared
hof:__ZN20TextRenderingPrivate8TextMesh23VirtualRedirectTransferER18StreamedBinaryReadILb0EE
Qne:__ZN5physx14NpArticulationC2Ev
zFn:_UnityWebRequest_SetUploadHandler_m2465141380
MGa:__Z28BuildSingleStreamChannelInfoP11ChannelInfo17ShaderChannelMaskS1_
M0o:_emscripten_glCopyTexSubImage2D__wrapper
spj:_PlayerConnection_get_isConnected_m911966057
REh:_GraphicRegistry_GetGraphicsForCanvas_m4219276355
zWi:_NumberFormatter_FastToDecHex_m699829267
wtn:_PatternCompiler_MakeFlags_m1977119795
R0c:__Z35Transfer_Blittable_FixedBufferFieldI8JSONReadiEvRK29SerializationCommandArgumentsR31RuntimeSerializationCommandInfo
pmd:__ZN22ParticleSystemRenderer16UpdateCachedMeshEv
ybo:__ZNSt3__213__vector_baseIN6il2cpp2os19SocketHandleWrapperENS_9allocatorIS3_EEED2Ev
cjg:_U3CWarpTextU3Ec__Iterator0_Reset_m493227373
qog:__ZL48_Type_t3588564251_CustomAttributesCacheGeneratorP21CustomAttributesCache
C7c:__ZN12LightsModule8TransferI24GenerateTypeTreeTransferEEvRT_
SXa:__ZN28ReflectionProbeAnchorManager18RemoveCachedAnchorERK4PPtrI9TransformE
Lc:invoke_viiffi
Tec:__ZN13sorted_vectorINSt3__24pairIN4core12basic_stringIcNS2_20StringStorageDefaultIcEEEEPK17MessageIdentifierEEN10vector_mapIS6_S9_NS0_4lessIS6_EENS0_9allocatorISA_EEE13value_compareESF_E10insert_oneERKSA_
eOh:_ResourceSet_ReadResources_m3663669011
ZEa:__ZL13MeshExtractorPv16VertexInputMasksiR11MeshBuffersR16DrawBuffersRangeRiS5_
iTa:__ZNK12CubemapArray20GetRuntimeMemorySizeEv
Uwe:__ZN5physx2Sc18ParticleSystemCore18setProjectionPlaneERKNS_7PxPlaneE
glc:__Z14resize_trimmedINSt3__26vectorIN9ShaderLab18SerializedPropertyENS0_9allocatorIS3_EEEEEvRT_j
Eod:__Z20UpdateWholeSheet2TplIL27ParticleSystemCurveEvalMode3ELS0_3EEvfRK11MinMaxCurveS3_RK23ParticleSystemParticlesPf
bFe:__ZN5physx6shdfnd8PoolBaseINS_2Sc9ActorPairENS0_19ReflectionAllocatorIS3_EEE12allocateSlabEv
a9n:__ZN6il2cpp2vm13MetadataCache38GetMethodInfoFromMethodDefinitionIndexEi
Wsh:_EventSystem_set_current_m38955169
PQc:__Z39MonoBehaviour_CUSTOM_GetScriptClassNameP12Il2CppObject
F7g:__ZL53Selectable_t3250028441_CustomAttributesCacheGeneratorP21CustomAttributesCache
XZf:_TMP_InputField_Backspace_m3815535005
xsn:_CostDelegate_EndInvoke_m2797921932
s_a:__ZN10VertexData8TransferI24GenerateTypeTreeTransferEEvRT_
amn:_UnityAction_2_Invoke_m3803176137_gshared
k4k:_Double_IsInfinity_m820013146
oaj:_CryptographicException__ctor_m503735289
bwj:_Screen_get_dpi_m495672463
Alm:_UTF8Encoding_InternalGetByteCount_m2120178851
q9b:__ZL10CullLightsRK22SceneCullingParametersR11CullResults
g9k:_Convert_ToUInt64_m3170916409
zB:__ZN7mecanim12statemachine20GetBlendTreeConstantERKNS0_13StateConstantEi
eGe:__ZN5physx7NpScene21setDominanceGroupPairEhhRKNS_20PxDominanceGroupPairE
IBk:_Int64_System_IConvertible_ToInt16_m4062196970_AdjustorThunk
$Vi:_MonoType_GetGenericTypeDefinition_m3201894896
xwc:__Z40GetTemporaryCachePathApplicationSpecificv
imb:__ZN9GfxDevice16EndAsyncJobFrameEv
qzi:__Z99RuntimeInvoker_Int32_t2950945753_Ray_t3785851493_RuntimeObject_Single_t1397266774_Int32_t2950945753PFvvEPK10MethodInfoPvPS4_
Atf:_UNITY_tt_face_load_hhea
VQ:__ZN12AudioManager27InitialCompleteDomainReloadEv
Ll:___syscall3
gzi:__Z135RuntimeInvoker_RaycastHit2D_t2279581989_Vector2_t2156229523_Vector2_t2156229523_Single_t1397266774_Int32_t2950945753_Single_t1397266774PFvvEPK10MethodInfoPvPS4_
Ol:___syscall6
Ql:___syscall4
x$:__ZN11UnityEngine15CloudWebService20WebRequestRestClient17GetResponseStatusEv
yVh:_ReturnMessage__ctor_m2352989078
z7d:__ZN5physx6shdfnd4sortIPvNS0_4LessIS2_EENS0_19ReflectionAllocatorINS_2Sc19ConstraintGroupNodeEEEEEvPT_jRKT0_RKT1_j
Feo:__ZN6il2cpp2vm7Runtime9SetConfigEPKc
elb:__ZNSt3__26__treeINS_12__value_typeIN4core12basic_stringIcNS2_20StringStorageDefaultIcEEEEPN16MemoryFileSystem4NodeEEENS_19__map_value_compareIS6_SA_NS_4lessIS6_EELb1EEE13stl_allocatorISA_L18MemLabelIdentifier55ELi16EEE7destroyEPNS_11__tree_nodeISA_PvEE
vyi:__Z67RuntimeInvoker_Boolean_t97287965_TextGenerationSettings_t1351628751PFvvEPK10MethodInfoPvPS4_
nTk:_ArrayListWrapper_IndexOf_m3692065720
tpk:_TlsServerCertificateRequest__ctor_m1334974076
ird:__ZN27PerformanceReportingManager23VirtualRedirectTransferER14SafeBinaryRead
e7k:_Convert_ToInt32_m1613163543
fqa:__ZN9Scripting11UnityEngine9Playables8Playable12CleanupProxyEv
gEm:_ReadOnlyCollection_1_System_Collections_ICollection_CopyTo_m3127175806_gshared
dm:_emscripten_glShaderBinary
S0j:_String_op_Inequality_m215368492
$rm:_UInt16_ToString_m760649087
dhb:__ZNK20LocalFileSystemPosix6ExistsERK13FileEntryData
L7d:__ZN5physx35NpArticulationJointGetBodiesFromScbERNS_3Scb17ArticulationJointERPNS0_4BodyES5_
o7e:__ZNK5physx2Sc15ClothFabricCore16getTetherLengthsEPfj
Yfj:_Camera_GetAllCameras_m668492922
Vvf:_UNITY_TT_Get_HMetrics
qpm:_TimeSpan_op_Inequality_m2467851530
tEb:__ZN17AnimationCurveTplIfE8TransferI18StreamedBinaryReadILb1EEEEvRT_
UXk:_Array_Sort_TisUIVertex_t4057497605_m3996333845_gshared
h$g:__ZL73ContactFilter2D_t3805203441_CustomAttributesCacheGenerator_maxNormalAngleP21CustomAttributesCache
U_o:_emscripten_glShaderBinary__wrapper
s9i:_SByte_System_IConvertible_ToDouble_m2381680501
kOk:_Swapper_BeginInvoke_m1688449973
Shj:_Display_get_renderingWidth_m1970428952
VKe:__ZN5physx2Sc13ConstraintSim8getForceERNS_6PxVec3ES3_
Osi:__Z81RuntimeInvoker_Void_t1185182177_RuntimeObject_Int32_t2950945753_Int64_t3736567304PFvvEPK10MethodInfoPvPS4_
Min:_TMP_XmlTagStack_1_Pop_m1336251350_AdjustorThunk
UK:__ZNSt3__26vectorIN4core12basic_stringIcNS1_20StringStorageDefaultIcEEEE13stl_allocatorIS5_L18MemLabelIdentifier1ELi16EEE21__push_back_slow_pathIS5_EEvOT_
ofd:__Z25UpdateOrbitalAndRadialTplIL27ParticleSystemCurveEvalMode4ELS0_3ELS0_2EEvRK11MinMaxCurveS3_S3_S3_S3_S3_S3_R23ParticleSystemParticlesjjRKN4math8float3x3ERKNS6_7affineXERKNS6_7_float4E
wWd:__ZN5physx15PxGeometryQuery18computePenetrationERNS_6PxVec3ERfRKNS_10PxGeometryERKNS_11PxTransformES6_S9_
Ton:_IndexedSet_1_IndexOf_m241693686_gshared
kLf:__ZN11UnityEngine15PlatformWrapper30GetGraphicsDriverLibraryStringEv
$8i:_RuntimeMethodHandle_Equals_m3301340296_AdjustorThunk
rtm:_UInt64_System_IConvertible_ToSingle_m925613075_AdjustorThunk
Dif:__ZN5Unity12PhysicsQueryC2Ev
QFb:__Z18Transfer_BlittableI18StreamedBinaryReadILb0EELb0E4AABBEvRK29SerializationCommandArgumentsR31RuntimeSerializationCommandInfo
F9a:__ZN24GenerateTypeTreeTransfer19TransferSTLStyleMapINSt3__28multimapIN4core12basic_stringIcNS3_20StringStorageDefaultIcEEEE4PPtrI6ObjectENS1_4lessIS7_EE13stl_allocatorINS1_4pairIKS7_SA_EEL18MemLabelIdentifier52ELi16EEEEEEvRT_17TransferMetaFlags
yv:__ZN16MecanimAnimation24DeleteAnimatedPropertiesERP26IAnimatedPropertyEvaluator
SZk:_Dictionary_2_Do_ICollectionCopyTo_TisKeyValuePair_2_t2245450819_m216493345_gshared
Toh:_TextContainer__cctor_m389829303
sYn:_CanvasRenderer_SetMaterial_m824577244
o7c:__ZN11ColorModule8TransferI24GenerateTypeTreeTransferEEvRT_
l$b:__Z14DrawGUITextureRK5RectTIfEP7Texture11ColorRGBA32P8Materiali
Mhg:_U3CU3Ec__Iterator0_Dispose_m4156704853
XNa:__ZNK15PlayableMethods18InvokeProcessFrameER18ScriptingObjectPtrRK9HPlayableP18ScriptingFrameDataRK9FrameData
uF:__ZN9BlobWrite8TransferI22OffsetPtrArrayTransferIKN4math7_float4EEEEvRT_PKc17TransferMetaFlags
izj:_Transform_IsChildOf_m224006092
ZMa:__ZN15TextureSettings8TransferI24GenerateTypeTreeTransferEEvRT_
A0c:__ZN9JSONWrite8TransferI4AABBEEvRT_PKc17TransferMetaFlags
lDj:_LayoutElement_set_preferredHeight_m1999633022
jjc:__ZN15dense_hashtableINSt3__24pairIKiN4core17string_with_labelILi1EEEEEi18SInt32HashFunctionN14dense_hash_mapIiS5_S7_NS0_8equal_toIiEE13stl_allocatorIS6_L18MemLabelIdentifier1ELi16EEE9SelectKeyESA_SD_E12expand_arrayEjN21dense_hash_map_traits17integral_constantIbLb0EEE
cAc:__Z13RegisterClassI15QualitySettingsEvPKc
G3h:_InternalEnumerator_1_get_Current_m3191242573_AdjustorThunk
v4e:__ZNK18ScBeforeSolverTask7getNameEv
it:__ZN13ConstraintJob17ConstraintJobDataD2Ev
kgd:__Z25UpdateOrbitalAndRadialTplIL27ParticleSystemCurveEvalMode2ELS0_1ELS0_2EEvRK11MinMaxCurveS3_S3_S3_S3_S3_S3_R23ParticleSystemParticlesjjRKN4math8float3x3ERKNS6_7affineXERKNS6_7_float4E
bXn:_TextGenerator_PopulateAlways_m1922695746
cEn:_Aes__ctor_m178909601
KTa:__ZNK9Texture2D20GetRuntimeMemorySizeEv
hL:__ZN11Marshalling39CreateNullExceptionForUnityEngineObjectE18ScriptingObjectPtr
FTe:__ZN5physx14solve1D4_BlockEPKNS_23PxcSolverConstraintDescEjRNS_16PxcSolverContextE
b4c:__ZN5Unity9rapidjson13GenericReaderINS0_4UTF8IcEES3_13JSONAllocatorE9ParseTrueILj0ENS0_19GenericStringStreamIS3_EENS0_15GenericDocumentIS3_S4_S4_EEEEvRT0_RT1_
nn:_emscripten_glUniform2iv
sWf:_DropdownItem_OnCancel_m3947700413
VWd:__ZL33GeomMTDCallback_ConvexHeightFieldRN5physx6PxVec3ERfRKNS_10PxGeometryERKNS_11PxTransformES5_S8_
qma:__ZL46__ManagedRegistrationHelperFunction_ColorGamutPv
tmf:_UNITY_FT_Outline_Transform
Trc:__Z60Register_UnityEngine_Sprites_DataUtility_Internal_GetMinSizev
W3n:__ZN6il2cpp2vm5Class10GetMethodsEP11Il2CppClassPPv
mSc:__Z45Register_UnityEngine_Mesh_get_bounds_Injectedv
X4b:__Z30AddDefaultStreamsToMeshBuffersR9GfxDeviceR11MeshBuffersRK16DrawBuffersRange17ShaderChannelMaskS6_
mVb:__ZN7ApiGLES17DeleteFramebufferERN2gl6HandleILNS0_10ObjectTypeE9EEES3_
cof:__ZN20TextRenderingPrivate8TextMesh17MainThreadCleanupEv
EXb:__ZN15UniformTFMethod13MapBoneBufferEj
KBf:__ZN2UI14CanvasRendererD2Ev
Z$k:_Array_InternalArray__get_Item_TisParameterModifier_t1461694466_m29553316_gshared
vQm:_Nullable_1_GetHashCode_m1123196047_gshared
_Bk:_Int64_CompareTo_m1928360444_AdjustorThunk
LYe:__ZN5physx26PxcPCMContactCapsuleConvexERKNS_2Gu13GeometryUnionES3_RKNS_11PxTransformES6_RKfRNS_10PxcNpCacheERNS0_13ContactBufferE
Ioe:__ZNK5physx7NpShape16getContactOffsetEv
dLb:__Z9SetupArgviPPKc
z7k:_Convert_ToInt64_m2075031821
Aid:__Z15GetPositionMeshIL20MeshDistributionMode0ELb0E11ColorRGBA32EvRN4math8floatNx3ES4_RNS2_4pix4ERK13dynamic_arrayIS1_Lj0EERK14StrideIteratorI8Vector3fESF_RKSB_I8Vector2fERKSB_IT1_ERKS7_I16MeshTriangleDataLj0EERKS7_I11MeshAreaLUTLj0EERKfRKiSX_RK16ShapeTextureDataR5RandNP12SkinMeshInfo
_jo:__ZN6il2cpp2vm10Reflection7IsFieldEP12Il2CppObject
B0m:_Collection_1_IsSynchronized_m1300921416_gshared
uHn:_AnalyticsEventTracker_OnDisable_m1553012800
I1o:_glTexParameteri__wrapper
Jae:__ZN5physx10PxsContext17addParticleSystemEPNS_15PxsParticleDataERKNS_26PxvParticleSystemParameterEb
F8d:__ZN5physx3Scb5Scene13addRigidNoSimINS0_4BodyELb1ELb1EEEvRT_RNS0_13ObjectTrackerE
mTa:__ZN12CubemapArray23VirtualRedirectTransferER24GenerateTypeTreeTransfer
wma:__ZL49__ManagedRegistrationHelperFunction_RenderTexturePv
ftl:_KeyCollection_System_Collections_Generic_ICollectionU3CTKeyU3E_Add_m220590786_gshared
TVn:_U3CDefaultUnityWebRequestU3Ed__0_U3CU3Em__Finally1_m3779297382
TDo:__ZN6il2cpp2os9Directory6CreateERKNSt3__212basic_stringIcNS2_11char_traitsIcEENS2_9allocatorIcEEEEPi
RRd:__ZL19sweepBoxVsTrianglesjPKN5physx10PxTriangleERKNS_2Gu3BoxERKNS_6PxVec3EfRNS_10PxSweepHitENS_7PxFlagsINS_9PxHitFlag4EnumEtEEbPKj
gza:__ZN23TransformChangeDispatch32QueueTransformChangeIfHasChangedERK15TransformAccess
Tef:_PxCreateCooking
pUd:__ZN9Rigidbody18AddForceAtPositionERK8Vector3fS2_i
oDo:__ZN6il2cpp2os26LibraryNamePrefixAndSuffixC2EPKcS3_
ZYi:_Assembly_get_FullName_m293988418
XId:__ZN22WorldContactListener2D8PreSolveEP9b2ContactPK10b2Manifold
fMf:__ZN22BaseUnityConnectClientD0Ev
zfj:_Camera_get_pixelRect_Injected_m2326986893
ydg:_Scoreboard_SaveToString_m4162145868
Erd:__ZN27PerformanceReportingManager18ActiveSceneChangedEPS_P10UnitySceneS2_
B:tempValue
AOo:__ZN6il2cpp8metadata24Il2CppGenericContextHash4HashEPK20Il2CppGenericContext
m3h:_InternalEnumerator_1_get_Current_m356936020_AdjustorThunk
V$b:__ZN6Camera21RenderODSWorldTextureERK11CullResultsRK19SharedRendererSceneR17ShaderPassContextNS_10RenderFlagE
Qgd:__Z25UpdateOrbitalAndRadialTplIL27ParticleSystemCurveEvalMode3ELS0_1ELS0_4EEvRK11MinMaxCurveS3_S3_S3_S3_S3_S3_R23ParticleSystemParticlesjjRKN4math8float3x3ERKNS6_7affineXERKNS6_7_float4E
R7:__Z29scripting_class_from_fullnamePKcS0_S0_
XDk:_Directory_GetCurrentDirectory_m219218555
Tyj:_Transform_TransformDirection_m3784028109
GKk:_SmallXmlParser_UnexpectedEndError_m1914362401
YB:__ZN26AnimatorControllerPlayable18DeallocateBindingsEv
$Wd:__ZN5physx2Gu29ConvexVsMeshContactGeneration20generateLastContactsEv
Izi:__Z85RuntimeInvoker_Boolean_t97287965_Ray_t3785851493_Single_t1397266774_Int32_t2950945753PFvvEPK10MethodInfoPvPS4_
Ypb:__ZN14DelayedDeletorI15dense_hashtableINSt3__24pairIK9TextureIDiEES3_14GfxGenericHashIS3_EN14GfxDoubleCacheIS3_iS7_NS1_8equal_toIS3_EEN31GfxDoubleCacheConcurrencyPolicy11LocklessGetE42GfxDoubleCacheDefaultEmptyDeletedGeneratorIS3_EE9SelectKeyESA_13stl_allocatorIS5_L18MemLabelIdentifier24ELi16EEEEclEv
hIl:_Dictionary_2_CopyToCheck_m3475736769_gshared
IT:__ZN11AudioSource19CreateOpenALRolloffEfff
utf:_UNITY_FT_Stream_ReadAt
Qve:__ZN5physx2Sc17ParticleSystemSim16getParticleStateEv
VUn:_AudioSampleProvider_Dispose_m1993565764
J0n:_Physics_Raycast_m3336206959
B3e:__ZN5physx6shdfnd5ArrayINS_25PxsCompoundContactManagerENS0_19ReflectionAllocatorIS2_EEE8recreateEj
T6h:_InternalEnumerator_1_get_Current_m1711665164_gshared
bpd:__Z19UpdateSingleRow2TplIL27ParticleSystemCurveEvalMode3ELS0_1EEvfRK11MinMaxCurveS3_RK23ParticleSystemParticlesPfbiii
o0c:__ZN9JSONWrite8TransferI13dynamic_arrayI5RectTIfELj0EEEEvRT_PKc17TransferMetaFlags
NSm:_List_1_System_Collections_IList_Contains_m3860993176_gshared
xWe:__ZN5physx14PxsAABBManagerC2ERNS_2Cm13EventProfilerERNS_19PxcScratchAllocatorE
rX:__ZN11AudioModule22CreateAudioClipFromWWWEP10IWWWStreamPKcbbi
kDc:__ZN9Texture2DC2E10MemLabelId18ObjectCreationMode
wOb:__Z17DebugStringToFileIA59_cEvRKT_iPKci15LogMessageFlagsiiPFvRK11CppLogEntryE
M7i:_ObjectRecord_get_IsUnsolvedObjectReference_m1163921033
dsm:_UInt32_System_IConvertible_ToBoolean_m1763673183_AdjustorThunk
Ldm:_Array_InternalArray__ICollection_CopyTo_TisTextAlignmentOptions_t4036791236_m3453113315_gshared
ejj:_UnityEvent_AddListener_m2276267359
Rs:__Z9SetLocalR15TransformAccessRKN4math7_float4Ey
uKa:__ZN6prcoreL11inner_clearILj4EEEvPhjjj
I1n:_NativeTypeAttribute__ctor_m1677513894
H2:__GLOBAL__sub_I_Runtime_SceneManager_0_cpp
Gsj:_Quaternion_Euler_m3049309462
iga:__ZNK8Playable6HandleEv
hAj:_SetPropertyUtility_SetColor_m2229203028
Apl:_Enumerator_MoveNext_m481679286_gshared
eaa:__ZN14MessageHandler28MessageIDToMessageIdentifierEi
wyn:_Uri_get_Query_m2772518875
X_a:__ZNK11SpriteAtlas20GetRuntimeRenderDataEPK6Sprite
NDk:_FileSystemInfo__ctor_m3035148496
SHd:__Z13RegisterClassI17CapsuleCollider2DEvPKc
FAk:_Int32_System_IConvertible_ToDecimal_m2190376994_AdjustorThunk
ooa:__ZL43__ManagedRegistrationHelperFunction_Vector4Pv
Wz:__ZN7mecanim14ValueArrayCopyILb0EEEvPKNS_10ValueArrayEPS1_
nL:__Z51Register_UnityEngine_Animator_get_hasBoundPlayablesv
te:emscriptenWebGLGetUniform
Op:FUNCTION_TABLE_iiiiiiiiiii
nBn:_GUI_CallWindowDelegate_m3309453386
eKl:_Enumerator_System_Collections_IEnumerator_Reset_m1475773051_AdjustorThunk
Nrf:_cff_set_mm_blend
hUd:__ZN5physx2Gu19sweepCapsuleCapsuleERKNS0_7CapsuleES3_RKNS_6PxVec3EfRfRS4_S8_jRt
ibc:__ZL10CleanUpJobP20CullingGroupsJobData
JDk:_DirectoryInfo_get_Exists_m3142069876
u1a:__ZN10MeshFilter23VirtualRedirectTransferER24GenerateTypeTreeTransfer
dAc:__Z13RegisterClassI16LightmapSettingsEvPKc
c$b:__ZN13RenderManager15BatchModeUpdateEv
vgi:_Enumerator_VerifyState_m1545185457_AdjustorThunk
Rdk:_X509Chain_get_CertificateAuthorities_m804805415
SPk:_Boolean_ToString_m663098404_AdjustorThunk
__g:__ZL71ContactFilter2D_t3805203441_CustomAttributesCacheGenerator_useLayerMaskP21CustomAttributesCache
YKn:_Vector2_get_one_m738793577
qEd:__ZN10ClipperLib7Clipper15SetWindingCountERNS_5TEdgeE
NKc:__ZNK4Mesh14GetIndexFormatEv
oJf:__ZN9Scripting11UnityEngine9Analytics21AnalyticsSessionState9InitProxyEv
rjg:_TextConsoleSimulator_OnDisable_m2939709510
KKn:_Vector2_get_magnitude_m2752892833_AdjustorThunk
Ohe:__ZN5physx2Sc8ActorSim24postDominanceGroupChangeEv
Wqh:_TextMeshProUGUI_GetCanvas_m3181528364
yzo:__ZN14dense_hash_mapI10KeyWrapperIP12Il2CppObjectEN6il2cpp2gc9CachedCCWENS4_5utils11PointerHashIS1_EENS3_14EqualsComparerINSt3__28equal_toIS2_EEEENSB_9allocatorINSB_4pairIKS3_S6_EEEEE13set_empty_keyERSH_
Le:_glVertexAttribIPointer
Qjm:_StringBuilder_ToString_m3317489284
F4f:_TMP_Text_set_fontSizeMin_m3526936629
Frc:__ZNK6Sprite10GetPaddingE20SpriteRenderDataMode
Gie:__ZN5physx2Cm8PtrTable5clearERNS0_22PtrTableStorageManagerE
WPj:_Array_InternalArray__ICollection_Remove_TisUInt32_t2560061978_m733727733_gshared
h0d:__ZN5physx3Cct15ObstacleContext7releaseEv
jTe:__ZN5physx27solveFrictionBlockWriteBackEPKNS_23PxcSolverConstraintDescEjRNS_16PxcSolverContextEPNS_25PxcThresholdStreamElementEjPi
uFk:_Stream_EndRead_m1896469262
bhi:__Z93RuntimeInvoker_Boolean_t97287965_Int32_t2950945753_SByte_t1669577662_ExceptionU26_t3600731591PFvvEPK10MethodInfoPvPS4_
q2k:_SortedList__ctor_m1261191695
E2b:__ZN14qsort_internal5QSortIP15RODataDepthPassi17ROSorterDepthPassEEvT_S4_T0_T1_
Pyk:_Guid_CompareTo_m243656946
QXn:_Canvas_get_additionalShaderChannels_m2758569541
duf:_UNITY_ft_glyphslot_alloc_bitmap
jjf:__ZN13PhysicsModule21SetAutoSyncTransformsEbb
qBm:_ReadOnlyCollection_1_System_Collections_IList_Add_m3642938800_gshared
Tsk:_RSASslSignatureDeformatter_SetHashAlgorithm_m895570787
o6:__ZL36TransformAccessArray_InitializeClassPv
xzo:__ZN14dense_hash_mapI10KeyWrapperIP12Il2CppObjectEN6il2cpp2gc9CachedCCWENS4_5utils11PointerHashIS1_EENS3_14EqualsComparerINSt3__28equal_toIS2_EEEENSB_9allocatorINSB_4pairIKS3_S6_EEEEEC2EjRKS9_RKSE_
Kfi:_Enumerator_System_Collections_IDictionaryEnumerator_get_Key_m554883757_AdjustorThunk
Tbg:_JSON_Parse_m3730951315
IQj:_Enumerable_Contains_TisRuntimeObject_m553751294_gshared
jdf:__ZN5physx6shdfnd10Foundation19AlignCheckAllocator8allocateEjPKcS4_i
pSc:__Z47Register_UnityEngine_Mesh_RecalculateBoundsImplv
vmb:__ZN9GfxDevice27UpdateComputeSkinPoseBufferEP9GfxBufferP12SkinMeshInfo
l4j:_String_LastIndexOf_m3451222878
RSo:__ZNKSt3__221__basic_string_commonILb1EE20__throw_length_errorEv
l7l:_EqualityComparer_1_System_Collections_IEqualityComparer_Equals_m245992594_gshared
Yj:_JS_SystemInfo_GetMemory
mVj:_Array_InternalArray__IndexOf_TisParameterModifier_t1461694466_m1227120810_gshared
WVb:__ZN18GfxFramebufferGLES13ReadbackImageER14ImageReferenceiiiiii
dZc:__ZN5Unity9rapidjson6WriterI16TempBufferWriterNS0_4UTF8IcEES4_13JSONAllocatorE11WriteStringEPKcj
zka:__ZN6prcoreL12RemapGenericI17TexFormatARGB888815TexFormatRGB565EEvPKNS_9InnerInfoE
VO:__ZN4FMOD7Channel19setReverbPropertiesEPK29FMOD_REVERB_CHANNELPROPERTIES
rIn:_StandardEventPayload_GetParameters_m2672427676
KHk:_StreamReader_Dispose_m156389394
F9:__ZN13MonoBehaviour22GetScriptFullClassNameEv
iIc:__ZN13ProduceHelperI11MonoManagerLb0EE7ProduceE10MemLabelId18ObjectCreationMode
Xcm:_Array_InternalArray__ICollection_CopyTo_TisKeyValuePair_2_t625878672_m4058206802_gshared
I3e:__ZN5physx6shdfnd4sortIPNS_15PxsContactPatchENS_27SortBoundsPredicateManifoldENS0_19ReflectionAllocatorIS3_EEEEvPT_jRKT0_RKT1_j
Q1b:__ZN13BatchRendererC2ER15RenderLoopStatsRK15RenderNodeQueuebb
Ukb:__ZNK16MemoryFileSystem9EnumerateEPKcP19dynamic_block_arrayI13FileEntryInfoLj32EEbPPv19FileEnumerationFlag
nJb:__ZN13MonoBehaviour9CallAwakeEv
iKa:__ZN20SphericalHarmonicsL211AddWeightedERKS_f
gki:__Z82RuntimeInvoker_RuntimeObject_Int64_t3736567304_Int64_t3736567304_Int64_t3736567304PFvvEPK10MethodInfoPvPS4_
OHj:__Z14bankers_roundff
Uxb:__Z19TransferField_ArrayI17RemapPPtrTransfer27Converter_SimpleNativeClassI8GUIStyleEEvRK23StaticTransferFieldInfoR31RuntimeSerializationCommandInfoRT0_
oTm:_List_1_Insert_m2426986470_gshared
a6h:_InternalEnumerator_1_get_Current_m3433165672_AdjustorThunk
UZc:__ZN9JSONWrite8TransferI10ColorRGBAfEEvRT_PKc17TransferMetaFlags
C$d:__ZN5physx3Cct26CharacterControllerManager16createControllerERKNS_16PxControllerDescE
GOf:__ZN11UnityEngine9Analytics22EventLimitResumedEventC2EjRKN4core12basic_stringIcNS2_20StringStorageDefaultIcEEEEb
pQh:_ChannelServices_CreateProvider_m2537021726
_9:__Z25scripting_method_get_name18ScriptingMethodPtr
exc:__Z35Register_UnityEngine_Resources_Loadv
ctk:_SslCipherSuite_ComputeKeys_m661027754
lwb:__Z19TransferField_ArrayI14SafeBinaryRead16Converter_StringEvRK23StaticTransferFieldInfoR31RuntimeSerializationCommandInfoRT0_
jqj:_Object_set_name_m291480324
acd:__ZN14ParticleSystem17SimulateParticlesER24ParticleSystemUpdateDataR23ParticleSystemParticlesjRKfPj
kdl:_Decimal_Equals_m2486655999
fKo:_GC_exit_check
ond:__ZL24GenerateParticleGeometryIL24ParticleSystemRenderMode0ELb1ELb1EL25ParticleSystemRenderSpace4EEvPfRK22ParticleSystemTempDataRK26ParticleSystemRendererDataRK21ParticleSystemModulesRK23ParticleSystemParticlesRK31ParticleSystemParticlesTempData
XMm:__ZN16VirtFuncInvoker2Ii19Color32_t2600501292S0_E6InvokeEjP12Il2CppObjectS0_S0_
X5b:__Z34SetupObjectBakedOcclusionInForwardbRK15SharedLightDataRK26SharedLightmapSettingsDataRK15LightmapIndicesR17ShaderPassContext
pll:_DSAManaged_get_Random_m923751780
s6:__ZL29TransformAccessChangeCallbackPK15TransformAccessj
Uqd:__ZN10SizeModuleC2E10MemLabelId
vLn:_Vector3_set_Item_m1772472431_AdjustorThunk
Kgk:_Interpreter_PopulateGroup_m4042796257
GDl:_ValueCollection_System_Collections_Generic_ICollectionU3CTValueU3E_Clear_m541602619_gshared
qPf:__ZN9Scripting11UnityEngine10Networking18CertificateHandler9InitProxyEv
MTf:__ZN9Scripting11UnityEngine12Experimental2XR13TrackableType9InitProxyEv
yqm:_Type_GetProperty_m3414567179
Auo:__ZN6il2cpp2vm13LivenessState25FieldCanContainReferencesEP9FieldInfo
lfc:__ZNSt3__26vectorINS_4pairIN4core12basic_stringIcNS2_20StringStorageDefaultIcEEEES6_EE13stl_allocatorIS7_L18MemLabelIdentifier38ELi16EEE6insertENS_11__wrap_iterIPKS7_EERSD_
Sjj:_RenderPipelineManager_DoRenderLoop_Internal_m3799666479
lF:__ZN9BlobWrite8TransferI22OffsetPtrArrayTransferI9OffsetPtrIN7mecanim12statemachine18StateMachineMemoryEEEEEvRT_PKc17TransferMetaFlags
SMo:__ZN6il2cpp2os12Cryptography23GetCryptographyProviderEv
VHc:__Z13RegisterClassI14PlayerSettingsEvPKc
Wf:_emscripten_glStencilOpSeparate
i8m:_Collection_1_System_Collections_IList_IndexOf_m3894953546_gshared
zYj:_RSACryptoServiceProvider_OnKeyGenerated_m863837376
ndn:_PKCS12_get_Certificates_m26161562
s8j:_NameObjectCollectionBase_Init_m2525481323
W4b:__ZN15SkyboxGenerator28GetCubemapSkyboxVertexFormatEv
gpb:__ZN19ShaderPropertySheet24SetTextureWithExplicitIDERK23FastTexturePropertyNameP7Texture9TextureID
NRl:_List_1_Insert_m1582252370_gshared
RFo:__ZN6il2cpp2vm6String8NewUtf16EPKDsi
l9i:_SByte_System_IConvertible_ToByte_m2268214252_AdjustorThunk
ADo:__ZN6il2cpp2os10ThreadImpl12QueueUserAPCEPFvPvES2_
dxn:_RegularExpression__ctor_m119502265
VOf:__ZN22BaseUnityConnectClient10QueueEventERN11UnityEngine15CloudWebService17CloudServiceEventEPKcjb
Chg:_JSONObject_Remove_m3544892468
EEm:_ReadOnlyCollection_1_System_Collections_Generic_ICollectionU3CTU3E_Clear_m522482168_gshared
NTh:_ConstructionCall_InitMethodProperty_m2021094586
NPc:__Z27Texture_CUSTOM_GetDataWidthP12Il2CppObject
KTd:__ZNK5physx2Gu15HeightFieldUtil12traceSegmentI25CapsuleTraceSegmentReportLb0ELb0ELb1EEEvRKNS_6PxVec3ES6_PT_PS5_
bXk:_Array_Sort_TisChar_t3634460470_m2306966989_gshared
mzd:__ZN7b2World19ContactsCollideTaskEv
fEl:_ValueCollection_System_Collections_Generic_ICollectionU3CTValueU3E_Add_m3595439229_gshared
ubd:__Z9UpdateTplIL27ParticleSystemCurveEvalMode1EEvRK11MinMaxCurveR23ParticleSystemParticlesjjbjRK8Vector2f
KXe:__ZN5physx10PxsContext23prepareCMDiscreteUpdateEPNS_10PxBaseTaskE
G8g:__ZL74CanvasScaler_t2767979955_CustomAttributesCacheGenerator_m_DefaultSpriteDPIP21CustomAttributesCache
hie:__ZN5physx6shdfnd5ArrayIPvNS0_19ReflectionAllocatorINS_2Cm5BlockIhLj256EEEEEE4copyINS0_15InlineAllocatorILj256ES7_EEEEvRKNS1_IS2_T_EE
ng:_emscripten_glGetError
wko:__ZN15dense_hashtableINSt3__24pairIK10KeyWrapperIPK14Il2CppAssemblyEPK22Il2CppMonoAssemblyNameEES6_N6il2cpp5utils11PointerHashIS4_EEN14dense_hash_mapIS6_SA_SF_NS6_14EqualsComparerINS0_8equal_toIS5_EEEENS0_9allocatorISB_EEE9SelectKeyESK_SM_E14squash_deletedEv
_Vf:_TMP_Dropdown_CreateBlocker_m1312254317
lKk:_SmallXmlParser__ctor_m202236734
XP:__Z14FMOD_FILE_SeekPvjS_
Ple:__ZN5physx6shdfnd8PoolBaseINS_11NpAggregateENS0_19ReflectionAllocatorIS2_EEE15disposeElementsEv
Vyh:_CanvasUpdateRegistry__ctor_m2005397069
eMa:__ZN7TextureC2E10MemLabelId18ObjectCreationMode
xDj:_LayoutGroup__ctor_m2162961217
YSd:__ZThn4_N16RayRTreeCallbackILi1ELb1EE14processResultsEjPj
gGf:__ZZN2UI6Canvas15InitializeClassEvEN39FunctorImpl_1449kCanvasHierarchyChanged4CallEPviR11MessageData
tcc:__ZNK13RenderTexture32CalculateNeedsInvertedProjectionEv
X$d:__ZN5physx2Gu17RadixSortBuffered4SortEPKfj
vg:emscriptenWebGLGet
tca:__Z19CanReplaceComponentRN5Unity9ComponentEPKNS_4TypeEPN4core12basic_stringIcNS5_20StringStorageDefaultIcEEEE
lTi:_UnmanagedMemoryStream_Flush_m1540584491
Dyk:_GuidParser_ParseGuid2_m1914838819
KFc:__ZN12CubemapArray11InitTextureEiii13TextureFormatb
oSa:__ZN6prcoreL18BlitIntegerToFloatERK14ImageReferenceRS0_
ukd:__ZN32CustomDataModulePropertyBindings13SetFloatValueER14ParticleSystemif
Urc:__Z17GetSceneBuildInfoRKN4core12basic_stringIcNS_20StringStorageDefaultIcEEEEiR14SceneBuildInfo
aKh:_MonoMethodInfo_GetCallingConvention_m3156036493
yYh:_InternalEnumerator_1_System_Collections_IEnumerator_get_Current_m55999184_gshared
e0f:_TMP_MeshInfo__ctor_m2732078488
Rrm:_UInt32_Parse_m3755665066
TDh:_Graphic_get_depth_m815589653
R4d:__ZN27ConvexVsMeshOverlapCallbackC2ERKN5physx2Gu10ConvexMeshERKNS0_11PxMeshScaleERKNS0_2Cm23FastVertex2ShapeScalingERKNS0_11PxTransformESE_bRKNS1_3BoxE
zMc:__Z18SetIParticleSystemP15IParticleSystem
WDj:_LayoutGroup_SetLayoutInputForAxis_m2458344630
UF:__ZN7mecanim5human13HumanFixTwistEPKNS0_5HumanEPNS_8skeleton13SkeletonPoseTIN4math4trsXEEES9_iiRKf
cLf:__ZN11UnityEngine15PlatformWrapper12GetBuildTagsEv
K5b:__ZL24AssignProjectorQueuesJobP30AssignProjectorQueuesJobHeader
GMh:_ParameterModifier_t1461694466_marshal_pinvoke
Pnc:__ZNSt3__26vectorIN9ShaderLab20SerializedSubProgram15StructParameterENS_9allocatorIS3_EEE21__push_back_slow_pathIS3_EEvOT_
Ozk:_Int16_System_IConvertible_ToUInt32_m3410279543
Cnc:__ZN9ShaderLab20SerializedSubProgram14SetConstBufferEPKci
Fad:__ZN11ShapeModule9ResetSeedERK27ParticleSystemReadOnlyState
nfo:__ZN6il2cpp2os4File5CloseEPNS0_10FileHandleEPi
R7n:__ZNSt3__27__sort5IRN6il2cpp5utils11collections13ArrayValueMapIPK10Il2CppType17Il2CppInteropData26InteropDataToTypeConverterNS1_8metadata14Il2CppTypeLessENSA_26Il2CppTypeEqualityComparerEE12SortComparerEPS8_EEjT0_SH_SH_SH_SH_T_
Rif:__ZN13PhysicsModule17SetRigidBodyStateER9RigidbodyRKN8IPhysics14RigidBodyStateE
bpf:_cf2_getStdVW
Jrm:_UInt16_CompareTo_m2664746316_AdjustorThunk
rlb:__ZN9GfxDevice13SetActiveTierE12GraphicsTier
MOe:__ZN5physx2Sq12BucketPruner11shiftOriginERKNS_6PxVec3E
G2c:__Z29Transfer_Blittable_ArrayFieldI8JSONReadjEvRT_R9ArrayInfoRK23StaticTransferFieldInfo
g8d:__ZN5physx6shdfnd5ArrayIPNS_2Sc16ArticulationCoreENS0_19ReflectionAllocatorIS4_EEE15growAndPushBackERKS4_
_zi:__Z54RuntimeInvoker_Vector2_t2156229523_Vector2_t2156229523PFvvEPK10MethodInfoPvPS4_
lKo:_GC_check_finalizer_nested
GGh:_Image__cctor_m1927508576
bh:__setLetterbox
PJj:_ScrollRect_OnScroll_m3861066534
h2e:__ZN5physx19normalizePartitionsERNS_6shdfnd5ArrayIjNS0_19ReflectionAllocatorIjEEEEPNS_23PxcSolverConstraintDescEPKNS_13PxcSolverBodyEjjS5_
kOj:_Array_InternalArray__ICollection_Contains_TisResourceCacheItem_t51292791_m2991582559_gshared
JRg:__ZL72FormerlySerializedAsAttribute_t2859083114_CustomAttributesCacheGeneratorP21CustomAttributesCache
Czj:_OnValidateInput_Invoke_m1009124904
UXd:__ZN18ContactCapsuleMesh20processTriangleCacheILj16EEEbRN5physx2Gu13TriangleCacheIXT_EEE
Stn:_PatternCompiler_EmitFastRepeat_m3012952683
J3a:__ZNSt3__26vectorI17BlendShapeChannelNS_9allocatorIS1_EEE6assignINS_11__wrap_iterIPS1_EEEENS_9enable_ifIXaasr21__is_forward_iteratorIT_EE5valuesr16is_constructibleIS1_NS_15iterator_traitsISA_E9referenceEEE5valueEvE4typeESA_SA_
xOb:__Z12SetGfxDeviceP9GfxDevice
rhc:__ZN11TimeManager11GetRealtimeEv
tXf:_TMP_InputField_get_isFocused_m859964129
O3d:__ZN5physx2Sc16InteractionScene25removeFromActiveActorListERNS0_5ActorE
rQ:__ZN29AudioEffectInternalDefinitionC2EP26UnityAudioEffectDefinitionb
HKm:_ReadOnlyCollection_1_System_Collections_IList_Remove_m2434650390_gshared
asm:_UInt16_ToString_m3056878594_AdjustorThunk
k5c:__ZNK11MinMaxCurve20FindMinMaxIntegratedEv
MLd:__ZN5physx3Ext21InertiaTensorComputer6rotateERKNS_7PxMat33E
Zol:_Enumerator_System_Collections_IDictionaryEnumerator_get_Value_m2179213088_gshared
Hhk:_Interval_get_IsSingleton_m3386290029
Jno:__ZNSt3__2plIcNS_11char_traitsIcEENS_9allocatorIcEEEENS_12basic_stringIT_T0_T1_EERKS9_PKS6_
Bxj:_Time_get_unscaledDeltaTime_m4270080131
DMf:__ZN18UnityConnectClient27OnPlayerSessionStateChangedEjyy
URa:_stbir_resize
qUj:_Array_IndexOf_TisCustomAttributeTypedArgument_t2723150157_m3158556463_gshared
pgl:_Environment_GetOSVersionString_m407782784
l6j:_DecoderExceptionFallback_Equals_m1082173956
jsg:__ZL69Assembly_t_CustomAttributesCacheGenerator_Assembly_GetName_m981771927P21CustomAttributesCache
Vma:__ZL59__ManagedRegistrationHelperFunction_AsyncGPUReadbackRequestPv
LKg:__ZL93Mesh_t3648964284_CustomAttributesCacheGenerator_Mesh_GetAllocArrayFromChannelImpl_m3084065604P21CustomAttributesCache
pwd:__ZN24b2ChainAndCapsuleContact6CreateEP9b2FixtureiS1_iP16b2BlockAllocator
hjb:__Z37ReadDirectoryInfo_UnityWebAndUnityRawR12FileAccessorRKN20ArchiveStorageHeader6HeaderERNS1_13DirectoryInfoE
F6:__ZNSt3__26__treeINS_12__value_typeIPKciEENS_19__map_value_compareIS3_S4_15compare_tstringIS3_ELb1EEENS_9allocatorIS4_EEE7destroyEPNS_11__tree_nodeIS4_PvEE
Pem:_Array_InternalArray__Insert_TisIntPtr_t_m189626842_gshared
Wck:_X509Certificate2_get_IssuerName_m1277209535
X8m:_RijndaelManaged_CreateEncryptor_m263736311
B2b:__ZN20DynamicPropertySheet14SetValueQueuedEN9ShaderLab16FastPropertyNameEN19ShaderPropertySheet12PropertyTypeEjNS2_8SetFlagsE
Lij:_InvokableCallList_ClearPersistent_m1904264973
Ogd:__Z25UpdateOrbitalAndRadialTplIL27ParticleSystemCurveEvalMode3ELS0_1ELS0_2EEvRK11MinMaxCurveS3_S3_S3_S3_S3_S3_R23ParticleSystemParticlesjjRKN4math8float3x3ERKNS6_7affineXERKNS6_7_float4E
xKb:__ZN25PathNamePersistentManagerD2Ev
_9a:__ZN17PersistentManager48IntegrateObjectAndUnlockIntegrationMutexInternalEi
H_f:_TMP_InputField_GenerateCaret_m2588630787
yOj:_Array_InternalArray__ICollection_Contains_TisSpriteData_t3048397587_m4000778412_gshared
Wia:__ZZ29InitializeSortingGroupManagerPvEN44PostLateUpdateSortingGroupsUpdateRegistrator7ForwardEv
o2g:__ZL55EventTrigger_t1076084509_CustomAttributesCacheGeneratorP21CustomAttributesCache
j1j:_SecurityElement_SearchForChildByTag_m900466299
fr:__ZN6Object12SetHideFlagsENS_9HideFlagsE
JJl:_Enumerator_VerifyState_m4044446453_gshared
xvd:__ZN9b2Fixture11SynchronizeEP12b2BroadPhaseRK11b2TransformS4_
hOd:__ZN9Rigidbody23VirtualRedirectTransferER14SafeBinaryRead
$7k:_Convert_ToSingle_m3227075028
t_o:_emscripten_glGetFramebufferAttachmentParameteriv__wrapper
Jbc:__ZN13RendererScene15InitializeUmbraEv
vIa:__Z28CalculateGlobalMatrixInverse23TransformAccessReadOnly
Wid:__ZN23ParticleSystemParticles17SetUsesCustomDataEi
eam:_GenericEqualityComparer_1_Equals_m3457564127_gshared
Jik:_BigInteger_ModInverse_m2426215562
h6j:_DecoderExceptionFallback__ctor_m4044614564
cwe:__ZNK5physx15PxsParticleData15getWorldBoundsVEv
qTi:_LocalDataStoreSlot__cctor_m644942532
lZd:__ZN12_GLOBAL__N_124HfTrianglesEntityReport27onEventEjPj
yOo:__ZN6il2cpp6icalls8mscorlib6System6Object7GetTypeEP12Il2CppObject
ELh:_MonoProperty_CachePropertyInfo_m2968057423
yPf:__ZNK25UnityWebRequestJavaScript18GetDownloadedBytesEv
ctj:_Ray_GetPoint_m1852405345_AdjustorThunk
ghe:__ZN5physx17PxsContactManager16resetCachedStateEv
KPf:__ZN12HeaderHelper14SetUnvalidatedERKN4core12basic_stringIcNS0_20StringStorageDefaultIcEEEES6_b
zO:__ZN4FMOD6SoundI7releaseEv
$Ae:__ZN5physx20NpRigidActorTemplateINS_14PxRigidDynamicEE15setActorSimFlagEb
I1a:__ZN14SpriteRenderer13AwakeFromLoadE17AwakeFromLoadMode
Eqf:_cff_parse_num
Ljb:__ZN10MemoryFile9SetLengthEy
$2c:__ZN8JSONRead21TransferSTLStyleArrayI13dynamic_arrayI11ColorRGBA32Lj0EEEEvRT_17TransferMetaFlags
SJb:__Z28scripting_class_is_interface17ScriptingClassPtr
si:_glTexStorage2D
Avk:_CultureInfo_ConstructInternalLocaleFromName_m4012802696
IOa:__ZNK9ShaderLab10SubProgram14EnsureCompiledEv
K2i:_MethodBuilder_GetGenericArguments_m1765425737
Jal:_DateTime_CompareTo_m3687348273
gbl:_DateTime_ToUniversalTime_m1945318289_AdjustorThunk
cif:__ZN5physx7profile10DataBufferINS_6shdfnd6MutexTINS0_26WrapperReflectionAllocatorIhEEEENS0_14ScopedLockImplIS6_EEE17handleBufferFlushEPKhj
P6k:_Convert_ToInt16_m1336719169
Q9:__Z18BuildScriptClassId17ScriptingClassPtr
NWn:_TextGenerator_Init_m1168488231
thb:__ZL31DeleteLastPathNameComponentImplRKN4core12basic_stringIcNS_20StringStorageDefaultIcEEEEPKc
$bl:_DBNull_System_IConvertible_ToUInt64_m4072736670
GJf:__ZN18UnityConnectClient15GetCloudServiceEv
Evb:__Z29Transfer_Blittable_ArrayFieldI14SafeBinaryRead5RectTIiEEvRT_R9ArrayInfoRK23StaticTransferFieldInfo
U4e:__ZN5physx20PxsConstraintProjectEPKNS_13PxsConstraintEbf
Loe:__ZN5physx7NpShape7setFlagENS_11PxShapeFlag4EnumEb
l2h:_InternalEnumerator_1_get_Current_m2698009637_gshared
sbo:__ZN6il2cpp2os19SocketHandleWrapperD2Ev
$Yl:_List_1_System_Collections_IList_Insert_m2850345481_gshared
Vvd:__ZN15b2CircleContact6CreateEP9b2FixtureiS1_iP16b2BlockAllocator
MJb:__ZL28SerializationCommandGroupForRK31TransferFunctionScriptingTraits17ScriptingClassPtr17ScriptingFieldPtrRK20CoreScriptingClasses
oxa:__ZN10TagManager32RegisterDefaultTagsAndLayerMasksEv
jqi:__Z50RuntimeInvoker_Double_t594665363_Int32_t2950945753PFvvEPK10MethodInfoPvPS4_
R0e:__ZN5physx2Sc35ParticleElementRbElementInteraction12onDeactivateEj
YAi:__Z104RuntimeInvoker_Void_t1185182177_Color_t2555686324_Single_t1397266774_SByte_t1669577662_SByte_t1669577662PFvvEPK10MethodInfoPvPS4_
DNl:_Enumerator_System_Collections_IEnumerator_get_Current_m1540440674_gshared
CBn:_GUIUtility_Internal_GetPixelsPerPoint_m290411053
f2j:_Single_System_IConvertible_ToInt16_m809233024_AdjustorThunk
$If:__Z56Register_UnityEngine_Analytics_CustomEventData_AddUInt32v
cRo:_fmodf
tlg:__ZL39String_t_CustomAttributesCacheGeneratorP21CustomAttributesCache
RJd:__Z75Register_UnityEngine_Physics2D_GetRayIntersectionNonAlloc_Internal_Injectedv
cTb:__ZN4gles8InitCapsEP7ApiGLESP12GraphicsCapsR16GfxDeviceLevelGL
kSa:__ZN6prcore14BlitImageFloatERK14ImageReferenceRS0_NS0_8BlitModeE
gFi:__Z91RuntimeInvoker_Void_t1185182177_RuntimeObject_RuntimeObject_Int32_t2950945753_RuntimeObjectPFvvEPK10MethodInfoPvPS4_
QJa:__Z24CalculateVertexLightDataRK15SharedLightDataR14GfxVertexLight
aj:_glEnable
Kio:__ZN15dense_hashtableINSt3__24pairIK10KeyWrapperINS1_IPK12PropertyInfoP11Il2CppClassEEEjEES9_17ReflectionMapHashIS8_EN14dense_hash_mapIS9_jSD_NS9_14EqualsComparerINS0_8equal_toIS8_EEEENS0_9allocatorISB_EEE9SelectKeyESI_SK_E15insert_noresizeERKSB_
Vra:__ZN9Scripting11UnityEngine33ExcludeFromObjectFactoryAttribute12CleanupProxyEv
EOa:__ZNK9ShaderLab7Program28BeginReadUnsupportedVariantsEv
$ua:__ZN12CachedWriter11Align4WriteEv
D8a:__ZNSt3__26vectorIN30RuntimeInitializeOnLoadManager9ClassInfoE13stl_allocatorIS2_L18MemLabelIdentifier13ELi16EEE7reserveEj
vKe:__ZN5physx2Sq8AABBTreeC2Ev
xtn:_PatternCompiler_EmitCategory_m851169746
e_c:__Z35Transfer_Blittable_FixedBufferFieldI9JSONWriteiEvRK29SerializationCommandArgumentsR31RuntimeSerializationCommandInfo
bkd:__ZN11TrailModuleD2Ev
ujl:_BigInteger_op_Subtraction_m1575155386
QB:__ZN26AnimatorControllerPlayable17ProcessRootMotionEP35AnimationPlayableEvaluationConstantP32AnimationPlayableEvaluationInputP33AnimationPlayableEvaluationOutput
jmk:_RSAManaged_ImportParameters_m1117427048
PSi:_UnexceptionalStreamReader_Peek_m1842169584
QHn:_AnalyticsTracker_SendEvent_m2955089255
KKf:__ZN11UnityEngine7Connect15DeviceInfoEvent16CollectExtraInfoEv
NGo:__ZN6il2cpp2os11Environment22SetEnvironmentVariableERKNSt3__212basic_stringIcNS2_11char_traitsIcEENS2_9allocatorIcEEEESA_
V7e:__ZN5physx2Gu10ConvexMeshD2Ev
T6g:__ZL66Navigation_t3049316579_CustomAttributesCacheGenerator_m_SelectOnUpP21CustomAttributesCache
nko:__ZN6il2cpp2gc19AppendOnlyGCHashMapIPK10Il2CppTypeP20Il2CppReflectionTypeNS_8metadata14Il2CppTypeHashENS7_26Il2CppTypeEqualityComparerEEC2Ev
cMn:_Vector4_Equals_m1779210055_AdjustorThunk
cLa:__ZN17LightBakingOutput8TransferI19StreamedBinaryWriteILb0EEEEvRT_
gZb:__ZN20ArchiveStorageReader10InitializeER15FileSystemEntryyb
eHo:__ZThn8_N6il2cpp2vm13CachedCCWBaseINS0_13ManagedObjectEE6AddRefEv
Nyf:_New_Profile
vjl:_ModulusRing_BarrettReduction_m167376748
C4i:_RemotingServices_GetRealProxy_m2081098851
Ykl:_BlockProcessor_Core_m189015002
B_o:_emscripten_glScissor__wrapper
NRf:__Z47UnityWebRequest_CUSTOM_InternalSetRequestHeaderP12Il2CppObjectP12Il2CppStringS2_
Sp:FUNCTION_TABLE_viifi
Vp:FUNCTION_TABLE_viiff
bsn:_TMP_TextEventHandler_SendOnLineSelection_m205961813
a2d:__ZNK5physx2Sc8ShapeSim10getBodySimEv
Y$f:_U3CGetBaseMaterialU3Ec__AnonStorey0_U3CU3Em__0_m4018174143
KJk:_X501__cctor_m1166912714
Gjl:_PrimalityTests_Test_m2932837908
fog:__ZL37Type_t_CustomAttributesCacheGeneratorP21CustomAttributesCache
Su:__ZN9Scripting11UnityEngine14AnimationState9InitProxyEv
uyd:__ZNSt3__26__sortIRN18Overlap2DQueryBase29ColliderHitsByDepthComparitorEPP10Collider2DEEvT0_S7_T_
ofj:_Bounds_ToString_m4208690781
xDi:__Z57RuntimeInvoker_Void_t1185182177_VertexGradient_t345148380PFvvEPK10MethodInfoPvPS4_
Tli:__Z88RuntimeInvoker_RuntimeObject_RuntimeObject_RuntimeObject_Int32_t2950945753_RuntimeObjectPFvvEPK10MethodInfoPvPS4_
tmo:__ZN6il2cpp2vm14TypeNameParser5ParseEb
LSg:__ZL100GameObject_t1113636619_CustomAttributesCacheGenerator_GameObject_SendMessage_m3720186693____options2P21CustomAttributesCache
_Hk:_StreamWriter_Initialize_m3490883444
P0k:_Array_InternalArray__get_Item_TisVector3_t3722313464_m2720091419_gshared
Sao:__ZN15dense_hashtableINSt3__24pairIK10KeyWrapperIP9FieldInfoEiEES5_N6il2cpp5utils11PointerHashIS3_EEN14dense_hash_mapIS5_iSB_NS5_14EqualsComparerINS0_8equal_toIS4_EEEENS0_9allocatorIS7_EEE9SelectKeyESG_SI_E12resize_deltaEjj
lie:__ZN5physx6shdfnd5ArrayIPvNS0_19ReflectionAllocatorINS_2Cm5BlockIhLj128EEEEEE15growAndPushBackERKS2_
lOf:__ZN23UnityPurchasingSettingsC2Ev
Q4a:__ZNK9Transform13GetWorldScaleEv
MJh:_Module_IsDefined_m2423524910
G$i:_DerivedType_create_unmanaged_type_m747846525
HYg:__ZL60EventType_t3528516131_CustomAttributesCacheGenerator_repaintP21CustomAttributesCache
eCa:__ZN17GPUFenceInternals7ReleaseEv
G7g:__ZL66Selectable_t3250028441_CustomAttributesCacheGenerator_m_NavigationP21CustomAttributesCache
rpe:__ZN5physx14NpShapeManager15setupSceneQueryERNS_2Sq17SceneQueryManagerERKNS_12PxRigidActorERKNS_7NpShapeE
ucc:__ZL10RenderFaceR9GfxDeviceR18MaterialStateCacheP13RenderTextureiif
pUj:_Array_IndexOf_TisCustomAttributeNamedArgument_t287865710_m2817957199_gshared
MDm:_ReadOnlyCollection_1_System_Collections_IList_RemoveAt_m1980090087_gshared
Ccn:_ExtendedKeyUsageExtension_ToString_m2116504780
fdb:__ZNK5Unity9Component38MarkGameObjectAndComponentDependenciesER27GarbageCollectorThreadState
P4e:__ZN22ScAfterIntegrationTask11runInternalEv
mDk:_BinaryReader_Read_m3708759962
Y9d:__ZNK5physx2Sc9ClothCore23getExternalAccelerationEv
paa:__ZNK11TypeManager15ClassNameToRTTIEPKcb
nSd:__ZN5physx2Gu13coarseCullingERKNS_6PxVec3ES3_ffRKNS_10PxTriangleE
zma:__ZL57__ManagedRegistrationHelperFunction_DefaultExecutionOrderPv
JSb:__ZN9GfxDevice26CreateDefaultVertexBuffersEv
W$o:_emscripten_glVertexAttrib2fv__wrapper
$Ri:_SynchronizedReader_ReadToEnd_m2160105378
r1e:__ZN5physx2Sc5Scene29processNarrowPhaseTouchEventsEv
WUa:__ZN4crnd12symbol_codec32decode_receive_static_data_modelERNS_25static_huffman_data_modelE
KDc:__ZN18ScriptingArguments8AddFloatEf
T3f:_TMP_Text_get_isRightToLeftText_m3326972673
Rxj:_TouchScreenKeyboard_Open_m3325559252
XFh:_Image_set_fillOrigin_m469806249
yKf:__ZN11UnityEngine15PlatformWrapper16GetVRRenderScaleEv
$be:__ZN5physx6shdfnd5ArrayIPvNS0_15InlineAllocatorILj256ENS0_19ReflectionAllocatorINS_18NpArticulationLinkEEEEEE15growAndPushBackERKS2_
e$c:__Z18Transfer_BlittableI9JSONWriteLb0EaEvRK29SerializationCommandArgumentsR31RuntimeSerializationCommandInfo
rcm:_Array_InternalArray__ICollection_Add_TisXML_TagAttribute_t1174424309_m1755316534_gshared
TZ:__ZN11UnityEngine15CloudWebService14DataDispatcher34OnSessionContainerArchivedAndReadyERNS0_16SessionContainerE
npj:_ConnectionChangeEvent__ctor_m764126802
_sd:__ZN7b2World11CreateJointEPK10b2JointDef
Bcd:__ZN23ParticleSystemParticles20SetUsesTriggerEventsEb
n0d:__ZNK5physx3Cct15ObstacleContext11getObstacleEj
vMl:_Enumerator_VerifyState_m2621680056_gshared
Zxn:_UriParser_InternalRegister_m3643767086
Uic:__ZN14SafeBinaryRead19TransferSTLStyleMapINSt3__23mapIN4core12basic_stringIcNS3_20StringStorageDefaultIcEEEEiNS1_4lessIS7_EENS1_9allocatorINS1_4pairIKS7_iEEEEEEEEvRT_17TransferMetaFlags
tvf:_gray_move_to
Xbl:_DBNull_System_IConvertible_ToSingle_m13713620
WRk:_Char_ToLowerInvariant_m1926695830
QWf:_TMP_FontAsset_HasCharacter_Internal_m2112188792
qZf:_TMP_InputField_GetCaretPositionFromStringIndex_m2732968711
IDm:_ReadOnlyCollection_1_System_Collections_IList_Contains_m1327645028_gshared
iGh:_Image_GetDrawingDimensions_m3060965396
OFn:_UnityWebRequest_Dispose_m3261105905
MWg:__ZL69FontTextureRebuildCallback_t2467502454_CustomAttributesCacheGeneratorP21CustomAttributesCache
crm:_TypeLoadException__ctor_m1154572625
LOc:__Z30RegisterValidateMethodCallbackiPF18ScriptingMethodPtrS_17ScriptingClassPtrP6ObjectEPKc
qQa:__ZNSt3__27__sort4IRPFbRKNS_4pairIN9ShaderLab16FastPropertyNameE10ColorRGBAfEES7_EPS5_EEjT0_SC_SC_SC_T_
gqk:_Context_get_WriteSequenceNumber_m1115956887
i_k:_Dictionary_2_Do_ICollectionCopyTo_TisKeyValuePair_2_t2401056908_m1169495264_gshared
Kdd:__Z25GetTransformationMatricesPN4math8float3x3ES1_bbRK10Matrix4x4fS4_
Yzh:_ContentSizeFitter__ctor_m2349275633
VNe:__ZN5physx13IslandManager6resizeEj
oFa:__Z26TransformVerticesInnerLoopILb1ELb0ELb0EEvPhRK10Matrix4x4fRK10Matrix3x3fjPKhiS8_ii25GfxTransformVerticesFlagsj
x3c:__ZN8JSONRead8TransferI9BoundsIntEEvRT_PKc17TransferMetaFlagsb
Hb:invoke_viidi
Dpd:__Z17UpdateSprites2TplIL27ParticleSystemCurveEvalMode0ELS0_2EEvfRK11MinMaxCurveS3_RK23ParticleSystemParticlesPf
y7f:_TMP_Text_ReplaceClosingStyleTag_m619073692
T6d:__ZN5physx6shdfnd8PoolBaseINS_2Cm5BlockIPvLj16EEENS0_19ReflectionAllocatorIS5_EEE17releaseEmptySlabsEv
n9i:_SByte_System_IConvertible_ToChar_m1489191771_AdjustorThunk
pO:__ZN9AudioClip7CleanupEv
PHc:__Z13RegisterClassI18DelayedCallManagerEvPKc
cQm:_Nullable_1_get_Value_m3112951896_AdjustorThunk
P4j:_String_Concat_m1809518182
Aro:__ZNK15dense_hashtableINSt3__24pairIK10KeyWrapperIP11Il2CppClassES4_EES5_N6il2cpp8metadata16SZArrayClassHashEN14dense_hash_mapIS5_S4_SA_NS5_14EqualsComparerINS9_19SZArrayClassCompareEEENS0_9allocatorIS7_EEE9SelectKeyESE_SG_E12test_deletedEj
Z6k:_Convert_ToInt16_m1223489986
Z0d:__ZL20updateMassAndInertiabRN5physx11PxRigidBodyEPKfjPKNS_6PxVec3Eb
_1c:__Z18Transfer_BlittableI8JSONReadLb0EdEvRK29SerializationCommandArgumentsR31RuntimeSerializationCommandInfo
Yff:__ZN5physx24NpPtrTableStorageManagerC2Ev
L3i:_SoapTypeAttribute_get_IsInteropXmlElement_m3413949955
UDf:__Z44Register_UnityEngine_Canvas_set_sortingOrderv
FXn:_Canvas_get_referencePixelsPerUnit_m3420541976
NAn:_Event_get_current_m2393892120
yJn:_VertexHelper_Clear_m627349662
N0k:_Array_InternalArray__get_Item_TisWorkRequest_t1354518612_m2694410850_gshared
Olb:__ZNK9GfxDevice13GetViewMatrixEv
mTi:_UnmanagedMemoryStream_Dispose_m2681886347
MGe:__ZN5physx7NpScene15flushSimulationEb
OZh:_InternalEnumerator_1_System_Collections_IEnumerator_get_Current_m1295084274_gshared
Jne:__ZN5physx6shdfnd8PoolBaseINS_10NpMaterialENS0_19ReflectionAllocatorIS2_EEE12allocateSlabEv
sba:__ZN8TypeTree8BlobReadERPKhS1_ib
KNk:_Array_Reverse_m3714848183
jzh:_CanvasUpdateRegistry_InternalRegisterCanvasElementForGraphicRebuild_m3522560454
aQl:_List_1_set_Capacity_m2639563982_gshared
vbf:__ZN5physx18ReducedVertexCloudC2EPKNS_6PxVec3Ej
lab:__ZN18LoadSceneOperation23GetAllowSceneActivationEv
RXn:_Canvas_set_additionalShaderChannels_m4180310117
jAa:__ZN6CameraD0Ev
Kha:__ZN31CanvasBatchIntermediateRenderer16StaticInitializeEPv
gB:__ZN7mecanim12AndValueMaskILb0EEEvPKNS_14ValueArrayMaskEPS1_
r8a:__ZN14SafeBinaryRead21TransferSTLStyleArrayINSt3__26vectorIi13stl_allocatorIiL18MemLabelIdentifier13ELi16EEEEEEvRT_17TransferMetaFlags
FUj:_Array_InternalArray__IndexOf_TisProgressHandler_t926933139_m2009823052_gshared
enf:_raccess_guess_apple_double
CUb:__ZL18ProgramUniform1uivPK7ApiGLESjiihPKv
$Wk:_Array_Sort_TisByte_t1134296376_m343015505_gshared
Rkd:__ZN27ShapeModulePropertyBindings13GetFloatValueERK14ParticleSystemi
TFc:__ZN14Texture2DArray13RebuildMipMapEv
R4n:__ZN13Il2CppHashSetIPK17Il2CppGenericInstN6il2cpp8metadata21Il2CppGenericInstHashENS4_24Il2CppGenericInstCompareENSt3__29allocatorI10KeyWrapperIS2_EEEEC2EjRKS5_RKS6_
Ctb:__Z18Transfer_BlittableI14SafeBinaryReadLb1EaEvRK29SerializationCommandArgumentsR31RuntimeSerializationCommandInfo
sCo:__ZN6il2cpp2gc16GarbageCollector14RemoveWeakLinkEPPv
Dnc:__ZN9ShaderLab20SerializedSubProgram14AddVectorParamEPKcii15ShaderParamTypei
fUj:_Array_IndexOf_TisResolveHandler_t4124874245_m3487245119_gshared
mSm:_List_1_GetEnumerator_m563931292_gshared
QFf:__ZN2UI14CanvasRenderer12CleanupClassEv
p3k:_Enumerator__ctor_m3362421874
Pyo:__ZN6il2cpp2vm6Object3BoxEP11Il2CppClassPv
_po:__ZN6il2cpp2vm6Thread7SetNameEP12Il2CppThreadP12Il2CppString
m$:__ZN11UnityEngine15CloudWebService10RestClientINS0_23WebRequestRestHeaderMapEE16SetRequestHeaderERKN4core12basic_stringIcNS4_20StringStorageDefaultIcEEEESA_
w8a:__ZN30RuntimeInitializeOnLoadManager15ClassMethodInfo8TransferI14SafeBinaryReadEEvRT_
FTh:_ConstructionCall_InitDictionary_m2824447813
Tbd:__ZN23ParticleSystemParticles14element_assignEjj
nY:__ZL22InitializeModule_Audiov
zOe:__ZN5physx2Sq11PruningPoolD0Ev
Gkb:__ZN16MemoryFileSystem8IsLockedERK13FileEntryData
sWe:__ZN3MBP15removeBoxPrunerEj
dto:__ZN6il2cpp6icalls8mscorlib6System2IO6MonoIO5WriteEiP11Il2CppArrayiiPi
PZl:_List_1_set_Item_m1753836470_gshared
qEi:__Z80RuntimeInvoker_Int32_t2950945753_RuntimeObject_Vector3_t3722313464_RuntimeObjectPFvvEPK10MethodInfoPvPS4_
Vmd:__ZN14ParticleSystem23OnGeometryJobsScheduledEj
hnj:_Mathf_InverseLerp_m4155825980
wni:__Z92RuntimeInvoker_RuntimeObject_RuntimeObject_RuntimeObject_SByte_t1669577662_SByte_t1669577662PFvvEPK10MethodInfoPvPS4_
Rl:_emscripten_glBindRenderbuffer
oqd:__ZZN14ParticleSystem15InitializeClassEvEN29FunctorImpl_228kDidModifyMesh4CallEPviR11MessageData
cXl:_List_1_System_Collections_IList_Insert_m1011775503_gshared
aKo:_GC_dirty_init
wxo:__ZN6il2cpp2vm5Image33GetCachedMemoryMappedResourceFileEP24Il2CppReflectionAssembly
sDf:__ZNK2UI6Canvas16GetTargetDisplayEv
YIf:__Z63Register_UnityEngine_Analytics_CustomEventData_Internal_Destroyv
CEm:_ReadOnlyCollection_1__ctor_m2610384050_gshared
Nfd:__Z25UpdateOrbitalAndRadialTplIL27ParticleSystemCurveEvalMode1ELS0_2ELS0_2EEvRK11MinMaxCurveS3_S3_S3_S3_S3_S3_R23ParticleSystemParticlesjjRKN4math8float3x3ERKNS6_7affineXERKNS6_7_float4E
JYd:__ZL15SweepBoxCapsulePKN5physx3Cct9SweepTestEPKNS0_11SweptVolumeEPKNS0_11TouchedGeomERKNS_14PxExtendedVec3ERKNS_6PxVec3ERNS0_12SweptContactE
HYf:_TMP_InputField_set_richText_m1744201547
hJb:__ZN13MonoBehaviour17RemoveFromManagerEv
tLn:_Vector3_get_Item_m668685504_AdjustorThunk
Y5e:__ZN5physx2Sc19ParticlePacketShapeD2Ev
mKh:_MonoEventInfo_GetEventInfo_m873645389
WWa:__ZL11DecodeValuePPKcS0_
vBn:_GUIUtility_get_pixelsPerPoint_m2369948084
X0j:_WindowsIdentity_System_Runtime_Serialization_IDeserializationCallback_OnDeserialization_m3428853631
_2:__ZN13MemoryManagerC2Ev
lhg:_JSONNumber_set_AsLong_m3543961811
I4a:__ZN12SkinMeshInfo10DeallocateEPS_
qJj:_ScrollRect_SetDirty_m214267968
QUj:_Array_InternalArray__IndexOf_TisKeyValuePair_2_t727985506_m1773917996_gshared
_jb:__ZN20ArchiveStorageReader28AcquireAndPrefillUnusedBlockEjPNS_11CacheResultE
hPk:_Boolean_System_IConvertible_ToDateTime_m603510836
OFc:__Z12NHxRoughnessIA4_tEvP9Texture2DPT_iiii
zkl:_ASN1_get_Value_m1857007406
r3j:_String_System_Collections_IEnumerable_GetEnumerator_m3198926340
VY:__Z6simd4iiiii
Teb:__ZN9Transform5ResetEv
c7k:_Decimal_op_Explicit_m1842265407
oAb:__Z22TransferField_NonArrayI24GenerateTypeTreeTransfer16Converter_StringEvRK23StaticTransferFieldInfoR31RuntimeSerializationCommandInfoRT0_
Pma:__ZL47__ManagedRegistrationHelperFunction_FixedUpdatePv
lqd:__ZN29ParticleSystemPropertyBinding49InitializeParticleSystemAnimationBindingInterfaceEv
hrf:_UNITY_FT_CMap_New
__h:_InternalEnumerator_1_get_Current_m4241643334_AdjustorThunk
$Vf:_TMP_Dropdown_DestroyBlocker_m2367277104
U5m:_Collection_1_set_Item_m2389175716_gshared
ELb:__Z17MainLoopKeepalivePv
K9d:__ZN5physx7NpScene16addActorInternalERNS_7PxActorE
DIj:_Selectable_FindSelectableOnDown_m1591762582
o5h:_InternalEnumerator_1_get_Current_m1588647567_AdjustorThunk
lZi:_Assembly_UnprotectedGetName_m600830855
Rtg:__ZL51GCHandle_t3351438187_CustomAttributesCacheGeneratorP21CustomAttributesCache
Yzj:_InputField_get_caretBlinkRate_m3620074524
w2b:__Z19SetupLODFadeKeywordR17ShaderPassContexti
Hnd:__ZL19ParticleGeomFlipUVsffRKN4math5_int4EPS1_
SYj:_RSAPKCS1SignatureFormatter_CreateSignature_m3191980616
xOa:__ZN10builtintex16GetDefaultTexEnvE16TextureDimensionb
KWb:__ZL25CheckCopyTextureArgumentsRK7ApiGLESP11GLESTextureS3_
ykd:__ZN24UVModulePropertyBindings13AddPropertiesER10vector_mapIi22ParticleModulePropertyNSt3__24lessIiEENS2_9allocatorINS2_4pairIiS1_EEEEE
iXg:__ZL104UnityWebRequest_t463507806_CustomAttributesCacheGenerator_UnityWebRequest_get_isNetworkError_m1231611882P21CustomAttributesCache
f3o:_glDeleteShader__wrapper
Wga:__ZNK15PlayableMethods18InvokeOnGraphStartER18ScriptingObjectPtrRK9HPlayable
Mzb:__Z29Transfer_Blittable_ArrayFieldI24GenerateTypeTreeTransferyEvRT_R9ArrayInfoRK23StaticTransferFieldInfo
xeg:_JSONLazyCreator_Add_m786737145
jP:__ZN4FMOD7SystemI9playSoundE17FMOD_CHANNELINDEXPNS_5SoundEbPPNS_7ChannelE
bCk:_Int64_GetHashCode_m703091690
Wna:__ZL60__ManagedRegistrationHelperFunction_ReflectionProbeBlendInfoPv
cre:__ZNK5physx7NpCloth16getStretchConfigENS_22PxClothFabricPhaseType4EnumE
_An:_Event_get_commandName_m4275147343
fB:__ZN27AnimationLayerMixerPlayable17LayerMixerProcessEP35AnimationPlayableEvaluationConstantP32AnimationPlayableEvaluationInputP33AnimationPlayableEvaluationOutputM17AnimationPlayableFvS1_S3_S5_EMS_FvS1_S3_S5_ESA_MS_FvS5_S1_S3_S5_ifE
k6k:_Decimal_op_Implicit_m4256234411
eub:__Z24TransferPPtrToMonoObjecti17ScriptingClassPtrP23DataToCreateNullWrapper24TransferInstructionFlags
MN:__ZN12AudioManager23VirtualRedirectTransferER18StreamedBinaryReadILb0EE
_ji:__Z60RuntimeInvoker_RuntimeObject_RuntimeObject_Int16_t2552820387PFvvEPK10MethodInfoPvPS4_
s3a:__ZN10VertexData13SwapEndianessEv
GHk:_StreamReader__ctor_m3941437302
Lkd:__ZN27ColorModulePropertyBindings13GetFloatValueERK14ParticleSystemi
dyc:__Z57Register_UnityEngine_Transform_INTERNAL_get_localRotationv
XWo:dynCall_viif
bAc:__Z13RegisterClassIN5Unity9ComponentEEvPKc
w4b:__ZN29MotionVectorRenderLoopScratchD2Ev
R4e:__ZN5physx2Sc24ConstraintProjectionTree11projectPoseERNS0_19ConstraintGroupNodeE
sxb:__ZL26Transfer_SimpleNativeClassI17RemapPPtrTransfer8GradientLb0EEvRK29SerializationCommandArgumentsR31RuntimeSerializationCommandInfo
MJg:__ZL49Shader_t4151988712_CustomAttributesCacheGeneratorP21CustomAttributesCache
SC:__ZN17AnimationPlayable26DisconnectNoTopologyChangeEPS_i
$je:__ZNK5physx12NpBatchQuery14getOwnerClientEv
FWm:_List_1_System_Collections_IList_Contains_m2131605266_gshared
Hee:__ZN5physx2Sc21ArticulationJointCore28setSwingLimitContactDistanceEf
EXo:dynCall_viifffi
Zqh:_TextMeshProUGUI_LoadFontAsset_m2596902304
h0:__ZN13UploadHandlerD2Ev
KL:__GLOBAL__sub_I_Modules_AssetBundle_Public_1_cpp
YUo:dynCall_viiiiiffi
ld:_emscripten_glBlendFuncSeparate
r8m:_Collection_1_Add_m809543251_gshared
y7:__Z20scripting_string_newPKc
ixn:_Parser_IsSingleline_m326238187
sVk:_CollectionBase_get_Count_m1708965601
acj:_HMAC__ctor_m97939284
sum:_ValueType_DefaultEquals_m2927252100
LZc:__ZN9JSONWrite12AppendToNodeEPN5Unity9rapidjson12GenericValueINS1_4UTF8IcEE13JSONAllocatorEEPKcRS6_
Gkl:_ASN1_ToString_m1340204511
tdk:_X509ChainElementEnumerator_get_Current_m1301774989
jvd:__ZN16PhysicsManager2D20GetRigidBodyVelocityERK11Rigidbody2D
Xdk:_X509Store_get_Certificates_m2149701265
rqm:_Type_GetField_m2961003358
HHm:_ReadOnlyCollection_1_System_Collections_Generic_IListU3CTU3E_set_Item_m711370667_gshared
d4g:__ZL144StandaloneInputModule_t2760469101_CustomAttributesCacheGenerator_StandaloneInputModule_t2760469101____allowActivationOnMobileDevice_PropertyInfoP21CustomAttributesCache
vsa:__ZN9Scripting11UnityEngine13ComputeBuffer12CleanupProxyEv
Q8e:__ZThn8_N5physx2Gu11HeightFieldD1Ev
Pjm:_StringBuilder_set_Chars_m3548656617
ffo:__ZN6il2cpp2os4File17GetFileAttributesERKNSt3__212basic_stringIcNS2_11char_traitsIcEENS2_9allocatorIcEEEEPi
Pde:__ZNK5physx19PxArticulationJoint19getConcreteTypeNameEv
DG:__ZNSt3__26__sortIRPFbPKN8Animator11AnimatorJobES4_EPS4_EEvT0_S9_T_
hV:__ZN17AudioCustomFilterD2Ev
vkk:_ARC4Managed_GenerateKey_m1607343060
VHo:_GC_unpromote_black_lists
FL:__ZN9Scripting11UnityEngine2XR5Tango9GridIndex9InitProxyEv
GVb:__ZN18GfxFramebufferGLES18ReleaseFramebufferEP17RenderSurfaceBaseP14GfxContextGLES
Q0c:__Z18Transfer_BlittableI8JSONReadLb1EiEvRK29SerializationCommandArgumentsR31RuntimeSerializationCommandInfo
L0:__ZN19CloudServiceHandler34HandleSaveFileWebRequestPlayerLoopEv
EC:__ZN7mecanim21ValueArrayReverseCopyEPKNS_18ValueArrayConstantEPKNS_10ValueArrayES2_PS3_PKi
cTf:__ZL47__ManagedRegistrationHelperFunction_XRNodeStatePv
AU:__Z31GetParentSampleClipFromInstancePN11SoundHandle8InstanceE
JAc:__ZNK28RectTransformPropertyBinding13GetFloatValueERKN11UnityEngine9Animation10BoundCurveE
Rcc:__ZN6Camera22StandaloneCustomRenderENS_10RenderFlagEP6ShaderRKN4core12basic_stringIcNS3_20StringStorageDefaultIcEEEEPNS_21PerformRenderFunctionE
UUj:_Array_InternalArray__IndexOf_TisKeyValuePair_2_t2401056908_m4118889689_gshared
v9a:__ZNSt3__26vectorI4PPtrI6ObjectE13stl_allocatorIS3_L18MemLabelIdentifier52ELi16EEE6assignINS_11__wrap_iterIPS3_EEEENS_9enable_ifIXaasr21__is_forward_iteratorIT_EE5valuesr16is_constructibleIS3_NS_15iterator_traitsISD_E9referenceEEE5valueEvE4typeESD_SD_
tCe:__ZL22addOrRemoveRigidObjectILb0ELb0ELb0ELb1EN5physx3Scb11RigidStaticEEvRNS0_2Sc5SceneERT3_b
TOo:__ZN6il2cpp2os16ThreadLocalValue8GetValueEPPv
_ck:_X509Certificate2_get_PublicKey_m370665820
I9n:__ZN6il2cpp2vm13MetadataCache14GetGenericInstEPKPK10Il2CppTypej
Z5m:_Collection_1_IsSynchronized_m2790814605_gshared
SV:__ZN13AudioListener17ReadExtensionNameEi
Od:_glUniform1uiv
tMf:__ZN11UnityEngine7Connect20RemoteConfigSettings35CallConfigUpdatedOnMainThreadStaticEPS1_
pTc:__Z52Object_CUSTOM_GetOffsetOfInstanceIDInCPlusPlusObjectv
d7d:__ZN5physx6shdfnd4sortIPvNS0_4LessIS2_EENS0_19ReflectionAllocatorINS_2Cm5BlockIS2_Lj8EEEEEEEvPT_jRKT0_RKT1_j
qne:__ZNK5physx9NpPhysics11getNbShapesEv
Iq:setThrew
Gtk:_SslClientStream_OnLocalPrivateKeySelection_m1934775249
GFc:__ZL21BuildEmptyCubeTexturePKci11ColorRGBA3217TextureColorSpace
LQk:_Byte_ToString_m721125428
Xic:__ZN14SafeBinaryRead21TransferSTLStyleArrayINSt3__26vectorIN9ShaderLab20SerializedSubProgramENS1_9allocatorIS4_EEEEEEvRT_17TransferMetaFlags
rVj:_Array_InternalArray__IndexOf_TisX509ChainStatus_t133602714_m48896230_gshared
vhb:__ZN19dynamic_block_arrayI13FileEntryInfoLj32EE4growEj
Z0c:__Z15Transfer_StringI8JSONReadLb1EEvRK29SerializationCommandArgumentsR31RuntimeSerializationCommandInfo
Iab:__ZN16LightmapSettings15AppendLightmapsEiRK13dynamic_arrayI12LightmapDataLj0EE
qja:__ZN6prcoreL17RemapGenericFloatI17TexFormatRGBFloat15TexFormatRGHalfEEvPKNS_9InnerInfoE
xtf:_sfnt_load_face
pmf:_UNITY_FT_Render_Glyph_Internal
dMl:_Enumerator_VerifyState_m1661520664_AdjustorThunk
xrf:_UNITY_ft_service_list_lookup
zWc:__ZN5IMGUI21SelectReceivingWindowER8GUIStateb
K7f:_TMP_Text_GetPreferredValues_m3747234872
qcj:_HMAC_Initialize_m3157696427
YTd:__ZN5physx2Gu20intersectTriangleBoxERKNS_6PxVec3ES3_S3_S3_S3_
hSi:_SynchronizedWriter_Write_m2529550287
OUf:_TMP_InputField_CaretBlink_m3970334312
lme:__ZN5physx10NpMaterial8setFlagsENS_7PxFlagsINS_14PxMaterialFlag4EnumEtEE
h4:__ZN13BaseAllocator13TryDeallocateEPv
Tbk:_X509SubjectKeyIdentifierExtension__ctor_m2055934916
EYc:__ZN9Scripting19UnityEngineInternal5Input17NativeInputSystem9InitProxyEv
dQo:_sprintf
joc:__ZN9Scripting25CreateNullExceptionObjectE18ScriptingObjectPtr
Iml:_PrivateKeyInfo_DecodeRSA_m2889346634
WU:__ZN13AudioListener17RemoveFromManagerEv
he:_glAttachShader
hAh:_ContentSizeFitter_SetLayoutHorizontal_m2833273874
wBm:_ReadOnlyCollection_1_System_Collections_IList_RemoveAt_m134366701_gshared
Ggf:__ZN5physx6shdfnd8internal8HashBaseINS0_4PairIKtPKcEEtNS0_4HashItEENS1_11HashMapBaseItS6_S9_NS_7profile26WrapperReflectionAllocatorIS6_EEE6GetKeyESD_Lb1EE6createERS4_Rb
Mza:__ZNK6Camera19GetProjectionMatrixEv
FHe:__ZNK5physx7NpScene24getWakeCounterResetValueEv
Zod:__Z19UpdateSingleRow2TplIL27ParticleSystemCurveEvalMode2ELS0_4EEvfRK11MinMaxCurveS3_RK23ParticleSystemParticlesPfbiii
yAj:_InputField_SetToCustomIfContentTypeIsNot_m2813459946
w5m:_Collection_1_System_Collections_IList_IndexOf_m1439404860_gshared
HCd:__ZN21b2FindNewContactsTask15AddContactPairsERK16b2ContactManagerP14b2FixtureProxyS4_R13dynamic_arrayINS_17b2DeferredContactELj0EE
AIg:__ZL70RuntimePlatform_t4159857903_CustomAttributesCacheGenerator_FlashPlayerP21CustomAttributesCache
Yyk:_Guid_GetHashCode_m3042133858_AdjustorThunk
YYe:__ZN5physx2Gu32PCMConvexVsMeshContactGeneration20generateLastContactsEv
pua:__Z38PreallocateObjectFromPersistentManagerib
vme:__ZThn12_N5physx10NpMaterialD0Ev
Sgk:_Interpreter_Backtrack_m2828876822
RTa:__ZNK9Texture2D20GetUnscaledTextureIDEv
D9i:_SByte_System_IConvertible_ToType_m4075253447
Jnl:_StrongName_get_PublicKey_m1841537984
vcf:__ZN5physx6shdfnd4sortIjNS_19SortBoundsPredicateENS0_19ReflectionAllocatorIjEEEEvPT_jRKT0_RKT1_j
Roe:__ZN5physx7NpShape14onRefCountZeroEv
Pyj:_Transform_INTERNAL_get_worldToLocalMatrix_m2730237241
hcd:__ZNK14ParticleSystem7GetLoopEv
u2j:_Single_System_IConvertible_ToUInt64_m3299129161
Vbf:__ZL15TestContainmentRKN5physx6PxVec3EPKfjPKNS_2Gu15HullPolygonDataE
WTa:__ZNK9Texture2D26CanReuploadDataToGfxDeviceEv
uyg:__ZL63CodeAccessPermission_t2681295399_CustomAttributesCacheGeneratorP21CustomAttributesCache
fbb:__Z29ClearRepeatingLogMessageStatev
B3h:_InternalEnumerator_1_get_Current_m3191242573_gshared
zQk:_Byte_Equals_m1161982810_AdjustorThunk
Nxl:_Transform_1_BeginInvoke_m290848834_gshared
Y8e:__ZN5physx2Gu11HeightField12loadFromDescERKNS_17PxHeightFieldDescEb
Pea:__ZN21EnlightenSceneMappingaSERKS_
sxa:__ZN14SafeBinaryRead21TransferSTLStyleArrayI13dynamic_arrayI17SortingLayerEntryLj0EEEEvRT_17TransferMetaFlags
LKd:__ZL48__ManagedRegistrationHelperFunction_MeshColliderPv
EPm:_U3CSortU3Ec__Iterator21_Dispose_m448183640_gshared
yYb:__ZN7ApiGLESD2Ev
Rya:__ZN9Transform47ClearTransformHierarchyAndApplyToSerializedDataEv
LEe:__ZN5physx6shdfnd8PoolBaseINS_2Gu30LargePersistentContactManifoldENS0_19ReflectionAllocatorIS3_EEE12allocateSlabEv
m2c:__ZN8JSONRead21TransferSTLStyleArrayINSt3__26vectorI8MonoPPtr13stl_allocatorIS3_L18MemLabelIdentifier1ELi16EEEEEEvRT_17TransferMetaFlags
y5:__ZNSt3__26__treeI19RepeatingLogMessageNS_4lessIS1_EE13stl_allocatorIS1_L18MemLabelIdentifier74ELi16EEE25__emplace_unique_key_argsIS1_JRKS1_EEENS_4pairINS_15__tree_iteratorIS1_PNS_11__tree_nodeIS1_PvEEiEEbEERKT_DpOT0_
SFl:_Dictionary_2_Remove_m789637624_gshared
aCj:_InputField_IsSelectionVisible_m3622592134
pOk:_AssemblyLoadEventHandler_Invoke_m1462077361
pAa:__ZN6Camera23VirtualRedirectTransferER19StreamedBinaryWriteILb0EE
sXo:dynCall_fidi
igo:__ZN15dense_hashtableINSt3__24pairIK10KeyWrapperINS1_IPK9FieldInfoP11Il2CppClassEEEjEES9_17ReflectionMapHashIS8_EN14dense_hash_mapIS9_jSD_NS9_14EqualsComparerINS0_8equal_toIS8_EEEENS0_9allocatorISB_EEE9SelectKeyESI_SK_E12resize_deltaEjj
RJe:__ZN5physx6shdfnd5ArrayIPNS_2Sc8BodyCoreENS0_19ReflectionAllocatorIS4_EEE6resizeEjRKS4_
D$d:__ZN5physx3Cct26CharacterControllerManager16createControllerERNS_9PxPhysicsEPNS_7PxSceneERKNS_16PxControllerDescE
GBn:_GUILayoutEntry__ctor_m2229197035
A3f:_TMP_SubMeshUI_GetPaddingForMaterial_m3359882614
yDa:__ZN15dense_hashtableINSt3__24pairIKN9ShaderLab7Program23ShaderKeywordSetAndHashEPKNS2_10SubProgramEEES4_NS3_24ShaderKeywordHashFunctorEN14dense_hash_mapIS4_S8_SA_NS0_8equal_toIS4_EE13stl_allocatorIS9_L18MemLabelIdentifier67ELi16EEE9SelectKeyESD_SG_E15insert_noresizeERKS9_
cMa:__ZN13RenderTexture12SetDimensionE16TextureDimension
stk:_SslClientStream_set_ClientCertSelectionDelegate_m1261530976
Mqa:__ZN9Scripting11UnityEngine16GradientColorKey9InitProxyEv
_e:_SDL_FreeRW
YMe:__ZN5physx6shdfnd8PoolBaseINS_2Cm5BlockIhLj128EEENS0_19ReflectionAllocatorIS4_EEE15disposeElementsEv
VEf:__Z34CanvasRenderer_Get_Custom_PropCullP12Il2CppObject
axe:__ZN5physx3Scb14ParticleSystem14setRestOffsetsEjRKNS_16PxStrideIteratorIKjEERKNS2_IKfEE
AT:__ZN20SoundChannelInstance8getDelayE14FMOD_DELAYTYPEPjS1_
PDa:__ZNSt3__26vectorIN20GpuProgramParameters15StructParameterENS_9allocatorIS2_EEEC2ERKS5_
PXh:_ArrayReadOnlyList_1_Contains_m232667507_gshared
i7k:_Convert_ToInt32_m2128774575
Opi:__Z77RuntimeInvoker_Boolean_t97287965_IntPtr_t_Int32_t2950945753_SByte_t1669577662PFvvEPK10MethodInfoPvPS4_
hrj:_PlayableHandle_GetPlayableType_m432385838_AdjustorThunk
Jig:_ShaderPropAnimator_Start_m2331709270
dlf:__ZNSt3__26vectorIN20TextRenderingPrivate8FontImpl13CharacterInfoE13stl_allocatorIS3_L18MemLabelIdentifier1ELi16EEE8__appendEj
v:tempBigInt
Dfm:_Array_InternalArray__Insert_TisKeyframe_t4206410242_m1558638568_gshared
gf:_emscripten_glVertexAttrib1fv
Djc:__ZNSt3__26vectorIN9ShaderLab20SerializedSubProgram12UAVParameterENS_9allocatorIS3_EEE7reserveEj
FQf:__ZN29UnityWebRequestAsyncOperationD0Ev
kik:_BigInteger__ctor_m2644482640
MTo:__ZSt11__terminatePFvvE
FIe:__ZN5physx13NpVolumeCacheC2EPNS_2Sq17SceneQueryManagerEjj
$7d:__ZThn24_N5physx2Sc20ArticulationJointSimD1Ev
$P:__ZN12AudioManager14systemCallbackEP11FMOD_SYSTEM24FMOD_SYSTEM_CALLBACKTYPEPvS3_
GQm:_Nullable_1_Equals_m4046255732_gshared
LIm:_ReadOnlyCollection_1_System_Collections_Generic_ICollectionU3CTU3E_Clear_m3451551308_gshared
Yxh:_BaseMeshEffect_OnEnable_m3291426649
bxe:__ZN5physx2Sc18ParticleSystemCore14setRestOffsetsEjRKNS_16PxStrideIteratorIKjEERKNS2_IKfEE
KJo:_clear_marks_for_block
eYd:__ZN5physx2Gu16testPolyDataAxisERKNS0_8CapsuleVERKNS0_13PolygonalDataEPNS0_12SupportLocalERKNS_6shdfnd3aos6FloatVERSB_RNSA_5Vec3VE
KOj:_Array_InternalArray__ICollection_Contains_TisColor_t2555686324_m266224315_gshared
yJa:__ZN16ReflectionProbes16UpdateSampleDataEv
_dd:__Z9UpdateTplIL27ParticleSystemCurveEvalMode1EEvRK11MinMaxCurveR23ParticleSystemParticlesjjPKN4math8floatNx3E
Sae:__ZN5physx2Sc17ParticleSystemSimD0Ev
j4i:_TrackingServices_NotifyUnmarshaledObject_m2784831802
TTk:_ReadOnlyArrayListWrapper_Sort_m2577012511
Ema:__ZL46__ManagedRegistrationHelperFunction_UnityEventPv
HPn:__ZL25UnresolvedVirtualCall_159P12Il2CppObjectiifPK10MethodInfo
nHl:_Dictionary_2_set_Item_m3394774875_gshared
rKl:_Enumerator_System_Collections_IEnumerator_get_Current_m2237476582_AdjustorThunk
iwk:_CultureInfo_GetCultureInfo_m56098747
Zzo:__ZN15dense_hashtableINSt3__24pairIK10KeyWrapperIP12Il2CppObjectEN6il2cpp2gc9CachedCCWEEES5_NS7_5utils11PointerHashIS3_EEN14dense_hash_mapIS5_S9_SD_NS5_14EqualsComparerINS0_8equal_toIS4_EEEENS0_9allocatorISA_EEE9SelectKeyESI_SK_E3endEv
E9b:__Z20AddActiveLocalLightsR11CullResultsR27LocalLightCullingParametersPPK15SharedLightDataPK8Vector4fRK9IndexListPfRSA_R12ActiveLightsSG_P5RectTIfEP13TargetEyeMask
Kpg:__ZL80Hashtable_t1853889766_CustomAttributesCacheGenerator_Hashtable__ctor_m1763145853P21CustomAttributesCache
X5k:_Convert_ToDecimal_m1284148187
uwm:_Collection_1__ctor_m3489157029_gshared
Yla:__ZL52__ManagedRegistrationHelperFunction_AndroidJNIHelperPv
Zof:_cf2_getNormalizedVector
Ef:_JS_Sound_Play
IJm:_ReadOnlyCollection_1_System_Collections_IList_set_Item_m1538987737_gshared
Hci:_DefaultComparer_Compare_m1920986590_gshared
ksk:_RecordProtocol_ProcessChangeCipherSpec_m15839975
uic:__ZN9ShaderLab16SerializedShader8TransferI14SafeBinaryReadEEvRT_
vph:_TextMeshPro_ForceMeshUpdate_m19192154
YTh:_ConstructionCallDictionary_SetMethodProperty_m3145285304
B5a:__ZN11TimeManagerD2Ev
kZh:_InternalEnumerator_1_System_Collections_IEnumerator_get_Current_m1503522504_gshared
WF:__ZN7mecanim8skeleton13SkeletonAlignEPKNS0_8SkeletonERKN4math7_float4ES7_i
IGc:__ZN19ShaderPropertySheet16SetVectorIndexedEN9ShaderLab16FastPropertyNameEifRK8Vector4fNS_8SetFlagsE
Lpm:_Type_get_IsAbstract_m1120089130
BLn:_Vector3_get_normalized_m2454957984_AdjustorThunk
Myn:_UriFormatException__ctor_m1115096473
nqo:__ZN15dense_hashtableINSt3__24pairIK10KeyWrapperINS1_IP11Il2CppClassjEEES4_EES6_N6il2cpp8metadata14ArrayClassHashEN14dense_hash_mapIS6_S4_SB_NS6_14EqualsComparerINSA_17ArrayClassCompareEEENS0_9allocatorIS8_EEE9SelectKeyESF_SH_E9copy_fromERKSK_j
oDn:_GUIUtility_IsExitGUIException_m3644066650
D1:__ZN11UnityEngine15CloudWebService14DataDispatcher4StopEv
hJl:_LinkedList_1_System_Collections_Generic_ICollectionU3CTU3E_Add_m2568132950_gshared
Qzk:_Int16_System_IConvertible_ToUInt64_m134975563
Fjc:__ZNSt3__26vectorIN9ShaderLab20SerializedSubProgram12UAVParameterENS_9allocatorIS3_EEE8__appendEj
AWc:__ZN5IMGUI9GUIWindow5OnGUIER8GUIState
UJo:_GC_maybe_gc
b2j:_Single_System_IConvertible_ToDecimal_m325860800_AdjustorThunk
Bdm:_Array_InternalArray__ICollection_CopyTo_TisSingle_t1397266774_m455540885_gshared
Ela:__ZN17ScriptingGCHandle7AcquireE18ScriptingObjectPtr25ScriptingGCHandleWeakness
asi:__Z74RuntimeInvoker_RuntimeObject_RuntimeObject_Int64_t3736567304_RuntimeObjectPFvvEPK10MethodInfoPvPS4_
_ge:__ZN5physx12NpConstraint8comShiftEPNS_12PxRigidActorE
SVo:dynCall_iifiii
pbg:_U3CSpawnPowerUpWavesU3Ec__Iterator5_Reset_m1753322616
Mam:_HashSet_1__ctor_m620629637_gshared
KRa:__Z21HasAlphaTextureFormat13TextureFormat
$X:__ZN12AudioManager6UpdateEv
ERa:__ZN14ImageReference9BlitImageERKS_NS_8BlitModeE
TCm:_ReadOnlyCollection_1__ctor_m1345363288_gshared
Mw:__ZN8Animator12AddToManagerEv
pLc:__Z26ApplyBlendShapesToVerticesR12SkinMeshInfoRKN4math5_int4EPNS1_8floatNx3ES6_
q2:__GLOBAL__sub_I_Runtime_Core_Callbacks_0_cpp
ZPd:__ZNK5physx2Gu16SupportLocalImplINS0_11ConvexHullVEE9doSupportERKNS_6shdfnd3aos5Vec3VERNS5_6FloatVESA_
bKb:__ZN23CachedSerializationDataD2Ev
Qbc:__ZNK25CameraStackRenderingState31CalculateStereoCameraTargetTypeEv
YIa:__ZN14RenderSettings23VirtualRedirectTransferER14SafeBinaryRead
H9h:_InternalEnumerator_1_get_Current_m114240259_gshared
Mxd:__ZNK13b2CircleShape5CloneEP16b2BlockAllocator
IDo:__ZN6il2cpp2os10ThreadImpl15CurrentThreadIdEv
x$k:_Array_InternalArray__get_Item_TisLink_t3209266973_m1574224299_gshared
urj:_PlayerConnectionInternal_UnityEngine_IPlayerEditorConnectionNative_SendMessage_m389985885
dUc:__Z36Renderer_Set_Custom_PropSortingOrderP12Il2CppObjecti
Wnl:_Enumerator_System_Collections_IDictionaryEnumerator_get_Key_m1314958700_gshared
r_j:_SymmetricAlgorithm_get_Key_m3241860519
TCj:_U3CMouseDragOutsideRectU3Ec__Iterator1_Reset_m2233410497
k2:__GLOBAL__sub_I_Runtime_Camera_5_cpp
VHd:__ZN10Collider2DC2E10MemLabelId18ObjectCreationMode
kxf:_UNITY_tt_face_load_fpgm
Kya:__Z17IsObjectAvailablei
S5a:__ZN12InputManagerD0Ev
tmm:_ExecutionContext_Capture_m681135907
Cbn:_TlsException__ctor_m818940807
whe:__ZN5physx2Sc9RigidCore20removeShapeFromSceneERNS0_9ShapeCoreEb
o$h:_InternalEnumerator_1_System_Collections_IEnumerator_get_Current_m2889979481_AdjustorThunk
GSo:_posix_memalign
rcf:__ZN5physx11RTreeCooker18buildFromTrianglesERNS_2Gu5RTreeEPKNS_6PxVec3EjPKtPKjjRNS_6shdfnd5ArrayIjNSB_19ReflectionAllocatorIjEEEEPNS0_13RemapCallbackEfNS_17PxMeshCookingHint4EnumE
Hbe:__ZN5physx6shdfnd5ArrayIPvNS0_15InlineAllocatorILj256ENS0_19ReflectionAllocatorINS_14NpArticulationEEEEEE15growAndPushBackERKS2_
Fso:__ZN6il2cpp6icalls8mscorlib6System9ThreadingL13cache_cultureEP12Il2CppThreadP12Il2CppObjecti
Dkl:_ASN1_GetBytes_m3305539297
B9:__ZNK15MonoScriptCache7ReleaseEv
D_e:__ZN5physx9PxTaskMgrC2EPNS_15PxCpuDispatcherEPNS_15PxGpuDispatcherEPNS_15PxSpuDispatcherE
Sg:_glBindTexture
WQo:_snprintf
bdm:_Array_InternalArray__ICollection_CopyTo_TisKeyValuePair_2_t2401056908_m4025041902_gshared
Jbm:_KeyValuePair_2__ctor_m844205450_gshared
_zn:_TMP_WordInfo_GetWord_m3252148633
V$o:_emscripten_glVertexAttrib1fv__wrapper
hGc:__ZN16LevelGameManagerC2E10MemLabelId18ObjectCreationMode
Hoj:_MonoBehaviour_Internal_IsInvokingAll_m2820042090
r_o:_emscripten_glGetProgramInfoLog__wrapper
Dv:__ZN25AnimatedPropertyEvaluator29BindCurveToScriptingObjectPtrERKN13AnimationClip10FloatCurveEj18ScriptingObjectPtrb
Xxo:__ZN6il2cpp2vm5Field14IsThreadStaticEP9FieldInfo
b0j:_String_Equals_m1744302937
Qhj:_Display__ctor_m501911701
aEm:_ReadOnlyCollection_1_System_Collections_Generic_IListU3CTU3E_Insert_m1020890112_gshared
dWk:_Hashtable__cctor_m4112166779
fBh:_DefaultControls_SetDefaultTextValues_m1943359795
dNi:__Z62RuntimeInvoker_TMP_CharacterInfo_t3185626797_Int32_t2950945753PFvvEPK10MethodInfoPvPS4_
k4b:__Z19SetupMotionMatricesR6CameraR18RPDataMotionVector
q$n:__ZL7log2_64y
B3f:_TMP_SubMeshUI_UpdateMeshPadding_m567989066
vH:__ZN26AnimatorControllerPlayable18PrepareForPlaybackERN7mecanim6memory9AllocatorE
JH:__ZN8Animator11AnimatorJob11AddPlayableEP17AnimationPlayablef
bFh:_GridLayoutGroup_get_cellSize_m2967185053
KQe:__ZN5physx19PxsMaterialCombiner24combineIsotropicFrictionERKNS_15PxsMaterialDataES3_
cdn:_PKCS12_Decrypt_m1280162536
nIl:_Dictionary_2_Add_m1679778769_gshared
x$h:_InternalEnumerator_1_get_Current_m3081223448_gshared
TAn:_Event_get_isMouse_m1058251071
Uvn:_AnchorInfo_get_IsPosition_m2100552190
iGa:__ZN10VertexDataC2ERKS_17ShaderChannelMask10MemLabelId
x$c:__ZL22Transfer_ManagedObjectI9JSONWriteLb1EEvRK29SerializationCommandArgumentsR31RuntimeSerializationCommandInfo
eSf:__Z66Register_UnityEngine_Networking_UnityWebRequest_get_isNetworkErrorv
_rf:_otv_JSTF_validate
SDa:__ZN22CreateGpuProgramOutputC2Ev
Zij:_PersistentCallGroup_Initialize_m4253175514
gPk:_Boolean_System_IConvertible_ToChar_m4279513009_AdjustorThunk
YVk:_Hashtable__ctor_m1763145853
GWi:_NumberFormatter_ScaleOrder_m3813786990
_Il:_Enumerator_System_Collections_IEnumerator_Reset_m2550940120_gshared
Jml:_PrivateKeyInfo_DecodeDSA_m771724585
pem:_Array_InternalArray__Insert_TisProgressHandler_t926933139_m28642970_gshared
Ajg:_U3CRevealCharactersU3Ec__Iterator0_Reset_m322011311
Aaf:__ZN5physx7Cooking16cookTriangleMeshERKNS_18PxTriangleMeshDescERNS_14PxOutputStreamE
Mhk:_Interval_get_Size_m4163671410_AdjustorThunk
Fdf:__ZN14CompletionTask4InitEPN5physx7PxSceneE
T8d:__ZN5physx2Sc7ElementD0Ev
usm:_UInt32_System_IConvertible_ToSByte_m1061556466
Ycf:__ZN5physx6shdfnd10Foundation7releaseEv
U5i:_WellKnownClientTypeEntry__ctor_m2471908952
F3n:__ZN6il2cpp2vm5Class4InitEP11Il2CppClass
fd:invoke_vidi
WXi:_NumberFormatter_FormatRoundtrip_m19342689
y5i:_RemotingServices_CreateClientProxyForContextBound_m783705199
lMc:__ZNK15GUIEventManager15GetEventAtIndexEi
TGf:__ZN2UI14CanvasRenderer17SyncDirtyElementsER8JobFence
lpl:_Enumerator_System_Collections_IEnumerator_get_Current_m3816090481_gshared
DFo:__ZN6il2cpp5utils11StringUtils15StringDuplicateEPKc
u5l:_DefaultComparer_Equals_m2480133610_gshared
iDa:__ZNK9ShaderLab21ShaderRasterStateDesc16ToGfxRasterStateEPK19ShaderPropertySheetS3_R14GfxRasterState
_Xk:_Array_Sort_TisVector3_t3722313464_m1915176437_gshared
bPo:__ZN6il2cpp2os9EventImplC2Ebb
mid:__Z12RangedRandomR5RandNRKiS2_
G5f:_TMP_Text_set_maxVisibleCharacters_m1275491376
SJj:_ScrollRect_OnInitializePotentialDrag_m3139711961
BTm:_List_1_get_Item_m2113769949_gshared
JFj:_MaskableGraphic_OnTransformParentChanged_m329502413
JCa:__ZN12FlareManager12RemoveCameraER6Camera
T5:__Z20IsMatrixBuiltinParamPKcPi
L$j:_String_memcpy4_m979367827
rkm:_UnicodeEncoding_GetBytesInternal_m1902824297
kGc:__ZN8Renderer19PostInitializeClassEv
aUj:_Array_FindIndex_TisRuntimeObject_m2504082708_gshared
PGf:__ZNSt3__26__treeINS_12__value_typeINS_4pairIKiS3_EEN2UI14DepthSortLayerEEENS_19__map_value_compareIS4_S7_NS_4lessIS4_EELb1EEE13stl_allocatorIS7_L18MemLabelIdentifier1ELi16EEE25__emplace_unique_key_argsIS4_JRKNS_21piecewise_construct_tENS_5tupleIJOS4_EEENSK_IJEEEEEENS2_INS_15__tree_iteratorIS7_PNS_11__tree_nodeIS7_PvEEiEEbEERKT_DpOT0_
TXj:_Array_InternalArray__ICollection_Add_TisSpriteData_t3048397587_m2279685385_gshared
Ven:_X509Chain_FindCertificateRoot_m1937726457
DHk:_StreamAsyncResult_get_AsyncWaitHandle_m3390046559
EKf:__ZN11UnityEngine15PlatformWrapper21GetVRPlayAreaGeometryER13dynamic_arrayI8Vector3fLj0EE
pLo:__ZN6il2cpp6icalls8mscorlib6System8Delegate23CreateDelegate_internalEP20Il2CppReflectionTypeP12Il2CppObjectP22Il2CppReflectionMethodb
mql:_Enumerator_System_Collections_IEnumerator_get_Current_m921113401_AdjustorThunk
uJb:__ZN18DelayedCallManager18CancelCallDelayed2E4PPtrI6ObjectEPF15CallObjectStatePS1_PvES7_
Nwa:__ZN25ThreadsafeLinearAllocator10ReallocateEPvji
Tsb:__Z18Transfer_BlittableI14SafeBinaryReadLb1E11QuaternionfEvRK29SerializationCommandArgumentsR31RuntimeSerializationCommandInfo
bfe:__ZNK5physx18PxArticulationLink8isKindOfEPKc
Sia:__ZN18SpriteAtlasManagerD0Ev
dz:__ZN7mecanim9animation10SampleClipERKNS0_12ConstantClipEjPf
Soh:_TextContainer_OnRectTransformDimensionsChange_m2148637261
a_a:__ZN10Matrix4x4f8TransferI14SafeBinaryReadEEvRT_
An:FUNCTION_TABLE_vifiiiiiiiiiiiiiiiiii
lPn:__ZL25UnresolvedVirtualCall_137P12Il2CppObjectfffPK10MethodInfo
Caj:_CryptographicUnexpectedOperationException__ctor_m2381988196
Rko:__ZN14dense_hash_mapI10KeyWrapperIPK22Il2CppGenericParameterEPK24MonoGenericParameterInfoN6il2cpp5utils11PointerHashIS2_EENS4_14EqualsComparerINSt3__28equal_toIS3_EEEENSD_9allocatorINSD_4pairIKS4_S7_EEEEE15set_deleted_keyERSJ_
sH:__ZN14AvatarPlayback8StopTimeEv
a2h:_InternalEnumerator_1_System_Collections_IEnumerator_get_Current_m4213507601_gshared
fda:__Z6AppendRKN4core12basic_stringIcNS_20StringStorageDefaultIcEEEEPKc
w6k:_Convert_ToDouble_m996590115
azo:__ZN6il2cpp2vm6Object12NullableInitEPhP12Il2CppObjectP11Il2CppClass
Roa:__ZN9Scripting11UnityEngine16TrackedReference12CleanupProxyEv
M8j:__KeysEnumerator_MoveNext_m4289758929
ypo:__ZN6il2cpp2vm6Thread10InitializeEv
Rnf:__ZN20TextRenderingPrivate19NativeTextGeneratorC2ERK11UTF16StringPNS_8FontImplE11ColorRGBA32ifRK8Vector2fbifiibffbbP13dynamic_arrayIN2UI8UIVertexELj0EE
gDn:_GUIUtility_RemoveCapture_m1294193818
uSb:__ZN7ApiGLES18ClearBufferSubDataEjN2gl12BufferTargetEll
Lvc:__Z37Camera_Get_Custom_PropAllCamerasCountv
NSa:__ZN14Texture2DArray8TransferI18StreamedBinaryReadILb0EEEEvRT_
xie:__ZN5physx15NpActorTemplateINS_18PxArticulationLinkEED2Ev
nXc:__Z38Register_UnityEngine_GUIStyle_get_namev
Oyf:_Split_Cubic
pb:invoke_fiiii
qCj:_InputField_OnSubmit_m3583210804
eQe:__ZN5physx2Sc32DefaultClothInterCollisionFilterEPvS1_
Txn:_Uri_CheckHostName_m2213216182
S$o:_emscripten_glBindRenderbuffer__wrapper
a$k:_Mesh_SetUvsImpl_TisVector2_t2156229523_m3009194955_gshared
Fkk:_HMAC_set_Key_m3535779141
KYf:_TMP_InputField_get_asteriskChar_m1201011147
lTk:_ArrayListWrapper_Contains_m2641184447
V0j:_WindowsIdentity__ctor_m3086466707
zyf:_ft_black_render
ePi:__Z92RuntimeInvoker_RuntimeObject_Int32_t2950945753_Int16_t2552820387_RuntimeObject_RuntimeObjectPFvvEPK10MethodInfoPvPS4_
jpi:__Z177RuntimeInvoker_Int32_t2950945753_RuntimeObject_Int32_t2950945753_Int32_t2950945753_RuntimeObject_Int32_t2950945753_EncoderFallbackBufferU26_t2343550713_CharU5BU5DU26_t3299466565PFvvEPK10MethodInfoPvPS4_
AXo:dynCall_viiifi
hVb:__ZN18GfxFramebufferGLES20ActiveContextChangedEPP17RenderSurfaceBaseS2_
Cpb:__Z19PluginsRenderMarkeri
vK:__ZN10HumanTrait18InitializeBoneNameEv
Mjc:__ZNSt3__26vectorIN9ShaderLab20SerializedSubProgram15StructParameterENS_9allocatorIS3_EEE6assignINS_11__wrap_iterIPS3_EEEENS_9enable_ifIXaasr21__is_forward_iteratorIT_EE5valuesr16is_constructibleIS3_NS_15iterator_traitsISC_E9referenceEEE5valueEvE4typeESC_SC_
xbm:_KeyValuePair_2_ToString_m823870646_gshared
Bxo:__ZNSt3__214__split_bufferIN6il2cpp2vm5Image20EmbeddedResourceDataERNS_9allocatorIS4_EEEC2EjjS7_
bYg:__ZL66SkeletonBone_t4134054672_CustomAttributesCacheGenerator_parentNameP21CustomAttributesCache
Nre:__ZNK5physx7NpCloth25getNbSelfCollisionIndicesEv
FPm:_U3CSortU3Ec__Iterator21_Reset_m1241298888_gshared
LIf:__Z69Register_UnityEngine_Analytics_UnityAnalyticsHandler_Internal_Destroyv
n9f:_EnemyBossScript_Update_m512555062
Ydk:_X509Certificate2Collection_Add_m3151757943
wkf:__ZN9Scripting11UnityEngine13CharacterInfo9InitProxyEv
jyd:__ZNSt3__227__insertion_sort_incompleteIR15DepthComparitorP8DepthHitEEbT0_S5_T_
c5k:_DateTime_AddMilliseconds_m3713972790
eVk:_CaseInsensitiveHashCodeProvider_get_DefaultInvariant_m4264275163
Bpi:__Z195RuntimeInvoker_Int32_t2950945753_RuntimeObject_Int32_t2950945753_Int32_t2950945753_Int32_t2950945753_RuntimeObject_DecoderFallbackBufferU26_t3866396827_ByteU5BU5DU26_t4057885439_SByte_t1669577662PFvvEPK10MethodInfoPvPS4_
bIe:__ZN5physx2Sc5Scene22setNbContactDataBlocksEj
aZ:__ZN5physx14PxLightCpuTask12addReferenceEv
DFa:__ZNK15InstancingProps35FillInstanceBufferDispatchConstantsIN10Instancing14RenderLoopArgsEEEvPPvjjRK19ShaderPropertySheetRKT_
RHi:__Z86RuntimeInvoker_Int32_t2950945753_Color32_t2600501292_Color32_t2600501292_RuntimeObjectPFvvEPK10MethodInfoPvPS4_
oZa:__ZN21EnlightenSceneMapping8TransferI19StreamedBinaryWriteILb0EEEEvRT_
Vzo:__ZN6il2cpp2gc16GarbageCollector19InitializeFinalizerEv
GC:__ZN7mecanim8skeleton18CreateSkeletonMaskEjPKNS0_19SkeletonMaskElementERNS_6memory9AllocatorE
ZXc:__ZN10GUIManager10DoGUIEventER10InputEventb
Myb:__Z35Transfer_Blittable_FixedBufferFieldI24GenerateTypeTreeTransferxEvRK29SerializationCommandArgumentsR31RuntimeSerializationCommandInfo
Osf:_otv_LangSys_validate
tuj:_RectOffset_get_right_m2294081512
KVi:_MonoType_getFullName_m837685882
l1f:_TMP_Settings_GetSettings_m2819480199
hgm:_Array_InternalArray__set_Item_TisLink_t544317964_m1234244240_gshared
qxf:_UNITY_TT_Init_Glyph_Loading
pCm:_ReadOnlyCollection_1_System_Collections_Generic_ICollectionU3CTU3E_Clear_m1624648842_gshared
zKc:__Z20CalculateSqrDistanceRK8Vector3fRK4AABB
Jdf:__ZN14PhysicsManager15ProcessContactsEv
q$k:_Array_InternalArray__get_Item_TisProgressHandler_t926933139_m2560246503_gshared
u8i:_SerializationInfo_GetBoolean_m1756153320
ISd:__ZN21BoxTraceSegmentReport7onEventEjPj
Kee:__ZN5physx2Sc21ArticulationJointCore13setSwingLimitEff
QR:__Z32AudioMixerDuckingProcessCallbackP21UnityAudioEffectStatePfS1_jii
HXd:__ZL20HullProjectionCB_BoxRKN5physx2Gu13PolygonalDataERKNS_6PxVec3ERKNS_2Cm8Matrix34ERKNS7_23FastVertex2ShapeScalingERfSE_
boj:_Mesh_get_uv2_m3615020997
_Je:__ZN5physx17PxcNpMemBlockPool19releaseUnusedBlocksEv
O6l:_EqualityComparer_1_System_Collections_IEqualityComparer_Equals_m4172006498_gshared
DWe:__ZN5physx14PxsAABBManager21selfCollideAggregatesEPKNS_19AggregateSortedDataE
RN:__ZN12AudioManager8TransferI24GenerateTypeTreeTransferEEvRT_
Wmj:_Mathf_Round_m4098141538
jkd:__ZN16CustomDataModuleD0Ev
qBc:__ZZL31RegisterRectTransformPropertiesR22GenericPropertyBindingEN28Wrapper_RectTransformPivotx013GetFloatValueEPv
Aso:__ZN6il2cpp6icalls8mscorlib6System9Threading6Thread20Thread_free_internalEP12Il2CppThreadi
fNb:__ZNK11PreloadData18GetInstanceIDArrayER13dynamic_arrayIiLj0EE
Ptn:_PatternCompiler_EmitRepeat_m697083858
B1g:__ZL64UnityAnalyticsHandler_t3011359618_CustomAttributesCacheGeneratorP21CustomAttributesCache
L8j:__KeysEnumerator_get_Current_m2996478063
s$f:_TMP_LinkInfo_GetLinkText_m1788600626
RVo:dynCall_iifff
aKd:__ZN19ControllerHitReportD2Ev
yaa:__Z32scripting_class_get_assemblyname17ScriptingClassPtr
Ixd:__ZN9b2Simplex9ReadCacheEPK14b2SimplexCachePK15b2DistanceProxyRK11b2TransformS5_S8_
FAi:__Z99RuntimeInvoker_Boolean_t97287965_Int32_t2950945753_PointerEventDataU26_t867828220_SByte_t1669577662PFvvEPK10MethodInfoPvPS4_
VJd:__Z50Register_UnityEngine_Rigidbody2D_AddForce_Injectedv
RSe:__ZN5physx26PxcFrictionPatchStreamPairC2ERNS_17PxcNpMemBlockPoolE
I0h:_InternalEnumerator_1_get_Current_m2128158355_AdjustorThunk
Ymb:__ZN9GfxDevice21RegisterNativeTextureE9TextureIDi16TextureDimension
PDh:_GraphicRegistry__ctor_m1851575309
Zzf:__Z13RegisterClassIN20TextRenderingPrivate8TextMeshEEvPKc
rMo:__ZN6il2cpp6icalls8mscorlib6System10Reflection4Emit11TypeBuilder20create_generic_classEP27Il2CppReflectionTypeBuilder
sVb:__ZNK16UniformCacheGLES6SubmitEjRK13dynamic_arrayIN20GpuProgramParameters14ValueParameterELj0EERKS0_IiLj0EE
_Qj:_PlayableHandle_IsPlayableOfType_TisAnimationLayerMixerPlayable_t3631223897_m201603007_gshared
vW:__Z60Register_UnityEngine_AudioListener_GetNumExtensionPropertiesv
Lj:_emscripten_glUniformMatrix4fv
Cqo:__ZN15dense_hashtableINSt3__24pairIK10KeyWrapperINS1_IP11Il2CppClassjEEES4_EES6_N6il2cpp8metadata14ArrayClassHashEN14dense_hash_mapIS6_S4_SB_NS6_14EqualsComparerINSA_17ArrayClassCompareEEENS0_9allocatorIS8_EEE9SelectKeyESF_SH_E13set_empty_keyERKS8_
Edb:__ZN12ScriptMapperD2Ev
rcg:_LaserBeamCollision_OnCollisionEnter2D_m3419821879
$Nd:__ZN9Rigidbody13AwakeFromLoadE17AwakeFromLoadMode
foj:_Mesh_get_colors32_m1253190811
R5c:__ZN9SubModule8TransferI14SafeBinaryReadEEvRT_
DIo:_GC_stopped_mark
ATf:__ZL59__ManagedRegistrationHelperFunction_SubsystemDescriptorBasePv
Hdj:_AnimationCurve_Finalize_m2397002729
s5c:__ZN14ParticleSystem15AddCustomLightsERK27LocalLightCullingParametersRK11CullResultsR12ActiveLightsRi9LightType
rke:__ZNK5physx14NpSceneQueries10multiQueryINS_12PxOverlapHitEEEbRKNS_15MultiQueryInputERNS_13PxHitCallbackIT_EENS_7PxFlagsINS_9PxHitFlag4EnumEtEEPKNS_12PxQueryCacheERKNS_17PxQueryFilterDataEPNS_21PxQueryFilterCallbackEPNS_20BatchQueryFilterDataE
KRi:__Z50RuntimeInvoker_RuntimeObject_ColorTween_t809614380PFvvEPK10MethodInfoPvPS4_
$7i:_SerializationCallbacks__cctor_m1674315180
j9n:__ZNK15dense_hashtableI10KeyWrapperIPK19Il2CppGenericMethodES4_N6il2cpp8metadata23Il2CppGenericMethodHashEN14dense_hash_setIS4_S7_NS4_14EqualsComparerINS6_26Il2CppGenericMethodCompareEEENSt3__29allocatorIS4_EEE8IdentityESB_SE_E23find_position_with_hashERKS4_j
zCa:__ZNSt3__26vectorIN12FlareManager10FlareEntryENS_9allocatorIS2_EEE21__push_back_slow_pathIS2_EEvOT_
Amc:__ZN9ShaderLab20SerializedSubProgram16TextureParameter8TransferI19StreamedBinaryWriteILb0EEEEvRT_
Lb:invoke_fiiiiiiiifiiiif
imd:__ZN14ParticleSystem23RendererBecameInvisibleEv
Pva:__ZNK7Hash12812PackToUInt32Ev
Utl:_KeyCollection__ctor_m1035147995_gshared
sAf:__ZZN20TextRenderingPrivate8TextMesh15InitializeClassEvEN31FunctorImpl_299kDidAddComponent4CallEPviR11MessageData
qca:__ZNSt3__227__insertion_sort_incompleteIRNS_6__lessI14ObjectLoadDataS2_EEPS2_EEbT0_S6_T_
L1:__ZN11UnityEngine15CloudWebService16SessionContainer8AddEventEPNS0_14CloudEventInfoE
brb:__Z4TrimRKN4core12basic_stringIcNS_20StringStorageDefaultIcEEEES5_
abk:_SPKey_Equals_m4205549017
a_k:_Dictionary_2_Do_ICollectionCopyTo_TisKeyValuePair_2_t3842366416_m1399105608_gshared
idk:_X509Certificate2_Import_m4026562329
vsl:_Enumerator_System_Collections_IEnumerator_get_Current_m2763095718_AdjustorThunk
i1o:_glGetStringi__wrapper
c4l:_DefaultComparer_Equals_m4141672650_gshared
YZa:__ZN10VertexData8TransferI14SafeBinaryReadEEvRT_
Rde:__ZN5physx19NpArticulationJointD0Ev
nia:__ZN13RuntimeStaticI12AdsIdHandlerLb0EE16StaticInitializeEPv
rKo:_GC_malloc_atomic
Rff:__ZN5physx9NpPhysics14createInstanceEjRNS_12PxFoundationERKNS_17PxTolerancesScaleEbPNS_20PxProfileZoneManagerE
hef:__Z59Register_UnityEngine_Physics_INTERNAL_CALL_Internal_Raycastv
ebm:_HashSet_1_GetEnumerator_m3346268098_gshared
eNo:__ZN6il2cpp5utils6Memory13AlignedMallocEjj
CYl:_List_1_Insert_m3678598124_gshared
wCj:_Selectable_get_animator_m2899312855
B8:__ZL20SortItemByInstanceIDRKN18AwakeFromLoadQueue4ItemES2_
QKn:_Vector2_op_Multiply_m2347887432
ugf:__ZN5physx6shdfnd5ArrayIPvNS0_15InlineAllocatorILj256ENS0_19ReflectionAllocatorINS_24NpPtrTableStorageManager8PtrBlockILi16EEEEEEEE15growAndPushBackERKS2_
b9j:_TypeConverterAttribute__ctor_m1774069684
RC:__ZNK34AnimationStateMachineMixerPlayable26GetInterruptedPosePlayableEv
nNf:__ZN20UnityConnectSettings8TransferI24GenerateTypeTreeTransferEEvRT_
U6c:__ZN25IParticleSystemProperties8PropertyIfNS_11ClampRadiusEE8TransferI14SafeBinaryReadEEvRT_PKc
xF:__ZN34BlobWriteTransferSTLStyleArrayImplI22OffsetPtrArrayTransferIbEEclERS1_17TransferMetaFlagsR9BlobWrite
RDc:__ZZN12MeshRenderer15InitializeClassEvEN29FunctorImpl_205kDidDeleteMesh4CallEPviR11MessageData
gKk:_Byte_ToString_m4063101981
jVi:_MonoType_GetConstructors_m2574682189
Rqh:_TextMeshProUGUI_UpdateVertexData_m3399849512
Nao:__ZN6il2cpp2vm13MetadataCache31GetParameterDefinitionFromIndexEi
wAd:__ZN25b2SynchronizeFixturesTask7TaskJobEPS_j
Xvj:_SceneManager_LoadSceneAsyncNameIndexInternal_m4031498323
Joe:__ZN5physx7NpShape13setRestOffsetEf
jSf:__Z69Register_UnityEngine_Networking_UnityWebRequest_GetResponseHeaderKeysv
Exe:__ZN5physx3Scb14ParticleSystemC2ERKNS_11PxActorType4EnumEjb
T9j:_ServicePointManager_FindServicePoint_m4119451290
BGm:_ReadOnlyCollection_1_System_Collections_IList_Clear_m2007013334_gshared
yfa:__ZL31InitializeRendererUpdateManagerPv
pMh:_ParameterInfo__ctor_m2779026345
xoa:__ZN9Scripting11UnityEngine18WaitForFixedUpdate12CleanupProxyEv
jpe:__ZN5physxL11getTriangleERKNS_2Gu12TriangleMeshEjPNS_6PxVec3EPKS4_PKvRKNS_2Cm8Matrix34Eb
Qna:__ZL46__ManagedRegistrationHelperFunction_RectOffsetPv
bXi:_NumberFormatter_get_IsZeroInteger_m2263284741
yMd:__ZN14SafeBinaryRead21TransferSTLStyleArrayINSt3__26vectorIjNS1_9allocatorIjEEEEEEvRT_17TransferMetaFlags
oqe:__ZNK5physx7NpCloth16lockParticleDataEv
sbn:_X509Certificate_PEM_m2020851166
O9i:_SByte_Equals_m865896384_AdjustorThunk
Jem:_Array_InternalArray__Insert_TisDateTime_t3738529785_m2308632330_gshared
Q5a:__ZN11TimeManager8TransferI19StreamedBinaryWriteILb0EEEEvRT_
urk:_TlsServerCertificateRequest_ProcessAsTls1_m3214041063
itf:_compare_uni_maps
v6m:_Collection_1_Insert_m3559276190_gshared
pLf:__ZN11UnityEngine15PlatformWrapper27GetGraphicsCapsSupportFlagsEv
b_k:_Dictionary_2_Do_ICollectionCopyTo_TisRuntimeObject_m3695543300_gshared
OLe:__ZN5physx13NpRigidStatic9visualizeERNS_2Cm12RenderOutputEPNS_7NpSceneE
sCb:__ZN12NativeBufferI16Converter_StringE15SetupForWritingER9ArrayInfo
fkl:_SequentialSearchPrimeGeneratorBase_GenerateSearchBase_m3595783982
LL:__ZN13RuntimeStaticI18AssetBundleManagerLb1EE16StaticInitializeEPv
L2o:___cxa_end_catch__wrapper
dk:_emscripten_glVertexAttrib3fv
rnd:__ZL24GenerateParticleGeometryIL24ParticleSystemRenderMode0ELb1ELb0EL25ParticleSystemRenderSpace4EEvPfRK22ParticleSystemTempDataRK26ParticleSystemRendererDataRK21ParticleSystemModulesRK23ParticleSystemParticlesRK31ParticleSystemParticlesTempData
jOe:__ZN5physx6shdfnd8PoolBaseINS_2Sc35ParticleElementRbElementInteractionENS0_19ReflectionAllocatorIS3_EEE15disposeElementsEv
$Yj:_SHA1CryptoServiceProvider_Dispose_m1653611664
bSk:_Char_ToString_m278452217
gal:_DateTime_System_IConvertible_ToUInt16_m4182197229_AdjustorThunk
DTf:__ZL50__ManagedRegistrationHelperFunction_ReferencePointPv
njk:_BigInteger_op_RightShift_m460065452
fKb:__ZN13MonoBehaviour22DoScriptRebuildWarningEv
FOj:_Array_InternalArray__ICollection_Contains_TisTMP_MeshInfo_t2771747634_m644520357_gshared
aJc:__ZNK10GameObject22GetComponentPtrAtIndexEi
LEc:__ZZL23RegisterLightPropertiesR22GenericPropertyBindingEN22Wrapper_LightSpotAngle13GetFloatValueEPv
LGj:_RectMask2D_get_rootCanvasRect_m2913509457
uuh:_ExecuteEvents_get_cancelHandler_m1220395193
Bzf:__Z38TextGenerator_Get_Custom_PropLineCountP12Il2CppObject
Dan:_InternalAsyncResult_SetComplete_m963842420
c5j:_Encoding_GetEncoding_m2801244948
xYc:__ZN11IMGUIModule25GetGUIStyleScriptingClassEv
Ivf:_tt_get_interface
Han:_SslStreamBase_EndRead_m495357226
lso:__ZN6il2cpp5utils9PathUtils7CombineIcEENSt3__212basic_stringIT_NS3_11char_traitsIS5_EENS3_9allocatorIS5_EEEERKSA_SC_
NWe:__ZN5physx14PxsAABBManager16processBPResultsERKNS_20PxsComputeAABBParamsE
UUe:__ZN5physx23PxsBroadPhaseContextSapD2Ev
Uri:__Z64RuntimeInvoker_RuntimeObject_SByte_t1669577662_SByte_t1669577662PFvvEPK10MethodInfoPvPS4_
Lno:_il2cpp_set_config_dir
WJc:__ZN13PlayableGraph21InvalidateMultithreadEv
ICn:_GUIScrollGroup_CalcHeight_m3173593443
xcf:__ZN5physx12SubSortQuickC2EPjPKNS_10PxBounds3VEjf
z0i:_EnumBuilder_GetConstructorImpl_m3068576149
B7:__Z18ConvertUTF16toUTF8PPKtS0_PPhS2_15ConversionFlags
lEo:__ZN6il2cpp2os20PathErrnoToErrorCodeERKNSt3__212basic_stringIcNS1_11char_traitsIcEENS1_9allocatorIcEEEEi
f6g:__ZL68InputField_t3762917431_CustomAttributesCacheGenerator_m_KeyboardTypeP21CustomAttributesCache
DNc:__Z24GetActualTargetFrameRatev
d$n:__ZL16my_g_bit_nth_msfj
b_j:_SHA512Managed_Sigma1_m922902398
zZm:_Enumerator_MoveNext_m3662315381_AdjustorThunk
crk:_TlsClientFinished_ProcessAsTls1_m2429863130
n1b:__Z23SetupStereoFlareElementP11FlareVertexRK8Vector2fS3_S3_RK11ColorRGBA32RK10Matrix4x4fRK8Vector3fb
sOj:_Array_InternalArray__ICollection_Contains_TisUInt16_t2177724958_m3393176156_gshared
T3n:__ZN6il2cpp2vm5Class15GetInstanceSizeEPK11Il2CppClass
gWf:_TMP_Dropdown_SetAlpha_m201864524
ab:invoke_iiiifiiii
wpl:_Enumerator_System_Collections_IDictionaryEnumerator_get_Key_m2502357460_AdjustorThunk
q5f:_TMP_Text_set_enableCulling_m1094505026
Bqd:__ZN11ShapeModule13DidDeleteMeshEv
Ose:__ZNK5physx2Sc9ClothCore16getRestPositionsEPNS_6PxVec4E
ARe:__ZN5physx20PxcSweepConvexConvexERKNS_11PxsCCDShapeES2_PKNS_12PxsRigidBodyES5_RKNS_11PxTransformES8_S8_S8_fRNS_6PxVec3ESA_RNS_10PxcNpCacheERNS_18PxcNpThreadContextEf
R4j:_String_Join_m2050845953
Vve:__ZN5physx15PxsParticleDataD0Ev
MVb:__ZL19BlitFramebufferImplRN4gles23BlitFramebufferDrawQuadER9GfxDevice9TextureIDRK8Vector4f
qaf:__ZN5physx6shdfnd5ArrayIPvNS0_19ReflectionAllocatorIN17PxcPoolMallocData9PoolData8EEEE15growAndPushBackERKS2_
Chm:_Array_qsort_TisChar_t3634460470_m1841999294_gshared
PVo:dynCall_viiiiiiiiiiiiii
Vmf:_UNITY_FT_List_Add
IFc:__ZN14Texture2DArray11InitTextureEiii13TextureFormatb
jdi:_Comparer_1_System_Collections_IComparer_Compare_m562585159_gshared
ukn:_InvokableCall_1_Invoke_m1524307439_gshared
kNd:__ZN5physx15PxGeometryQuery14getWorldBoundsERKNS_10PxGeometryERKNS_11PxTransformEf
bue:__ZN5physx2Sc9ClothCore18setSolverFrequencyEf
GDk:_Directory_CreateDirectoriesInternal_m3735342319
uRc:__Z41Camera_CUSTOM_WorldToScreenPoint_InjectedP12Il2CppObjectRK8Vector3fRS1_
qef:__ZN8ColliderC2E10MemLabelId18ObjectCreationMode
Glo:__ZN15dense_hashtableINSt3__24pairIK10KeyWrapperINS1_IPK11Il2CppImageP11Il2CppClassEEEjEES9_17ReflectionMapHashIS8_EN14dense_hash_mapIS9_jSD_NS9_14EqualsComparerINS0_8equal_toIS8_EEEENS0_9allocatorISB_EEE9SelectKeyESI_SK_E14squash_deletedEv
g_j:_SHAConstants__cctor_m1699027474
k6a:__ZN9InputAxis8TransferI18StreamedBinaryReadILb0EEEEvRT_
FAd:__ZN39b2PrepareDiscreteIslandContactIndexTask7TaskJobEPS_j
DXd:__ZN5physx2Gu16buildPartialHullERKNS0_13PolygonalDataEPNS0_12SupportLocalERNS0_14SeparatingAxesERKNS_6shdfnd3aos5Vec3VESC_
H8a:__Z14resize_trimmedINSt3__26vectorIN4core12basic_stringIcNS2_20StringStorageDefaultIcEEEE13stl_allocatorIS6_L18MemLabelIdentifier13ELi16EEEEEvRT_j
e2:__GLOBAL__sub_I_Runtime_2D_SpriteAtlas_0_cpp
Btb:__Z18Transfer_BlittableI14SafeBinaryReadLb0EaEvRK29SerializationCommandArgumentsR31RuntimeSerializationCommandInfo
fSk:_CharEnumerator_System_Collections_IEnumerator_get_Current_m1328529384
Lbl:_DBNull__ctor_m3431698857
GFl:_Dictionary_2_CopyToCheck_m2443857744_gshared
ted:__ZN11NoiseModule17CalculateNoiseJobILi3ELb1ELb1EEEvP12NoiseJobData
NXa:__ZN4core8hash_setINS_4pairIKiiLb0EEENS_9hash_pairINS_4hashIiEES2_iEENS_10equal_pairINSt3__28equal_toIiEES2_iEEE6insertERKS3_
P_j:_TripleDES_IsWeakKey_m2147489852
dde:__ZNK5physx2Sc16ArticulationCore17releaseDriveCacheERNS_9PxcFsDataE
$Gj:_GetRayIntersectionAllCallback_Invoke_m1316694896
Axf:_UNITY_FT_List_Iterate
r1d:__ZN5physx11NpAggregate7releaseEv
tRk:_Char_System_IConvertible_ToUInt64_m3536560782
d6l:_EqualityComparer_1__cctor_m3452395357_gshared
Cno:__ZN6il2cpp2vm4Type6IsEnumEPK10Il2CppType
N$b:__Z20SyncFenceCullResultsR11CullResults
sXb:__ZN15TextureTFMethod20IsBoneCountSupportedEi
GLn:_Vector3_Min_m1803158933
kfl:_Double_ToString_m3828879243_AdjustorThunk
SRa:__ZL8StbAllocjPv
Xxb:__Z22TransferField_NonArrayI17RemapPPtrTransfer27Converter_SimpleNativeClassI8GUIStyleEEvRK23StaticTransferFieldInfoR31RuntimeSerializationCommandInfoRT0_
Doe:__ZN5physx7NpShape12setMaterialsEPKPNS_10PxMaterialEt
mQf:__ZNK20UnityWebRequestProtoI24UnityWebRequestTransport16AtomicRefCounter14RedirectHelper14ResponseHelper15DownloadHandler13UploadHandler18CertificateHandler12HeaderHelper14AsyncOperationE16GetUploadedBytesEv
Fyc:__ZNK17AnimationCurveTplIfE20EvaluateWithoutCacheEfRf
vwi:__Z67RuntimeInvoker_Boolean_t97287965_Rect_t2360479859_SByte_t1669577662PFvvEPK10MethodInfoPvPS4_
$Da:__ZN19ShaderPropertySheet10SetTextureERK23FastTexturePropertyNameP7Texture
l_i:_CustomAttributeData__ctor_m2966233049
Zyh:_CanvasUpdateRegistry_PerformUpdate_m1793997159
JLc:__ZN4Mesh10SetNormalsEPK8Vector3fj
gEn:_AesManaged_CreateDecryptor_m692040246
nJ:__ZN17AnimationCurveTplIfE8TransferI14SafeBinaryReadEEvRT_
GVk:_Comparer__ctor_m2580215220
sMk:_ArithmeticException__ctor_m3551809662
mGc:__Z40CleanupRendererAnimationBindingInterfacev
ovc:__ZNSt3__26__treeINS_12__value_typeIN9ShaderLab16FastPropertyNameE10ColorRGBAfEENS_19__map_value_compareIS3_S5_NS_4lessIS3_EELb1EEENS_9allocatorIS5_EEE14__assign_multiINS_21__tree_const_iteratorIS5_PNS_11__tree_nodeIS5_PvEEiEEEEvT_SK_
Bfc:__Z29StdTemplateConversionFunctionIybEbPvR14SafeBinaryRead
uWa:__ZNSt3__26vectorIN15QualitySettings14QualitySettingENS_9allocatorIS2_EEE6assignIPS2_EENS_9enable_ifIXaasr21__is_forward_iteratorIT_EE5valuesr16is_constructibleIS2_NS_15iterator_traitsIS9_E9referenceEEE5valueEvE4typeES9_S9_
$Zd:__Z15raycast_capsuleRKN5physx10PxGeometryERKNS_11PxTransformERKNS_6PxVec3ES8_fNS_7PxFlagsINS_9PxHitFlag4EnumEtEEjPNS_12PxRaycastHitEbPFbRSD_PvESG_
KPl:_List_1_CheckMatch_m2969804370_gshared
sjf:__GLOBAL__sub_I_artifacts_WebGL_codegenerator_0_cpp_5479
KUl:_List_1_CheckCollection_m1671972112_gshared
oXf:_TMP_InputField_AdjustTextPositionRelativeToViewport_m3248409273
Dkm:_UnicodeEncoding_GetPreamble_m3002287178
E3e:__ZNK5physx34PxsSolverConstraintPostProcessTask7getNameEv
n8g:__ZL56Toggle_t2735377061_CustomAttributesCacheGenerator_m_IsOnP21CustomAttributesCache
Jqb:__ZN20GpuProgramParameters14AddVectorParamEPKcii15ShaderParamTypeiiiP16PropertyNamesSet
lPf:__ZN9Scripting19UnityEngineInternal15WebRequestUtils12CleanupProxyEv
hSd:__ZN5physx2Gu23distancePointBoxSquaredERKNS_6PxVec3ES3_S3_RKNS_7PxMat33EPS1_
gif:__ZN5physx9NpPhysics20MeshDeletionListener28onGuMeshFactoryBufferReleaseEPKNS_6PxBaseEtb
IPf:__ZNK12HeaderHelper3GetERKN4core12basic_stringIcNS0_20StringStorageDefaultIcEEEE
h6a:__ZN9InputAxis8TransferI14SafeBinaryReadEEvRT_
Q8:__ZNK21ExecutionOrderManager30GetCustomAwakeFromLoadQueueForEPKN5Unity4TypeE
YFe:__ZNK5physx7NpScene9getActorsENS_7PxFlagsINS_15PxActorTypeFlag4EnumEtEEPPNS_7PxActorEjj
HOf:__Z27RegisterModule_UnityConnectv
sSc:__Z32Material_CUSTOM_CreateWithShaderP12Il2CppObjectS0_
mBc:__ZZL31RegisterRectTransformPropertiesR22GenericPropertyBindingEN32Wrapper_RectTransformSizeDeltax013GetFloatValueEPv
GGk:_MemoryStream_Expand_m3554752073
Mwk:_DateTimeFormatInfo_get_RoundtripPattern_m796050488
ONe:__ZN5physx11NodeManagerD0Ev
COo:__ZN6il2cpp2os20ThreadLocalValueImpl8SetValueEPv
fwj:_ScriptableObject_CreateInstance_m2611081756
Uqn:_VertexShakeB_Awake_m2034102834
YJg:__ZL115TouchScreenKeyboard_t731888065_CustomAttributesCacheGenerator_TouchScreenKeyboard_Open_m3609399077____keyboardType1P21CustomAttributesCache
G9h:_InternalEnumerator_1_System_Collections_IEnumerator_get_Current_m1635397542_gshared
lHk:_Path__cctor_m3273994011
$Gn:_AnalyticsEventTracker__ctor_m3064238498
DNj:_Array_InternalArray__ICollection_Contains_TisResolveHandler_t4124874245_m631371078_gshared
g6m:_Collection_1_System_Collections_IList_Insert_m1105646123_gshared
iFn:_UnityWebRequest_get_isModifiable_m4181352937
STo:__ZNSt11logic_errorD2Ev
bal:_DateTimeUtils_CountRepeat_m3396693018
$Ed:__ZNK17Physics2DSettings22GetTypeVirtualInternalEv
XAk:_Int32_System_IConvertible_ToUInt64_m2502338186
RQ:__ZN10ObjectPoolIN4FMOD12ChannelGroupENS0_13ChannelGroupIEE7SetSizeEi
SDn:_SymmetricTransform_FinalDecrypt_m764004682
jFm:_ReadOnlyCollection_1_System_Collections_Generic_ICollectionU3CTU3E_Remove_m2225120515_gshared
$Bm:_ReadOnlyCollection_1_System_Collections_IList_RemoveAt_m3030506374_gshared
lFh:_GridLayoutGroup_SetLayoutHorizontal_m2838109254
LDm:_ReadOnlyCollection_1_System_Collections_IList_Remove_m1965826685_gshared
t4c:__ZN9Scripting11UnityEngine26ParticleSystemVertexStream9InitProxyEv
Mun:_Parser_ParseGroupingConstruct_m263270497
oQm:_Nullable_1_get_HasValue_m78435089_AdjustorThunk
FOf:__ZN11UnityEngine9Analytics22EventLimitReachedEventC2EjyyRKN4core12basic_stringIcNS2_20StringStorageDefaultIcEEEEb
Mlo:__ZN14dense_hash_mapI10KeyWrapperINSt3__24pairIPK9EventInfoP11Il2CppClassEEEj17ReflectionMapHashIS8_ENS9_14EqualsComparerINS1_8equal_toIS8_EEEENS1_9allocatorINS2_IKS9_jEEEEE15set_deleted_keyERSH_
Yqe:__ZNK5physx7NpCloth25getMotionConstraintConfigEv
ZBm:_ReadOnlyCollection_1_System_Collections_IList_Insert_m1043619507_gshared
rwc:__Z12GUIDToStringRK9UnityGUID
Usk:_RSASslSignatureDeformatter_SetKey_m2204705853
SAo:__ZN6il2cpp6icalls8mscorlib6System4Enum12get_hashcodeEP12Il2CppObject
tT:__ZN11SoundHandleC2ERKS_
Idl:_Delegate_CreateDelegate_m1051651521
_w:__ZN17AnimationPlayableC2E18DirectorPlayerType
kOf:__ZN22UnityAnalyticsSettingsC2Ev
n9n:__ZNK6il2cpp5utils11collections13ArrayValueMapIPK10Il2CppType17Il2CppInteropData26InteropDataToTypeConverterNS_8metadata14Il2CppTypeLessENS8_26Il2CppTypeEqualityComparerEE10find_firstERKS5_
dDl:_ValueCollection_System_Collections_Generic_ICollectionU3CTValueU3E_Add_m2476460902_gshared
$Ek:_FileStream_get_CanSeek_m331583577
et:__ZNSt3__26__sortIR23DependencySortPredicatePN4core4pairIiP9BehaviourLb0EEEEEvT0_S9_T_
Fbj:_DSAParameters_t1885824122_marshal_pinvoke_back
M$d:__ZN5physx3Cct26CharacterControllerManager24setOverlapRecoveryModuleEb
zD:__ZN8Animator22OnGraphTopologyChangedEP8Playablei
Wjl:_Kernel_MultiplyByDword_m1266935086
rFo:__ZN4utf89unchecked8utf8to16INSt3__220back_insert_iteratorINS2_12basic_stringIDsNS2_11char_traitsIDsEENS2_9allocatorIDsEEEEEEPKcEET_T0_SE_SD_
Hz:__ZN17AnimationPlayable18DeallocateBindingsEv
sli:__Z158RuntimeInvoker_Boolean_t97287965_RuntimeObject_Int32U26_t1369213839_Int32_t2950945753_Int32_t2950945753_RuntimeObject_SByte_t1669577662_ContextU26_t3937453398PFvvEPK10MethodInfoPvPS4_
Jxi:__Z128RuntimeInvoker_RuntimeObject_RuntimeObject_SByte_t1669577662_SByte_t1669577662_SByte_t1669577662_SByte_t1669577662_RuntimeObjectPFvvEPK10MethodInfoPvPS4_
aJa:__ZN14RenderSettings18TransferDeprecatedI14SafeBinaryReadEEvRT_
Eto:__ZN6il2cpp2vm9Exception27RaiseNullReferenceExceptionERKNS_5utils10StringViewIDsEEP19Il2CppSequencePoint
IAn:_Event__ctor_m526447123
oMo:__ZN6il2cpp2vm14MetadataCallocEjj
Rsi:__Z88RuntimeInvoker_RuntimeObject_RuntimeObject_RuntimeObject_RuntimeObject_Int32_t2950945753PFvvEPK10MethodInfoPvPS4_
Kqm:_Type_ToString_m3975981286
n4:__ZN12TLSAllocatorI14StackAllocatorE8AllocateEji
mVn:_ConsumeSampleFramesNativeFunction_BeginInvoke_m342678987
P9:__ZN16ScriptingManager18GetMonoScriptCacheEi
GZc:__ZN8JSONRead21TransferSTLStyleArrayI13dynamic_arrayI11KeyframeTplIfELj0EEEEvRT_17TransferMetaFlags
vZb:__ZN20ArchiveStorageHeader13GetDataOffsetERKNS_6HeaderE
tSl:_List_1_Add_m2081230722_gshared
jUc:__Z51Register_UnityEngine_Renderer_set_shadowCastingModev
zim:_Array_Resize_TisCustomAttributeTypedArgument_t2723150157_m3021884250_gshared
qKl:_Enumerator_System_Collections_IEnumerator_get_Current_m2237476582_gshared
tqo:__ZNK6il2cpp8metadata14ArrayClassHashclERKNSt3__24pairIP11Il2CppClassjEE
Itb:__Z18Transfer_BlittableI14SafeBinaryReadLb1EyEvRK29SerializationCommandArgumentsR31RuntimeSerializationCommandInfo
Xum:_WeakReference_Finalize_m2841826116
Lcd:__ZNSt3__27__sort5IR31SortCollisionEventsByGameObjectP22ParticleCollisionEventEEjT0_S5_S5_S5_S5_T_
rWi:_NullReferenceException__ctor_m3076065613
HZc:__ZN8JSONRead8TransferIfEEvRT_PKc17TransferMetaFlagsb
HLm:_Comparison_1_BeginInvoke_m2128956863_gshared
lnc:__ZN9ShaderLab7Program22ComputeSupportsShadowsEv
Wbk:_X509SubjectKeyIdentifierExtension_Decode_m1505409124
tnc:__ZL23AddGpuProgramParametersR20GpuProgramParametersRKNSt3__26vectorIN9ShaderLab20SerializedSubProgram15MatrixParameterENS1_9allocatorIS5_EEEERKNS2_INS4_15VectorParameterENS6_ISB_EEEEiiP16PropertyNamesSet
YGn:_AnalyticsEventParamListContainer__ctor_m1995104893
n3j:_String_System_IConvertible_ToUInt16_m2888090399
tS:__ZN11AudioSource21ApplyCachedParametersE12SoundChannel
hZi:_Assembly_InternalGetType_m3065345470
XY:__ZN13Simd4iFactoryIN6detail9FourTupleEEC2Eiiii
VNh:_ResourceSet__ctor_m3356376607
reg:_JSONLazyCreator_get_Tag_m1333726562
Cug:__ZL56_ParameterInfo_t489405856_CustomAttributesCacheGeneratorP21CustomAttributesCache
QYa:__ZN15SerializeTraitsI33EnlightenTerrainChunksInformationE8TransferI14SafeBinaryReadEEvRS0_RT_
svd:__ZN6b2Body12SetTransformERK6b2Vec2f
FGc:__ZNK32RendererMaterialAnimationBinding9BindValueER6ObjectRKN11UnityEngine9Animation14GenericBindingERNS3_10BoundCurveE
Lgo:__ZN15dense_hashtableINSt3__24pairIK10KeyWrapperIPK10Il2CppTypeEjEES6_N6il2cpp8metadata14Il2CppTypeHashEN14dense_hash_mapIS6_jSB_NS6_14EqualsComparerINSA_26Il2CppTypeEqualityComparerEEENS0_9allocatorIS8_EEE9SelectKeyESF_SH_E4findERS7_
FAl:_Transform_1_Invoke_m1731820209_gshared
ALa:__Z13GetIAnimationv
eSa:__ZL18stbir__support_onef
dzf:__ZN20TextRenderingPrivate8TextMesh11SetFontSizeEi
D2j:_Single_CompareTo_m189772128
u$c:__Z26Transfer_UnityEngineObjectI9JSONWriteLb0EEvRK29SerializationCommandArgumentsR31RuntimeSerializationCommandInfo
hci:_DefaultComparer_Compare_m4042058291_gshared
Ljd:__ZN14VelocityModuleD2Ev
LPa:__ZNSt3__26vectorIN4core12basic_stringIcNS1_20StringStorageDefaultIcEEEE13stl_allocatorIS5_L18MemLabelIdentifier1ELi16EEE6assignINS_11__wrap_iterIPS5_EEEENS_9enable_ifIXaasr21__is_forward_iteratorIT_EE5valuesr16is_constructibleIS5_NS_15iterator_traitsISF_E9referenceEEE5valueEvE4typeESF_SF_
PWo:dynCall_iiiifii
MGf:__ZNSt3__27__sort5IRNS_6__lessIN2UI14DepthSortEntryES3_EEPS3_EEjT0_S7_S7_S7_S7_T_
LEk:_FileLoadException_ToString_m2989457882
oUn:_AudioListener_ClearExtensionProperties_m3849891634
Tdk:_X509Chain_get_Roots_m317091712
Amf:_UNITY_FT_DivFix
L$k:_Array_InternalArray__get_Item_TisDecimal_t2948259380_m3511003792_gshared
HM:__ZL45__ManagedRegistrationHelperFunction_AudioClipPv
CFd:__ZN17PolygonCollider2D12SetPolygon2DEP9Polygon2D
X$j:_SecurityElement_IsValidAttributeValue_m948345692
UFc:__ZN14Texture2DArrayC2E10MemLabelId18ObjectCreationMode
Ka:invoke_vdd
Bo:FUNCTION_TABLE_fiii
JGg:__ZL75g_UnityEngine_SharedInternalsModule_Assembly_CustomAttributesCacheGeneratorP21CustomAttributesCache
vJc:__Z19RegisterModule_Corev
mph:_TextMeshPro_SetLayoutDirty_m1526565725
Y7m:_Collection_1_SetItem_m605100262_gshared
oCc:__ZNK30SpriteRendererAnimationBinding12GetPPtrValueERKN11UnityEngine9Animation10BoundCurveE
vAf:__ZZ29InitializeTextRenderingModulevEN27cleanupAfterLoadRegistrator7ForwardEv
Efj:_Camera_ViewportToWorldPoint_Injected_m202562270
eB:__ZN27AnimationLayerMixerPlayable24ProcessAnimationLayerMixEP33AnimationPlayableEvaluationOutputP35AnimationPlayableEvaluationConstantP32AnimationPlayableEvaluationInputS1_if
Gfi:_Enumerator_System_Collections_IDictionaryEnumerator_get_Entry_m3271511461_gshared
iqn:_TMPro_InstructionOverlay_Set_FrameCounter_Position_m3760834117
tNo:__ZN6il2cpp6icalls8mscorlib4Mono8Security12Cryptography18KeyPairPersistence19_IsMachineProtectedEP12Il2CppString
Dbc:__Z29PluginsIssueRenderingExtEvent26UnityRenderingExtEventTypePv
Iki:__Z116RuntimeInvoker_RuntimeObject_RuntimeObject_Int32_t2950945753_RuntimeObject_RuntimeObject_RuntimeObject_RuntimeObjectPFvvEPK10MethodInfoPvPS4_
K6i:_MessageFormatter_ReadMethodCall_m2327590823
Xod:__Z19UpdateSingleRow2TplIL27ParticleSystemCurveEvalMode2ELS0_2EEvfRK11MinMaxCurveS3_RK23ParticleSystemParticlesPfbiii
wFc:__Z14RandomRotationP9Texture2DPhiiii
NXj:_Array_InternalArray__ICollection_Add_TisUInt16_t2177724958_m3981262878_gshared
Fhf:__ZThn132_N5physx7profile8ZoneImplINS_28PxProfileNameProviderForwardEED1Ev
bbm:_HashSet_1_Contains_m3173358704_gshared
SIn:_ToggleEvent__ctor_m834619998
zlk:_PKCS1_Encode_v15_m2077073129
Rrb:__ZN10Instancing11DrawAPIArgsC2ERK19ShaderPropertySheetPK8Vector4fS6_S6_i
XCi:__Z73RuntimeInvoker_Color32_t2600501292_Color32_t2600501292_Single_t1397266774PFvvEPK10MethodInfoPvPS4_
q7h:_InternalEnumerator_1_get_Current_m2305379241_AdjustorThunk
hfk:_X509ChainElementCollection_System_Collections_IEnumerable_GetEnumerator_m3829089536
vGe:__ZN5physx7NpScene27setCCDContactModifyCallbackEPNS_26PxCCDContactModifyCallbackE
bbf:__ZNK5physx17ConvexHullBuilder17ComputeGeomCenterERNS_6PxVec3E
suj:_RectOffset_get_left_m1232181034
mro:__ZNSt3__214__split_bufferIN6il2cpp8metadata18GenericArrayMethodERNS_9allocatorIS3_EEED2Ev
uVe:__ZN3MBPD0Ev
xqb:__ZN4gles14UseGLSLProgramER15DeviceStateGLESjbij
Aem:_Array_InternalArray__Insert_TisKeyValuePair_2_t727985506_m2838910857_gshared
e3o:_glDeleteProgram__wrapper
Xql:_Enumerator_System_Collections_IEnumerator_get_Current_m2223443336_gshared
L7c:__ZN11ShapeModule18MultiModeParameterIN25IParticleSystemProperties8PropertyIfNS1_11ClampRadiusEEEE8TransferI24GenerateTypeTreeTransferEEvRT_
qSa:__ZN6prcoreL18BlitFloatToIntegerERK14ImageReferenceRS0_
_bl:_DBNull_System_IConvertible_ToUInt32_m3784627971
xpk:_ClientSessionCache_Add_m964342678
BJe:__ZNK5physx10PxsContext18getBounceThresholdEv
KNc:__ZN23TransformChangeDispatch46GetAndClearChangedTransformsForMultipleSystemsEyR13dynamic_arrayI23TransformAccessReadOnlyLj0EERS0_IyLj0EEPN9profiling6MarkerE
s1b:__Z13GetIPhysics2Dv
g1:__ZN11UnityEngine15CloudWebService14RestDownloader17OnCompleteContentEv
Cfo:__ZN15dense_hashtableINSt3__24pairIK10KeyWrapperINS1_IPK14Il2CppAssemblyP11Il2CppClassEEEjEES9_17ReflectionMapHashIS8_EN14dense_hash_mapIS9_jSD_NS9_14EqualsComparerINS0_8equal_toIS8_EEEENS0_9allocatorISB_EEE9SelectKeyESI_SK_E15insert_noresizeERKSB_
Prb:__ZN10Instancing11DrawAPIArgsC2Ev
Gyj:_Transform_get_localScale_m129152068
ddl:_DivideByZeroException__ctor_m3496959969
EEe:__ZN5physx6shdfnd5ArrayIPvNS0_15InlineAllocatorILj256ENS0_19ReflectionAllocatorINS_2Gu31SpherePersistentContactManifoldEEEEEE15growAndPushBackERKS2_
M5e:__ZN5physx2Cm18DelegateFanoutTaskINS_2Sc5SceneEXadL_ZNS3_17finalizationPhaseEPNS_10PxBaseTaskEEEE11runInternalEv
hD:__ZN17AnimationPlayable28UpdateInternalStateRecursiveILi1ELb0EEEvPK35AnimationPlayableEvaluationConstant
hAo:__ZN6il2cpp2gcL10CleanupCCWEPvS1_
cb:invoke_vifff
uhe:__ZN5physx6shdfnd15atomicDecrementEPVi
Df:_emscripten_request_fullscreen
Yfn:_Predicate_1_Invoke_m851618236_gshared
VKb:__ZN20LocalFileSystemWebGL6DeleteER13FileEntryDatab
Ff:_emscripten_glDisableVertexAttribArray
SPj:_Array_InternalArray__ICollection_Remove_TisSingle_t1397266774_m3361324455_gshared
wo:FUNCTION_TABLE_iiiifiiii
Dc:invoke_fifffi
ywm:_Collection_1_System_Collections_IList_Add_m2969482770_gshared
Ikl:_BitConverterLE_GetBytes_m4130646282
aUb:__ZN4gles23ClearCurrentFramebufferEP7ApiGLESbbbRK10ColorRGBAffi
AB:__ZN7mecanim12statemachine20CreateStateWorkspaceEjjjRNS_6memory9AllocatorE
mnn:_UnityEvent_1_Invoke_m3604335408_gshared
Jaf:__ZN5physx2Gu11HeightField13releaseMemoryEb
Qf:_emscripten_glDeleteObjectARB
gth:_EventSystem_RaycastComparer_m3685368675
iVa:__Z14DecompressDXT3iiiPKjPj
YFd:__ZN14SafeBinaryRead21TransferSTLStyleArrayI13dynamic_arrayIS1_I8Vector2fLj0EELj0EEEEvRT_17TransferMetaFlags
Bjg:_U3CRevealWordsU3Ec__Iterator1_MoveNext_m1190869961
Boi:__Z131RuntimeInvoker_Void_t1185182177_RuntimeObject_RuntimeObject_Int64_t3736567304_ObjectU26_t2146539884_SerializationInfoU26_t419328957PFvvEPK10MethodInfoPvPS4_
fbd:__ZN12LightsModule5StartER23ParticleSystemParticlesjj
wll:_DSAManaged_CreateSignature_m2233977444
l0k:_Array_InternalArray__get_Item_TisMaterialReference_t1952344632_m860338671_gshared
CJk:_PKCS12_RemoveCertificate_m1421555398
VLj:_Slider_FindSelectableOnLeft_m1667068522
Yja:__ZN6prcoreL17RemapGenericFloatI17TexFormatRGBAHalf18TexFormatARGBFloatEEvPKNS_9InnerInfoE
wyd:__ZNSt3__27__sort4IRN18Overlap2DQueryBase29ColliderHitsByDepthComparitorEPP10Collider2DEEjT0_S7_S7_S7_T_
AXc:__Z14GetBuiltinSkini
PY:___cxx_global_var_init_12
yY:___cxx_global_var_init_13
NY:___cxx_global_var_init_10
OY:___cxx_global_var_init_11
$l:_JS_SystemInfo_GetBrowserVersionString
jeb:__ZN2UI13RectTransform23VirtualRedirectTransferER14SafeBinaryRead
eHe:__ZN5physx7NpScene17flushQueryUpdatesEv
OOo:__ZN6il2cpp2vm16GenericContainer16GetDeclaringTypeEPK22Il2CppGenericContainer
eAj:_InputField_get_caretColor_m2973283772
Zkc:__ZNSt3__26vectorIN9ShaderLab20SerializedSubProgramENS_9allocatorIS2_EEE6assignIPS2_EENS_9enable_ifIXaasr21__is_forward_iteratorIT_EE5valuesr16is_constructibleIS2_NS_15iterator_traitsIS9_E9referenceEEE5valueEvE4typeES9_S9_
H1c:__Z18Transfer_BlittableI8JSONReadLb0E8BitFieldEvRK29SerializationCommandArgumentsR31RuntimeSerializationCommandInfo
x$j:_SecurityPermission_set_Flags_m1503445204
Xam:_HashSet_1_CopyTo_m2849056227_gshared
bAn:_TMPro_EventManager_ON_MATERIAL_PROPERTY_CHANGED_m1492499340
MDb:__ZL17Transfer_GUIStyleI18StreamedBinaryReadILb1EELb0EEvRK29SerializationCommandArgumentsR31RuntimeSerializationCommandInfo
p0j:_Evidence_get_HostEvidenceList_m2705108086
cVc:__ZN9Scripting11UnityEngine15ScrollViewState9InitProxyEv
Ejl:_ModulusRing_Multiply_m343333088
Oef:__ZN12PhysXRaycast15InitializeClassEv
wHe:__ZN5physx7NpScene10unlockReadEv
SXg:__ZL76AnimatorTransitionInfo_t2534804151_CustomAttributesCacheGenerator_m_AnyStateP21CustomAttributesCache
Tic:__ZN9ShaderLab14SerializedPass8TransferI14SafeBinaryReadEEvRT_
XWc:__Z71Register_UnityEngine_GUILayoutUtility_INTERNAL_CALL_Internal_MoveWindowv
OV:__ZN12AudioManager16SetListenerPauseEb
FFd:__ZThn160_N17PolygonCollider2DD0Ev
ADd:__ZNSt3__26__sortIRN10ClipperLib12LocMinSorterEPNS1_12LocalMinimumEEEvT0_S6_T_
osd:__ZL50__ManagedRegistrationHelperFunction_ContactPoint2DPv
pci:_DefaultComparer_Compare_m1284039696_gshared
mqh:_TextMeshProUGUI__ctor_m667198371
ga:invoke_viiiiiiiiiii
JPo:___syscall_ret
bOj:_Array_InternalArray__ICollection_Contains_TisRuntimeObject_m4067783231_gshared
ovh:_PointerEventData_set_worldNormal_m1888481930
Kvn:_AnchorInfo__ctor_m46784903
s0k:_Array_InternalArray__get_Item_TisTMP_LinkInfo_t1092083476_m3566166225_gshared
dok:_CipherSuiteCollection_get_Item_m4188309062
L9m:_SslHandshakeHash_HashFinal_m2573455475
OSh:_SynchronizationAttribute_ReleaseLock_m1030353464
uHc:__ZN14qsort_internal30FindAndMovePivotToLastPositionIP8Vector2fi26PointDistanceSortPredicateEEvT_S4_T0_T1_
dJf:__Z56Register_UnityEngine_Analytics_CustomEventData_AddDoublev
S_a:__ZN11ChannelInfo8TransferI19StreamedBinaryWriteILb0EEEEvRT_
Yqn:_VertexShakeB_AnimateVertexColors_m3313523349
xFo:__ZN4utf88internal13validate_nextIPKcEENS0_9utf_errorERT_S5_Rj
Yhg:_JSONString_GetHashCode_m1105499309
o8g:__ZL53ToggleGroup_t123837990_CustomAttributesCacheGeneratorP21CustomAttributesCache
_se:__ZN5physx2Sc9ClothCore22setFrictionCoefficientEf
$1b:__ZN14qsort_internal13Partition3WayIP17RODataReplacementi19ROSorterReplacementEENSt3__24pairIT_S6_EES6_S6_T0_T1_
bne:__ZNK5physx9NpPhysics17getNbConvexMeshesEv
TGe:__ZNK5physx7NpScene29getContactCorrelationDistanceEv
Csc:__Z34Register_UnityEngine_Gradient_Initv
Bzj:_InputField_set_text_m1877260015
GKc:__Z15WriteLineVertexILb0EEvRPhRKN4math8float4x4ERKNS2_7_float3ERK11ColorRGBA32RKffRKNS2_7_float2E
Q7c:__ZN13InitialModule8TransferI17RemapPPtrTransferEEvRT_
Vcg:_Music_Awake_m249522262
_Rh:_Context_ToString_m1073616138
OYi:_Random_Next_m2295149237
U8c:__ZN25IParticleSystemProperties8PropertyI8Vector3fNS_3MinILi0EEEE8TransferI18StreamedBinaryReadILb0EEEEvRT_PKc
t6l:_EqualityComparer_1_System_Collections_IEqualityComparer_GetHashCode_m3690690972_gshared
rzj:_InputField_EnforceTextHOverflow_m3400115777
wWo:dynCall_viffffii
Vjf:__ZN9Scripting11UnityEngine12TreeInstance9InitProxyEv
vdl:_Decimal_op_Increment_m2045993911
l6a:__ZN9InputAxis8TransferI19StreamedBinaryWriteILb0EEEEvRT_
I1f:_TMP_SpriteAsset_UpdateLookupTables_m4109332368
Jbi:_DefaultComparer_Compare_m1120623116_gshared
i1d:__ZN5physx6shdfnd8SyncImpl4waitEj
AAd:__ZN14qsort_internal5QSortIPN25b2SynchronizeFixturesTask14b2DeferredMoveEiPFbRKS2_S5_EEEvT_S8_T0_T1_
FGj:_RectMask2D_get_Canvas_m9990042
hHk:_NullStream_Seek_m1914924606
Jel:_Double_System_IConvertible_ToInt16_m3591921965_AdjustorThunk
$Mm:_Comparison_1_Invoke_m2925518770_gshared
Ukd:__ZN33SizeBySpeedModulePropertyBindings13GetFloatValueERK14ParticleSystemi
qya:__ZN10GameObject23VirtualRedirectTransferER18StreamedBinaryReadILb0EE
BDn:_SymmetricTransform__ctor_m2693628991
sRc:__Z36Camera_CUSTOM_get_pixelRect_InjectedP12Il2CppObjectR5RectTIfE
bfn:_X509CrlEntry__ctor_m4013514048
fh:_glFrontFace
Jdd:__Z13DragUpdateTplIL27ParticleSystemCurveEvalMode4EEvRK11MinMaxCurvebbR23ParticleSystemParticlesjjRKN4math7_float4E
N7c:__ZN14ParticleSystem8TransferI17RemapPPtrTransferEEvRT_
QSl:_List_1_RemoveAt_m1474895773_gshared
HFj:_MaskUtilities_IsDescendantOrSelf_m2247511982
LIe:__ZN5physx13NpVolumeCache17getNbCachedShapesEv
Dza:__ZN12BaseRenderer21SetGlobalLayeringDataE18GlobalLayeringDataj
I4e:__ZN5physx2Sc15ArticulationSim10sleepCheckEffb
Hqa:__ZN9Scripting11UnityEngine15HideInInspector12CleanupProxyEv
f1j:_SecurityElement__cctor_m3326869319
Tnl:_Enumerator_System_Collections_IEnumerator_Reset_m3571093090_AdjustorThunk
nEn:_AesManaged_set_Key_m767972181
mRi:__Z55RuntimeInvoker_Boolean_t97287965_Nullable_1_t1819850047PFvvEPK10MethodInfoPvPS4_
pzk:_Int16_System_IConvertible_ToBoolean_m1656400658_AdjustorThunk
VGf:__ZN2UI14CanvasRenderer11SyncCullingENS0_8SyncFlagE
kQk:_Byte_System_IConvertible_ToInt64_m285584218
B7i:_ObjectManager__ctor_m1844334865
o_f:_TMP_InputField_MoveUp_m1724011253
RVf:_TMP_Dropdown_AlphaFadeList_m212163240
LRb:__ZN13GfxDeviceGLES22SetScissorRectPlatformERK5RectTIiE
nja:__ZN6prcoreL17RemapGenericFloatI17TexFormatRGBFloat18TexFormatRGBAFloatEEvPKNS_9InnerInfoE
mKe:__ZN5physx2Sc5Scene15getRenderBufferEv
Jkl:_BitConverterLE_GetUIntBytes_m949779219
bXj:_Array_InternalArray__ICollection_Add_TisDictionaryEntry_t3123975638_m665385049_gshared
JIg:__ZL57BootConfigData_t3818279794_CustomAttributesCacheGeneratorP21CustomAttributesCache
cUi:_MissingMemberException__ctor_m2707802176
fGc:__ZN28ReflectionProbeAnchorManager10InitializeEv
zXn:_Canvas_get_renderMode_m841659411
bJd:__ZN16PhysicsManager2D12BeginContactEP9b2Contact
WIb:__ZN13MonoBehaviour23VirtualRedirectTransferER19StreamedBinaryWriteILb0EE
sU:__ZN9AudioClip11CreateSoundEv
Uvi:__Z98RuntimeInvoker_Void_t1185182177_Single_t1397266774_Vector3U26_t3464235976_QuaternionU26_t651104941PFvvEPK10MethodInfoPvPS4_
LSa:__ZN29SerializeTraitsForStringTypesIN4core12basic_stringIcNS0_20StringStorageDefaultIcEEEEE8TransferI24GenerateTypeTreeTransferEEvRS4_RT_
CBl:_Enumerator_get_Current_m1879183223_AdjustorThunk
tpj:_PlayerConnection_GetConnectionNativeApi_m3116196780
xho:__ZNK15dense_hashtableINSt3__24pairIK10KeyWrapperINS1_IPK10MethodInfoP11Il2CppClassEEEjEES9_17ReflectionMapHashIS8_EN14dense_hash_mapIS9_jSD_NS9_14EqualsComparerINS0_8equal_toIS8_EEEENS0_9allocatorISB_EEE9SelectKeyESI_SK_E13find_positionERSA_
jqc:__Z10tesvertLeqP10TESSvertexS0_
Uub:__Z19TransferField_ArrayI14SafeBinaryRead27Converter_SimpleNativeClassI10RectOffsetEEvRK23StaticTransferFieldInfoR31RuntimeSerializationCommandInfoRT0_
VNf:__ZN11UnityEngine7Connect16PersistentValues13RestoreValuesER8JSONRead
TAf:__ZN9Scripting11UnityEngine8Tilemaps8TileData9InitProxyEv
czk:_Guid_BaseToString_m3600006650
Uib:__ZN20ArchiveStorageReader31TryToReadDirectoryFromBlockDataEyPKvj
Z0e:__ZNK5physx2Gu11HeightField17getHeightInternalEff
vsj:_Quaternion_get_identity_m3722672781
dwo:__ZN6il2cpp2vmL11GetIdentityEP14Il2CppIUnknown
X9n:__ZN6il2cpp2vm13MetadataCache26GetWindowsRuntimeClassNameEPK11Il2CppClass
gJo:_GC_push_gc_structures
mrk:_TlsServerCertificate_ProcessAsTls1_m819212276
lGe:__ZNK5physx7NpScene22getClientBehaviorFlagsEh
q_k:_Dictionary_2_Do_ICollectionCopyTo_TisRuntimeObject_m3942192587_gshared
Ine:__ZN5physx9NpFactory14createMaterialEfff
nZ:__ZN5physx5cloth11PhaseConfigC2Et
fpd:__Z19UpdateSingleRow2TplIL27ParticleSystemCurveEvalMode0ELS0_2EEvfRK11MinMaxCurveS3_RK23ParticleSystemParticlesPfbiii
wzd:__ZN27b2UpdateTriggerContactsTask7TaskJobEPS_j
Sik:_Kernel_DwordDivMod_m1540317819
Omd:__ZN22ParticleSystemRenderer23UpdateVertexInputLayoutEv
XEe:__ZThn8_N5physx2Sc19ShapeInstancePairLLD0Ev
YXe:__ZN5physx19PxcContactSphereBoxERKNS_2Gu13GeometryUnionES3_RKNS_11PxTransformES6_RKfRNS_10PxcNpCacheERNS0_13ContactBufferE
uZm:_Enumerator_System_Collections_IEnumerator_get_Current_m1399273671_gshared
zGe:__ZNK5physx7NpScene21getBroadPhaseCallbackEh
a6d:__ZN5physx6shdfnd5ArrayIPNS_12PxConstraintENS0_19ReflectionAllocatorIS3_EEE15growAndPushBackERKS3_
$Hh:_TypeBuilder_GetPropertyImpl_m3104345782
k$a:__ZNSt3__213__stable_sortIRNS_4lessI4PPtrI11SpriteAtlasEEENS_11__wrap_iterIPS4_EEEEvT0_SA_T_NS_15iterator_traitsISA_E15difference_typeEPNSD_10value_typeEi
uCk:_Int64_ToString_m2085073918_AdjustorThunk
I1k:_Enumerable_Last_TisRuntimeObject_m2895222279_gshared
hde:__ZNK5physx2Sc15ArticulationSim11checkResizeEv
QIh:_FieldInfo_GetFieldOffset_m1356898082
Nbl:_DBNull_System_IConvertible_ToBoolean_m702787761
Kfj:_Camera_RaycastTry_m3913529496
Vhc:__ZN10BootConfig4Data14InitFromStringEPPKcjS2_
t5:__ZN8keywords6CreateEPKc
BYd:__ZN5physx2Gu11gjkRelativeINS0_8CapsuleVENS0_11ConvexHullVEEEjRKT_RKT0_RKNS_6shdfnd3aos15PsMatTransformVERNSB_5Vec3VESG_SG_RNSB_6FloatVE
r$n:__ZL7log2_32j
Zon:_IndexedSet_1_Sort_m2612539420_gshared
fsj:_Quaternion_Inverse_Injected_m4070500351
S:Math_imul
YJj:_ScrollRect_LateUpdate_m1215231183
ssa:__ZN9Scripting11UnityEngine11ContextMenu9InitProxyEv
mpd:__Z17UpdateSprites2TplIL27ParticleSystemCurveEvalMode4ELS0_4EEvfRK11MinMaxCurveS3_RK23ParticleSystemParticlesPf
Hrk:_TlsServerKeyExchange_Update_m453798279
IWa:__ZN11PlayerPrefs6GetIntERKN4core12basic_stringIcNS0_20StringStorageDefaultIcEEEEi
Wrl:_Enumerator_get_Current_m4258490503_gshared
kok:_CipherSuiteCollection_System_Collections_IList_IndexOf_m1361500977
OMj:_Text_set_fontStyle_m648756124
xzf:__Z45TextGenerator_CUSTOM_INTERNAL_get_rectExtentsP12Il2CppObjectP5RectTIfE
RL:__ZN9Scripting11UnityEngine18AssetBundleRequest12CleanupProxyEv
C9k:_DateTime__ctor_m2135476686_AdjustorThunk
u2c:__ZN13GUIStyleState8TransferI8JSONReadEEvRT_
$V:__ZN11AudioSource12SetAudioClipEP9AudioClip
dvj:_RectTransform_GetLocalCorners_m823861473
uUk:_SynchronizedArrayListWrapper_GetEnumerator_m1579424644
Ckd:__ZN30VelocityModulePropertyBindings13GetFloatValueERK14ParticleSystemi
NHj:_Scrollbar_get_value_m760470106
q7:__ZN18ScriptingArguments9AddObjectE18ScriptingObjectPtr
hEf:__Z39CanvasGroup_Get_Custom_PropInteractableP12Il2CppObject
NZ:__ZN11UnityEngine15CloudWebService16SessionContainerD2Ev
wMf:__ZL38InitializeUnityConnectScriptingClassesv
h6f:_TMP_Text_GetPreferredWidth_m1104017573
lcc:__ZN13ProbeRenderer8ConvolveEbijjb
rDn:_GUIUtility_set_systemCopyBuffer_m608712289
wUb:__ZN17GenericDynamicVBOC2ER9GfxDevice13GfxBufferModejj
Myd:__Z28GetPhysics2DScriptingClassesv
UXc:__ZZN10GUIManager14InitGUIManagerEvEN41PreUpdateIMGUISendQueuedEventsRegistrator7ForwardEv
Zak:_ServicePointManager_get_SecurityProtocol_m966397919
CCe:__ZNK5physx2Sc5Scene7isValidEv
zuk:_CCGregorianCalendar_day_from_fixed_m1674702403
f$:__ZN11UnityEngine15CloudWebService17SessionEventQueue10PurgeItemsEj
CIe:__ZN5physx2Sq17SceneQueryManager29setDynamicTreeRebuildRateHintEj
Qcc:__ZN6Camera16StandaloneRenderENS_10RenderFlagEP6ShaderRKN4core12basic_stringIcNS3_20StringStorageDefaultIcEEEE
Adk:_X509Chain_PrepareForNextCertificate_m3691934993
j0f:_TMP_MeshInfo_ResizeMeshInfo_m1483678148_AdjustorThunk
eya:__ZN16LevelGameManager23VirtualRedirectTransferER24GenerateTypeTreeTransfer
fuj:_Rect_Equals_m4169342960
eDb:__Z18Transfer_BlittableI18StreamedBinaryReadILb1EELb1EtEvRK29SerializationCommandArgumentsR31RuntimeSerializationCommandInfo
FYg:__ZL58EventType_t3528516131_CustomAttributesCacheGenerator_keyUpP21CustomAttributesCache
Mwg:__ZL57X509Certificate_t713131622_CustomAttributesCacheGeneratorP21CustomAttributesCache
R_a:__ZN12BoneWeights48TransferI19StreamedBinaryWriteILb0EEEEvRT_
Lmb:__ZN9GfxDevice20DeallocRenderSurfaceEP17RenderSurfaceBase
Ybe:__ZN5physx6shdfnd5ArrayIPvNS0_19ReflectionAllocatorINS_18NpArticulationLinkEEEE4copyINS0_15InlineAllocatorILj256ES5_EEEEvRKNS1_IS2_T_EE
oin:_TMP_XmlTagStack_1_SetDefault_m2682807324_gshared
Pqb:__ZN20GpuProgramParameters36UpdatePrepareValuesMaximumBufferSizeEv
xYl:_List_1_GetIndex_m1066515638_gshared
TVd:__ZNK5physx3Cct10Controller12getKineShapeEv
vhl:_SimpleCollator_GetContraction_m2205549079
p4d:__ZN5physx6shdfnd4sortIPvNS0_4LessIS2_EENS0_19ReflectionAllocatorINS_2Sc18TriggerInteractionEEEEEvPT_jRKT0_RKT1_j
hdm:_Array_InternalArray__ICollection_CopyTo_TisDecimal_t2948259380_m2749946216_gshared
NAe:__ZNK5physx2Sc8BodyCore14getMaxAngVelSqEv
llf:__ZN20TextRenderingPrivate8FontImpl13CharacterInfo8TransferI18StreamedBinaryReadILb0EEEEvRT_
pAb:__Z29Transfer_Blittable_ArrayFieldI24GenerateTypeTreeTransferfEvRT_R9ArrayInfoRK23StaticTransferFieldInfo
Kda:__ZNSt3__26__treeINS_12__value_typeIN4core12basic_stringIcNS2_20StringStorageDefaultIcEEEES6_EENS_19__map_value_compareIS6_S7_NS_4lessIS6_EELb1EEE13stl_allocatorIS7_L18MemLabelIdentifier13ELi16EEE7destroyEPNS_11__tree_nodeIS7_PvEE
hjj:_UnityEvent_FindMethod_Impl_m2312362624
rec:__ZN19CustomRenderTexture9AddParentE4PPtrIS_E
evb:__ZN8Gradient8TransferI14SafeBinaryReadEEvRT_
XAh:_FloatTween_AddOnChangedCallback_m2814315272
Kun:_Parser_ParseSpecial_m1961501104
v2j:_Single_System_IConvertible_ToUInt64_m3299129161_AdjustorThunk
KPa:__ZNSt3__26vectorIN4core12basic_stringIcNS1_20StringStorageDefaultIcEEEE13stl_allocatorIS5_L18MemLabelIdentifier1ELi16EEE7reserveEj
csn:_TMP_TextEventHandler_SendOnLinkSelection_m2556687928
Bmf:__ZN20TextRenderingPrivate15DynamicFontData36GetFaceForCharacterIfAvailableInFontERKNS_7FontRefERK13dynamic_arrayI4PPtrIN13TextRendering4FontEELj0EEj
Ifi:_Enumerator_System_Collections_IDictionaryEnumerator_get_Key_m554883757_gshared
Eak:_IPv6Address_AsIPv4Int_m844941024
XYe:__ZN5physx2Gu32PCMConvexVsMeshContactGeneration15processTriangleEPKNS_6PxVec3EjhPKj
vnj:_Matrix4x4_MultiplyPoint_m1575665487_AdjustorThunk
ePh:_Marshal__cctor_m4007734770
aIo:_GC_new_free_list_inner
pnl:_SymmetricTransform_Random_m2004892672
HHo:_GC_err_printf
gTf:__ZN9Scripting11UnityEngine2XR13InputTracking12CleanupProxyEv
QFm:_ReadOnlyCollection_1_System_Collections_Generic_IListU3CTU3E_RemoveAt_m4242223828_gshared
A0e:__ZN5physx6shdfnd5ArrayINS_2Cm8Matrix34ENS0_19ReflectionAllocatorIS3_EEE15growAndPushBackERKS3_
fmk:_RSAManaged_DecryptValue_m1804388365
cZe:__ZN5physx2Gu32PCMConvexVsMeshContactGeneration31generatePolyDataContactManifoldERNS0_9TriangleVEjjhPNS0_21MeshPersistentContactERjRKNS_6shdfnd3aos6FloatVERNS8_5Vec3VE
qYh:_InternalEnumerator_1_System_Collections_IEnumerator_get_Current_m2980550840_AdjustorThunk
Dcf:__ZN5physx10SubSortSAH5splitEPjj
ZI:__ZN25RuntimeAnimatorController8TransferI14SafeBinaryReadEEvRT_
v2c:__ZN8JSONRead8TransferI10RectOffsetEEvRT_PKc17TransferMetaFlagsb
Q_:__ZN9JSONWrite8TransferIN11UnityEngine15CloudWebService14DataErrorEvent15FileErrorDetailEEEvRT_PKc17TransferMetaFlags
iBk:_Int32_Parse_m2087562008
Dml:_PrivateKeyInfo__ctor_m2414235375
CQd:__ZN5physx2Gu3EPA8addFacetEjjjRKNS_6shdfnd3aos6FloatVES6_
NLh:_MonoProperty_GetAccessors_m412928203
Xvc:__ZN5Light13SetLightDirtyEv
wP:__ZN12SoundManager20RegisterModifiedClipEP10SampleClip
iZi:_Assembly_FillName_m1660001542
v5a:__ZN12MeshRenderer15AddAsRenderNodeER15RenderNodeQueueRK20DeprecatedSourceData
rug:__ZL56_EventBuilder_t2558055199_CustomAttributesCacheGeneratorP21CustomAttributesCache
IZj:_SHA384Managed_processBlock_m1272529332
jS:__ZN11AudioSource4PlayEd
HVj:_Array_InternalArray__IndexOf_TisTMP_LinkInfo_t1092083476_m2097520058_gshared
cSk:_Char_ToString_m278452217_AdjustorThunk
PZk:_Dictionary_2_Do_CopyTo_TisInt64_t3736567304_TisInt64_t3736567304_m3538125743_gshared
$0d:__ZN5physx3Cct9CCTParamsC2Ev
S6n:__ZN15dense_hashtableI10KeyWrapperIPK17Il2CppGenericInstES4_N6il2cpp8metadata21Il2CppGenericInstHashEN14dense_hash_setIS4_S7_NS4_14EqualsComparerINS6_24Il2CppGenericInstCompareEEENSt3__29allocatorIS4_EEE8IdentityESB_SE_E13set_empty_keyERKS4_
hii:__Z63RuntimeInvoker_Char_t3634460470_Int16_t2552820387_RuntimeObjectPFvvEPK10MethodInfoPvPS4_
t6k:_Convert_ToDouble_m2924063577
zqe:__ZN5physx7NpCloth21setStiffnessFrequencyEf
zRe:__ZN5physx17PxcSweepBoxConvexERKNS_11PxsCCDShapeES2_PKNS_12PxsRigidBodyES5_RKNS_11PxTransformES8_S8_S8_fRNS_6PxVec3ESA_RNS_10PxcNpCacheERNS_18PxcNpThreadContextEf
ida:__Z17GetCoreModuleSpecv
S8e:__ZThn8_N5physx2Gu11HeightField14onRefCountZeroEv
J3d:__ZN5physx2Sc5Actor9setActiveEbj
qYd:__ZN12_GLOBAL__N_127SphereMeshContactGeneration15processTriangleEjRKN5physx6PxVec3ES4_S4_PKj
MTa:__ZN7Cubemap23VirtualRedirectTransferER18StreamedBinaryReadILb0EE
Dhd:__Z25UpdateOrbitalAndRadialTplIL27ParticleSystemCurveEvalMode0ELS0_0ELS0_0EEvRK11MinMaxCurveS3_S3_S3_S3_S3_S3_R23ParticleSystemParticlesjjRKN4math8float3x3ERKNS6_7affineXERKNS6_7_float4E
mwf:_Read_CVT
d4d:__ZN5physx2Sc10NPhaseCore28reserveContactReportPairDataEjjRj
SQd:__ZN5physx2Gu22barycentricCoordinatesERKNS_6shdfnd3aos5Vec3VES5_S5_RNS2_6FloatVE
fjb:__ZN12FileAccessor4SeekEx10FileOrigin
Lu:__ZN9Scripting11UnityEngine25RuntimeAnimatorController12CleanupProxyEv
czb:__ZL26Transfer_SimpleNativeClassI24GenerateTypeTreeTransfer17AnimationCurveTplIfELb0EEvRK29SerializationCommandArgumentsR31RuntimeSerializationCommandInfo
K5k:_Convert_ToDecimal_m1783778724
RQk:_Byte_ToString_m4063101981_AdjustorThunk
Uuk:_DateTimeFormatInfo__ctor_m3106345035
apk:_TlsServerKeyExchange_verifySignature_m3412856769
W5l:_EqualityComparer_1_System_Collections_IEqualityComparer_GetHashCode_m4137147946_gshared
wbd:__Z9UpdateTplIL27ParticleSystemCurveEvalMode2EEvRK11MinMaxCurveR23ParticleSystemParticlesjjbjRK8Vector2f
v7m:_Collection_1_System_Collections_ICollection_CopyTo_m5285659_gshared
Nea:__ZN16LightmapSettings20DidChangeActiveSceneEP10UnitySceneS1_
K7n:__ZNK15dense_hashtableI10KeyWrapperIPK17Il2CppGenericInstES4_N6il2cpp8metadata21Il2CppGenericInstHashEN14dense_hash_setIS4_S7_NS4_14EqualsComparerINS6_24Il2CppGenericInstCompareEEENSt3__29allocatorIS4_EEE8IdentityESB_SE_E12test_deletedEj
Wgh:__ZL59g_AssemblyU2DCSharp_Assembly_CustomAttributesCacheGeneratorP21CustomAttributesCache
Aeo:__ZN6il2cpp5utils9PathUtils8BasenameIcEENSt3__212basic_stringIT_NS3_11char_traitsIS5_EENS3_9allocatorIS5_EEEERKSA_
wR:__ZN10AudioMixer11SetupGroupsEv
Zjo:__ZN6il2cpp2vmL16IsGenericCMethodEP12Il2CppObject
ov:__ZN9Scripting11UnityEngine10Animations21AnimationClipPlayable9InitProxyEv
XVc:__Z35Register_UnityEngine_Event_get_typev
gEi:__Z188RuntimeInvoker_Void_t1185182177_Vector3_t3722313464_Vector3_t3722313464_Int32U26_t1369213839_Single_t1397266774_Single_t1397266774_Single_t1397266774_Single_t1397266774_Color32_t2600501292PFvvEPK10MethodInfoPvPS4_
ppa:__ZN9Scripting11UnityEngine9Rendering18GraphicsDeviceType12CleanupProxyEv
Lto:__ZN6il2cpp2vm9Exception23GetInvalidCastExceptionERKNS_5utils10StringViewIDsEE
EZl:_List_1_RemoveAll_m3668501215_gshared
MYo:_emscripten_glDepthRange__wrapper
C7e:__ZNK5physx13GuMeshFactory17getNbConvexMeshesEv
Imd:__ZN14ParticleSystem15InitializeClassEv
q8:__Z63ThreadAndSerializationSafeCheckGetMonoBehaviourBeingTransferredv
uqa:__ZN9Scripting11UnityEngine12LightmapData9InitProxyEv
SXl:_List_1_set_Item_m4224739467_gshared
s$i:_ConstructorBuilder_get_Name_m2426555260
Kzc:__Z37Register_UnityEngine_Input_GetAxisRawv
rra:__ZN9Scripting11UnityEngine12Experimental10PlayerLoop6Update12CleanupProxyEv
Lun:_Parser_ParseCharacterClass_m4285351396
O7k:_Convert_ToSByte_m2653418303
$1k:_SyncHashtable__ctor_m2449935938
YR:__ZN11AudioSource5ResetEv
uZl:_List_1_CheckMatch_m1344934363_gshared
UYj:_RSAPKCS1SignatureFormatter_SetKey_m2935054088
B1b:__ZN12ImageFilters27SetSurfaceUseResolvedBufferEP13RenderTextureb
c3f:_TMP_SubMeshUI_GetMaterial_m2056272420
_bj:_HashAlgorithm_TransformBlock_m4006041779
esb:__ZN14SafeBinaryRead21TransferSTLStyleArrayI10vector_setI4PPtrI10MonoScriptENSt3__24lessIS4_EE13stl_allocatorIS4_L18MemLabelIdentifier79ELi16EEEEEvRT_17TransferMetaFlags
qRa:__ZN14Texture2DArray23VirtualRedirectTransferER18StreamedBinaryReadILb0EE
qlm:_UTF7Encoding_GetByteCount_m209415911
aeb:__ZN2UI13RectTransform13AwakeFromLoadE17AwakeFromLoadMode
Cjn:_TweenRunner_1_StartTween_m2396335759_gshared
txn:_RegularExpression_Compile_m2385682508
pQl:_List_1_System_Collections_IList_Remove_m3790768923_gshared
LMo:__ZN6il2cpp6icalls8mscorlib6System10Reflection13MonoEventInfo14get_event_infoEP25Il2CppReflectionMonoEventP29Il2CppReflectionMonoEventInfo
X6b:__ZN14qsort_internal30FindAndMovePivotToLastPositionIP20ShadowCasterSortDatai26ShadowCasterSortDataSorterEEvT_S4_T0_T1_
zsb:__Z18Transfer_BlittableI14SafeBinaryReadLb1EiEvRK29SerializationCommandArgumentsR31RuntimeSerializationCommandInfo
KPm:_QuickSort_1_MedianOfThree_m3222347171_gshared
Gdk:_X509ExtensionEnumerator_get_Current_m256207749
hBj:_InputField_MoveTextStart_m1087475594
ZNk:_Array_Sort_m182264525
zDj:_LayoutGroup_set_padding_m282562135
I_f:_TMP_InputField_GenerateHightlight_m2404012756
a_i:_Default_IsArrayAssignable_m953489228
neg:_JSONBool_Equals_m2385715178
R8k:_Convert_ToUInt32_m668801151
Ysm:_UInt64_System_IConvertible_ToBoolean_m3071416000
Mke:__ZN18MultiQueryCallbackIN5physx12PxOverlapHitEE6invokeERfPKNS0_2Sq13PrunerPayloadEj
tTd:__ZN5physx2Gu18gjkRelativeRayCastINS0_4BoxVES2_NS0_10ShrunkBoxVES3_EEbRT_RT0_RKNS_6shdfnd3aos15PsMatTransformVERKNS9_6FloatVERKNS9_5Vec3VESI_RSD_RSG_SK_fb
wl:_glGetStringi
j6j:_DecoderExceptionFallback_CreateFallbackBuffer_m1133375601
jQm:_Nullable_1_GetHashCode_m1030690889_AdjustorThunk
Vpl:_Enumerator_get_CurrentKey_m889650866_gshared
F0n:_Physics_Raycast_m3133704280
i8e:__ZThn8_N5physx2Gu10ConvexMeshD0Ev
xnh:_MaterialReferenceManager__ctor_m912257905
Dwl:_Transform_1_BeginInvoke_m3155359311_gshared
$E:__ZN8Animator9WriteStepEy
ed:invoke_viiiiifffi
kBa:__ZN9Coroutine16SetCurrentMethodE18ScriptingMethodPtr
B$:__ZN11UnityEngine15CloudWebService20WebRequestRestClient18GetResponseHeadersEv
U3m:_Collection_1_ConvertItem_m1743542180_gshared
Mzf:__Z38Register_UnityEngine_Font_HasCharacterv
h6:__ZN13RuntimeStaticINSt3__26vectorIN4core12basic_stringIcNS2_20StringStorageDefaultIcEEEENS0_9allocatorIS6_EEEELb0EE13StaticDestroyEPv
kbc:__Z35IntersectSpherePlaneBoundsOptimizedRKN4math7_float4EPS1_i
$Xj:_RNGCryptoServiceProvider__cctor_m3587754670
c2d:__ZN5physx2Sc8ShapeSim20createLowLevelVolumeEjRKNS_9PxBounds3EjNS_9AABBMgrIdE
Mca:__ZN17TransformInternal21DetachTransformThreadER18TransformHierarchyjj
Xkd:__ZN37InheritVelocityModulePropertyBindings13GetFloatValueERK14ParticleSystemi
Eqe:__ZNK5physx7NpCloth22getAngularInertiaScaleEv
JZd:__ZN26IntersectAnyVsMeshCallbackILi1ELb1EE10processHitERKN5physx12PxRaycastHitERKNS1_6PxVec3ES7_S7_RfPKj
F9l:_GenericComparer_1_Compare_m2242127588_gshared
y5m:_Collection_1_System_Collections_IList_Remove_m1232015591_gshared
sea:__Z22CleanupLODGroupManagerPv
WJe:__ZN5physx6shdfnd5ArrayINS_2Sc5Scene14SimpleBodyPairENS0_19ReflectionAllocatorIS4_EEE8recreateEj
fm:_glUniform3fv
ZNo:__ZNK6il2cpp8metadata24Il2CppGenericInstCompareclERK10KeyWrapperIPK17Il2CppGenericInstES8_
$dk:_X509ChainElement_Set_m655180762
O$n:_CustomEventData_AddInt32_m548429697
LMc:__ZNK8Gradient19InitializeOptimizedER17OptimizedGradient
z5b:__ZNK16LightmapSettings31GetRealtimeLightmapDecodeValuesEv
fR:__ZN5audio5mixer12SetSuspendedERNS0_16AudioMixerMemoryEb
kdb:__ZN17PersistentManager21UnloadNonDirtyStreamsEv
b1k:_Object_Instantiate_TisRuntimeObject_m1135049463_gshared
lpi:__Z96RuntimeInvoker_Int32_t2950945753_RuntimeObject_Int32_t2950945753_RuntimeObject_Int32_t2950945753PFvvEPK10MethodInfoPvPS4_
tHn:_AnalyticsEventTracker_OnEnable_m1121905268
Uxn:_Uri_get_Parser_m3737125102
JXn:_Canvas_get_overrideSorting_m2740418462
vhj:_Debug_LogFormat_m309087137
hQk:_Byte_System_IConvertible_ToInt16_m4136764794_AdjustorThunk
G0a:__ZN12ImageFilters4BlitER17ShaderPassContextP7TextureP13RenderTextureiPK18SharedMaterialDataPKcP6ShaderiNS_9BlitFlagsE11CubemapFaceRK8Vector2fSH_
xgf:__ZN5physx6shdfnd8PoolBaseINS_24NpPtrTableStorageManager8PtrBlockILi4EEENS0_19ReflectionAllocatorIS4_EEE12allocateSlabEv
Isn:_Mark_get_Index_m3048692661
A8g:__ZL69CanvasScaler_t2767979955_CustomAttributesCacheGenerator_m_ScaleFactorP21CustomAttributesCache
RQh:_ConfigHandler_CheckPath_m3079311646
p$:__ZN11UnityEngine15CloudWebService10RestClientINS0_23WebRequestRestHeaderMapEED2Ev
k5e:__ZN5physx2Sc5Scene13ccdBroadPhaseEPNS_10PxBaseTaskE
Cm:_emscripten_glDepthMask
ZYe:__ZN5physx2Gu24PCMMeshContactGeneration15processContactsEhb
w5i:_RemotingServices_CreateClientProxy_m3886727610
YUa:__ZN4crnd25static_huffman_data_model22prepare_decoder_tablesEv
pqe:__ZN5physx7NpCloth12setParticlesEPKNS_15PxClothParticleES3_
Fgf:__ZN5physx7profile8ZoneImplINS_28PxProfileNameProviderForwardEE9doAddNameEPKctb
lsk:_RecordProtocol_GetMessage_m2086135164
Sea:__Znaj
E3o:_emscripten_glEnableClientState__wrapper
GPf:__ZN20UnityWebRequestProtoI24UnityWebRequestTransport16AtomicRefCounter14RedirectHelper14ResponseHelper15DownloadHandler13UploadHandler18CertificateHandler12HeaderHelper14AsyncOperationE26Job_ExecuteUnityWebRequestEPS9_
x4:__ZN17MessageIdentifierC2EPKcNS_7OptionsEPKN5Unity4TypeES1_
xoj:_Mesh_SetTriangles_m1523451247
k2j:_Single_System_IConvertible_ToSByte_m1208276900
qhm:_Array_InternalArray__set_Item_TisVector4_t3319028937_m757305038_gshared
FBc:__ZNSt3__26__treeIPc15compare_tstringIPKcENS_9allocatorIS1_EEE25__emplace_unique_key_argsIS1_JS1_EEENS_4pairINS_15__tree_iteratorIS1_PNS_11__tree_nodeIS1_PvEEiEEbEERKT_DpOT0_
Eni:__Z105RuntimeInvoker_Void_t1185182177_RuntimeObject_RuntimeObject_RuntimeObject_RuntimeObject_Int32_t2950945753PFvvEPK10MethodInfoPvPS4_
nTe:__ZN5physxL26solveFriction4_StaticBlockEPKNS_23PxcSolverConstraintDescERNS_16PxcSolverContextE
zfm:_Array_InternalArray__Insert_TisContactPoint_t3758755253_m151422964_gshared
EW:__Z55Register_UnityEngine_AudioSource_get_spatializeInternalv
UL:__ZN14SafeBinaryRead8TransferI14ConstantStringEEvRT_PKc17TransferMetaFlags
SXe:__ZN5physx30PxcGetMaterialShapeHeightFieldEPKNS_12PxsShapeCoreES2_RNS_18PxcNpThreadContextEPNS_15PxsMaterialInfoE
E$b:__ZNK6Camera16GetStereoEnabledEv
msi:__Z72RuntimeInvoker_Int32_t2950945753_TimeSpan_t881159249_TimeSpan_t881159249PFvvEPK10MethodInfoPvPS4_
Msk:_SendRecordAsyncResult_SetComplete_m153213906
xYa:__ZN16LightmapSettings23VirtualRedirectTransferER19StreamedBinaryWriteILb0EE
XFc:__ZN12LightManager15InitializeClassEv
V5e:__ZN5physx6shdfnd8PoolBaseINS_2Sc19ParticlePacketShapeENS0_19ReflectionAllocatorIS3_EEE12allocateSlabEv
vOa:__ZN9ShaderLab11shaderprops16GetComputeBufferEPK19ShaderPropertySheetS3_NS_16FastPropertyNameE
ZFo:__ZN6il2cpp6icalls8mscorlib6System10Reflection10MethodBase31GetMethodFromHandleInternalTypeEii
laa:__ZN23ManagedAttributeManager35CallManagedGetDefaultExecutionOrderE17ScriptingClassPtr
E7:__ZN18ScriptingArgumentsC2Ev
QLn:_Vector3_op_Equality_m4231250055
E_o:_emscripten_glBlendFuncSeparate__wrapper
TYa:__ZN15SerializeTraitsI13dynamic_arrayI7Hash128Lj0EEE19ResizeSTLStyleArrayERS2_i
Nnd:__ZL37ParticleGeomBillboardFacingOrVelocityIL25ParticleSystemRenderSpace4ELb1EEvRKN4math8floatNx3ES4_PS3_S4_S4_RKNS1_8float3x3ES4_S4_RKNS1_8floatNx2ES4_RS2_SC_PS2_
oEk:_FileSystemInfo__ctor_m3769019897
J0k:_Array_InternalArray__get_Item_TisContentType_t1787303396_m421427711_gshared
b1b:__ZNK25CameraStackRenderingState27GetStereoImageEffectTextureEb
gIi:__Z101RuntimeInvoker_Int32_t2950945753_RuntimeObject_Single_t1397266774_Int32_t2950945753_Int32_t2950945753PFvvEPK10MethodInfoPvPS4_
BUc:__ZL52__ManagedRegistrationHelperFunction_PlayableDirectorPv
Lr:__ZN8Vector3f8TransferI14SafeBinaryReadEEvRT_
hQj:_Array_InternalArray__ICollection_Remove_TisTMP_PageInfo_t2608430633_m637965447_gshared
Vrc:__ZN13BuildSettings13GetSceneIndexERKN4core12basic_stringIcNS0_20StringStorageDefaultIcEEEE
Qp:FUNCTION_TABLE_ii
Exa:__ZN10TagManager8TransferI18StreamedBinaryReadILb0EEEEvRT_
dof:__ZN20TextRenderingPrivate8TextMesh13AwakeFromLoadE17AwakeFromLoadMode
wGk:_MemoryStream_set_Capacity_m1773624579
uqo:__ZNK15dense_hashtableINSt3__24pairIK10KeyWrapperINS1_IP11Il2CppClassjEEES4_EES6_N6il2cpp8metadata14ArrayClassHashEN14dense_hash_mapIS6_S4_SB_NS6_14EqualsComparerINSA_17ArrayClassCompareEEENS0_9allocatorIS8_EEE9SelectKeyESF_SH_E10test_emptyEj
Njc:__ZNSt3__26vectorIN9ShaderLab20SerializedSubProgram15StructParameterENS_9allocatorIS3_EEE8__appendEj
Pb:invoke_diiii
$9k:_DateTime_ToString_m2992030064
QYd:__ZL17sweepVolumeVsMeshPKN5physx3Cct9SweepTestEPKNS0_11TouchedMeshERNS0_12SweptContactERKNS_6PxVec3ERKNS_10PxGeometryERKNS_11PxTransformEjPKNS_10PxTriangleEj
Ut:__ZL57__ManagedRegistrationHelperFunction_AnimationClipPlayablePv
rui:__Z95RuntimeInvoker_Void_t1185182177_RuntimeObject_RuntimeObject_SByte_t1669577662_SByte_t1669577662PFvvEPK10MethodInfoPvPS4_
m0e:__ZN5physx2Gu31checkOverlapOBB_heightFieldGeomERKNS_10PxGeometryERKNS_11PxTransformERKNS0_3BoxE
Ugc:__Z24CreateDirectoryRecursiveRKN4core12basic_stringIcNS_20StringStorageDefaultIcEEEE
RYo:b41
$lc:__ZN9ShaderLab20SerializedSubProgram8TransferI18StreamedBinaryReadILb0EEEEvRT_
QYo:b40
cXd:__ZN5physx2Gu23findRotationMatrixFromZERKNS_6PxVec3E
aS:__ZN11AudioSource23VirtualRedirectTransferER17RemapPPtrTransfer
Ww:__ZN26AnimatorControllerPlayable13GenerateGraphEv
$5:__ZN13RuntimeStaticI21ScalableBufferManagerLb0EE13StaticDestroyEPv
vCf:__ZN2UI13CanvasManager9AddCanvasEPNS_6CanvasE
w0a:__ZN9Texture3D8TransferI19StreamedBinaryWriteILb0EEEEvRT_
j2b:__ZNK6Camera22CalculateRenderingPathEv
SYo:b42
p0c:__ZN9JSONWrite8TransferI5RectTIfEEEvRT_PKc17TransferMetaFlags
JIe:__ZN5physx13NpVolumeCache10invalidateEv
NG:__ZN11UnityEngine9Animation37SetGenericRootTransformPropertyValuesERKNS0_30AnimatorGenericBindingConstantERKN7mecanim10ValueArrayER9Transformbb
dcg:_JSONNull__ctor_m2064066130
$Vb:__Z13ConvertMipmap14GraphicsFormatPKvS_Pviiii
BL:__ZN9Scripting11UnityEngine2XR5Tango24MeshReconstructionServer9InitProxyEv
Kxb:__ZL12InvokeMethodI17RemapPPtrTransferEvRK29SerializationCommandArgumentsR31RuntimeSerializationCommandInfo
C9j:_RemoteCertificateValidationCallback_Invoke_m3086073466
G5j:_StringComparer_Compare_m991165676
_tf:_tt_sbit_decoder_load_image
OMa:__Z14IsHalfRTFormat19RenderTextureFormat
zwc:__Z38Application_Get_Custom_PropAbsoluteURLv
dDm:_ReadOnlyCollection_1_System_Collections_IList_Clear_m868794620_gshared
ezk:_Guid_ToString_m3279186591
cpn:_U3CStartU3Ec__Iterator0_Dispose_m261027331_gshared
cYc:__ZNSt3__24listIN10GUIManager12SortedScriptE11memory_poolIS2_EE6__sortI13OldSortScriptEENS_15__list_iteratorIS2_PvEESA_SA_jRT_
z2d:__ZN5physx6shdfnd5ArrayIPvNS0_19ReflectionAllocatorINS_2Sc10NPhaseCore16ClothListElementEEEE15growAndPushBackERKS2_
g8m:_Collection_1_System_Collections_IList_Add_m3364892189_gshared
bgi:_Enumerator_VerifyState_m1545185457_gshared
l_l:_List_1_AddEnumerable_m3500350831_gshared
Mlk:_PrivateKeyInfo_get_PrivateKey_m3647771102
EKl:_Enumerator_VerifyState_m2917414734_AdjustorThunk
zso:__ZN6il2cpp6icalls8mscorlib6System9ThreadingL11ThreadStartEPv
YIl:_Enumerator_get_Current_m2579293505_gshared
hha:__ZN15DirectorManager12OnSampleTimeEv
tVn:_Extensions_CreateWebResponse_m1002900249
GHh:_TypeBuilder_check_not_created_m3652863637
Ayn:_Uri_GetHashCode_m321999866
Iwh:_StandaloneInputModule_UpdateModule_m450861257
dD:__ZN8Animator13ClearBindingsEv
GKm:_ReadOnlyCollection_1_System_Collections_IList_Insert_m2928873627_gshared
I7l:_EqualityComparer_1__cctor_m314889309_gshared
Uua:__ZN12CachedReader10Align4ReadEv
Tvd:__ZN15b2WorldManifold10InitializeEPK10b2ManifoldRK11b2TransformfS5_f
t6f:_TMP_Text_GetUTF32_m2283908152
Tdn:_X501__cctor_m2428304915
IXn:_Canvas_get_renderOrder_m1489855841
cji:__Z50RuntimeInvoker_Void_t1185182177_Single_t1397266774PFvvEPK10MethodInfoPvPS4_
UIk:_X501_ToString_m4186311521
YAn:_Event_ToString_m1688862299
kin:_TMP_XmlTagStack_1__ctor_m86903316_gshared
Dva:__ZNK9Behaviour22GetTypeVirtualInternalEv
sle:__ZN5physx2Sc14ConstraintCore13setBreakForceEff
Ahj:_Debug_LogErrorFormat_m575266265
yuk:_CCGregorianCalendar_month_from_fixed_m4268992710
PTj:_Array_compare_TisUICharInfo_t75501106_m1310495481_gshared
Jkf:__ZN20TextRenderingPrivate8FontImpl8TransferI14SafeBinaryReadEEvRT_
Eqd:__ZNSt3__27__sort4IRN10vector_mapIi22ParticleModulePropertyNS_4lessIiEENS_9allocatorINS_4pairIiS2_EEEEE13value_compareEPS7_EEjT0_SD_SD_SD_T_
IPm:_QuickSort_1_PerformSort_m2113339266_gshared
RXg:__ZL82AnimatorTransitionInfo_t2534804151_CustomAttributesCacheGenerator_m_NormalizedTimeP21CustomAttributesCache
VFe:__ZN5physx7NpScene15removeAggregateERNS_11PxAggregateEb
ECm:_ReadOnlyCollection_1_System_Collections_IList_Remove_m2624938072_gshared
nlo:__ZN14dense_hash_mapI10KeyWrapperIPK10Il2CppTypeEjN6il2cpp8metadata14Il2CppTypeHashENS4_14EqualsComparerINS6_26Il2CppTypeEqualityComparerEEENSt3__29allocatorINSB_4pairIKS4_jEEEEE13set_empty_keyERSE_
VIm:_ReadOnlyCollection_1_System_Collections_IList_Clear_m4022532825_gshared
Qgm:_Array_InternalArray__set_Item_TisTMP_CharacterInfo_t3185626797_m2866937532_gshared
e5j:_Encoding_get_ASCII_m3595602635
Yef:__ZZN14PhysicsManager15InitializeClassEvEN63EarlyUpdatePhysicsResetInterpolatedTransformPositionRegistrator7ForwardEv
_6c:__ZN11ShapeModule18MultiModeParameterIN25IParticleSystemProperties8PropertyIfNS1_11ClampRadiusEEEE8TransferI14SafeBinaryReadEEvRT_
vnb:__ZN9GfxDevice17ImmediateTexCoordEifff
jeg:_JSONBool_set_Value_m618194559
vq:FUNCTION_TABLE_viiiiffffii
dEd:__ZN10ClipperLib7Clipper13AppendPolygonEPNS_5TEdgeES2_
m0i:_DerivedType_GetCustomAttributes_m3536779709
Ezg:__ZL93Interlocked_t2273387594_CustomAttributesCacheGenerator_Interlocked_CompareExchange_m388540288P21CustomAttributesCache
OHh:_MethodBase_get_IsAbstract_m428833029
r_e:__ZN5physx2GuL34fullContactsGenerationSphereConvexERKNS0_8CapsuleVERKNS0_11ConvexHullVERKNS_6shdfnd3aos12PsTransformVESB_PNS0_17PersistentContactERjRNS0_13ContactBufferEbRNS0_25PersistentContactManifoldERNS8_5Vec3VERKNS8_6FloatVEb
lyb:__Z35Transfer_Blittable_FixedBufferFieldI24GenerateTypeTreeTransferhEvRK29SerializationCommandArgumentsR31RuntimeSerializationCommandInfo
CYo:_emscripten_glUniform4f__wrapper
d5f:_TMP_Text_set_isLinkedTextComponent_m313097488
INl:_Enumerator_MoveNext_m2595190390_AdjustorThunk
n3e:__ZN5physx6shdfnd5ArrayINS_25PxcThresholdStreamElementENS0_19ReflectionAllocatorIS2_EEE8recreateEj
OVj:_Array_InternalArray__IndexOf_TisColor32_t2600501292_m3783551884_gshared
m4b:__ZNK6Camera16GetProjectionFarEv
Qs:__Z24InverseTransformRotationRK23TransformAccessReadOnlyRKN4math7_float4E
Trd:__ZN11UnityEngine9Analytics16StartupTimeEvent23SetSplashScreenTimeInfoEyyy
Ten:_X509Chain_Build_m2469702749
dS:__ZN11AudioSource6UpdateEv
XOf:__Z31GetPerformanceReportingSettingsv
UQa:__ZNK14PlayableOutput11DerivesFromE17ScriptingClassPtr
ZSa:__ZN7Texture34CreateFileTextureUploadInstructionE18TextureUploadFlagsj
HSh:__ZN25GenericVirtActionInvoker06InvokeEPK10MethodInfoP12Il2CppObject
Ufn:__ZN28GenericInterfaceFuncInvoker1Ib22SpriteData_t3048397587E6InvokeEPK10MethodInfoP12Il2CppObjectS0_
Fre:__ZN5physx7NpCloth21setCollisionMassScaleEf
B0e:__ZN5physx6shdfnd5ArrayINS_7PxPlaneENS0_19ReflectionAllocatorIS2_EEE8recreateEj
Z9f:_U3CStartU3Ec__Iterator0_MoveNext_m720253420
Ted:__Z16UpdateOrbitalTplIL27ParticleSystemCurveEvalMode4EEvRK11MinMaxCurveS3_S3_S3_S3_S3_S3_R23ParticleSystemParticlesjjRKN4math8float3x3ERKNS6_7affineXERKNS6_7_float4E
Sif:__ZN13PhysicsModule17GetRigidBodyStateERK9RigidbodyPN8IPhysics14RigidBodyStateE
Rkg:__ZL64SerializableAttribute_t1992588303_CustomAttributesCacheGeneratorP21CustomAttributesCache
Ojb:__ZN25SingleBlockMemoryFileDataC2E10MemLabelIdPvjb
Flo:__ZN15dense_hashtableINSt3__24pairIK10KeyWrapperINS1_IPK11Il2CppImageP11Il2CppClassEEEjEES9_17ReflectionMapHashIS8_EN14dense_hash_mapIS9_jSD_NS9_14EqualsComparerINS0_8equal_toIS8_EEEENS0_9allocatorISB_EEE9SelectKeyESI_SK_E15set_deleted_keyERKSB_
PH:__ZN8Animator8TransferI14SafeBinaryReadEEvRT_
qIn:_StandardEventPayload_IsRequiredDataValid_m361738930
d9n:__ZN14dense_hash_setI10KeyWrapperIPK19Il2CppGenericMethodEN6il2cpp8metadata23Il2CppGenericMethodHashENS4_14EqualsComparerINS6_26Il2CppGenericMethodCompareEEENSt3__29allocatorIS4_EEE6insertERKS4_
Lwd:__ZNK14b2CapsuleShape5CloneEP16b2BlockAllocator
WX:__ZN16BaseVideoTexture19UpdateVideoTexturesEv
MKh:_MonoField_GetValue_m3124733531
Aqd:__ZN14ParticleSystem14UpdateFunctionEP24ParticleSystemUpdateData
Lbb:__ZNK16LightmapSettings23HasLightProbeTetrahedraEv
Phd:__ZNK18ColorBySpeedModule12UpdateSingleERK22ParticleSystemParticleR11ColorRGBA32
BZa:__ZN6Sprite23VirtualRedirectTransferER19StreamedBinaryWriteILb0EE
csc:__ZN2UI13RectTransform12SetAnchorMaxERK8Vector2f
ixc:__Z38Transform_CUSTOM_INTERNAL_set_positionP12Il2CppObjectRK8Vector3f
wth:_EventTrigger_Execute_m2453060771
xMm:_Comparison_1_Invoke_m517083441_gshared
urh:_TextMeshProUGUI_OnRectTransformDimensionsChange_m1092689425
zgo:__ZNK15dense_hashtableINSt3__24pairIK10KeyWrapperINS1_IPK9FieldInfoP11Il2CppClassEEEjEES9_17ReflectionMapHashIS8_EN14dense_hash_mapIS9_jSD_NS9_14EqualsComparerINS0_8equal_toIS8_EEEENS0_9allocatorISB_EEE9SelectKeyESI_SK_E5beginEv
iDo:__ZN6il2cpp2os6Thread15CurrentThreadIdEv
OF:__ZN15SerializeTraitsIN4math4trsXEE8TransferI8BlobSizeEEvRS1_RT_
ITb:__ZN14DataBufferGLES11CopySubDataEPKS_jjj
We:_emscripten_glVertexPointer
ojd:__ZN14ParticleSystem22SetUsesEmitAccumulatorEi
otn:_PatternCompiler_GetMachineFactory_m3758869886
C7b:__Z17GetFrustumPortionPK8Vector3fffPS_
p5d:__ZNK5physx2Gu22SupportMapRelativeImplINS0_4BoxVEE18doWarmStartSupportEiRNS_6shdfnd3aos5Vec3VE
Avo:__ZN15dense_hashtableINSt3__24pairIK10KeyWrapperIP14Il2CppIUnknownEjEES5_N6il2cpp5utils11PointerHashIS3_EEN14dense_hash_mapIS5_jSB_NS5_14EqualsComparerINS0_8equal_toIS4_EEEENS0_9allocatorIS7_EEE9SelectKeyESG_SI_E14squash_deletedEv
CKa:__ZN5Light13AwakeFromLoadE17AwakeFromLoadMode
hil:_SimpleCollator_LastIndexOfSortKey_m2864365168
YZi:_Default_check_arguments_m3882727959
g9i:_RuntimeTypeHandle_Equals_m2857439487_AdjustorThunk
Slb:__ZNK9GfxDevice27GetPlatformAdjustedViewportEv
fJj:_ScrollRect_get_rectTransform_m2442061719
JEm:_ReadOnlyCollection_1_System_Collections_Generic_IListU3CTU3E_set_Item_m88350439_gshared
Vaa:__ZNSt3__26vectorINS_4pairIiiEE13stl_allocatorIS2_L18MemLabelIdentifier38ELi16EEE6insertENS_11__wrap_iterIPKS2_EEOS2_
y6l:_EqualityComparer_1_System_Collections_IEqualityComparer_GetHashCode_m1228373509_gshared
W3f:_TMP_Text_set_fontSharedMaterial_m1800046743
Uga:__ZNSt3__26__treeINS_12__value_typeIPvsEENS_19__map_value_compareIS2_S3_NS_4lessIS2_EELb1EEE13stl_allocatorIS3_L18MemLabelIdentifier86ELi16EEE25__emplace_unique_key_argsIS2_JNS_4pairIS2_sEEEEENSD_INS_15__tree_iteratorIS3_PNS_11__tree_nodeIS3_S2_EEiEEbEERKT_DpOT0_
Ykd:__ZN37InheritVelocityModulePropertyBindings13SetFloatValueER14ParticleSystemif
SOm:_Func_3_Invoke_m1194147890_gshared
_vn:_Reference_Compile_m4195878675
wWm:_List_1_set_Item_m2057272351_gshared
oIm:_ReadOnlyCollection_1_System_Collections_ICollection_CopyTo_m2672196987_gshared
iKc:__ZN16StreamedResource8TransferI24GenerateTypeTreeTransferEEvRT_
Euj:_RectTransform_get_anchorMin_m2928307238
S$d:__ZN5physx3Cct10Controller13onOriginShiftERKNS_6PxVec3E
nSk:_ArrayList__ctor_m3828927650
mFa:__ZN10Matrix3x3f15InvertTransposeEv
yCn:_GUILayoutGroup_SetHorizontal_m996475327
pCn:_GUILayoutEntry__cctor_m663865902
c9c:__ZN14EmissionModule8TransferI19StreamedBinaryWriteILb0EEEEvRT_
Z_b:__Z11IsBatchmodev
WRe:__ZN5physx2Gu19_gjkRelativeRayCastINS0_9TriangleVENS0_11ConvexHullVEEEbRT_RT0_RKNS_6shdfnd3aos15PsMatTransformVERKNS9_6FloatVERKNS9_5Vec3VESI_RSD_RSG_SK_f
kwb:__Z29Transfer_Blittable_ArrayFieldI14SafeBinaryRead8Vector3fEvRT_R9ArrayInfoRK23StaticTransferFieldInfo
eQi:__Z84RuntimeInvoker_Boolean_t97287965_RaycastResult_t3360306849_RaycastResult_t3360306849PFvvEPK10MethodInfoPvPS4_
io:FUNCTION_TABLE_vfii
_4a:__ZN26SkinnedMeshRendererManager31HandlePreparationBreakingChangeER19SkinnedMeshRenderer
ylf:__ZN20TextRenderingPrivate8FontImpl18ResetCachedTextureEv
ido:__ZN6il2cpp6icalls8mscorlib6SystemL16GetFieldFromTypeINS_5utils10functional6FilterINSt3__212basic_stringIcNS7_11char_traitsIcEENS7_9allocatorIcEEEENS4_13VmStringUtils21CaseSensitiveComparerEEEEEP21Il2CppReflectionFieldP11Il2CppClassSK_iRKT_
iXe:__ZNK5physx19ActorAABBUpdateTask7getNameEv
Zbk:_X509KeyUsageExtension_Decode_m3150759625
KIo:_GC_print_finalization_stats
Ttd:__ZNK12b2WheelJoint10GetAnchorBEv
dDn:_GUITargetAttribute_GetGUITargetAttrValue_m2954410352
QHl:_Dictionary_2_System_Collections_IDictionary_set_Item_m329348630_gshared
Jsc:__Z53Register_UnityEngine_Behaviour_get_isActiveAndEnabledv
fOk:_SimpleEnumerator_get_Current_m72361444
os:__ZNSt3__26vectorIN4core12basic_stringIcNS1_20StringStorageDefaultIcEEEENS_9allocatorIS5_EEE8__appendEj
fY:__ZN13ProduceHelperI10SampleClipLb0EE7ProduceE10MemLabelId18ObjectCreationMode
X6a:__ZN26PlayerSettingsSplashScreen8TransferI17RemapPPtrTransferEEvRT_
Akl:_ASN1_set_Value_m2803403806
pdo:__ZN6il2cpp6icalls8mscorlib6SystemL17CollectTypeFieldsINS_5utils10functional10TrueFilterEEEvP11Il2CppClassPKS7_iRNSt3__26vectorIP9FieldInfoNSB_9allocatorISE_EEEERKT_
R5d:__ZN5physx3Scb5Scene20addArticulationJointERNS0_17ArticulationJointE
wFm:_ReadOnlyCollection_1_System_Collections_IList_Remove_m1976423569_gshared
FGe:__ZN5physx7NpScene14resetFilteringERNS_12PxRigidActorEPKPNS_7PxShapeEj
Htc:__Z13GetTagManagerv
Jgd:__Z25UpdateOrbitalAndRadialTplIL27ParticleSystemCurveEvalMode3ELS0_4ELS0_2EEvRK11MinMaxCurveS3_S3_S3_S3_S3_S3_R23ParticleSystemParticlesjjRKN4math8float3x3ERKNS6_7affineXERKNS6_7_float4E
JLk:_Hashtable__ctor_m1815022027
BHf:__ZN14UnityAnalytics19ConfigChangedStaticEPS_RKN4core12basic_stringIcNS1_20StringStorageDefaultIcEEEER8JSONReadb
Plm:_UTF8Encoding_GetChars_m1433288684
yul:_KeyCollection_System_Collections_Generic_ICollectionU3CTKeyU3E_Remove_m2555909644_gshared
MG:__ZN11UnityEngine9Animation37HasGenericRootTransformPropertyValuesERKNS0_30AnimatorGenericBindingConstantEb
LZ:__ZN11UnityEngine15CloudWebService17CloudJobSchedulerD0Ev
lPm:_OrderedEnumerable_1_GetEnumerator_m3078559865_gshared
oab:__ZN18LoadSceneOperation7PerformEv
fMe:__ZN5physx2Sc5Scene26setSimulationEventCallbackEPNS_25PxSimulationEventCallbackEh
nrd:__ZN11UnityEngine9Analytics26PerformanceReportingConfig13ConfigChangedERKN4core12basic_stringIcNS2_20StringStorageDefaultIcEEEER8JSONRead
uKc:__Z18CalculateWorldAABBR10GameObject
Zii:__Z96RuntimeInvoker_Boolean_t97287965_RuntimeObject_RuntimeObject_Int32_t2950945753_Int32_t2950945753PFvvEPK10MethodInfoPvPS4_
xUj:_Array_IndexOf_TisUICharInfo_t75501106_m3198896198_gshared
yBf:__ZNK2UI11CanvasGroup22GetTypeVirtualInternalEv
Cqk:_Context_get_Current_m2853615040
KWd:__ZL30GeomMTDCallback_CapsuleCapsuleRN5physx6PxVec3ERfRKNS_10PxGeometryERKNS_11PxTransformES5_S8_
jHe:__ZN5physx7NpScene23forceDynamicTreeRebuildEbb
bEd:__ZN10ClipperLib7Clipper14IntersectEdgesEPNS_5TEdgeES2_RNS_8IntPointE
wZd:__ZL18intersectAnyVsMeshILi0EEbPKN5physx2Gu6SphereEPKNS1_7CapsuleEPKNS1_3BoxERKNS1_13RTreeMidphaseERKNS0_11PxTransformERKNS0_11PxMeshScaleEP14LimitedResults
nYc:__Z21CleanupGlobalGUIStatev
Fqm:_Type_IsContextfulImpl_m3693603908
dNl:_Enumerator_VerifyState_m2873941769_gshared
Hce:__ZN5physx14NpArticulation6wakeUpEv
pYb:__ZN22VertexDeclarationCache5ClearEv
Naj:_CspParameters__ctor_m3852972821
$cg:_PlayerController_Update_m848427540
ifc:__ZN17PersistentManager12SetPathRemapERKN4core12basic_stringIcNS0_20StringStorageDefaultIcEEEES6_
vA:__Z27ProcessRootMotionEmptyMixerP35AnimationPlayableEvaluationConstantP32AnimationPlayableEvaluationInputP33AnimationPlayableEvaluationOutput
h9b:__ZN6Camera24PrepareCullingParametersERK23CameraCullingParameters13RenderingPathR11CullResults
s9b:__Z20CullReflectionProbesR8JobFenceRK22SceneCullingParametersRK23ReflectionProbesContextPKjjPjS9_
zab:__ZN19RuntimeSceneManager22EndIntegrateMainThreadEP10UnitySceneNS_11LoadingModeE
OXk:_Array_Sort_TisUICharInfo_t75501106_m3474449559_gshared
Krn:_SpriteSelectionEvent__ctor_m23613475
lun:_QuickSearch_GetShiftDistance_m2542665852
T$k:_Array_InternalArray__get_Item_TisCustomAttributeTypedArgument_t2723150157_m2639399822_gshared
Oil:_BigInteger_GenerateRandom_m3141592944
gAb:__Z29Transfer_Blittable_ArrayFieldI24GenerateTypeTreeTransfer4AABBEvRT_R9ArrayInfoRK23StaticTransferFieldInfo
$Uc:__ZN9Scripting11UnityEngine12StylePainter12CleanupProxyEv
Yqh:_TextMeshProUGUI_OnDestroy_m1383802296
Phk:_Interval_Contains_m1454846757
QDh:_Graphic_CacheCanvas_m1120385152
XJ:__ZN26AnimatorOverrideController15InitializeClassEv
f9e:__ZN5physx20InternalTriangleMesh16allocateVerticesEj
fLe:__ZN5physx2Sc16InteractionScene18releaseConstraintsEb
dVc:__ZN9Scripting11UnityEngine15ScrollViewState12CleanupProxyEv
gud:__ZN13b2PulleyJoint24SolveVelocityConstraintsERK12b2SolverData
qVe:__ZN5physx6shdfnd5ArrayINS_17PxcBroadPhasePairENS0_19ReflectionAllocatorIS2_EEE8recreateEj
qBl:_Enumerator_get_Current_m1781571415_AdjustorThunk
FPo:_emscripten_GetProcAddress
La:invoke_fiiifii
_Qo:_modff
qDi:__Z88RuntimeInvoker_Void_t1185182177_Vector2_t2156229523_Single_t1397266774_SByte_t1669577662PFvvEPK10MethodInfoPvPS4_
fTd:__ZThn4_N16RayRTreeCallbackILi1ELb0EED1Ev
kKa:__ZN20SphericalHarmonicsL219AddDirectionalLightERKN4math7_float3ERKNS0_7_float4E
R7e:__ZN5physx13BigConvexDataD2Ev
_ga:__Z26ScheduleJobForEachInternalR8JobFencePFvPvjES1_iPFvS1_E11JobPriority
v_b:__ZZ23InitPlayerLoopCallbacksvEN41PostLateUpdateProfilerEndFrameRegistrator7ForwardEv
koc:__ZN9Scripting18RaiseMonoExceptionEPKcz
bJc:__ZN10GameObject17WillHandleMessageERK17MessageIdentifier
d0j:_StrongNamePublicKeyBlob_Equals_m3655422942
GGc:__ZN9ShaderLab16FastPropertyName15InitBy28BitHashEj
kXl:_List_1_System_Collections_IList_set_Item_m4182383657_gshared
zOg:__ZL84Material_t340375123_CustomAttributesCacheGenerator_Material_GetFloatImpl_m3750846334P21CustomAttributesCache
fUl:_List_1_System_Collections_IList_Add_m2937161398_gshared
gzf:__Z34TextMesh_CUSTOM_INTERNAL_get_colorP12Il2CppObjectP10ColorRGBAf
nUf:_TMP_ColorGradient__ctor_m4278887694
hmi:__Z96RuntimeInvoker_Void_t1185182177_Int32_t2950945753_Single_t1397266774_RuntimeObject_RuntimeObjectPFvvEPK10MethodInfoPvPS4_
wol:_Enumerator_System_Collections_IDictionaryEnumerator_get_Key_m195047678_AdjustorThunk
HXn:_Canvas_get_pixelPerfect_m333060872
B3a:__ZN17PackedFloatVector12UnpackFloatsEPfiiii
gho:__ZN30dense_hashtable_const_iteratorINSt3__24pairIK10KeyWrapperIPK10Il2CppTypeEjEES6_N6il2cpp8metadata14Il2CppTypeHashEN14dense_hash_mapIS6_jSB_NS6_14EqualsComparerINSA_26Il2CppTypeEqualityComparerEEENS0_9allocatorIS8_EEE9SelectKeyESF_SH_EppEv
ED:__ZN17AnimationPlayable28UpdateInternalStateRecursiveILi3ELb0EEEvPK35AnimationPlayableEvaluationConstant
pRb:__ZN13GfxDeviceGLES21DestroyComputeProgramER12ObjectHandleI18ComputeProgram_TagPvE
e1a:__ZN17GenericDynamicVBOD2Ev
Ktn:_PatternCompiler_EmitIfDefined_m2075050865
Ecl:_Decimal_System_IConvertible_ToInt64_m1446427516_AdjustorThunk
wea:__ZN17UniqueIDGenerator16DestroyPureIndexEj
mWi:_NotImplementedException__ctor_m3095902440
zaa:__ZL21AppendNestedClassName17ScriptingClassPtrRN4core17string_with_labelILi1EEE
ujc:__ZN14SafeBinaryRead21TransferSTLStyleArrayINSt3__26vectorIN9ShaderLab20SerializedSubProgram12UAVParameterENS1_9allocatorIS5_EEEEEEvRT_17TransferMetaFlags
cro:__ZN6il2cpp8metadata13ArrayMetadata20SetupArrayInterfacesEP11Il2CppClassRKNS_2os12FastAutoLockE
AAj:_InputField_set_inputType_m424695295
I_:__ZN24TextDOMTransferWriteBaseI9JSONWriteE12PushMetaFlagEi
kre:__ZN5physx7NpCloth22removeCollisionCapsuleEj
Dug:__ZL59_PropertyBuilder_t1366136710_CustomAttributesCacheGeneratorP21CustomAttributesCache
h5c:__ZN16MinMaxPolyCurves26FindMinMaxDoubleIntegratedEv
hka:__ZN6prcoreL26RemapGenericIntegerToFloatI17TexFormatARGB888815TexFormatRFloatEEvPKNS_9InnerInfoE
FTm:_List_1__ctor_m808270210_gshared
Omo:__ZN6il2cpp2vm17TypeNameParseInfoD2Ev
Kam:_PrimeHelper_ToPrime_m3704362632_gshared
SO:__ZN4FMOD7Channel7setModeEj
u3e:__ZN5physx18PxsSolverStartTask16articulationTaskEv
_Kn:_Vector2_get_right_m1027081661
uXa:__ZNK8Renderer8GetLayerEv
$6d:__ZN5physx6shdfnd4sortIPvNS0_4LessIS2_EENS0_19ReflectionAllocatorINS_2Cm5BlockIS2_Lj16EEEEEEEvPT_jRKT0_RKT1_j
tHk:_Stream_Close_m771352034
HJa:__ZN12FlareManager11DeleteFlareEi
v3b:__ZNK6Camera20GetReplacementShaderEv
Rke:__ZN18MultiQueryCallbackIN5physx12PxRaycastHitEE6invokeERfPKNS0_2Sq13PrunerPayloadEj
WRa:__ZL23stbir__calculate_memoryP11stbir__info
Heg:_JSONLazyCreator_get_AsDouble_m2077500284
ruj:_RectOffset_ToString_m2007443979
Zgk:_Interpreter_Close_m126356671
JNe:__ZN5physx18PxcNpThreadContextD2Ev
QKd:__ZN9Scripting11UnityEngine14SphereCollider12CleanupProxyEv
Q0a:__ZNK6Camera18GetRenderRectangleEv
pdk:_X509Chain_Reset_m1198177101
zZf:_TMP_InputField_get_clipboard_m3351457038
x4c:__ZN9Scripting11UnityEngine22ParticleCollisionEvent9InitProxyEv
g$a:__ZN13sorted_vectorIN4core12basic_stringIcNS0_20StringStorageDefaultIcEEEENSt3__24lessIS4_EE13stl_allocatorIS4_L18MemLabelIdentifier81ELi16EEE4findIS4_EENS5_11__wrap_iterIPS4_EERKT_
THc:__Z13RegisterClassI30RuntimeInitializeOnLoadManagerEvPKc
Cun:_Parser_HandleExplicitNumericGroups_m1412234891
H0k:_Array_InternalArray__get_Item_TisRaycastHit2D_t2279581989_m2440275162_gshared
A_i:_CustomAttributeNamedArgument_Equals_m1414002036
Q1c:__ZL26Transfer_SimpleNativeClassI8JSONRead10RectOffsetLb1EEvRK29SerializationCommandArgumentsR31RuntimeSerializationCommandInfo
pEf:__Z44CanvasRenderer_CUSTOM_INTERNAL_CALL_SetColorP12Il2CppObjectRK10ColorRGBAf
uFa:__Z26TransformVerticesInnerLoopILb1ELb1ELb1EEvPhRK10Matrix4x4fRK10Matrix3x3fjPKhiS8_ii25GfxTransformVerticesFlagsj
hLl:_Enumerator_System_Collections_IEnumerator_Reset_m959124362_AdjustorThunk
FSh:_CrossContextDelegate_Invoke_m3121381558
E6h:_InternalEnumerator_1_get_Current_m2204111114_AdjustorThunk
Tyh:_CanvasScaler_HandleScaleWithScreenSize_m3848620697
C2b:__ZNK20DynamicPropertySheet18FindQueuedPropertyEN9ShaderLab16FastPropertyNameEN19ShaderPropertySheet12PropertyTypeE
_fl:_Enum_ToObject_m121831801
Sbf:__ZN5physx2Gu27computeBoundsAroundVerticesERNS_9PxBounds3EjPKNS_6PxVec3E
cGh:_Image_get_hasBorder_m3423344180
E_c:__Z18Transfer_BlittableI9JSONWriteLb1EsEvRK29SerializationCommandArgumentsR31RuntimeSerializationCommandInfo
VDd:__ZN10ClipperLib8JoinHorzEPNS_5OutPtES1_S1_S1_NS_8IntPointEb
LFe:__ZNK5physx7NpScene9getLimitsEv
IIf:__Z48UnityAnalyticsHandler_CUSTOM_SendCustomEventNameP12Il2CppObjectP12Il2CppString
sxc:__ZN9Transform16SetLocalRotationERK11Quaternionf
rSe:__ZNK5physx2Gu29EPASupportMapPairRelativeImplINS0_9TriangleVENS0_8CapsuleVEE9doSupportERKNS_6shdfnd3aos5Vec3VERS7_SA_SA_
IUc:__Z15CleanupGUIStylePv
v$b:__ZN13RenderManager37RenderCamerasWithScriptableRenderLoopEi
jWe:__ZN3MBP12updateObjectEjRK5IAABB
Qxc:__Z40Transform_CUSTOM_INTERNAL_get_lossyScaleP12Il2CppObjectP8Vector3f
vgj:_Color_get_white_m332174077
bae:__ZN5physx6shdfnd5ArrayINS_6PxVec3ENS0_19ReflectionAllocatorIS2_EEE15growAndPushBackERKS2_
SQb:__ZN13GfxDeviceGLES22ReleaseThreadOwnershipEv
mvc:__ZNSt3__26__treeINS_12__value_typeIN9ShaderLab16FastPropertyNameEN18UnityPropertySheet11UnityTexEnvEEENS_19__map_value_compareIS3_S6_NS_4lessIS3_EELb1EEENS_9allocatorIS6_EEE14__assign_multiINS_21__tree_const_iteratorIS6_PNS_11__tree_nodeIS6_PvEEiEEEEvT_SL_
mzo:__ZN6il2cpp2os19ReleaseSocketHandleEj
kX:__ZN11AudioModule16GetDSPSampleRateEv
ERh:_DynamicPropertyCollection_get_HasProperties_m4067429750
IJe:__ZN5physx2Sc5Scene20fireTriggerCallbacksEv
Ipm:_Type_get_Attributes_m58528356
zBf:__ZN2UI11CanvasGroup23VirtualRedirectTransferER19StreamedBinaryWriteILb0EE
FRe:__ZN5physx2Gu18GJKRelativeRayCastERNS0_8CapsuleVERNS0_4BoxVERKNS_6shdfnd3aos15PsMatTransformVERKNS6_6FloatVERKNS6_5Vec3VESF_RSA_RSD_SH_fb
ZIk:_Array_GetUpperBound_m4018715963
Afn:_X509Store__ctor_m2736551756
BAc:__Z13RegisterClassI9TextAssetEvPKc
IAo:__ZN6il2cpp2os5posix15PosixWaitObjectC2ENS2_4TypeE
A1b:__ZN6Camera21PostMultiCustomRenderENS_10RenderFlagEb
Wem:_Array_InternalArray__Insert_TisMonoResource_t4103430009_m1997865927_gshared
_Zj:_SHA512Managed_HashFinal_m2173184560
RWb:__ZN12_GLOBAL__N_112UploadImagesEP7ApiGLESjji14GraphicsFormatPKhjS2_iiii16TextureUsageModePh
FNb:__ZN23ShaderVariantCollection13WarmupShadersEv
oOf:__ZN11UnityEngine15PlatformWrapper20GetPlayerPrefsUInt64ERKN4core12basic_stringIcNS1_20StringStorageDefaultIcEEEEy
hgi:_Enumerator_System_Collections_IDictionaryEnumerator_get_Entry_m1355283127_AdjustorThunk
L_h:_InternalEnumerator_1_get_Current_m3840351116_gshared
fPh:_Marshal_copy_from_unmanaged_m2834266824
gaa:__Z25GetCommonScriptingClassesv
hbb:__Z27scripting_gc_collect_unsafei
mlk:_MD5SHA1_HashFinal_m4115488658
pX:__ZN11AudioModule20SuspendVideoTexturesEv
hXj:_Array_InternalArray__ICollection_Add_TisKeyValuePair_2_t71524366_m3468275433_gshared
iBf:__ZN9Scripting11UnityEngine9CSSLayout6Native9InitProxyEv
tW:__Z59Register_UnityEngine_AudioExtensionManager_GetAudioListenerv
Pol:_Enumerator_VerifyState_m788183934_gshared
xBe:__ZN5physx13NpRigidStaticC2ERKNS_11PxTransformE
yzb:__Z26Transfer_UnityEngineObjectI24GenerateTypeTreeTransferLb0EEvRK29SerializationCommandArgumentsR31RuntimeSerializationCommandInfo
r6k:_Convert_ToDouble_m278900635
Uqf:_UNITY_FT_GlyphLoader_CheckPoints
QBj:_InputField_LineDownCharacterPosition_m2798128425
RRe:__ZN5physxL20PxcSweepBoxTrianglesERKNS_11PxsCCDShapeES2_RKNS_11PxTransformES5_S5_S5_fRNS_6PxVec3ES7_RNS_10PxcNpCacheERNS_18PxcNpThreadContextERKNS_2Cm23FastVertex2ShapeScalingERNS_2Gu9TriangleVEf
W9i:_SByte_ToString_m3584531119
g0d:__ZN5physx3Cct15ObstacleContextD0Ev
PJa:__ZN15SharedLightData7PrecalcEv
fAn:_TMPro_EventManager_ON_DRAG_AND_DROP_MATERIAL_CHANGED_m1798439884
Pza:__ZN10Matrix4x4fmLERKS_
vKn:_Vector2__ctor_m3970636864
kza:__ZN17TransformInternal12InitLocalTRSE15TransformAccessRKN4math7_float3ERKNS1_7_float4ES4_
$Cb:__Z35Transfer_Blittable_FixedBufferFieldI18StreamedBinaryReadILb1EEsEvRK29SerializationCommandArgumentsR31RuntimeSerializationCommandInfo
VVf:_TMP_Dropdown_AlphaFadeList_m1824333241
wgl:_Environment_InternalGetFolderPath_m468390978
Gib:__ZN15ArchiveReadFileD0Ev
gUj:_Array_IndexOf_TisRejectHandler_t1435172309_m1153911033_gshared
vLf:__ZN11UnityEngine15PlatformWrapper18GetOperatingSystemEv
L1j:_SecurityFrame_ToString_m339310712
BKe:__ZN5physx3Scb9Aggregate9syncStateERNS0_5SceneE
juk:_Calendar__ctor_m106290643
xog:__ZL62ParamArrayAttribute_t3664765590_CustomAttributesCacheGeneratorP21CustomAttributesCache
uDh:_FontUpdateTracker_RebuildForFont_m3134452007
oXi:_NumberFormatter_FormatDecimal_m1921932981
ard:__ZN14ParticleSystem18SyncSimulationJobsEv
wdo:__ZN6il2cpp6icalls8mscorlib6System8MonoType19GetGenericArgumentsEP20Il2CppReflectionType
IQf:__ZN29UnityWebRequestAsyncOperation15InvokeCoroutineEv
r5f:_TMP_Text_get_ignoreVisibility_m3650197610
emd:__ZN22ParticleSystemRenderer13BoundsChangedEv
UKj:_Selectable_IsInteractable_m2611421038
yqf:_FT_MSB
V0o:_emscripten_glReadPixels__wrapper
HEc:__ZZL23RegisterLightPropertiesR22GenericPropertyBindingEN29Wrapper_LightShadowNormalBias13GetFloatValueEPv
pNo:__ZN6il2cpp6icalls8mscorlib4Mono8Security12Cryptography18KeyPairPersistence10_CanSecureEP12Il2CppString
jOj:_Array_InternalArray__ICollection_Contains_TisParameterModifier_t1461694466_m1000453323_gshared
jge:__ZN5physx7NpActor17resolveReferencesERNS_24PxDeserializationContextE
zef:__ZN9Rigidbody15InitializeClassEv
O1l:_Dictionary_2_System_Collections_ICollection_CopyTo_m4047192178_gshared
ifo:__ZN6il2cpp2os4File11GetFileStatERKNSt3__212basic_stringIcNS2_11char_traitsIcEENS2_9allocatorIcEEEEPNS0_8FileStatEPi
iIf:__ZN14UnityAnalytics22HandleCustomEventLimitERN11UnityEngine9Analytics15UserCustomEventE
a9c:__ZN13InitialModule8TransferI19StreamedBinaryWriteILb0EEEEvRT_
GBc:__ZN9TransformC2E10MemLabelId18ObjectCreationMode
Eph:_TextMeshPro_CalculateLayoutInputVertical_m3688106076
vPb:__ZN13GfxDeviceGLES14SetRasterStateEPK17DeviceRasterState
bMn:_Vector4_Equals_m1779210055
v2d:__ZN5physx6shdfnd8internal8HashBaseINS0_4PairIKPKNS_2Sc8ShapeSimENS4_10NPhaseCore16ClothListElementEEES7_NS0_4HashIS7_EENS1_11HashMapBaseIS7_SA_SD_NS0_9AllocatorEE6GetKeyESF_Lb1EE5eraseERS8_
Jsf:_otv_Coverage_get_count
HMh:_ParameterModifier_t1461694466_marshal_pinvoke_back
Y6h:_InternalEnumerator_1_get_Current_m1711665164_AdjustorThunk
iua:__ZN14SafeBinaryRead11EndTransferEv
Qnd:__ZL32TransformParticleMeshAnimatedUVsILb1EEvRK16ParticleMeshDataiRK22ParticleSystemTempDataRK31ParticleSystemParticlesTempData11ColorRGBA32RK26ParticleSystemRendererDataRK21ParticleSystemModulesRKN4math7affineXERKNSG_8float3x3ERK23ParticleSystemParticlesjPPhPPf
FS:__ZN20SoundChannelInstance19set3DMinMaxDistanceEff
Qfl:_Enum_System_IConvertible_ToUInt16_m4216751959
had:__ZN11MinMaxCurve11ResetCurvesEv
cKl:_Enumerator_System_Collections_IEnumerator_Reset_m1475773051_gshared
yrm:_UInt16_System_IConvertible_ToSByte_m2219828332_AdjustorThunk
P2k:_SortedList_Remove_m2784369438
Izc:__Z40Register_UnityEngine_Input_GetKeyDownIntv
IUa:__ZN4crnd12crn_unpacker10unpack_dxnEPPhjjj
Taa:__ZN14SerializedFileD2Ev
Red:__Z16UpdateOrbitalTplIL27ParticleSystemCurveEvalMode2EEvRK11MinMaxCurveS3_S3_S3_S3_S3_S3_R23ParticleSystemParticlesjjRKN4math8float3x3ERKNS6_7affineXERKNS6_7_float4E
MVc:__Z30Event_Get_Custom_PropModifiersP12Il2CppObject
m8d:__ZN5physx6shdfnd5ArrayIPvNS0_16AlignedAllocatorILj64ENS0_9AllocatorEEEE15growAndPushBackERKS2_
vZn:_Physics2D_Raycast_m2858866636
use:__ZN5physx6shdfnd5ArrayINS_35PxClothParticleSeparationConstraintENS0_19ReflectionAllocatorIS2_EEE6resizeEjRKS2_
cy:__ZN7mecanim9animation16CreateClipOutputEPKNS0_4ClipERNS_6memory9AllocatorE
vGj:_RawImage_get_mainTexture_m2396337033
K7c:__ZN27ParticleSystemEmissionBurst8TransferI24GenerateTypeTreeTransferEEvRT_
ufo:__ZN6il2cpp2vm10Reflection17GetAssemblyObjectEPK14Il2CppAssembly
v$d:__ZN5physx3Cct12SweptCapsuleC2Ev
jic:__ZN6Shader21AwakeFromLoadThreadedEv
omo:__ZN6il2cpp2vm10Reflection12HasAttributeEP12Il2CppObjectP11Il2CppClass
qvi:__Z94RuntimeInvoker_Void_t1185182177_Vector3_t3722313464_Quaternion_t2301928331_Vector3_t3722313464PFvvEPK10MethodInfoPvPS4_
rja:__ZN6prcoreL17RemapGenericFloatI17TexFormatRGBFloat17TexFormatRGBAHalfEEvPKNS_9InnerInfoE
jwc:__Z58Register_UnityEngine_PlayerConnectionInternal_PollInternalv
RHk:_StreamReader_ReadLine_m1468498645
FKn:_Vector2_GetHashCode_m3916089713_AdjustorThunk
Fff:__ZN5physx24PxcContactBoxHeightFieldERKNS_2Gu13GeometryUnionES3_RKNS_11PxTransformES6_RKfRNS_10PxcNpCacheERNS0_13ContactBufferE
kub:__ZNSt3__26vectorI8MonoPPtr13stl_allocatorIS1_L18MemLabelIdentifier1ELi16EEE8__appendEj
b2b:__ZN14qsort_internal30FindAndMovePivotToLastPositionIP17RODataReplacementi19ROSorterReplacementEEvT_S4_T0_T1_
IXb:__ZN15UniformTFMethod20IsBoneCountSupportedEi
$We:__ZNK5physx23AggregateAABBUpdateTask7getNameEv
C7f:_TMP_Text_SetCharArray_m439917168
Ztm:_UnauthorizedAccessException__ctor_m246605039
qWo:dynCall_viidi
OQm:_Predicate_1_Invoke_m2337471830_gshared
SWf:_TMP_Settings_get_defaultFontAsset_m2899293322
P7:__ZN24ScriptingMethodFiltering17FilterOnSignatureENS_18MethodSearchFilterE
u9c:__ZN11TrailModule8TransferI19StreamedBinaryWriteILb0EEEEvRT_
W6e:__ZN5physx13NpClothFabric16scaleRestlengthsEf
cIf:__ZNSt3__26__treeINS_12__value_typeIN4core12basic_stringIcNS2_20StringStorageDefaultIcEEEEN11UnityEngine9Analytics15UserCustomEvent11CustomValueEEENS_19__map_value_compareIS6_SB_NS_4lessIS6_EELb1EEE13stl_allocatorISB_L18MemLabelIdentifier6ELi16EEE7destroyEPNS_11__tree_nodeISB_PvEE
Wpf:_cf2_arrstack_finalize
pen:_X509Certificate_VerifySignature_m3538124832
C_h:_InternalEnumerator_1_System_Collections_IEnumerator_get_Current_m1299065558_AdjustorThunk
Yjm:_StringBuilder_Append_m1640838743
xHk:_StreamAsyncResult_SetComplete_m1102187093
ADc:__ZN13MonoBehaviour19HandleNotificationsEPviR11MessageData
nuj:_RectOffset_Init_m2028508611
eDe:__ZN5physx6shdfnd5ArrayIPNS_2Sc17ParticleSystemSimENS0_19ReflectionAllocatorIS4_EEE8recreateEj
IWm:_List_1_System_Collections_IList_Remove_m4226673807_gshared
Dmk:_Alert__ctor_m3135936936
JBk:_Int64_System_IConvertible_ToInt32_m772105781
jbn:_TlsClientSettings__ctor_m3220697265
vjo:__ZNK15dense_hashtableINSt3__24pairIK10KeyWrapperINS1_IPK9EventInfoP11Il2CppClassEEEjEES9_17ReflectionMapHashIS8_EN14dense_hash_mapIS9_jSD_NS9_14EqualsComparerINS0_8equal_toIS8_EEEENS0_9allocatorISB_EEE9SelectKeyESI_SK_E23find_position_with_hashERSA_j
OQo:_copysignl
zTf:__ZL45__ManagedRegistrationHelperFunction_SubsystemPv
fdi:_Comparer_1_System_Collections_IComparer_Compare_m1214387953_gshared
njm:_ForwardingDecoder_GetChars_m4228908854
shk:_InterpreterFactory_get_GroupCount_m2226373271
eZo:b53
bZo:b50
cZo:b51
W_e:__ZN5physx9PxTaskMgrD0Ev
fZo:b54
gZo:b55
ou:__ZL45__ManagedRegistrationHelperFunction_HumanBonePv
Dhl:_SimpleCollator_IsSafe_m310268646
QJk:_X509Certificate_get_RawData_m2387471414
m$o:_glDetachShader__wrapper
mOk:_ArrayTypeMismatchException__ctor_m3375008173
$xl:_Transform_1_BeginInvoke_m1757796657_gshared
OVn:_U3CSendWebRequestU3Ed__0_System_Collections_IEnumerator_Reset_m3019108636
M3f:_TMP_SubMeshUI_UpdateMaterial_m1590409545
Lqa:__ZN9Scripting11UnityEngine7Hash12812CleanupProxyEv
Yae:__ZN5physx3Scb5Scene13addRigidNoSimINS0_11RigidStaticELb0ELb1EEEvRT_RNS0_13ObjectTrackerE
Ulb:__ZN9GfxDevice25SetShaderPropertiesSharedERK19ShaderPropertySheet
sOf:__ZN11UnityEngine7Connect20RemoteConfigSettingsC2ERKN4core12basic_stringIcNS2_20StringStorageDefaultIcEEEEPFvPS1_E18ScriptingObjectPtr
Xxh:_BaseMeshEffect_get_graphic_m1852367505
fVk:_CaseInsensitiveHashCodeProvider_GetHashCode_m2168170016
Wqc:__ZN19SpriteMeshGenerator4path9clip_edgeEi
Rra:__ZN9Scripting11UnityEngine12Experimental18GlobalIllumination11LightDataGI12CleanupProxyEv
vDc:__ZL25InitializeDefaultMaterialv
iFf:__Z53Register_UnityEngine_CanvasRenderer_get_materialCountv
SGh:_PropertyBuilder_GetCustomAttributes_m3798356764
LMh:_PropertyInfo_get_MemberType_m2794839864
fIn:_EventTrigger_RemoveRule_m1596811726
Tdi:_Comparer_1_System_Collections_IComparer_Compare_m4179495191_gshared
scb:__ZN17PersistentManager12UnloadStreamERKN4core12basic_stringIcNS0_20StringStorageDefaultIcEEEEb
qDd:__ZN10ClipperLib11ClipperBase7AddPathERKNSt3__26vectorINS_8IntPointENS1_9allocatorIS3_EEEENS_8PolyTypeEb
Jfm:_Array_InternalArray__Insert_TisUICharInfo_t75501106_m2924156520_gshared
Vej:_Bounds_Equals_m3920299735
KFd:__ZN19CompositeCollider2D22SimplifyCompositePathsERKNSt3__26vectorINS1_IN10ClipperLib8IntPointENS0_9allocatorIS3_EEEENS4_IS6_EEEERS8_
MWj:_MonoProperty_GetterAdapterFrame_TisRuntimeObject_TisRuntimeObject_m458718082_gshared
dXk:_Array_Sort_TisInt32_t2950945753_TisInt32_t2950945753_m3955828611_gshared
Too:_il2cpp_unity_liveness_calculation_from_statics
QFi:__Z70RuntimeInvoker_Boolean_t97287965_CharU26_t1697032762_Int16_t2552820387PFvvEPK10MethodInfoPvPS4_
OB:__ZNK26AnimatorControllerPlayable11DerivesFromE17ScriptingClassPtr
sai:_InternalEnumerator_1_System_Collections_IEnumerator_get_Current_m2649471526_gshared
gYa:__ZN8Renderer8TransferI17RemapPPtrTransferEEvRT_
$Xg:__ZL55SkeletonBone_t4134054672_CustomAttributesCacheGeneratorP21CustomAttributesCache
rSa:__ZN6prcore16BlitFuncInfoSIMD19BlitFuncExecuteSIMDEPKNS_9InnerInfoEPKv
NPf:__ZN20UnityWebRequestProtoI24UnityWebRequestTransport16AtomicRefCounter14RedirectHelper14ResponseHelper15DownloadHandler13UploadHandler18CertificateHandler12HeaderHelper14AsyncOperationE9DoRequestEv
sol:_Enumerator_System_Collections_IDictionaryEnumerator_get_Entry_m522483686_gshared
Gml:_PrivateKeyInfo_RemoveLeadingZero_m3921889925
Zmm:_Thread_get_CurrentContext_m1695017876
UXf:_TMP_InputField_set_onTextSelection_m1301803435
rAd:__ZN7b2World20ClearIslandFlagsTaskEv
dzc:__Z22Input_CUSTOM_GetKeyInti
sse:__ZNK5physx2Sc9ClothCore16getCollisionDataEPNS_22PxClothCollisionSphereEPjPNS_21PxClothCollisionPlaneES4_PNS_24PxClothCollisionTriangleE
LXf:_TMP_InputField_get_onEndEdit_m4238117701
Uud:__ZN16PhysicsManager2D19AddRigidbodyUpdatesEP11Rigidbody2D
Dcc:__Z24LookRotationToQuaternionRK8Vector3fS1_P11Quaternionf
Bcc:__ZN16ReflectionProbes9GetCameraEv
n7b:__Z23CalculateLightOcclusionRK17LightProbeContextRK29LightProbeSamplingCoordinatesi
xwe:__ZNK5physx2Sc18ParticleSystemCore20getMaxMotionDistanceEv
kmd:__ZN22ParticleSystemRenderer8TransferI14SafeBinaryReadEEvRT_
YCf:__ZN2UI6Canvas17SetSortingLayerIDEi
FAo:__ZN6il2cpp2vm11MethodStack23CleanupForCurrentThreadEv
nzm:_Collection_1_ConvertItem_m618594517_gshared
K6h:_InternalEnumerator_1_System_Collections_IEnumerator_get_Current_m2011757623_AdjustorThunk
b9k:_Convert_ToUInt64_m388601487
VHa:__ZN20TierGraphicsSettings8TransferI24GenerateTypeTreeTransferEEvRT_
t8n:__ZN15dense_hashtableINSt3__24pairIK10KeyWrapperIN6il2cpp5utils13dynamic_arrayIPK10Il2CppTypeLj4EEEEPFvvEEESA_NS3_8metadata19Il2CppSignatureHashEN14dense_hash_mapISA_SD_SG_NSA_14EqualsComparerINSF_22Il2CppSignatureCompareEEENS0_9allocatorISE_EEE9SelectKeyESK_SM_E16reset_thresholdsEv
Vnj:_Mesh_get_vertices_m3585684815
Sxj:_TouchScreenKeyboard_get_text_m1797464608
gQa:__ZN18UnityPropertySheet8TransferI19StreamedBinaryWriteILb0EEEEvRT_
DEj:_LayoutUtility_GetMinSize_m2572843166
Mu:__ZN9Scripting11UnityEngine27AnimatorControllerParameter9InitProxyEv
Yha:__ZNSt3__26__treeINS_12__value_typeIiN11TypeManager18TypeCallbackStructEEENS_19__map_value_compareIiS4_NS_4lessIiEELb1EEENS_9allocatorIS4_EEE7destroyEPNS_11__tree_nodeIS4_PvEE
Jvn:_AnchorInfo__ctor_m3869855453
vDa:__ZN9ShaderLab32FindBestMatchingShaderKeywordSetERK16ShaderKeywordSetRK13dynamic_arrayIS0_Lj0EEPS5_
Hdi:_Comparer_1_System_Collections_IComparer_Compare_m3331561281_gshared
M4i:_RemotingProxy_get_TypeName_m4085898624
oyj:_Transform_INTERNAL_set_position_m3627767375
DEd:__ZN16PhysicsManager2D42RegisterTransformChangeInterestForColliderEP10Collider2D
weg:_JSONLazyCreator_set_Item_m412762592
LJc:__ZNK14PlayableOutput23GetSourcePlayableUnsafeEv
qKf:__ZN11UnityEngine7Connect17XRDeviceInfoEventD0Ev
guh:_ExecuteEvents_Execute_m3936726821
Ivg:__ZL60SoapTypeAttribute_t1750930817_CustomAttributesCacheGeneratorP21CustomAttributesCache
IVj:_Array_InternalArray__IndexOf_TisTMP_MeshInfo_t2771747634_m956969202_gshared
UZi:_Binder_ConvertArgs_m2124461494
Ihc:__ZN21UnityDefaultAllocatorI17LowLevelAllocatorE10DeallocateEPv
o0o:b86
OCa:__ZN20IntermediateRenderer15AddAsRenderNodeER15RenderNodeQueueRK20DeprecatedSourceData
tJ:__ZN15PackedIntVector8TransferI14SafeBinaryReadEEvRT_
aLn:_Vector3__ctor_m3353183577_AdjustorThunk
_$h:_InternalEnumerator_1_System_Collections_IEnumerator_get_Current_m1514266661_gshared
oee:__ZNK5physx19NpArticulationJoint20getTangentialDampingEv
ywi:__Z71RuntimeInvoker_Void_t1185182177_Int32_t2950945753_Matrix4x4_t1817901843PFvvEPK10MethodInfoPvPS4_
llk:_MD5SHA1_Initialize_m675470944
zcm:_Array_InternalArray__ICollection_Add_TisKeyframe_t4206410242_m442111799_gshared
fUm:_List_1_CheckMatch_m3263549496_gshared
Qrj:_PropertyNameUtils_PropertyNameFromString_Injected_m1259736140
WSh:_SynchronizationAttribute_EnterContext_m1660729920
ZU:__ZN13AudioListener8DoUpdateEv
XVd:__ZN5physx3Cct10Controller22setUpDirectionInternalERKNS_6PxVec3E
MYc:__ZN5Unity9rapidjson13GenericReaderINS0_4UTF8IcEES3_13JSONAllocatorE9ParseTrueILj1ENS0_25GenericInsituStringStreamIS3_EENS0_15GenericDocumentIS3_S4_S4_EEEEvRT0_RT1_
JTi:__Z13bankers_roundd
M6a:__ZN14SafeBinaryRead8TransferI5RectTIfEEEvRT_PKc17TransferMetaFlags
gj:_emscripten_glGenFramebuffers
Tha:__ZN17BaseObjectManager16StaticInitializeEPv
Lpa:__ZN9Scripting11UnityEngine9Profiling8Profiler12CleanupProxyEv
utl:_KeyCollection_System_Collections_Generic_ICollectionU3CTKeyU3E_Clear_m2015011817_gshared
k$c:__Z18Transfer_BlittableI9JSONWriteLb0EyEvRK29SerializationCommandArgumentsR31RuntimeSerializationCommandInfo
sNa:__ZN13RenderTexture15ThreadedCleanupEv
Lck:_X509BasicConstraintsExtension__ctor_m3721156175
nTa:__ZN12CubemapArray23VirtualRedirectTransferER14SafeBinaryRead
hZk:_Dictionary_2_Do_CopyTo_TisInt32_t2950945753_TisInt32_t2950945753_m152841990_gshared
ete:__ZNK5physx2Sc9ClothCore23getNbCollisionTrianglesEv
fy:__ZN21AnimationClipPlayable16ProcessHumanPassEPK35AnimationPlayableEvaluationConstantPK32AnimationPlayableEvaluationInputP33AnimationPlayableEvaluationOutput
QDk:_Path_GetFileName_m1354558116
y0n:_Physics_Raycast_m4145022031
ppe:__ZN5physx7NpShape16setFlagsInternalENS_7PxFlagsINS_11PxShapeFlag4EnumEhEE
i_o:_emscripten_glUniform3i__wrapper
_hl:_SimpleCollator_IsPrefix_m3581642267
Xtj:_Rect_Contains_m1232228501_AdjustorThunk
gsc:__Z43RectTransform_CUSTOM_INTERNAL_set_sizeDeltaP12Il2CppObjectRK13Vector2fIcall
ZTd:__ZN5physx2Gu30distanceSegmentTriangleSquaredERKNS_6shdfnd3aos5Vec3VES5_S5_S5_S5_RS3_S6_
SBk:_Int64_System_IConvertible_ToType_m3223988955_AdjustorThunk
vwo:__ZN15dense_hashtableINSt3__24pairIK10KeyWrapperINS1_IPKcS4_EEEiEES6_24NamespaceAndNamePairHashN14dense_hash_mapIS6_iS9_NS6_14EqualsComparerI26NamespaceAndNamePairEqualsEENS0_9allocatorIS8_EEE9SelectKeyESD_SF_E6insertERKS8_
Yva:__ZN24GenerateTypeTreeTransfer18BeginArrayTransferEPKcS1_Ri17TransferMetaFlags
F0k:_Array_InternalArray__get_Item_TisPlayableBinding_t354260709_m3837494573_gshared
gn:___syscall51
Elj:_Light_get_color_Injected_m1214570263
eLn:_Vector3_LerpUnclamped_m277788092
Zsn:_MatchCollection_get_FullList_m1829231879
ln:___syscall54
cNk:_Array_GetValue_m2528415604
yRf:__Z29UnityWebRequest_CUSTOM_Createv
bzj:_Transform_INTERNAL_CALL_TransformPoint_m4261269221
azk:_Guid_AppendShort_m791023083
DUm:_List_1__ctor_m4212503576_gshared
jcg:_U3CProcessjsonU3Ec__Iterator0_Reset_m2566776598
Jmj:_Mathf_Acos_m3996105394
Vqf:_cff_builder_add_point1
Exo:__ZN6il2cpp2vm5Image21GetCachedResourceDataEPK11Il2CppImageRKNSt3__212basic_stringIcNS5_11char_traitsIcEENS5_9allocatorIcEEEE
Usb:__Z18Transfer_BlittableI14SafeBinaryReadLb0E10ColorRGBAfEvRK29SerializationCommandArgumentsR31RuntimeSerializationCommandInfo
HHj:_Scrollbar__ctor_m1852189877
Njd:__ZN21InheritVelocityModuleD2Ev
Ha:invoke_iiiiiiiiii
iW:__ZN11AudioSource25GetNumExtensionPropertiesEv
hem:_Array_InternalArray__ICollection_CopyTo_TisUILineInfo_t4195266810_m104406798_gshared
iBc:__ZZL31RegisterRectTransformPropertiesR22GenericPropertyBindingEN32Wrapper_RectTransformAnchorMaxx013GetFloatValueEPv
Bhj:_Debug_LogErrorFormat_m3558239521
pab:__ZN18LoadSceneOperation19IntegrateTimeSlicedEi
$S:__ZN4FMOD7SystemI11createSoundEPKcjP22FMOD_CREATESOUNDEXINFOPPNS_5SoundE
Qgc:__ZN10FileSystem19SetCurrentDirectoryERKN4core12basic_stringIcNS0_20StringStorageDefaultIcEEEE
Mgj:_Component_get_gameObject_m442555142
Aaa:__ZN16ScriptingManager24NotifyScriptCacheReleaseEi
MBc:__ZN23TransformChangeDispatch24RemovePermanentInterestsE15TransformAccessPKN5Unity4TypeE
gRc:__Z47Register_UnityEngine_Coroutine_ReleaseCoroutinev
Wae:__ZN10ScSceneFnsIN5physx3Scb11RigidStaticEE6insertERNS0_2Sc5SceneERS2_
pN:__ZN15AudioReverbZone13SetFMODValuesEv
Rhd:__ZNK17SizeBySpeedModule12UpdateSingleERK22ParticleSystemParticlebR8Vector3f
E4:__ZL19StaticDestroyShaderPv
Re:_glRenderbufferStorageMultisample
EJc:__ZN8Playable4PlayEv
m9j:_DefaultCertificatePolicy_CheckValidationResult_m3811448269
p2k:_SyncHashtable_Clone_m3726939774
_C:__ZN23AnimationPlayableOutput17SetTargetAnimatorEP8Animator
F4b:__ZN22MotionVectorRenderLoopD2Ev
Fim:_Array_Resize_TisSpriteData_t3048397587_m3443564244_gshared
TYd:__ZN5physx2Gu20sweepCCTBoxTrianglesEjPKNS_10PxTriangleEbRKNS_13PxBoxGeometryERKNS_11PxTransformERKNS_6PxVec3EfRSA_SD_RfRjPKjfNS_7PxFlagsINS_9PxHitFlag4EnumEtEE
vXd:__ZN5physx2Gu15OBBTriangleTestC2ERKNS0_3BoxE
nCd:__ZNK6b2Body13ShouldCollideEPKS_
MXg:__ZL76AnimatorTransitionInfo_t2534804151_CustomAttributesCacheGenerator_m_FullPathP21CustomAttributesCache
pdd:__Z25EvaluateRandomGradientHDRIL12GradientMode0ELS0_0EEN4math8floatNx4ERK14MinMaxGradientRKNS1_7_float4ES8_
rYd:__ZN5physx2Gu21computeMTD_SphereMeshERNS_6PxVec3ERfRKNS0_6SphereERKNS_22PxTriangleMeshGeometryERKNS_11PxTransformE
WWj:_Array_InternalArray__ICollection_Add_TisClientCertificateType_t1004704908_m2622721177_gshared
JCd:__ZNK21b2FindNewContactsTask13GetRangeCountEv
CJ:__ZN17PackedFloatVector8TransferI18StreamedBinaryReadILb0EEEEvRT_
H2d:__ZN5physx2Sc10NPhaseCore15fetchFilterPairEPv
gid:__Z11StartCircleILN11ShapeModule14MultiModeValueE2EEvRS0_R23ParticleSystemParticlesRK19ParticleSystemStateRK27ParticleSystemEmissionStateRKN4math8float3x3ERKNSB_7affineXEjbj
ycf:__ZN5physx12SubSortQuick5sort4EPjjRNS_6shdfnd5ArrayINS_11RTreeNodeNQENS2_19ReflectionAllocatorIS4_EEEERjRNS_10PxBounds3VEj
STc:__Z37Register_UnityEngine_Screen_get_widthv
m9d:__ZN5physx6shdfnd5ArrayIPNS_2Sc8BodyCoreENS0_19ReflectionAllocatorIS4_EEE15growAndPushBackERKS4_
qyn:_Uri_get_Authority_m3816772302
epc:__ZN22BlockMemoryCacheWriter11GetPathNameEv
ljk:_BigInteger_op_Division_m3713793389
Hxj:_Touch_get_position_m3109777936
oVe:__ZN5physx16PxsBroadPhaseMBPC2ERNS_19PxcScratchAllocatorERNS_2Cm13EventProfilerERKNS_11PxSceneDescEPNS_14PxsAABBManagerE
QLh:_ParameterInfo__ctor_m3269320476
dMd:__ZN14PhysicsManager23VirtualRedirectTransferER14SafeBinaryRead
Mfk:_X509SubjectKeyIdentifierExtension_FromHexChars_m3244835916
amj:_Shader_PropertyToID_m1030499873
ltm:_UInt64_System_IConvertible_ToInt32_m949522652_AdjustorThunk
Ezn:_TMP_UpdateManager_InternalRegisterTextElementForLayoutRebuild_m3250317959
_cn:_PKCS12_MAC_m3355614022
tie:__ZN5physx7NpActor14onActorReleaseEPNS_7PxActorE
K$d:__ZN5physx3Cct26CharacterControllerManager19computeInteractionsEfPNS_26PxControllerFilterCallbackE
Eq:stackAlloc
E7d:__ZN5physx6shdfnd8PoolBaseINS_2Cm5BlockIhLj256EEENS0_19ReflectionAllocatorIS4_EEE12allocateSlabEv
Rjb:__ZN25SingleBlockMemoryFileData4LockEPPv
lom:_WaitHandle_WaitOne_m2577152516
$1o:_glProgramParameteri__wrapper
Auc:__Z32RectOffset_Get_Custom_PropBottomP12Il2CppObject
xhj:_Debug_LogError_m2850623458
hOn:__ZL24UnresolvedVirtualCall_79P12Il2CppObjectPK10MethodInfo
yic:__ZNSt3__26__treeINS_12__value_typeIN4core12basic_stringIcNS2_20StringStorageDefaultIcEEEE4PPtrI7TextureEEENS_19__map_value_compareIS6_SA_NS_4lessIS6_EELb1EEENS_9allocatorISA_EEE7destroyEPNS_11__tree_nodeISA_PvEE
Qri:__Z69RuntimeInvoker_UInt64_t4134040092_Int32_t2950945753_SByte_t1669577662PFvvEPK10MethodInfoPvPS4_
kRo:_stat
CDa:__ZN9ShaderLab10SubProgram7CompileEv
I$f:_TMP_MaterialManager_RemoveStencilMaterial_m3342642461
LGh:_PropertyBuilder_get_CanRead_m3783190070
Era:__ZN9Scripting11UnityEngine12Experimental9Playables21TexturePlayableOutput9InitProxyEv
cok:_CipherSuiteCollection_System_Collections_IList_get_Item_m2175128671
Pud:__ZN15b2DistanceJoint23InitVelocityConstraintsERK12b2SolverData
iAa:__ZN6CameraD2Ev
vYe:__ZN5physx2Gu21findUniqueConvexEdgesEjPNS0_10ConvexEdgeEjPKNS0_15HullPolygonDataEPKh
IRc:__Z50Register_UnityEngine_Camera_get_pixelRect_Injectedv
sBe:__ZN5physx20NpRigidActorTemplateINS_14PxRigidDynamicEED0Ev
ra:invoke_iiiiiiiiiiii
eal:_DateTime_System_IConvertible_ToType_m1242864300_AdjustorThunk
hTe:__ZN5physx43solveContactCoulombPreBlock_WriteBackStaticEPKNS_23PxcSolverConstraintDescEjRNS_16PxcSolverContextEPNS_25PxcThresholdStreamElementEjPi
C9h:_InternalEnumerator_1_get_Current_m2446410893_AdjustorThunk
eFa:__Z29CalculateDefaultChannelsToAdd17ShaderChannelMaskS_
VNk:_Array_Sort_m870838517
C7d:__ZN5physx2Sc5Scene23allocateConstraintBlockEj
ioi:__Z99RuntimeInvoker_RuntimeObject_RuntimeObject_RuntimeObject_StreamingContext_t3711869237_RuntimeObjectPFvvEPK10MethodInfoPvPS4_
zR:__ZN10AudioMixer12RebindOutputEv
OTh:_MethodCall_InitMethodProperty_m1333573177
Sqo:__ZNK15dense_hashtableINSt3__24pairIK10KeyWrapperIP11Il2CppClassES4_EES5_N6il2cpp8metadata16SZArrayClassHashEN14dense_hash_mapIS5_S4_SA_NS5_14EqualsComparerINS9_19SZArrayClassCompareEEENS0_9allocatorIS7_EEE9SelectKeyESE_SG_E5beginEv
rEj:_LayoutRebuilder_PerformLayoutControl_m4241054021
y3n:__ZN6il2cpp2vm17SetupFieldsLockedEP11Il2CppClassRKNS_2os12FastAutoLockE
ASh:_ContextAttribute_IsContextOK_m1726359618
Gxl:_Transform_1_BeginInvoke_m1585047156_gshared
UR:__ZN11AudioSourceD0Ev
rVb:__ZN18GlslGpuProgramGLES13SwitchProgramEj
TBm:_ReadOnlyCollection_1_System_Collections_IEnumerable_GetEnumerator_m481167797_gshared
S8d:__ZN5physx2Sc5Actor15onElementDetachERNS0_7ElementE
fZb:__ZN20ArchiveStorageReaderC2E10MemLabelId
yii:__Z132RuntimeInvoker_Int32_t2950945753_RuntimeObject_Int32_t2950945753_Int32_t2950945753_RuntimeObject_Int32_t2950945753_Int32_t2950945753PFvvEPK10MethodInfoPvPS4_
fld:__ZN27TrailModulePropertyBindings13SetFloatValueER14ParticleSystemif
zkb:__ZN16MemoryFileSystem4NameEv
yod:__Z20UpdateWholeSheet2TplIL27ParticleSystemCurveEvalMode2ELS0_0EEvfRK11MinMaxCurveS3_RK23ParticleSystemParticlesPf
eKi:__Z56RuntimeInvoker_Void_t1185182177_TMP_LineInfo_t1079631636PFvvEPK10MethodInfoPvPS4_
ioh:_SpriteFrame_ToString_m2349957375_AdjustorThunk
cgd:__Z22UpdateOrbitalOffsetTplIL27ParticleSystemCurveEvalMode2ELS0_4EEvRK11MinMaxCurveS3_S3_S3_S3_S3_S3_R23ParticleSystemParticlesjjRKN4math8float3x3ERKNS6_7affineXERKNS6_7_float4E
mDf:__Z37Canvas_Set_Custom_PropOverrideSortingP12Il2CppObjecth
mzi:__Z44RuntimeInvoker_RuntimeObject_Ray_t3785851493PFvvEPK10MethodInfoPvPS4_
uPc:__Z13SetCopyBufferRKN4core12basic_stringIcNS_20StringStorageDefaultIcEEEE
nMn:_Vector4_op_Implicit_m1158564884
DVd:__ZN5physx3Cct13BoxController13setHalfHeightEf
yKe:__ZN5physx3Scb13ObjectTracker5clearEv
_Jk:_X509CertificateEnumerator_System_Collections_IEnumerator_get_Current_m418791713
Xmf:_UNITY_FT_New_Size
dtc:__Z42ScriptingGetComponentsOfTypeFromGameObjectRK26ScriptingGetComponentsArgs
M1:__ZN19CloudServiceHandler11FlushEventsEv
Wdd:__Z9UpdateTplIL27ParticleSystemCurveEvalMode4EEvRK11MinMaxCurveS3_S3_R23ParticleSystemParticlesjjRKN4math8float3x3ERKNS6_7_float4E
dvl:_ShimEnumerator_get_Entry_m4089930382_gshared
RWd:__ZL23GeomMTDCallback_BoxMeshRN5physx6PxVec3ERfRKNS_10PxGeometryERKNS_11PxTransformES5_S8_
rPg:__ZL73ArgumentCache_t2187958399_CustomAttributesCacheGenerator_m_ObjectArgumentP21CustomAttributesCache
LXg:__ZL65AnimatorTransitionInfo_t2534804151_CustomAttributesCacheGeneratorP21CustomAttributesCache
FYk:_Array_swap_TisRaycastResult_t3360306849_TisRaycastResult_t3360306849_m3400922624_gshared
XKd:__ZN9Scripting11UnityEngine21ControllerColliderHit9InitProxyEv
Maj:_CspParameters__ctor_m2741097571
rld:__ZN35ClampVelocityModulePropertyBindings13SetFloatValueER14ParticleSystemif
lre:__ZNK5physx7NpCloth22getNbCollisionCapsulesEv
DQa:__ZNSt3__27__sort4IRPFbRKNS_4pairIN9ShaderLab16FastPropertyNameEN18UnityPropertySheet11UnityTexEnvEEES8_EPS6_EEjT0_SD_SD_SD_T_
Upf:_cf2_hintmap_build
nxj:_Texture_get_width_m888163864
Rsc:__Z11StringToIntRKN4core16basic_string_refIcEE
Ryf:_Line_Up
AIl:_Dictionary_2_GetEnumerator_m1728442251_gshared
CDf:__Z44Canvas_CUSTOM_GetETC1SupportedCanvasMaterialv
LSl:_List_1_CheckIndex_m3070453556_gshared
Ye:_emscripten_glBufferSubData
hce:__ZN5physx6shdfnd5ArrayIPvNS0_15InlineAllocatorILj256ENS0_19ReflectionAllocatorINS_7NpShapeEEEEEE15growAndPushBackERKS2_
fKa:__ZN11HaloManager10UpdateHaloEiR9Transform11ColorRGBA32fjP6Object
Uka:__ZN6prcoreL12RemapGenericI15TexFormatRGB88817TexFormatARGB8888EEvPKNS_9InnerInfoE
yr:__Z17CalculateGlobalRS23TransformAccessReadOnly
Vzf:__Z56Register_UnityEngine_TextGenerator_GetCharactersInternalv
OLo:__ZNSt3__210__list_impIPN6il2cpp5utils10MemoryPool6RegionENS_9allocatorIS5_EEE5clearEv
uqj:_Object_ToString_m3272709752
vJl:_LinkedList_1_OnDeserialization_m3201462664_gshared
BKb:__ZNK25PathNamePersistentManager24PathIDToPathNameInternalEi
L8h:_InternalEnumerator_1_get_Current_m1523142935_gshared
M5:__ZN33InstancedMeshIntermediateRenderer13StaticDestroyEPv
Uce:__ZNK5physx14NpArticulation22computeImpulseResponseEPNS_18PxArticulationLinkERNS_6PxVec3ES4_RKNS_24PxArticulationDriveCacheERKS3_S9_
h4d:__ZN5physx2Sc19ContactReportBuffer23reallocateNotThreadSafeEjRjjj
ugb:__ZNK12HandlerChain7ToLocalERK13FileEntryDataRN4core12basic_stringIcNS3_20StringStorageDefaultIcEEEERyS9_
Hmh:_FloatTweenCallback__ctor_m4067214846
kSo:_puts
O6d:__ZN5physx2Sc5Actor19registerInteractionEPNS0_11InteractionE
fri:__Z74RuntimeInvoker_DateTime_t3738529785_DateTime_t3738529785_Int32_t2950945753PFvvEPK10MethodInfoPvPS4_
odb:__ZN22MemoryCacherReadBlocks14LockCacheBlockEjPPhS1_
Cmo:__ZN6il2cpp2vm14TypeNameParser17ParseAssemblyNameEv
N0a:__ZNK9GfxDevice26GetSinglePassStereoEyeMaskEv
apm:_TimeSpan_FromHours_m1109641064
Lhj:_DebugLogHandler_Internal_Log_m4175774469
i2g:__ZL54EventSystem_t1003666588_CustomAttributesCacheGeneratorP21CustomAttributesCache
CFo:__ZN4utf88internal15increase_safelyIPKcEENS0_9utf_errorERT_S5_
HHg:__ZL66StaticAccessorAttribute_t2432663902_CustomAttributesCacheGeneratorP21CustomAttributesCache
gSk:_CharEnumerator_get_Current_m525608209
cjf:__ZN13PhysicsModule19CreateNxHeightFieldEPv
eJl:_Enumerator_Dispose_m2375640141_AdjustorThunk
CWf:__Z21ArrayElementTypeCheckP11Il2CppArrayPv
d1o:_emscripten_glTexSubImage2D__wrapper
mZa:__ZN18StreamedBinaryReadILb0EE21TransferSTLStyleArrayI13dynamic_arrayI33EnlightenTerrainChunksInformationLj0EEEEvRT_17TransferMetaFlags
gqg:__ZL69DebuggerBrowsableAttribute_t1026244177_CustomAttributesCacheGeneratorP21CustomAttributesCache
rna:__ZL48__ManagedRegistrationHelperFunction_LightmapDataPv
cTo:__ZNSt3__212basic_stringIcNS_11char_traitsIcEENS_9allocatorIcEEE6appendEjc
LHb:__Z13TransferFieldI18StreamedBinaryReadILb0EELb0E16Converter_StringEvRK23StaticTransferFieldInfoR31RuntimeSerializationCommandInfoRT1_
rUc:__Z27Random_Get_Custom_PropValuev
hub:__Z14resize_trimmedINSt3__26vectorI8MonoPPtr13stl_allocatorIS2_L18MemLabelIdentifier1ELi16EEEEEvRT_j
Gf:_TTF_RenderText_Solid
tnh:_MaterialReference__ctor_m707623603_AdjustorThunk
Cfd:__Z25UpdateOrbitalAndRadialTplIL27ParticleSystemCurveEvalMode1ELS0_4ELS0_3EEvRK11MinMaxCurveS3_S3_S3_S3_S3_S3_R23ParticleSystemParticlesjjRKN4math8float3x3ERKNS6_7affineXERKNS6_7_float4E
_Ul:_List_1__ctor_m3947764094_gshared
OJd:__Z56Register_UnityEngine_Physics2D_Raycast_Internal_Injectedv
pBl:_Enumerator_get_Current_m1781571415_gshared
fxn:_Parser_IsIgnorePatternWhitespace_m2107132682
fIf:__ZN14UnityAnalytics15Internal_CreateE18ScriptingObjectPtr
K9j:_HttpRequestCreator_Create_m400548686
tOf:__ZN11UnityEngine7Connect16PersistentValuesC2Ev
cKm:_ReadOnlyCollection_1_System_Collections_IList_Insert_m134149130_gshared
Q_c:__Z18Transfer_BlittableI9JSONWriteLb0E5RectTIiEEvRK29SerializationCommandArgumentsR31RuntimeSerializationCommandInfo
Nil:_BigInteger_get_Rng_m4216817480
xPj:_Array_InternalArray__ICollection_Remove_TisDateTime_t3738529785_m2250893026_gshared
m_f:_TMP_InputField_FindtNextWordBegin_m2277747684
fPb:__Z15IsIEEE754Format14GraphicsFormat
MMf:__ZN22BaseUnityConnectClient17RestoreValuesFileEv
Rxb:__Z19TransferField_ArrayI17RemapPPtrTransfer27Converter_UnityEngineObjectEvRK23StaticTransferFieldInfoR31RuntimeSerializationCommandInfoRT0_
RVk:_KeyNotFoundException__ctor_m541499307
pFe:__ZNK5physx2Sc7BodySim13isConnectedToERKNS0_8RigidSimERb
xRj:_SetPropertyUtility_SetStruct_TisSpriteState_t1362986479_m665096788_gshared
Tii:__Z61RuntimeInvoker_Single_t1397266774_RuntimeObject_RuntimeObjectPFvvEPK10MethodInfoPvPS4_
DPj:_Array_InternalArray__ICollection_Remove_TisIntPtr_t_m3807208150_gshared
bMd:__ZN14PhysicsManager23VirtualRedirectTransferER17RemapPPtrTransfer
c3h:_InternalEnumerator_1_get_Current_m2316281569_AdjustorThunk
o5k:_DateTime__ctor_m1095105629
wQb:__ZN13GfxDeviceGLES15UploadTexture2DE9TextureID16TextureDimensionPKhiii14GraphicsFormati18TextureUploadFlags16TextureUsageMode
wB:__ZN7mecanim9animation25CreateControllerWorkspaceEPKNS0_18ControllerConstantERNS_6memory9AllocatorE
v9m:_RIPEMD160Managed_II_m1560285116
KAn:_Event_Cleanup_m2477919477
qQ:__ZN4FMOD6System9createDSPEP20FMOD_DSP_DESCRIPTIONPPNS_3DSPE
Vzg:__ZL87Thread_t2300836069_CustomAttributesCacheGenerator_Thread_GetCompressedStack_m2923422412P21CustomAttributesCache
ntk:_SslClientStream_get_ClientCertificates_m998716871
wC:__ZN7mecanim9animation26DestroyControllerWorkspaceEPNS0_19ControllerWorkspaceERNS_6memory9AllocatorE
AO:__ZN4FMOD8ChannelI11EndCallbackEv
iXc:__ZN8GUIStyle14SetDefaultFontEPN13TextRendering4FontE
s7c:__ZN11ForceModule8TransferI24GenerateTypeTreeTransferEEvRT_
gek:_X509Chain_GetAuthorityKeyIdentifier_m2237883181
oWa:__ZN15QualitySettings23VirtualRedirectTransferER24GenerateTypeTreeTransfer
rfi:_Enumerator_get_CurrentValue_m3786270648_AdjustorThunk
f7i:_ObjectReader_ReadValue_m3145979203
SL:__ZN9Scripting11UnityEngine24AssetBundleCreateRequest9InitProxyEv
hZe:__ZN5physx2Gu32PCMConvexVsMeshContactGeneration35generateTriangleFullContactManifoldERNS0_9TriangleVEjPKjhRKNS0_13PolygonalDataEPNS0_16SupportLocalImplIS2_EEPNS0_12SupportLocalEPNS0_21MeshPersistentContactERjRKNS_6shdfnd3aos6FloatVERNSI_5Vec3VE
Ivn:_AnchorInfo__ctor_m3523994803
UQc:__Z59Register_UnityEngine_MonoBehaviour_Internal_CancelInvokeAllv
f7g:__ZL68Scrollbar_t1494447233_CustomAttributesCacheGenerator_m_NumberOfStepsP21CustomAttributesCache
I6n:__ZN30dense_hashtable_const_iteratorINSt3__24pairIK10KeyWrapperIPK19Il2CppGenericMethodEPK26Il2CppGenericMethodIndicesEES6_N6il2cpp8metadata23Il2CppGenericMethodHashEN14dense_hash_mapIS6_SA_SE_NS6_14EqualsComparerINSD_26Il2CppGenericMethodCompareEEENS0_9allocatorISB_EEE9SelectKeyESI_SK_EppEv
ZOe:__ZNK16OBBAABBTest_SIMDclERKN5physx2Sq9BucketBoxE
_fg:_U3CU3Ec__Iterator1_MoveNext_m1707411510
zmf:_UNITY_FT_Request_Metrics
qvo:__ZN6il2cpp6icalls8mscorlib6System10Reflection10MonoMethod29get_IsGenericMethodDefinitionEP22Il2CppReflectionMethod
Xpo:__ZN6il2cpp2vm6Thread21AllocThreadStaticDataEi
suo:__ZN6il2cpp2vm13LivenessState5ResetEv
yQc:__Z50Register_UnityEngine_Quaternion_AngleAxis_Injectedv
kGa:__ZL12CopyChannelsj17ShaderChannelMaskRA4_K10StreamInfoRA12_K11ChannelInfoPKhS3_S7_Ph
WZi:_Default_SelectMethod_m469311730
alj:_Input_get_mousePosition_m1616496925
KEo:__ZN30dense_hashtable_const_iteratorINSt3__24pairIK10KeyWrapperIPK19Il2CppGenericMethodEP10MethodInfoEES6_N6il2cpp8metadata23Il2CppGenericMethodHashEN14dense_hash_mapIS6_S9_SD_NS6_14EqualsComparerINSC_26Il2CppGenericMethodCompareEEENS0_9allocatorISA_EEE9SelectKeyESH_SJ_EppEv
Wsm:_UInt32_ToString_m2066897296_AdjustorThunk
hFn:_UnityWebRequest_InternalSetCustomMethod_m3670745235
Vdb:__ZN24GenerateTypeTreeTransfer19TransferSTLStyleMapINSt3__23mapI4PPtrI6ShaderEN4core12basic_stringIcNS6_20StringStorageDefaultIcEEEENS1_4lessIS5_EENS1_9allocatorINS1_4pairIKS5_SA_EEEEEEEEvRT_17TransferMetaFlags
jCd:__ZN26b2ClearBodyIslandFlagsTask7ExecuteEv
gWk:_Enumerator_Reset_m4274366540
n_c:__Z18Transfer_BlittableI9JSONWriteLb0E8Vector3fEvRK29SerializationCommandArgumentsR31RuntimeSerializationCommandInfo
Eg:_emscripten_glUniform4i
Gqd:__ZNSt3__227__insertion_sort_incompleteIRN10vector_mapIi22ParticleModulePropertyNS_4lessIiEENS_9allocatorINS_4pairIiS2_EEEEE13value_compareEPS7_EEbT0_SD_T_
Lsf:_otv_FeatureList_validate
Gpj:_PlayerConnection_RegisterDisconnection_m2618599213
Uld:__ZN22ParticleSystemRenderer5ResetEv
m_d:__ZN16RayRTreeCallbackILi0ELb1EED2Ev
Rf:_emscripten_glUniform4f
gab:__ZN6Object22CheckInstanceIDsLoadedEPii
ahg:_JSONNull_WriteToStringBuilder_m2117353779
mk:___unlock
zmj:_Material_GetFloat_m2836278142
Trf:_otv_validate
kfc:__ZN13sorted_vectorINSt3__24pairIN4core12basic_stringIcNS2_20StringStorageDefaultIcEEEES6_EEN10vector_mapIS6_S6_27compare_tstring_insensitiveIS6_E13stl_allocatorIS7_L18MemLabelIdentifier38ELi16EEE13value_compareESD_E9erase_oneIS6_EEjRKT_
fEj:_U3CDelayedSetDirtyU3Ec__Iterator0_Reset_m160466733
t$j:_X509Certificate_Equals_m3784196370
vYm:_List_1__ctor_m3376067838_gshared
lil:_SimpleCollator_QuickIndexOf_m2519071357
DS:__ZN20SoundChannelInstance19setReverbPropertiesEP29FMOD_REVERB_CHANNELPROPERTIES
T2f:_TMP_Text_get_isUsingBold_m2634188658
f$j:_X509Certificate_Equals_m861530042
hZj:_SHA1Internal_ProcessFinalBlock_m1403775421
YZm:_Queue_1_System_Collections_ICollection_CopyTo_m3452613063_gshared
QSf:__ZN9Scripting11UnityEngine5Video11VideoPlayer12CleanupProxyEv
n0l:_Dictionary_2_pick_value_m3046842943_gshared
tyc:__Z40Register_UnityEngine_Transform_IsChildOfv
l$d:__ZN5physx3Cct17CapsuleController15setClimbingModeENS_21PxCapsuleClimbingMode4EnumE
_Qe:__ZN5physx6shdfnd9atomicAddEPVii
Ebi:_InternalEnumerator_1_get_Current_m2356858238_AdjustorThunk
Uvc:__Z45Register_UnityEngine_Display_GetSystemExtImplv
qz:__ZN7mecanim14ValueArrayLoopILb1EEEvRKNS_10ValueArrayES3_RKNS_14ValueArrayMaskERS1_f
Wml:_RSAManaged_ImportParameters_m1844641996
ILe:__ZN5physx6shdfnd5ArrayINS_3Scb13MaterialEventENS0_19ReflectionAllocatorIS3_EEE6resizeEjRKS3_
zol:_Enumerator_System_Collections_IDictionaryEnumerator_get_Value_m3325938730_AdjustorThunk
gz:__ZN7mecanim9animation23TransformValuesFromClipEiiiRKNS_10ValueArrayERKNS0_10ClipOutputERKNS0_12ClipBindingsERS1_RNS_14ValueArrayMaskEb
Pod:__Z19UpdateSingleRow2TplIL27ParticleSystemCurveEvalMode4ELS0_4EEvfRK11MinMaxCurveS3_RK23ParticleSystemParticlesPfbiii
XWe:__ZNK5physx14SingleAABBTask25updateNumFastMovingShapesEv
YFl:_Dictionary_2_ContainsKeyValuePair_m946052134_gshared
dZk:_Dictionary_2_Do_CopyTo_TisChar_t3634460470_TisRuntimeObject_m2750283517_gshared
ODl:_ValueCollection_System_Collections_ICollection_get_SyncRoot_m2738303336_gshared
Kzf:__Z45Register_UnityEngine_Font_Internal_CreateFontv
YJd:__GLOBAL__sub_I_Runtime_Dynamics_0_cpp
CEl:_ValueCollection_System_Collections_ICollection_get_SyncRoot_m1114275063_gshared
Syk:_Guid_Equals_m1866984197
YLb:__Z11StringToKeyRKN4core12basic_stringIcNS_20StringStorageDefaultIcEEEE
Tbf:__ZN5physx17ConvexMeshBuilder16computeGaussMapsEv
JYi:_PlatformNotSupportedException__ctor_m1787918017
Jfa:__ZN13RuntimeStaticI15DirectorManagerLb0EE16StaticInitializeEPv
Ixn:_Uri_HexEscape_m1589417657
cHm:_ReadOnlyCollection_1_System_Collections_ICollection_CopyTo_m2643246984_gshared
M5a:__ZN11TimeManager6UpdateEv
wNb:__ZN6Shader18LoadDefaultShadersEv
Xce:__ZNK5physx2Sc16ArticulationCore22computeImpulseResponseERNS0_8BodyCoreERNS_6PxVec3ES5_RKNS_9PxcFsDataERKS4_SA_
y_e:__ZN5physx21PxsBodyTransformVaultC2Ev
Fyh:_CanvasScaler_get_fallbackScreenDPI_m2811935689
mt:__ZNK16ParentConstraint18GetTranslationAxisEv
sYe:__ZL6IsInYZffPPK10VertexInfo
Ncf:__ZN5physx19TriangleMeshBuilderD0Ev
rRo:_fflush
Cbb:__ZN17LightProbeContext4InitERK16LightmapSettingsRK14RenderSettings
_vj:_SceneManager_Internal_ActiveSceneChanged_m3676176255
Iel:_Double_System_IConvertible_ToInt16_m3591921965
X$a:__ZN9Texture3DD2Ev
Fld:__Z35ParticleSystemRenderer_RenderMeshesIL21SpriteMaskInteraction2EEvRK15RenderNodeQueuej16VertexInputMasksi
w$f:_TMP_MaterialManager__cctor_m4114053909
E4k:_Convert_ToChar_m2796006345
Ifm:_Array_InternalArray__Insert_TisContentType_t1787303396_m3566390691_gshared
kpe:__ZN5physx2CmlsERNS0_12RenderOutputERKNS0_10DebugArrowE
Cdd:__Z18MagnitudeUpdateTplIL27ParticleSystemCurveEvalMode2EEvRK11MinMaxCurveR23ParticleSystemParticlesjjRKN4math7_float4E
wTk:_ArrayListWrapper_GetEnumerator_m2336495952
Jac:__Z34ProcessIndexListIsNodeVisibleStep2RK22SceneCullingParametersPK9SceneNodePK4AABBR9IndexList
tIb:__ZN10MonoScriptD2Ev
jqa:__ZN9Scripting11UnityEngine10Networking16PlayerConnection16PlayerConnection12CleanupProxyEv
$Xb:__ZN19ConstantBuffersGLES8UpdateCBE5CbKeyPKvj
rzc:__Z39Input_CUSTOM_INTERNAL_get_mousePositionP8Vector3f
A7i:_SerializationCallbacks_GetMethodsByAttribute_m2095490433
xuf:_tt_cmap13_char_next
n2g:__ZL117EventSystem_t1003666588_CustomAttributesCacheGenerator_EventSystem_t1003666588____lastSelectedGameObject_PropertyInfoP21CustomAttributesCache
R_b:__ZN9ShaderLab4Pass16SetupPassOptionsEv
Uh:_JS_Sound_ReleaseInstance
vpo:_il2cpp_type_equals
uyk:_Guid_CheckArray_m921056615
ZQh:_ConfigHandler_ReadLifetine_m208994800
Lpi:__Z96RuntimeInvoker_IntPtr_t_SByte_t1669577662_SByte_t1669577662_RuntimeObject_BooleanU26_t4125257963PFvvEPK10MethodInfoPvPS4_
w5e:__ZN5physx16PxsCCDBlockArrayINS_13PxsCCDOverlapELi128EE8pushBackEv
Pro:__ZN6il2cpp6icalls8mscorlib6System7Runtime15InteropServices7Marshal19copy_from_unmanagedEiiP11Il2CppArrayi
_4c:__ZL25CalculateCurveRangesValueRKN4math7_float2ERK17AnimationCurveTplIfE
Uwc:__Z21Resources_CUSTOM_LoadP12Il2CppStringP12Il2CppObject
wn:FUNCTION_TABLE_diddi
mto:__ZN6il2cpp6icalls8mscorlib6System5Array8FastCopyEP11Il2CppArrayiS5_ii
u9e:__ZN5physx2Gu12TriangleMesh7releaseEv
Puc:__Z42Register_UnityEngine_RectOffset_get_bottomv
sQm:_Nullable_1_Equals_m179237491_gshared
aOe:__ZN5physx14PxsAABBManagerD2Ev
Yvb:__ZN9BoundsInt8TransferI14SafeBinaryReadEEvRT_
W3b:__Z20DoDeferredRenderLoopRK17RenderLoopContextR13dynamic_arrayI16RenderObjectDataLj0EES5_RK11CullResultsRP13RenderTextureSB_Pb
Z_o:_emscripten_glUniform1f__wrapper
hVo:dynCall_di
wij:_BaseInvokableCall_AllowInvoke_m878393606
MNe:__ZN5physx16PxsIslandManagerD2Ev
acg:_JSONNull_CreateOrGet_m2870123563
Dvi:__Z77RuntimeInvoker_Quaternion_t2301928331_Vector3_t3722313464_Vector3_t3722313464PFvvEPK10MethodInfoPvPS4_
XZc:__Z28RegisterModule_JSONSerializev
SJf:__ZThn1168_N18UnityConnectClientD1Ev
pTe:__ZN5physx21solveFriction_BStaticERKNS_23PxcSolverConstraintDescERNS_16PxcSolverContextE
peb:__ZN2UI13RectTransform8TransferI14SafeBinaryReadEEvRT_
g$c:__Z35Transfer_Blittable_FixedBufferFieldI9JSONWriteaEvRK29SerializationCommandArgumentsR31RuntimeSerializationCommandInfo
okd:__ZN34ColorBySpeedModulePropertyBindings13GetFloatValueERK14ParticleSystemi
Lej:_Behaviour_get_enabled_m753527255
twc:__Z20IsHumanControllingUsv
Jqg:__ZL51TextInfo_t3810425522_CustomAttributesCacheGeneratorP21CustomAttributesCache
Msc:__ZN10systeminfo21GetPersistentDataPathEv
RJf:__ZThn1168_N18UnityConnectClient18OnAdsIdRequestDoneERKN4core12basic_stringIcNS0_20StringStorageDefaultIcEEEEbS6_
VPb:__ZN13GfxDeviceGLES17DestroyGpuProgramEPK10GpuProgram
chm:_Array_InternalArray__set_Item_TisRaycastResult_t3360306849_m730888808_gshared
rsb:__Z44InitializeTransferFunctionScriptingTraitsForI18StreamedBinaryReadILb0EEEvR31TransferFunctionScriptingTraits
o6b:__ZNSt3__218__insertion_sort_3IR23CompareReflectionProbesP31RuntimeReflectionProbeBlendInfoEEvT0_S5_T_
$xb:__ZN12NativeBufferI27Converter_SimpleNativeClassI8GradientEE15SetupForWritingER9ArrayInfo
tjl:_Kernel_RightShift_m2207393597
Dia:__ZNSt3__213__stable_sortIRNS_4lessIN4core12basic_stringIcNS2_20StringStorageDefaultIcEEEEEENS_11__wrap_iterIPS6_EEEEvT0_SC_T_NS_15iterator_traitsISC_E15difference_typeEPNSF_10value_typeEi
dah:__ZL48Shadow_t773074319_CustomAttributesCacheGeneratorP21CustomAttributesCache
H4:__ZN12_GLOBAL__N_113StaticDestroyEPv
DWc:__ZNK8GUIStyle4DrawER8GUIStateRK5RectTIfER10GUIContentbbbb
J1o:_glTexParameteriv__wrapper
yKk:_SmallXmlParser_Read_m3485223434
d4o:_glUnmapBuffer__wrapper
hBn:_GUISkin_MakeCurrent_m3239192349
P2c:__ZN8JSONRead21TransferSTLStyleArrayINSt3__26vectorI8Gradient13stl_allocatorIS3_L18MemLabelIdentifier1ELi16EEEEEEvRT_17TransferMetaFlags
N7a:__ZNSt3__218__insertion_sort_3IRNS_6__lessINS_4pairIPKN5Unity4TypeE7Hash128EES8_EEPS8_EEvT0_SC_T_
qAj:_InputField_set_onValueChanged_m3658917578
Hpd:__Z9UpdateTplIL22MinMaxGradientEvalMode0EL12GradientMode0ELS1_1EEvRK23ParticleSystemParticlesP11ColorRGBA32RK14MinMaxGradientRK23OptimizedMinMaxGradientRK8Vector2f
Jzb:__ZN10RectOffset8TransferI24GenerateTypeTreeTransferEEvRT_
bDk:_BinaryReader__ctor_m2266204403
Yra:__ZN9Scripting11UnityEngine6Events14UnityEventBase9InitProxyEv
hJd:__ZNK10Collider2D15GetAttachedBodyEv
yLl:_Enumerator_VerifyState_m3047769867_AdjustorThunk
Vyb:__Z18Transfer_BlittableI24GenerateTypeTreeTransferLb1E5RectTIiEEvRK29SerializationCommandArgumentsR31RuntimeSerializationCommandInfo
ftn:_Enumerator_System_Collections_IEnumerator_Reset_m24787251
_Bf:__ZN2UI13CanvasManager19RemoveDirtyRendererEPNS_6CanvasEPNS_14CanvasRendererE
Boe:__ZN5physx7NpShape18setQueryFilterDataERKNS_12PxFilterDataE
WPo:_isspace
n5i:_BinaryFormatter__ctor_m2620705134
ead:__ZN14MinMaxGradient5ResetE26ParticleSystemGradientMode
eje:__ZN5physx2Sc8ShapeSim18onRestOffsetChangeEv
j0e:__ZN5physx20PxcNpCacheStreamPair5resetEv
dBc:__ZZL31RegisterRectTransformPropertiesR22GenericPropertyBindingEN39Wrapper_RectTransformAnchoredPositiony113SetFloatValueEPvf
T1:__ZN11UnityEngine15CloudWebService17WebFileDownloaderINS0_20WebRequestRestClientENS0_23WebRequestRestHeaderMapEED2Ev
rc:invoke_vi
UN:__ZN12AudioManager8InitFMODE15FMOD_OUTPUTTYPE
tEd:__ZNSt3__26vectorINS0_IN10ClipperLib8IntPointENS_9allocatorIS2_EEEENS3_IS5_EEE7reserveEj
V4c:__ZN14ParticleSystem17RemoveFromManagerEv
hbd:__ZNK14RotationModule16UpdateProceduralERK19ParticleSystemStateR23ParticleSystemParticlesRKN4math7_float4E
pc:invoke_vd
EAa:__ZNK6Camera19GetStereoViewMatrixE15StereoscopicEye
Vsn:_Regex_get_RightToLeft_m2317867572
uca:__ZNK10GameObject8IsActiveEv
JTc:__Z34Component_Get_Custom_PropTransformP12Il2CppObject
S9c:__ZN21InheritVelocityModule5ResetEv
Igj:_Color32_ToString_m403383053
iVb:__ZN18GfxFramebufferGLES23SetupDefaultFramebufferEPP17RenderSurfaceBaseS2_N2gl6HandleILNS3_10ObjectTypeE9EEE
OAd:__ZN22b2IslandDiscreteSolverC2EiiiPP6b2BodyPP9b2ContactPP7b2JointP10b2VelocityP10b2PositionRK10b2TimeStepR7b2World
z8d:__ZN5physx2Sq16computeWorldAABBERKNS_3Scb5ShapeERKNS1_5ActorE
sBh:_DefaultControls_CreateDropdown_m3286664171
R$a:__ZN13ScreenManager18RequestOrientationE17ScreenOrientation
A_f:_TMP_InputField_SendOnFocusLost_m19485086
X3n:__ZN6il2cpp2vm5Class12SetupMethodsEP11Il2CppClass
FWe:__ZN5physx14PxsAABBManager31updateAggregateBPOverlapRecordsEv
MNc:__Z39DeleteLastPathNameComponentWithAnySlashRKN4core12basic_stringIcNS_20StringStorageDefaultIcEEEE
SXc:__ZN10GUIManager14InitGUIManagerEv
Krm:_UInt16_Equals_m642257745
NQj:_SetPropertyUtility_SetStruct_TisChar_t3634460470_m1103802132_gshared
EMk:_Array_System_Collections_IList_IndexOf_m3301661616
xZi:_AssemblyFileVersionAttribute__ctor_m3720707642
jOh:_RuntimeResourceSet_CloneDisposableObjectIfPossible_m2725520898
Awc:__Z18GetApplicationInfov
lNo:__ZN6il2cpp5utils9Exception26FormatInvalidCastExceptionEPK11Il2CppClassS4_
mXc:__Z37Register_UnityEngine_GUIStyle_Cleanupv
Ya:invoke_iiifii
r1o:b113
TRc:__Z26Mesh_CUSTOM_SetIndicesImplP12Il2CppObjecti16GfxPrimitiveTypeP11Il2CppArrayihi
iLj:_SliderEvent__ctor_m3149452941
IJk:_DeriveBytes__cctor_m1212925033
pqm:_Type_IsAssignableFrom_m3195021585
$Dh:_Graphic_OnDisable_m1097930217
$do:__ZN6il2cpp6icalls8mscorlib6System8MonoType13IsPointerImplEP20Il2CppReflectionType
Fj:_emscripten_glFramebufferRenderbuffer
k9b:__ZN19CullingGroupManager17CullAndSendEventsERK22SceneCullingParametersiRK13CullingOutputRK8JobFence
yAf:__ZNK19TextRenderingModule8TMGenGetERK11UTF16StringPN13TextRendering4FontE10TextAnchorN5Unity13TextAlignmentEfffbb11ColorRGBA32fiii
Xya:__ZN9Transform30EnsureTransformHierarchyExistsEv
Fpm:_Type_FilterName_impl_m2651733559
qLe:__ZN5physx2Sc14ConstraintCore15getPxConstraintEv
WMd:__ZNK8Collider12GetRigidbodyEv
qPi:__Z68RuntimeInvoker_Int32_t2950945753_Int32_t2950945753_Int64_t3736567304PFvvEPK10MethodInfoPvPS4_
pp:FUNCTION_TABLE_viiiiiiii
Mwc:__Z46Register_UnityEngine_Application_get_isPlayingv
rh:___cxa_find_matching_catch_4
YOc:__ZN13MonoBehaviour13StopCoroutineEPKc
Yec:__ZNSt3__26vectorINS_4pairIN4core12basic_stringIcNS2_20StringStorageDefaultIcEEEEPK17MessageIdentifierEENS_9allocatorISA_EEE12__move_rangeEPSA_SE_SE_
fmd:__ZThn32_N22ParticleSystemRendererD1Ev
c2b:__ZN14qsort_internal17MedianOfThreeSwapIP17RODataReplacement19ROSorterReplacementEEvT_S4_S4_T0_
y3j:_String_Split_m3646115398
_9c:__ZN15CollisionModule5ResetEv
r1f:_TMP_SpriteAnimator__ctor_m889713553
N2n:__ZNK15dense_hashtableINSt3__24pairIK10KeyWrapperIPK22Il2CppGenericParameterEP11Il2CppClassEES6_N6il2cpp5utils11PointerHashIS4_EEN14dense_hash_mapIS6_S9_SE_NS6_14EqualsComparerINS0_8equal_toIS5_EEEENS0_9allocatorISA_EEE9SelectKeyESJ_SL_E3endEv
Xzb:__Z29Transfer_Blittable_ArrayFieldI24GenerateTypeTreeTransfer11ColorRGBA32EvRT_R9ArrayInfoRK23StaticTransferFieldInfo
_hb:__ZN17ArchiveFileSystem10ToAbsoluteEPKc
OHc:__Z13RegisterClassI11PreloadDataEvPKc
h0n:_BoxCollider_set_center_m1086194996
iQj:_Array_InternalArray__ICollection_Remove_TisTMP_WordInfo_t3331066303_m2995748367_gshared
zRc:__Z35Camera_CUSTOM_RaycastTry2D_InjectedP12Il2CppObjectRK3Rayfi
TLf:__ZN19UnityConnectService15GetPlayerUserIdEv
x$l:_Dictionary_2_ContainsKey_m2382293057_gshared
qVj:_Array_InternalArray__IndexOf_TisSByte_t1669577662_m4156538463_gshared
iAn:_TMPro_EventManager_ON_TEXT_CHANGED_m2697522843
mE:__ZN7mecanim6CRCKeyENS_7eStringE
bck:_X509EnhancedKeyUsageExtension_Decode_m3726500073
Wuc:__ZL12SetPrefValueRKN4core12basic_stringIcNS_20StringStorageDefaultIcEEEERK9PrefValue
A0a:__ZN19ShaderPropertySheet20ReservePropertyCountEj
iFo:__ZN6il2cpp5utils11StringUtils6PrintfEPKcz
gro:__ZNSt3__26vectorIN6il2cpp8metadata18GenericArrayMethodENS_9allocatorIS3_EEE7reserveEj
MQa:__ZN15NameToObjectMapI6ShaderNSt3__23mapI4PPtrIS0_EN4core12basic_stringIcNS5_20StringStorageDefaultIcEEEENS1_4lessIS4_EENS1_9allocatorINS1_4pairIKS4_S9_EEEEEENS1_8multimapIS9_S4_NSA_IS9_EENSC_INSD_IKS9_S4_EEEEEEE4FindERSK_
KSa:__ZN24GenerateTypeTreeTransfer21TransferResourceImageE19ActiveResourceImagePKcR13StreamingInfoPvjiPKN5Unity4TypeE
DSc:__Z28Material_CUSTOM_GetFloatImplP12Il2CppObjecti
dbd:__ZN13InitialModule18GenerateProceduralERK27ParticleSystemReadOnlyStateR23ParticleSystemParticlesRK10Matrix4x4fRK8Vector3fRK24ParticleSystemEmitReplayRj
Tyo:__ZN6il2cpp2vm6Object5CloneEP12Il2CppObject
f9c:__ZN11ColorModule8TransferI19StreamedBinaryWriteILb0EEEEvRT_
mgf:__ZN5physx6shdfnd8PoolBaseINS_24NpPtrTableStorageManager8PtrBlockILi16EEENS0_19ReflectionAllocatorIS4_EEED2Ev
nNo:__ZN6il2cpp6icalls8mscorlib6System9Threading5Mutex20CreateMutex_internalEbP12Il2CppStringPb
VOg:__ZL47Time_t2420636075_CustomAttributesCacheGeneratorP21CustomAttributesCache
S3n:__ZN6il2cpp2vm5Class12GetFinalizerEP11Il2CppClass
Zgj:_Coroutine_Finalize_m1957108547
jqh:_TextMeshPro_ClearSubMeshObjects_m3827462987
zDn:_KeyBuilder_Key_m2503211157
BIa:__ZNSt3__212__deque_baseI18ReflectionProbeJobNS_9allocatorIS1_EEED2Ev
HD:__ZN11UnityEngine9Animation27DestroyAnimationSetBindingsEPNS0_20AnimationSetBindingsERN7mecanim6memory9AllocatorE
kjc:__ZN15dense_hashtableINSt3__24pairIKiN4core17string_with_labelILi1EEEEEi18SInt32HashFunctionN14dense_hash_mapIiS5_S7_NS0_8equal_toIiEE13stl_allocatorIS6_L18MemLabelIdentifier1ELi16EEE9SelectKeyESA_SD_E13set_empty_keyERKS6_
Wie:__ZN5physx2Sc9ShapeCore23setSimulationFilterDataERKNS_12PxFilterDataE
Pgj:_Component_GetComponentInChildren_m388868270
kam:_GenericEqualityComparer_1_Equals_m1705889345_gshared
dK:__ZN8Animator12CleanupClassEv
Uol:_Enumerator_System_Collections_IDictionaryEnumerator_get_Entry_m670766806_gshared
OVf:_TMP_Dropdown_Show_m3726566356
A9j:_FtpWebRequest__cctor_m699542155
XPk:_Byte_System_IConvertible_ToBoolean_m2888023769
p5f:_TMP_Text_get_enableCulling_m1648718058
V7f:_TMP_Text_ConvertToFloat_m497393997
Nhf:__ZN5physx7profile12MemoryBufferINS0_21WrapperNamedAllocatorEE5writeIyEEvRKT_
xcg:_U3CDelayLoadLevelU3Ec__Iterator0_MoveNext_m3119807189
FGm:_ReadOnlyCollection_1_System_Collections_IList_Insert_m2797533731_gshared
z8j:_NameObjectCollectionBase_GetEnumerator_m3677320185
hac:__Z24CalculateSpotLightBoundsffRK10Matrix4x4fR15SpotLightBounds
uMa:__ZNK13RenderTexture21GetShadowSamplingModeEv
AZ:__ZN23CloudWebServicesManager23VirtualRedirectTransferER14SafeBinaryRead
GJk:_PKCS12_AddCertificate_m3857004455
jed:__ZNK11NoiseModule14CalculateNoiseILi3ELb1ELb0EEEvR23ParticleSystemParticlesRK27ParticleSystemReadOnlyStatejjRKN4math7_float4E
X5i:_WellKnownClientTypeEntry_ToString_m1119458503
IJb:__Z19ShouldTransferFieldR32SerializationCommandQueueBuilder17ScriptingClassPtriR18TransferField_InfoRK20CoreScriptingClasses
g$b:__ZN13RenderManager13RenderCamerasEiPFvvE
oJl:_LinkedList_1_VerifyReferencedNode_m3460801984_gshared
WQc:__Z48Register_UnityEngine_MonoBehaviour_InvokeDelayedv
D5h:_InternalEnumerator_1_get_Current_m4221658127_gshared
M0j:_SecurityElement_IsValidText_m1346599242
Erb:__ZN26SinglePassStereoSupportExt21SetStereoMatrixCommonE21MonoOrStereoscopicEye24BuiltinShaderMatrixParamRK10Matrix4x4f
aR:__ZN5audio5mixer22UpdateAudioMixerMemoryERKNS0_18AudioMixerConstantERNS0_16AudioMixerMemoryEfPN4FMOD6SystemEf
yjf:__ZL21InitializeCachedStripPv
Q0l:_Dictionary_2_System_Collections_Generic_ICollectionU3CSystem_Collections_Generic_KeyValuePairU3CTKeyU2CTValueU3EU3E_Add_m3652125112_gshared
Sdc:__ZN19CustomRenderTexture16GetRenderTextureEv
Cso:__ZN6il2cpp6icalls8mscorlib6System9Threading6Thread23GetCachedCurrentCultureEP12Il2CppThread
D9c:__ZN25IParticleSystemProperties8PropertyI8Vector3fNS_3MinILi0EEEE8TransferI19StreamedBinaryWriteILb0EEEEvRT_PKc
Gza:__ZNK6Camera22GetWorldToCameraMatrixEv
vAo:__ZN6il2cpp2vm12GenericClass11IsValueTypeEP18Il2CppGenericClass
Whc:__ZN13ScreenManager24SetIsFullscreenImmediateEb
UIb:__ZN13MonoBehaviour7SetNameEPKc
MTi:_Math_Acos_m2076003797
KUh:_MethodDictionary_IsOverridenKey_m946843558
lOe:__ZN5physx6shdfnd8PoolBaseINS_2Sc26ActorPairContactReportDataENS0_19ReflectionAllocatorIS3_EEE15disposeElementsEv
fpn:_U3CStartU3Ec__Iterator0_MoveNext_m4270440387_gshared
c8n:__ZN10KeyWrapperIN6il2cpp5utils13dynamic_arrayIPK10Il2CppTypeLj4EEEEC2ERKS7_
UNb:__ZN17InstancingBatcher22FindCBUpperBoundKonstsEv
CHf:__ZN11UnityEngine9Analytics15AnalyticsConfig13ConfigChangedERKN4core12basic_stringIcNS2_20StringStorageDefaultIcEEEER8JSONRead
Cab:__ZN18AwakeFromLoadQueue5ClearEv
LFk:_FileStream_SetLength_m99749826
k7e:__ZN5physx6shdfnd5ArrayIfNS0_19ReflectionAllocatorIfEEE8recreateEj
D8b:__ZNSt3__27__sort5IR15ReflProbeSorterPP15ReflectionProbeEEjT0_S6_S6_S6_S6_T_
yga:__ZN8Playable10DisconnectEPS_i
R6k:_Convert_ToInt16_m4174439391
ml:_glGenTransformFeedbacks
O9a:__ZN13LoadOperationD2Ev
TSe:__ZN5physx20PxsSolverCoreGeneral6createEv
Ald:__ZN29TriggerModulePropertyBindings13AddPropertiesER10vector_mapIi22ParticleModulePropertyNSt3__24lessIiEENS2_9allocatorINS2_4pairIiS1_EEEEE
cLk:_AttrListImpl_GetValue_m3657391095
X9f:_EnvMapAnimator_Start_m2826563342
Kdm:_Array_InternalArray__ICollection_CopyTo_TisSpriteData_t3048397587_m2502737758_gshared
y4d:__ZL29GeomOverlapCallback_SphereBoxRKN5physx10PxGeometryERKNS_11PxTransformES2_S5_PNS_2Gu12TriggerCacheE
Evc:__Z48Register_UnityEngine_Material_set_shaderKeywordsv
bZm:_List_1_CheckIndex_m3933537097_gshared
EQa:__ZNSt3__27__sort5IRPFbRKNS_4pairIN9ShaderLab16FastPropertyNameEN18UnityPropertySheet11UnityTexEnvEEES8_EPS6_EEjT0_SD_SD_SD_SD_T_
mTb:__ZNK7ApiGLES18GetExtensionStringEv
CYm:_List_1_System_Collections_IList_IndexOf_m2444653486_gshared
__o:_emscripten_glVertexAttrib1f__wrapper
Wfb:__ZNK12HandlerChain4SizeERK13FileEntryData
Cq:FUNCTION_TABLE_iiiiiiiii
Hqe:__ZN5physx7NpCloth15setInertiaScaleEf
EHm:_ReadOnlyCollection_1_System_Collections_Generic_ICollectionU3CTU3E_Remove_m4177779688_gshared
ita:__ZN9Scripting11UnityEngine14AnimationCurve9InitProxyEv
Zsd:__Z22GetPhysicsGroundBody2Dv
JRk:_Char_IsLetter_m3996985877
TZm:_Queue_1_Peek_m2302800625_gshared
taf:__ZN5physx6shdfnd4sortIPvNS0_4LessIS2_EENS0_19ReflectionAllocatorIN17PxcPoolMallocData10PoolData16EEEEEvPT_jRKT0_RKT1_j
aPd:__Z19sweepBox_SphereGeomRKN5physx10PxGeometryERKNS_11PxTransformERKNS_2Gu3BoxERKNS_6PxVec3EfRNS_10PxSweepHitENS_7PxFlagsINS_9PxHitFlag4EnumEtEEf
jIo:_GC_allochblk
mAe:__ZN5physx14NpRigidDynamic17setAngularDampingEf
aem:_Array_InternalArray__ICollection_CopyTo_TisKeyframe_t4206410242_m2132255743_gshared
_3o:_glCheckFramebufferStatus__wrapper
o8e:__ZNK5physx13GuMeshFactory15getHeightFieldsEPPNS_13PxHeightFieldEjj
x8a:__ZNSt3__26vectorIN30RuntimeInitializeOnLoadManager15ClassMethodInfoE13stl_allocatorIS2_L18MemLabelIdentifier13ELi16EEE7reserveEj
f$l:_Dictionary_2_System_Collections_ICollection_CopyTo_m3143696177_gshared
Uki:__Z103RuntimeInvoker_Void_t1185182177_Int32_t2950945753_Int32_t2950945753_Int32_t2950945753_SByte_t1669577662PFvvEPK10MethodInfoPvPS4_
ADe:__ZN5physx2Cm20visualizeJointFramesERNS0_12RenderOutputEfRKNS_11PxTransformES5_
aYe:__ZN5physx22PxcContactPlaneCapsuleERKNS_2Gu13GeometryUnionES3_RKNS_11PxTransformES6_RKfRNS_10PxcNpCacheERNS0_13ContactBufferE
cUc:__Z36Renderer_Get_Custom_PropSortingOrderP12Il2CppObject
Rgo:__ZNK15dense_hashtableINSt3__24pairIK10KeyWrapperIPK10Il2CppTypeEjEES6_N6il2cpp8metadata14Il2CppTypeHashEN14dense_hash_mapIS6_jSB_NS6_14EqualsComparerINSA_26Il2CppTypeEqualityComparerEEENS0_9allocatorIS8_EEE9SelectKeyESF_SH_E13find_positionERS7_
kMa:__ZN7Texture5ResetEv
ibj:_DESTransform_BSwap_m2723001589
Iwd:__ZNK14b2CapsuleShape7RayCastEP15b2RayCastOutputRK14b2RayCastInputRK11b2Transformi
TRh:_Context_get_HasDynamicSinks_m3952434387
qjm:_Latin1Encoding_GetByteCount_m1145650505
kyb:__Z18Transfer_BlittableI24GenerateTypeTreeTransferLb1EhEvRK29SerializationCommandArgumentsR31RuntimeSerializationCommandInfo
u1i:_GenericTypeParameterBuilder_GetPropertyImpl_m2584778600
lFb:__Z13TransferFieldI18StreamedBinaryReadILb1EELb0E16Converter_StringEvRK23StaticTransferFieldInfoR31RuntimeSerializationCommandInfoRT1_
h$d:__ZN5physx3Cct17CapsuleController9setRadiusEf
hPc:__ZNK16TypeTreeIterator10ByteOffsetEv
REn:_DownloadHandler_GetContentType_m4249877960
HVo:dynCall_iiifii
ifa:__ZnwjRKSt9nothrow_t
zH:__ZN8Animator11ClearObjectEv
c2f:_TMP_StyleSheet_LoadStyleDictionaryInternal_m3968472499
_Nd:__ZN9Rigidbody17MainThreadCleanupEv
_Lk:_ApplicationException__ctor_m2557611022
lPa:__ZN14SafeBinaryRead19TransferSTLStyleMapINSt3__23mapI39DeprecatedFastPropertyNameSerializationN18UnityPropertySheet11UnityTexEnvENS1_4lessIS3_EENS1_9allocatorINS1_4pairIKS3_S5_EEEEEEEEvRT_17TransferMetaFlags
YQc:__Z45Register_UnityEngine_MonoBehaviour_IsInvokingv
bWm:_List_1_CheckMatch_m579516778_gshared
oBb:__ZL26Transfer_SimpleNativeClassI19StreamedBinaryWriteILb0EE17AnimationCurveTplIfELb0EEvRK29SerializationCommandArgumentsR31RuntimeSerializationCommandInfo
cNb:__Z43GiveManagedDebuggerChanceToAttachIfRequiredv
TPk:_Buffer_ByteLengthInternal_m1388208719
yne:__ZN5physx9NpPhysics26unregisterDeletionListenerERNS_18PxDeletionListenerE
dPc:__Z35UnregisterSerializationCacheBuilderPFv17ScriptingClassPtrR23CachedSerializationDataRbE
vJo:_GC_reclaim_uninit
DUf:_TMP_Text_set_richText_m3566742252
$9:__ZNSt3__26__treeINS_12__value_typeIPKc18ScriptingMethodPtrEENS_19__map_value_compareIS3_S5_14CStringCompareLb1EEE13stl_allocatorIS5_L18MemLabelIdentifier1ELi16EEE25__emplace_unique_key_argsIS3_JRKNS_21piecewise_construct_tENS_5tupleIJOS3_EEENSH_IJEEEEEENS_4pairINS_15__tree_iteratorIS5_PNS_11__tree_nodeIS5_PvEEiEEbEERKT_DpOT0_
WBk:_Int64_System_IConvertible_ToUInt32_m109903525_AdjustorThunk
P2i:_MethodToken_Equals_m460628456_AdjustorThunk
kDa:__Z30GetBuiltinVectorParamArraySize24BuiltinShaderVectorParam
ena:__ZL46__ManagedRegistrationHelperFunction_SpriteBonePv
dMa:__ZN13RenderTextureC2E10MemLabelId18ObjectCreationMode
_zk:_Int32_GetFormatException_m519586683
azg:__ZL46StringBuilder_t_CustomAttributesCacheGeneratorP21CustomAttributesCache
jJd:__ZN16b2ContactManagerC2Ev
jTc:__Z60Register_UnityEngine_ScriptableObject_CreateScriptableObjectv
O0k:_Array_InternalArray__get_Item_TisVector2_t2156229523_m2502961026_gshared
MXa:__ZN21RendererUpdateManager11AddRendererER8Renderer
_fe:__ZNK5physx18NpArticulationLink15getArticulationEv
atb:__Z35Transfer_Blittable_FixedBufferFieldI14SafeBinaryReadsEvRK29SerializationCommandArgumentsR31RuntimeSerializationCommandInfo
R5k:_Decimal_ThrowAtPos_m1170269346
J4k:_Convert_ToDateTime_m3802186295
jFo:__ZN6il2cpp5utils11StringUtils11Utf16ToUtf8EPKDs
L9a:__ZN18StreamedBinaryReadILb0EE21TransferSTLStyleArrayINSt3__26vectorIN15ResourceManager10DependencyE13stl_allocatorIS5_L18MemLabelIdentifier52ELi16EEEEEEvRT_17TransferMetaFlags
Etm:_UInt64_CompareTo_m1614517204_AdjustorThunk
$1:__ZN11UnityEngine15CloudWebService26CloudServiceEventWithParamC2EPKcNS0_15CloudEventFlagsE
D_b:__ZZ23InitPlayerLoopCallbacksvEN52PreLateUpdateScriptRunBehaviourLateUpdateRegistrator7ForwardEv
Kac:__Z33IntersectAABBPlaneBoundsOptimizedRK4AABBPKN4math7_float4Ei
Uhn:_TMP_XmlTagStack_1_CurrentItem_m3008106825_gshared
Qwk:_DateTimeFormatInfo_FillAllDateTimePatterns_m2683124783
hmb:__ZN9GfxDevice19EndGeometryJobFrameEv
uBn:_GUILayoutUtility_Layout_m1159951704
zzj:_InputField_get_shouldActivateOnSelect_m3055465770
Wgk:_Interpreter_CreateMark_m468807491
eyb:__ZN27Converter_SimpleNativeClassI17AnimationCurveTplIfEE17ScriptingToNativeER18ScriptingObjectPtrPS1_
TWk:_Array_Sort_TisRejectHandler_t1435172309_TisRejectHandler_t1435172309_m3084298889_gshared
Epm:_Type__cctor_m2371893800
Bge:__ZN5physx2Sc15CoreInteraction17isCoreInteractionEPNS0_11InteractionE
_No:__ZN6il2cpp8metadata24Il2CppGenericInstCompare7CompareERK10KeyWrapperIPK17Il2CppGenericInstES8_
Ghf:__ZThn132_N5physx7profile8ZoneImplINS_28PxProfileNameProviderForwardEED0Ev
EVd:__ZN5physx3Cct13BoxController17setHalfSideExtentEf
Sth:_ExecuteEvents_Execute_m3049310229
px:__ZN27AnimationLayerMixerPlayable21UpdateLayerParametersEv
Qin:_TMP_XmlTagStack_1_PreviousItem_m4169616904_AdjustorThunk
gPg:__ZL84Object_t631007953_CustomAttributesCacheGenerator_Object_DestroyImmediate_m2288369078P21CustomAttributesCache
vqa:__ZN9Scripting11UnityEngine12LightmapData12CleanupProxyEv
$z:__ZN7mecanim9animation16CopyMotionOutputEPKNS0_18AnimationNodeStateEPS1_bbRKNS_6bitsetILj83EEE
H5c:__ZN21InheritVelocityModule8TransferI14SafeBinaryReadEEvRT_
OFm:_ReadOnlyCollection_1_System_Collections_Generic_IListU3CTU3E_Insert_m276044716_gshared
Cyc:__ZNK17AnimationCurveTplIfE8EvaluateEfPNS0_5CacheE
IZb:__Z31ManagerContextInitializeClassesv
NHm:_ReadOnlyCollection_1_System_Collections_IList_Contains_m2650112051_gshared
jal:_DateTime_System_IConvertible_ToUInt64_m2275741153
bnf:_UNITY_FT_List_Finalize
o3b:__Z20LightAttenuateApproxRKfS0_
A9:__ZN9Scripting30SetCachedPtrOnScriptingWrapperE18ScriptingObjectPtrP6Object
Jz:__ZN17AnimationPlayable17SetInternalWeightEf
fhk:_RepeatContext_get_IsMinimum_m3640286252
JFe:__ZNK5physx7NpScene8getFlagsEv
Yyn:_TMP_TextInfo_ClearMeshInfo_m908134423
U7i:_ObjectRecord_ChainFixup_m1889316362
WJa:__ZN18BlockRangeInternal16PopLastNodeIndexEP10BlockRangeji
YGo:__ZN6il2cpp2vm13CachedCCWBaseINS0_13ManagedObjectEE6AddRefEv
cxh:_TouchInputModule_UpdateModule_m2582897964
b3a:__ZN4MeshD0Ev
_Sf:__ZL42RequestRecreateEyeTexturesBeforeNextUpdatev
II:__ZNK26AnimatorOverrideController13GetBehavioursEv
qCa:__ZNK6Camera20IsCurrentlyRenderingEv
fz:__ZN21AnimationClipPlayable23ProcessRootMotionNoClipEPK35AnimationPlayableEvaluationConstantPK32AnimationPlayableEvaluationInputP33AnimationPlayableEvaluationOutput
IEf:__Z36CanvasRenderer_CUSTOM_SetPopMaterialP12Il2CppObjectS0_i
Wjg:_U3CDisplayTextMeshProFloatingTextU3Ec__Iterator0_Reset_m4082400674
n$c:__Z18Transfer_BlittableI9JSONWriteLb0EdEvRK29SerializationCommandArgumentsR31RuntimeSerializationCommandInfo
Csf:_otv_u_O_O_u_O_O
QAa:__ZN6Camera8TransferI19StreamedBinaryWriteILb0EEEEvRT_
Wbl:_DBNull_System_IConvertible_ToSByte_m3533624679
DGa:__ZThn252_N31CanvasBatchIntermediateRenderer14OnAssetDeletedEv
pQo:_wctomb
vRk:_Char_CompareTo_m42489266
W_h:_InternalEnumerator_1_System_Collections_IEnumerator_get_Current_m3575233890_AdjustorThunk
QKi:__Z67RuntimeInvoker_Void_t1185182177_Int32_t2950945753_Double_t594665363PFvvEPK10MethodInfoPvPS4_
qom:_TimeSpan__ctor_m3689759052
Mvc:__Z27Camera_CUSTOM_GetAllCamerasP11Il2CppArray
pFm:_ReadOnlyCollection_1_System_Collections_IEnumerable_GetEnumerator_m471575929_gshared
z8c:__ZN11ForceModule8TransferI18StreamedBinaryReadILb0EEEEvRT_
Jd:___cxa_rethrow
i9e:__ZN5physx20InternalTriangleMesh17allocateFaceRemapEv
AMh:_ParameterInfo_GetCustomAttributes_m2376494592
T0c:__Z18Transfer_BlittableI8JSONReadLb1EhEvRK29SerializationCommandArgumentsR31RuntimeSerializationCommandInfo
UDh:_Graphic_get_canvasRenderer_m315509948
y7m:_Collection_1_System_Collections_IList_Contains_m3397768605_gshared
Dyd:__ZN18Overlap2DQueryBase13ReportFixtureEP9b2Fixture
ewk:_CultureInfo_construct_internal_locale_from_name_m3254739477
Ssk:_RSASslSignatureDeformatter_VerifySignature_m1061897602
mdc:__ZN13MonoBehaviour8SetClassE17ScriptingClassPtr18ScriptingObjectPtr
QGe:__ZNK5physx7NpScene26getBounceThresholdVelocityEv
oNe:__ZN5physx6shdfnd8PoolBaseINS_2Sc12SimStateDataENS0_19ReflectionAllocatorIS3_EEE15disposeElementsEv
Uem:_Array_InternalArray__Insert_TisLabelFixup_t858502054_m171542753_gshared
Yai:_InternalEnumerator_1_System_Collections_IEnumerator_get_Current_m3539708496_AdjustorThunk
Cgb:__ZN20LocalFileSystemPosix4ReadER13FileEntryDatayyPvPy
d7b:__ZNSt3__211__sift_downIRN23ForwardShaderRenderLoop18RenderObjectSorterILb0EEEP21ForwardRenderPassDataEEvT0_S7_T_NS_15iterator_traitsIS7_E15difference_typeES7_
w$j:_SecurityPermission__ctor_m1462427327
CXo:dynCall_iiiiiiffiiiiiiiiiffffiiii
iJb:__ZN13MonoBehaviour5DoGUIENS_13GUILayoutTypeEii
$Ph:_ChannelData_get_ClientProviders_m594662942
hK:__ZZN8Animator15InitializeClassEvEN43FunctorImpl_438kDidModifyAnimatorController4CallEPviR11MessageData
kun:_QuickSearch_GetChar_m1297698557
zwa:__ZNK12TLSAllocatorI14StackAllocatorE8ContainsEPKv
P5a:__ZN11TimeManager8TransferI18StreamedBinaryReadILb0EEEEvRT_
$8e:__ZNK5physx13GuMeshFactory19getNbTriangleMeshesEv
c3b:__ZL8AddLightRK12ActiveLightsRK8Vector3fiR13dynamic_arrayI11CulledLightLj0EE
W4k:_DateTime__ParseEnum_m253019513
L8k:_Convert_ToUInt32_m2194577773
o3a:__ZN14BlendShapeData8TransferI14SafeBinaryReadEEvRT_
KPd:__ZN5physx2Gu15getPolygonIndexERKNS0_13PolygonalDataEPNS0_12SupportLocalERKNS_6shdfnd3aos5Vec3VE
yce:__ZN5physx14NpArticulation24setSolverIterationCountsEjj
yWk:_Hashtable_Remove_m4032631466
nll:_DSAManaged_GenerateKeyPair_m2236915969
j2e:__ZN5physx36normalizePartitionsWithArticulationsERNS_6shdfnd5ArrayIjNS0_19ReflectionAllocatorIjEEEEPNS_23PxcSolverConstraintDescEPKNS_13PxcSolverBodyEjjS5_Pjj
tSa:__ZN7Texture25ReloadFromStorageIfNeededEPvb
IUj:_Array_InternalArray__IndexOf_TisBoolean_t97287965_m1161209222_gshared
h6n:__ZNK15dense_hashtableINSt3__24pairIK10KeyWrapperIP9FieldInfoEiEES5_N6il2cpp5utils11PointerHashIS3_EEN14dense_hash_mapIS5_iSB_NS5_14EqualsComparerINS0_8equal_toIS4_EEEENS0_9allocatorIS7_EEE9SelectKeyESG_SI_E3endEv
Jfe:__ZN5physx18NpArticulationLink17setLinearVelocityERKNS_6PxVec3Eb
TMo:__ZN6il2cpp2os12Cryptography24OpenCryptographyProviderEv
jKe:__ZN5physx2Sq17SceneQueryManager17processSimUpdatesEv
iUk:_SynchronizedArrayListWrapper_Clear_m2191301493
Xwf:_Update_Max
vto:__ZN6il2cpp6icalls8mscorlib6SystemL15ThrowNoWideningEv
Vbe:__ZN5physx6shdfnd5ArrayIPvNS0_19ReflectionAllocatorINS_13NpRigidStaticEEEE15growAndPushBackERKS2_
zxc:__ZNK23TransformChangeDispatch24GetChangeMaskForInterestENS_12InterestTypeE
FI:__ZN26AnimatorOverrideController23GetAnimationSetBindingsEv
Ied:__Z14UpdateSpeedTplIL27ParticleSystemCurveEvalMode4EEvRK11MinMaxCurveR23ParticleSystemParticlesjj
Jxc:__Z45Transform_CUSTOM_INTERNAL_CALL_TransformPointP12Il2CppObjectRK8Vector3fRS1_
Npl:_Enumerator_VerifyState_m1203790900_gshared
qJe:__ZN5physx10PxsContext25setVisualizationParameterENS_24PxVisualizationParameter4EnumEf
shc:__ZL10KeyHandleriPK23EmscriptenKeyboardEventPv
DPa:__ZNSt3__26__treeINS_12__value_typeI39DeprecatedFastPropertyNameSerializationfEENS_19__map_value_compareIS2_S3_NS_4lessIS2_EELb1EEENS_9allocatorIS3_EEE7destroyEPNS_11__tree_nodeIS3_PvEE
fQc:__Z41Quaternion_CUSTOM_FromToRotation_InjectedRK8Vector3fS1_R11Quaternionf
tPd:__ZN24ConvexVsHeightfieldSweepC2ERN5physx2Gu15HeightFieldUtilERKNS1_14ConvexHullDataERKNS0_11PxMeshScaleERKNS0_11PxTransformESC_RKNS0_6PxVec3EfNS0_7PxFlagsINS0_9PxHitFlag4EnumEtEEfbb
Xuf:_tt_cmap4_char_index
Lxh:_AspectRatioFitter_GetParentSize_m3159144324
I1j:_SecurityFrame_get_Assembly_m2874566710
QPl:_List_1_CheckIndex_m2294585491_gshared
sZm:_Enumerator_System_Collections_IEnumerator_Reset_m1487823313_gshared
egb:__ZNK12HandlerChain8IsHiddenERK13FileEntryData
clb:__ZNSt3__26__treeINS_12__value_typeIN4core12basic_stringIcNS2_20StringStorageDefaultIcEEEEPN16MemoryFileSystem4NodeEEENS_19__map_value_compareIS6_SA_NS_4lessIS6_EELb1EEE13stl_allocatorISA_L18MemLabelIdentifier55ELi16EEE25__emplace_unique_key_argsIS6_JNS_4pairIKS6_S9_EEEEENSK_INS_15__tree_iteratorISA_PNS_11__tree_nodeISA_PvEEiEEbEERKT_DpOT0_
uxb:__ZL26Transfer_SimpleNativeClassI17RemapPPtrTransfer10RectOffsetLb0EEvRK29SerializationCommandArgumentsR31RuntimeSerializationCommandInfo
wCc:__ZN16GraphicsSettings12CleanupClassEv
t7k:_Decimal_op_Explicit_m438967917
wvi:__Z154RuntimeInvoker_Vector3_t3722313464_Vector3_t3722313464_Vector3_t3722313464_Vector3U26_t3464235976_Single_t1397266774_Single_t1397266774_Single_t1397266774PFvvEPK10MethodInfoPvPS4_
Pnd:__ZL30CalculateMeshParticleTransformIL25ParticleSystemRenderSpace4EEvRN4math7affineXERNS1_8float3x3ERKNS1_7_float3EiRKS2_SA_SA_S8_RK23ParticleSystemParticlesRK21ParticleSystemModulesRK26ParticleSystemVector3Array
OYa:__ZN21EnlightenSceneMapping16BuildRemapTablesEv
SDd:__ZN10ClipperLib14PointInPolygonERKNS_8IntPointEPNS_5OutPtE
kAj:_InputField_set_selectionColor_m2084640295
gDa:__ZNK9ShaderLab20ShaderBlendStateDesc15ToGfxBlendStateEPK19ShaderPropertySheetS3_R13GfxBlendState
$rl:_Enumerator_System_Collections_IEnumerator_get_Current_m1747693366_AdjustorThunk
NIj:_ScrollRectEvent__ctor_m1107027632
kD:__ZN11UnityEngine9AnimationL22GenericBindingCallbackEPvS1_i
vG:__ZN12_GLOBAL__N_121ProcessAnimationBeginER35AnimationPlayableEvaluationConstantR32AnimationPlayableEvaluationInputR33AnimationPlayableEvaluationOutput
foc:__ZN9ShaderLab9IntShaderC2Ev
zhd:__Z25UpdateOrbitalAndRadialTplIL27ParticleSystemCurveEvalMode0ELS0_3ELS0_3EEvRK11MinMaxCurveS3_S3_S3_S3_S3_S3_R23ParticleSystemParticlesjjRKN4math8float3x3ERKNS6_7affineXERKNS6_7_float4E
geo:__ZN6il2cpp6icalls8mscorlib6SystemL9IsPrivateEPK9EventInfo
uMo:__ZN6il2cpp6icalls8mscorlib6System10Reflection4Emit11TypeBuilder20setup_internal_classEP27Il2CppReflectionTypeBuilderS7_
ibf:__ZN5physx11AdjacenciesD2Ev
mkk:_ARC4Managed_Finalize_m315143160
SDe:__ZN5physx6shdfnd8PoolBaseINS_2Sc24ElementInteractionMarkerENS0_19ReflectionAllocatorIS3_EEE12allocateSlabEv
ROe:__ZN5physx2Sq16BucketPrunerCore11shiftOriginERKNS_6PxVec3E
Dqb:__ZNSt3__26vectorIN20GpuProgramParameters14ConstantBufferENS_9allocatorIS2_EEE21__push_back_slow_pathIRKS2_EEvOT_
jVj:_Array_InternalArray__IndexOf_TisILTokenInfo_t2325775114_m2602704009_gshared
Vth:_ExecuteEvents_Execute_m3613826831
Rmh:_KerningPair__ctor_m98952632
fkm:_StringBuilder_AppendFormat_m3255666490
h7c:__ZN27ParticleSystemReadOnlyState8TransferI24GenerateTypeTreeTransferEEvRT_
lZc:__ZN5Unity9rapidjson6WriterI16TempBufferWriterNS0_4UTF8IcEES4_13JSONAllocatorE11WriteUint64Ey
gYc:__ZN13GUIStateScope3EndER16GUIKeyboardStateR8GUIStatePN5IMGUI19NamedKeyControlListE
ZZi:_Default_GetBetterMethod_m3232777160
pIh:_TypeBuilder_GetGenericArguments_m2872156836
xud:__ZN16b2PrismaticJoint24SolveVelocityConstraintsERK12b2SolverData
EJe:__ZN5physx6shdfnd5ArrayIPNS_3Scb5ShapeENS0_19ReflectionAllocatorIS4_EEE6resizeEjRKS4_
f0d:__ZN5physx3Cct15ObstacleContextD2Ev
x2n:__ZN13Il2CppHashMapIPK22Il2CppGenericParameterP11Il2CppClassN6il2cpp5utils11PointerHashIS1_EENSt3__28equal_toIS2_EENS9_9allocatorINS9_4pairIK10KeyWrapperIS2_ES4_EEEEEC2EjRKS8_RKSB_
j2c:__ZN8JSONRead21TransferSTLStyleArrayI31ArrayOfManagedObjectsTransfererEEvRT_17TransferMetaFlags
ohb:__Z15CreateDirectoryRKN4core12basic_stringIcNS_20StringStorageDefaultIcEEEE
V4a:__Z21CalculateGlobalMatrix23TransformAccessReadOnly
qIh:_TypeBuilder_GetGenericTypeDefinition_m1632720438
NWj:_MonoProperty_StaticGetterAdapterFrame_TisRuntimeObject_m4131530968_gshared
TNj:_Array_InternalArray__ICollection_Contains_TisLink_t544317964_m163190451_gshared
tbl:_DateTimeOffset_System_IComparable_CompareTo_m176229495_AdjustorThunk
Slj:_ManagedStreamHelpers_ValidateLoadFromStream_m580138133
x7a:__ZNK13BuildSettings22GetTypeVirtualInternalEv
A:tempBigIntD
tig:_Benchmark02_Start_m3626582460
aQe:__ZN5physx2Cm10FanoutTaskC2EPKc
fXm:_List_1_CheckIndex_m2250397830_gshared
yMe:__ZNK5physx2Sc5Scene17prefetchForRemoveERKNS0_8BodyCoreE
m4j:_String_LastIndexOf_m578673845
srm:_UInt16_System_IConvertible_ToInt16_m2337134904_AdjustorThunk
Dpj:_PlayerEditorConnectionEvents_UnregisterManagedCallback_m400366024
s9d:__ZN5physx2Sc8RigidSimD2Ev
Tnc:__ZN9ShaderLab20SerializedSubProgram14ConstantBufferC2EOS1_
YGh:_PropertyBuilder_GetSetMethod_m128670376
Ehk:_Interval_get_Empty_m3617514670
Z3f:_TMP_Text_get_fontMaterial_m2328223889
jZi:_Assembly_GetName_m981771927
_Oi:__Z92RuntimeInvoker_RuntimeObject_Int32_t2950945753_SByte_t1669577662_RuntimeObject_RuntimeObjectPFvvEPK10MethodInfoPvPS4_
xB:__ZN7mecanim12statemachine24CreateStateMachineOutputEPKNS0_20StateMachineConstantEjRNS_6memory9AllocatorE
akd:__ZN15CollisionModuleD0Ev
SIe:__ZNK5physx13NpVolumeCache7raycastERKNS_6PxVec3ES3_fRNS_13PxHitCallbackINS_12PxRaycastHitEEENS_7PxFlagsINS_9PxHitFlag4EnumEtEERKNS_17PxQueryFilterDataEPNS_21PxQueryFilterCallbackE
Dmb:__ZNK9GfxDevice27GetActiveRenderSurfaceWidthEv
b4g:__ZL114StandaloneInputModule_t2760469101_CustomAttributesCacheGenerator_StandaloneInputModule_ForceAutoSelect_m2837047882P21CustomAttributesCache
x_e:__ZN5physx16PxsIslandManagerC2EjRNS_19PxcScratchAllocatorEPNS_2Cm13EventProfilerE
jLf:__ZN11UnityEngine15PlatformWrapper28GetCleanGraphicsFixedVersionEv
MFj:_MaskableGraphic_RecalculateClipping_m1772937317
grc:__ZN4core8hash_mapI12TriangleEdgei16TriangleEdgeHashNSt3__28equal_toIS1_EEEixERKS1_
kTi:_UnmanagedMemoryStream_SetLength_m3752964620
jan:_SslStreamBase_RaiseLocalPrivateKeySelection_m4112368540
nno:__ZN6il2cpp2vm4Type7GetTypeEPK10Il2CppType
oXe:__ZN5physx13ActorAABBTask11runInternalEv
rrc:__ZN16SpriteRenderData28PrepareRenderingDataIfNeededEv
K2h:_InternalEnumerator_1_get_Current_m165106323_AdjustorThunk
wld:__ZN14ParticleSystem18SetSimulationSpeedEf
Vkm:_UTF32Encoding_GetByteCount_m3610769032
fX:__ZN11AudioModule16SetListenerPauseEb
iQk:_Byte_System_IConvertible_ToInt32_m3495522413
w$b:__Z16FindCameraStacksRKNSt3__24listI4PPtrI6CameraENS_9allocatorIS3_EEEERNS_6vectorI11CameraStackNS4_ISA_EEEE
ctn:_MatchCollection_CopyTo_m3807326147
pVf:_TMP_Dropdown_set_itemImage_m674703308
GYa:__ZN10GISettings8TransferI14SafeBinaryReadEEvRT_
yo:FUNCTION_TABLE_vifff
Xcj:_MD5CryptoServiceProvider__ctor_m3271163125
nec:__ZN19CustomRenderTexture12ClearGPUDataEv
Vyk:_Guid_Equals_m3683678873
tMa:__ZN13RenderTexture13ApplySettingsEv
R6i:_ObjectReader_RegisterObject_m1853376334
Y2i:_ModuleBuilderTokenGenerator_GetToken_m2588853565
xgd:__Z25UpdateOrbitalAndRadialTplIL27ParticleSystemCurveEvalMode2ELS0_0ELS0_0EEvRK11MinMaxCurveS3_S3_S3_S3_S3_S3_R23ParticleSystemParticlesjjRKN4math8float3x3ERKNS6_7affineXERKNS6_7_float4E
kPk:_Boolean_System_IConvertible_ToDecimal_m3176932461_AdjustorThunk
J6b:__ZNSt3__26__treeINS_12__value_typeIi17ShadowCachingDataEENS_19__map_value_compareIiS3_NS_4lessIiEELb1EEE13stl_allocatorIS3_L18MemLabelIdentifier66ELi16EEE25__emplace_unique_key_argsIiJNS_4pairIiS2_EEEEENSD_INS_15__tree_iteratorIS3_PNS_11__tree_nodeIS3_PvEEiEEbEERKT_DpOT0_
Kf:_JS_Sound_SetListenerPosition
ro:FUNCTION_TABLE_fiffi
oEf:__Z55Register_UnityEngine_CanvasGroup_get_ignoreParentGroupsv
k0n:_BoxCollider_INTERNAL_set_size_m404545260
g5a:__ZN12EventManager11RemoveEventEP10EventEntryPFvPvS2_iES2_
Bqe:__ZN5physx7NpCloth21setLinearInertiaScaleENS_6PxVec3E
T0o:_glGetActiveUniform__wrapper
gdb:__ZNK8Material16MarkDependenciesER27GarbageCollectorThreadState
pLj:_Slider_set_handleRect_m1101657556
Gbl:_DateTimeOffset_ToString_m3985341516_AdjustorThunk
LMd:__ZN5Unity10FastCookerD2Ev
q$c:__ZL17Transfer_GUIStyleI9JSONWriteLb0EEvRK29SerializationCommandArgumentsR31RuntimeSerializationCommandInfo
J_o:_glTexStorage2D__wrapper
vcm:_Array_InternalArray__ICollection_Add_TisContactPoint_t3758755253_m4220022016_gshared
j4b:__Z28GetHaloVertexPositionsStereoP8Vector3fRKS_S2_f
Ldf:__ZN17TriggerStayStates20executeDeferredEraseEv
fka:__ZN6prcoreL27StretchGenericFloatBilinearI15TexFormatRGHalfEEvPKNS_9InnerInfoE
XI:__Z16return_effectiveRK21AnimationClipOverride
$Fn:_UnityWebRequest_get_responseCode_m1090830473
f4b:__ZN9DepthPass7PrepareER6CameraRK13dynamic_arrayI16RenderObjectDataLj0EERK15RenderNodeQueueRK17ShaderReplaceDatab
jdo:__ZN6il2cpp6icalls8mscorlib6SystemL16CheckMemberMatchI9FieldInfoNS_5utils10functional6FilterINSt3__212basic_stringIcNS8_11char_traitsIcEENS8_9allocatorIcEEEENS5_13VmStringUtils21CaseSensitiveComparerEEEEEbPKT_PK11Il2CppClassSN_iRKT0_
Uqa:__ZN9Scripting11UnityEngine12Experimental3U2D10SpriteBone9InitProxyEv
HNa:__ZNK15PlayableMethods18InvokePrepareFrameER18ScriptingObjectPtrRK9HPlayableP18ScriptingFrameData
_I:__ZN14SafeBinaryRead21TransferSTLStyleArrayI13dynamic_arrayI21AnimationClipOverrideLj0EEEEvRT_17TransferMetaFlags
eJh:_MemberInfoSerializationHolder_Serialize_m2002453739
HWe:__ZN5physx14PxsAABBManager22processAggregateSingleERKNS_19AggregateSortedDataERKNS_9AggregateEjPNS_2Cm10BitMapBaseINS_6shdfnd9AllocatorEEE
dY:__Z13RegisterClassI12AudioManagerEvPKc
TFb:__Z18Transfer_BlittableI18StreamedBinaryReadILb0EELb1E9BoundsIntEvRK29SerializationCommandArgumentsR31RuntimeSerializationCommandInfo
g8g:__ZL71SpriteState_t1362986479_CustomAttributesCacheGenerator_m_DisabledSpriteP21CustomAttributesCache
SMf:__ZN22BaseUnityConnectClient28UpdateConfigFromServerStaticEPv
zck:_PublicKey_DecodeDSA_m3490622362
fxc:__Z49Register_UnityEngine_Resources_GetBuiltinResourcev
s$e:__ZN5physx2Sc17ParticleSystemSim20scheduleCollisionCpuERNS0_16InteractionSceneERKNS_6shdfnd5ArrayIPS1_NS4_19ReflectionAllocatorIS6_EEEERNS_10PxBaseTaskE
Kuf:_tt_cmap10_char_index
eom:_WaitHandle__cctor_m4242752477
Jan:_TlsException__ctor_m3242533711
tlc:__ZN15SerializeTraitsINSt3__24pairIN4core12basic_stringIcNS2_20StringStorageDefaultIcEEEE4PPtrI7TextureEEEE8TransferI24GenerateTypeTreeTransferEEvRSA_RT_
u2k:_SortedList__ctor_m3676552745
$2n:__ZN15dense_hashtableINSt3__24pairIK10KeyWrapperIPK22Il2CppGenericParameterEP11Il2CppClassEES6_N6il2cpp5utils11PointerHashIS4_EEN14dense_hash_mapIS6_S9_SE_NS6_14EqualsComparerINS0_8equal_toIS5_EEEENS0_9allocatorISA_EEE9SelectKeyESJ_SL_E3endEv
qW:__ZN11AudioSource24ClearExtensionPropertiesE12PropertyName
jGa:__ZN14VertexDataInfo12UpdateFormatEj17ShaderChannelMaskS0_RK19VertexStreamsLayoutRK20VertexChannelsLayout
xmc:__ZN9ShaderLab22SerializedBindChannels8TransferI19StreamedBinaryWriteILb0EEEEvRT_
Hvb:__ZN15SerializeTraitsI5RectTIiEE8TransferI14SafeBinaryReadEEvRS1_RT_
VWc:__ZN5IMGUI20MoveWindowFromLayoutER8GUIStateiRK5RectTIfE
snf:_UNITY_FT_Stream_ReadUShort
kPa:__ZNSt3__26__treeINS_12__value_typeIN4core12basic_stringIcNS2_20StringStorageDefaultIcEEEES6_EENS_19__map_value_compareIS6_S7_NS_4lessIS6_EELb1EEE13stl_allocatorIS7_L18MemLabelIdentifier1ELi16EEE7destroyEPNS_11__tree_nodeIS7_PvEE
R_i:_AssemblyBuilder_get_Location_m384539722
eUb:__Z13IsDepthFormat14GraphicsFormat
S6a:__ZN12AspectRatios8TransferI24GenerateTypeTreeTransferEEvRT_
oVi:_MonoType_GetFields_m4176012508
zg:_emscripten_glUniform1fv
y1e:__ZL28removeBrokenEdgesFromIslandsPKjjS0_jS0_RKN5physx11NodeManagerERNS1_11EdgeManagerERNS1_13IslandManagerERNS1_2Cm10BitMapBaseINS1_6shdfnd9AllocatorEEEPSD_
wwh:_StandaloneInputModule_set_inputActionsPerSecond_m4057208843
WMb:__ZN19RuntimeSceneManager18LoadSceneAsyncIntoER10UnitySceneRKN4core12basic_stringIcNS2_20StringStorageDefaultIcEEEENS_11LoadingModeEb
wAn:_TMPro_ExtensionMethods_Compare_m906380237
Vbj:_HashAlgorithm_ComputeHash_m2044824070
Co:FUNCTION_TABLE_iifff
wYc:__ZN11IMGUIModule12AddGUIScriptER8ListNodeI13MonoBehaviourE
Pa:invoke_difi
rBn:_GUILayoutUtility_BeginWindow_m2240221150
F$o:_glDeleteSamplers__wrapper
Kea:__ZL50StaticRegisterSceneLoadedCallback_LightmapSettingsPv
Gth:_EventTrigger_OnScroll_m1105023111
O7j:_HybridDictionary_set_Item_m2997363718
Ln:FUNCTION_TABLE_iiffi
ubi:_InternalEnumerator_1_get_Current_m1477715453_AdjustorThunk
_qe:__ZNK5physx7NpCloth24getSeparationConstraintsEPNS_35PxClothParticleSeparationConstraintE
wtm:_UInt64_System_IConvertible_ToUInt32_m2784653358
QTb:__ZN21GLESGpuProgramApplier11ApplyVectorERKN20GpuProgramParameters14ValueParameterEPK8Vector4ft
p9b:__Z17PrepareSceneNodesP11CullResults
q9i:_SByte_System_IConvertible_ToDecimal_m2548745278
Aof:_cff_size_done
T9b:__ZN29ExtractProjectionPlanesHelperILb1EE5ApplyERK10Matrix4x4fP5Plane
a2e:__ZN5physx6shdfnd5ArrayINS_17PxcSolverBodyDataENS0_16AlignedAllocatorILj128ENS0_19ReflectionAllocatorIS2_EEEEE6resizeEjRKS2_
jDc:__ZN13ProduceHelperI7CubemapLb0EE7ProduceE10MemLabelId18ObjectCreationMode
Fec:__ZN6Camera34UpdatePreviousViewProjectionMatrixEv
HOa:__ZN9ShaderLab11ShaderState25RemoveUnsupportedProgramsEPK6Shader
xTc:__Z44Register_UnityEngine_Object_DestroyImmediatev
Mmj:_Mathf_Abs_m3281243566
kSi:_SynchronizedWriter_WriteLine_m1552352268
kVo:dynCall_viiiiifi
gtc:__Z26scripting_class_has_parent17ScriptingClassPtrS_
yef:__ZN13ProduceHelperI9RigidbodyLb0EE7ProduceE10MemLabelId18ObjectCreationMode
wda:__ZN13RuntimeStaticI21AssetReferenceStorageLb0EE16StaticInitializeEPv
zAk:_Int32_System_IConvertible_ToByte_m3832391412_AdjustorThunk
KW:__Z71Register_UnityEngine_AudioSource_INTERNAL_CALL_ClearExtensionPropertiesv
jH:__ZNK8Animator20IsInMatchTargetStateEv
w4h:_InternalEnumerator_1_System_Collections_IEnumerator_get_Current_m4088805473_gshared
hqa:__ZN9Scripting11UnityEngine5Plane12CleanupProxyEv
vn:FUNCTION_TABLE_viiifiii
RWc:__Z36Register_UnityEngine_GUI_set_changedv
$Rh:_Context_GetServerContextSinkChain_m3154465897
pzi:__Z81RuntimeInvoker_Int32_t2950945753_Ray_t3785851493_RuntimeObject_Single_t1397266774PFvvEPK10MethodInfoPvPS4_
mzn:_TMP_TextUtilities_FindIntersectingCharacter_m1441274992
kCn:_GUIStyle_get_fixedHeight_m2868324709
idd:__Z11EvaluateHDRIL12GradientMode1ELS0_1EEN4math8floatNx4ERK14MinMaxGradientRKNS1_7_float4ES8_
YKa:__ZN17LightBakingOutput8TransferI24GenerateTypeTreeTransferEEvRT_
tqe:__ZN5physx7NpCloth13setTargetPoseERKNS_11PxTransformE
DMo:__GLOBAL__sub_I_Il2CppCodeRegistration_cpp
DA:__ZN7mecanim28TransformValueArrayBlendNodeEiiiRKNS_10ValueArrayERKNS_14ValueArrayMaskERS0_RS3_RNS_16ValueArrayWeightEf
IRl:_List_1_GetIndex_m3112872964_gshared
VBh:_Dropdown_set_value_m1048320169
Y$n:_CustomEventData_Finalize_m1724721833
cIa:__ZN20TierGraphicsSettings8TransferI18StreamedBinaryReadILb0EEEEvRT_
YAk:_Int32_System_IConvertible_ToUInt64_m2502338186_AdjustorThunk
Dha:__Z33CleanupCubemapGPUUtilityMaterialsPv
LSc:__Z43Register_UnityEngine_Material_EnableKeywordv
Vfi:_Enumerator_VerifyState_m3771386402_AdjustorThunk
uAk:_Int16_ToString_m2072232391_AdjustorThunk
MMl:_Enumerator_VerifyState_m169680537_AdjustorThunk
Tlo:__ZN14dense_hash_mapI10KeyWrapperINSt3__24pairIPK12PropertyInfoP11Il2CppClassEEEj17ReflectionMapHashIS8_ENS9_14EqualsComparerINS1_8equal_toIS8_EEEENS1_9allocatorINS2_IKS9_jEEEEE13set_empty_keyERSH_
eD:__ZN8Animator28BuildControllerPlayableCacheEv
y5f:_TMP_Text_set_mappingUvLineOffset_m3800869425
Wzc:__Z45Register_UnityEngine_Input_get_touchSupportedv
nLf:__ZN11UnityEngine15PlatformWrapper28GetTextureFormatSupportFlagsEv
_R:__ZN11AudioSource23VirtualRedirectTransferER19StreamedBinaryWriteILb0EE
W4i:_RemotingConfiguration_RegisterWellKnownClientType_m1237674062
Cta:__ZN9Scripting5Unity11Collections8LowLevel6Unsafe42NativeDisableUnsafePtrRestrictionAttribute9InitProxyEv
Fxn:_Uri_EscapeString_m3864445955
ipf:_cf2_setError
_Za:__ZN14SafeBinaryRead21TransferSTLStyleArrayI13dynamic_arrayI12BoneWeights4Lj16EEEEvRT_17TransferMetaFlags
Fil:_SortKeyBuffer_GetOptimizedLength_m1735248204
c_b:__ZZ23InitPlayerLoopCallbacksvEN35PreUpdateSendMouseEventsRegistrator7ForwardEv
rCa:__ZNK6Camera25GetNormalizedViewportRectEP13RenderTextureb
WBh:_Dropdown_Awake_m3140021404
ZTl:_List_1_set_Item_m816645719_gshared
Ph:_glDisable
XMa:__ZN13RenderTexture8TransferI24GenerateTypeTreeTransferEEvRT_
LKn:_Vector2_get_sqrMagnitude_m837837635
EFo:__ZN6il2cpp5utils11StringUtils15StringDuplicateEPKDsj
svn:_Regex_Match_m4145799399
Bz:__ZN17AnimationPlayable17ProcessRootMotionEP35AnimationPlayableEvaluationConstantP32AnimationPlayableEvaluationInputP33AnimationPlayableEvaluationOutput
r4j:_String_IsNullOrEmpty_m2969720369
fXn:_TextGenerator_GetPreferredHeight_m3514897836
Otf:_UNITY_tt_face_load_hmtx
Yil:_BigInteger_LowestSetBit_m3082714978
Fem:_Array_InternalArray__Insert_TisKeyValuePair_2_t2530217319_m1769848997_gshared
fRd:__ZN5physx10getInverseERNS_7PxMat33ERNS_6PxVec3ERKS0_RKS2_
RFk:_MonoIO_Read_m1129074620
F2o:b118
gKl:_Enumerator_System_Collections_IEnumerator_get_Current_m3937040232_AdjustorThunk
Cfg:_JSONNode_get_AsArray_m2046997399
r$b:__ZNK8Material12GetPassCountEv
AYj:_RSAParameters_t1728406613_marshal_pinvoke
Nhk:_Interval_IsDisjoint_m1532171337_AdjustorThunk
q1o:b112
nUo:_bitshift64Ashr
s1o:b114
x1o:b115
y1o:b116
z1o:b117
XVo:dynCall_diii
MEj:_LayoutUtility_GetFlexibleWidth_m22831835
A6i:_BinaryFormatter__ctor_m971003555
kYh:_ArrayReadOnlyList_1_ReadOnlyError_m865416608_gshared
jbc:__Z18AddGroupToWorkloadR26BlockRangeBalancedWorkloadjR13dynamic_arrayI10BlockRangeLj0EERS1_IjLj0EE
qVk:_CollectionBase_System_Collections_IList_get_Item_m3743372945
uHk:_Stream_ReadByte_m4291052673
TUa:__ZN4crnd12crn_unpacker22decode_alpha_endpointsEv
v0n:_Physics_Raycast_m1896872038
MZm:_Queue_1__ctor_m2068090025_gshared
Hac:__Z23CullDynamicObjectsUmbraPK4AABBPKN5Umbra15OcclusionBufferER9IndexList
ian:_SslStreamBase_RaiseRemoteCertificateValidation2_m2908038766
Yuf:_tt_cmap4_char_next
Xcd:__ZN11ForceModule6UpdateERK27ParticleSystemReadOnlyStateRK19ParticleSystemStateR23ParticleSystemParticlesjjRKN4math7_float4E
Uhi:__Z50RuntimeInvoker_Boolean_t97287965_Int16_t2552820387PFvvEPK10MethodInfoPvPS4_
ega:__ZN17DirectorFrameTime14ResetDSPValuesEv
Cnh:_MaterialReferenceManager_AddSpriteAssetInternal_m2549235028
d6k:_Convert_ToDecimal_m1233667008
PGd:__ZN17CapsuleCollider2D23VirtualRedirectTransferER18StreamedBinaryReadILb0EE
DNf:__ZN22UnityAnalyticsSettings10SetEnabledEb
CO:__ZN4FMOD7Channel11setPositionEjj
Hi:_glBindSampler
Unk:_ClientContext_get_ClientHelloProtocol_m1654639078
Lge:__ZN5physx2Sc8BodyCore20clearSpatialVelocityEbb
Li:_glGetVertexAttribiv
lCl:_Enumerator_System_Collections_IEnumerator_get_Current_m1975949486_gshared
Ltn:_PatternCompiler_EmitSub_m193323684
GMe:__ZN5physx6shdfnd5ArrayINS_9PxBounds3ENS0_15InlineAllocatorILj192ENS0_19ReflectionAllocatorIS2_EEEEE8recreateEj
Ita:__ZN9Scripting5Unity11Collections8LowLevel6Unsafe49NativeContainerSupportsDeferredConvertListToArray9InitProxyEv
w2c:__ZN8JSONRead8TransferIbEEvRT_PKc17TransferMetaFlagsb
j4d:__ZN5physx6shdfnd5ArrayIPvNS0_19ReflectionAllocatorINS_2Sc24ElementInteractionMarkerEEEE4copyINS0_15InlineAllocatorILj256ES6_EEEEvRKNS1_IS2_T_EE
kpm:_TimeSpan_ToString_m1128692466
loe:__ZNK5physx7NpShape15getGeometryTypeEv
jEn:_AesManaged_CreateEncryptor_m2294080233
UAn:_Event_GetHashCode_m3559153592
Fjm:_StringBuilder__ctor_m2367297767
THo:_GC_promote_black_lists
$vk:_CultureInfo_construct_datetime_format_m1928121315
k3c:__Z29Transfer_Blittable_ArrayFieldI8JSONRead8Vector4fEvRT_R9ArrayInfoRK23StaticTransferFieldInfo
mfg:_JSONNode_ToString_m838049535
TAi:__Z88RuntimeInvoker_RuntimeObject_RuntimeObject_SByte_t1669577662_RuntimeObject_RuntimeObjectPFvvEPK10MethodInfoPvPS4_
Lp:FUNCTION_TABLE_vd
Np:FUNCTION_TABLE_vi
m5:__ZN13RuntimeStaticI37UnityShaderCompilerExtPluginConfigureLb0EE16StaticInitializeEPv
iOo:__ZNSt3__26vectorINS_12basic_stringIDsNS_11char_traitsIDsEENS_9allocatorIDsEEEENS4_IS6_EEE18__construct_at_endEj
kNc:__ZN10systeminfo24GetRuntimePlatformStringEv
gkm:_StringBuilder_AppendFormat_m2403596038
Jbj:_DSASignatureDeformatter_SetHashAlgorithm_m3186995552
$Dm:_ReadOnlyCollection_1_System_Collections_Generic_ICollectionU3CTU3E_Clear_m2772202961_gshared
WTe:__ZN5physxL25solveContact4_StaticBlockEPKNS_23PxcSolverConstraintDescERNS_16PxcSolverContextE
Dcg:_MainMenu_PlayGame_m1630219755
ykm:_UnicodeEncoding_GetString_m332467280
XK:__ZNK8Animator17HasBoundPlayablesEv
hFd:__ZN17Physics2DSettings8TransferI24GenerateTypeTreeTransferEEvRT_
c4c:__ZN5Unity9rapidjson13GenericReaderINS0_4UTF8IcEES3_13JSONAllocatorE10ParseFalseILj0ENS0_19GenericStringStreamIS3_EENS0_15GenericDocumentIS3_S4_S4_EEEEvRT0_RT1_
Tmm:_SynchronizationContext_SetSynchronizationContext_m1249070039
N_d:__ZNK5physx3Cct17CapsuleController15getFootPositionEv
NRk:_Char_IsPunctuation_m3984409211
TWm:_List_1_AddEnumerable_m1267044261_gshared
nmi:__Z99RuntimeInvoker_Void_t1185182177_RuntimeObject_Int32_t2950945753_SByte_t1669577662_SByte_t1669577662PFvvEPK10MethodInfoPvPS4_
Raj:_KeySizes__ctor_m3113946058
gZc:__ZN5Unity9rapidjson12PrettyWriterI16TempBufferWriterNS0_4UTF8IcEES4_13JSONAllocatorE10StartArrayEv
gqd:__ZN14qsort_internal30FindAndMovePivotToLastPositionIP22ParticleRibbonSortDataiNSt3__27greaterIS1_EEEEvT_S6_T0_T1_
lta:__ZN9Scripting11UnityEngine16AndroidJNIHelper12CleanupProxyEv
Aa:invoke_iiifiii
Vuj:_RectTransform_INTERNAL_get_pivot_m2970933031
Hln:_UnityAction_1_Invoke_m927447181_gshared
Gto:__ZN6il2cpp2vm9Exception11FromNameMsgEPK11Il2CppImagePKcS6_S6_
fo:FUNCTION_TABLE_fiiifii
bUe:__ZN5physx25solveContact_BStaticBlockEPKNS_23PxcSolverConstraintDescEjRNS_16PxcSolverContextE
rK:__ZN10HumanTrait15InitializeClassEv
dha:__Z14GetTimeManagerv
Hgj:_Color32_op_Implicit_m213813866
yuj:_RectOffset_set_top_m713260669
wHc:__ZneRK20SpriteTilingPropertyS1_
rQf:__ZN19TransportJavaScript7CleanupEv
ryo:__ZNK15dense_hashtableI10KeyWrapperIP18Il2CppGenericClassES3_N6il2cpp8metadata22Il2CppGenericClassHashEN14dense_hash_setIS3_S6_NS3_14EqualsComparerINS5_25Il2CppGenericClassCompareEEENSt3__29allocatorIS3_EEE8IdentityESA_SD_E12test_deletedERK30dense_hashtable_const_iteratorIS3_S3_S6_SF_SA_SD_E
swc:__Z12GUIDToStringRK9UnityGUIDPc
Xda:__ZN15FileSystemEntry4LockE12FileLockModeP12FileAccessor
Doa:__ZN9Scripting11UnityEngine10Vector3Int12CleanupProxyEv
B2o:_emscripten_glDrawArrays__wrapper
tun:_Parser__ctor_m3200411199
fBk:_Int32_Equals_m2976157357
Ixi:__Z110RuntimeInvoker_Int32_t2950945753_Int32_t2950945753_Int32_t2950945753_Int32U26_t1369213839_Int32U26_t1369213839PFvvEPK10MethodInfoPvPS4_
fSd:__ZL4facejjjRN5physx6PxVec3ERKS0_S3_S3_PfRf
QJe:__ZN5physx6shdfnd5ArrayIPNS_2Sc14ConstraintCoreENS0_19ReflectionAllocatorIS4_EEE6resizeEjRKS4_
vcn:_BasicConstraintsExtension_Encode_m2009213240
nS:__ZN11AudioSource22UnmuteActiveVideoSinksEv
Bbn:_TlsException__ctor_m3717683709
BFo:__ZN4utf88internal20is_overlong_sequenceIiEEbjT_
D7n:__ZN6il2cpp2vm13MetadataCache8RegisterEPK22Il2CppCodeRegistrationPK26Il2CppMetadataRegistrationPK20Il2CppCodeGenOptions
T2e:__ZL18getFrictionPatchesRN5physx26PxcFrictionPatchStreamPairERNS_20PxcCorrelationBufferEPKhjRKNS_11PxTransformES8_f
MXi:_NumberFormatter_AppendExponent_m1258666517
Ild:__Z39ParticleSystemRenderer_RenderBillboardsIL21SpriteMaskInteraction2EEvRK15RenderNodeQueuej16VertexInputMasksi
_sc:__Z41Register_UnityEngine_Cursor_get_lockStatev
A5b:__Z14SetupLightmapsRK8Vector4fS1_R17ShaderPassContext
rko:__ZN14dense_hash_mapI10KeyWrapperIPK14Il2CppAssemblyEPK22Il2CppMonoAssemblyNameN6il2cpp5utils11PointerHashIS2_EENS4_14EqualsComparerINSt3__28equal_toIS3_EEEENSD_9allocatorINSD_4pairIKS4_S7_EEEEE13set_empty_keyERSJ_
aOa:__ZL20InitializeGUIShadersv
Vhj:_Display_get_systemWidth_m2423595549
TGc:__Z20DestroyObjectDelayedP6Objectf
j3:__ZN20DynamicHeapAllocatorI17LowLevelAllocatorED0Ev
gJf:__ZL56__ManagedRegistrationHelperFunction_AnalyticsSessionInfoPv
zDd:__ZN10ClipperLib11ClipperBase5ResetEv
Vzi:__Z159RuntimeInvoker_Boolean_t97287965_Vector3U26_t3464235976_Vector3U26_t3464235976_RaycastHitU26_t2429360258_Single_t1397266774_Int32_t2950945753_Int32_t2950945753PFvvEPK10MethodInfoPvPS4_
$Hc:__ZN11TimeManagerC2E10MemLabelId18ObjectCreationMode
RLd:__ZN8Collider16RecreateColliderEPK9Rigidbody
I2b:__ZN9DepthPassD2Ev
vpd:__Z17UpdateSprites2TplIL27ParticleSystemCurveEvalMode2ELS0_1EEvfRK11MinMaxCurveS3_RK23ParticleSystemParticlesPf
eO:__ZN11AudioFilter6GetDSPEv
GKn:_Vector2_Equals_m832062989
Qif:__ZN13PhysicsModule31GetColliderComponentsInChildrenERK10GameObjectbbR13dynamic_arrayIPN5Unity9ComponentELj0EE
zle:__ZN5physx2Sc14ConstraintCore9setBodiesEPNS0_9RigidCoreES3_
kIj:_Scrollbar_OnDrag_m4289602768
g8:__ZN19RuntimeSceneManager14CanUnloadSceneEP10UnityScene
L2b:__Z22ExtractRenderNodeQueueRK11CullResults15ExtractionFlagsR15RenderNodeQueue
kjm:_Array_Sort_TisProgressHandler_t926933139_m2260778159_gshared
zgf:__ZN5physx6shdfnd8PoolBaseINS_24NpPtrTableStorageManager8PtrBlockILi64EEENS0_19ReflectionAllocatorIS4_EEE12allocateSlabEv
YQ:__ZN24AudioScriptBufferManagerC2Ev
trd:__ZN11UnityEngine9Analytics18SceneLoadTimeEvent12ToJsonStringER9JSONWrite
Nvd:__ZN22FindParticleCollisions22ProcessFoundCollisionsERKfRK13dynamic_arrayI15BatchedRaycastsLj0EERS2_I20BatchedRaycastResultLj0EERS2_I21BatchedColliderResultLj0EE
cmf:__ZNSt3__26vectorIh13stl_allocatorIhL18MemLabelIdentifier1ELi16EEE8__appendEj
y9h:_InternalEnumerator_1_System_Collections_IEnumerator_get_Current_m3854084659_AdjustorThunk
CZc:__ZN8JSONRead32GetValueForKeyWithNameConversionEPKN5Unity9rapidjson12GenericValueINS1_4UTF8IcEE13JSONAllocatorEEPKc
nXh:_U3CGetEnumeratorU3Ec__Iterator0_System_Collections_IEnumerator_get_Current_m283764921_gshared
l_f:_TMP_InputField_LineUpCharacterPosition_m629994903
Guk:_CultureInfo_get_IcuName_m2258611679
i_c:__Z18Transfer_BlittableI9JSONWriteLb0EfEvRK29SerializationCommandArgumentsR31RuntimeSerializationCommandInfo
JMa:__Z21GetAsyncUploadManagerv
Sjg:_U3CDisplayTextMeshProFloatingTextU3Ec__Iterator0_MoveNext_m3975366013
xk:_emscripten_glDetachShader
wzi:__Z129RuntimeInvoker_Int32_t2950945753_Vector3U26_t3464235976_Vector3U26_t3464235976_Single_t1397266774_Int32_t2950945753_RuntimeObjectPFvvEPK10MethodInfoPvPS4_
kEj:_LayoutRebuilder_ReapplyDrivenProperties_m2581469389
u5m:_Collection_1_System_Collections_IList_Add_m3881957746_gshared
fXj:_Array_InternalArray__ICollection_Add_TisKeyValuePair_2_t4237331251_m2475361212_gshared
Gde:__ZNK5physx2Sc15ArticulationSim16createDriveCacheEfj
l1a:__ZN17GenericDynamicVBO20ReleaseChunkInternalERK21DynamicVBOChunkHandlejj
JAf:__ZL27CleanupModule_TextRenderingv
QQo:_fmodl
MQj:_SetPropertyUtility_SetStruct_TisBoolean_t97287965_m1901751180_gshared
jnl:_SymmetricTransform_OFB_m3842617151
WCb:__Z18Transfer_BlittableI18StreamedBinaryReadILb1EELb1E4AABBEvRK29SerializationCommandArgumentsR31RuntimeSerializationCommandInfo
O1d:__ZN5physx6shdfnd5ArrayIPNS_3Scb5ActorENS0_19ReflectionAllocatorIS4_EEE6resizeEjRKS4_
$Mb:__ZN19RuntimeSceneManager11CreateSceneEv
dgj:_Color__ctor_m286683560
stn:_PatternCompiler_Emit_m1540115729
htf:_ps_get_standard_strings
f6b:__Z27SetupBakedOcclusionForLightbRK15SharedLightDataR17ShaderPassContext
Yrj:_PropertyName_op_Implicit_m1633828199
zNo:__ZN6il2cpp2os5Mutex6UnlockEv
P6j:_EncoderFallbackException__ctor_m1051987327
Dme:__ZN5physx7NpScene14removeMaterialERNS_10NpMaterialE
W7d:__ZN5physx16PxsIslandManager24setEdgeArticulationJointERKNS_20PxsIslandManagerHookIjLj4294967295EEE
ocl:_Decimal_System_IConvertible_ToBoolean_m1123794670
XVe:__ZN5physx16PxsBroadPhaseMBP7destroyEv
Dge:__ZN5physx2Sc10NPhaseCore25addToDirtyInteractionListEPNS0_15CoreInteractionE
SHi:__Z98RuntimeInvoker_Int32_t2950945753_RaycastResult_t3360306849_RaycastResult_t3360306849_RuntimeObjectPFvvEPK10MethodInfoPvPS4_
J9c:__ZN27ParticleSystemReadOnlyState5ResetEv
XEj:_Mask__ctor_m1269055150
bAg:__ZL99WaitHandle_t1743403487_CustomAttributesCacheGenerator_WaitHandle_t1743403487____Handle_PropertyInfoP21CustomAttributesCache
ybk:_WebRequest_AddPrefix_m3187775913
K$f:_TMP_MaterialManager_ReleaseBaseMaterial_m309326875
_$b:__Z18RenderImageFiltersR10RenderLoopb
zEf:__Z43CanvasRenderer_Get_Custom_PropMaterialCountP12Il2CppObject
p6b:__ZNSt3__227__insertion_sort_incompleteIR23CompareReflectionProbesP31RuntimeReflectionProbeBlendInfoEEbT0_S5_T_
qTm:_List_1_Remove_m1457733883_gshared
T4k:_DateTime_IsLetter_m156019844
Y3e:__ZN5physx2Cm12DelegateTaskINS_2Sc5SceneEXadL_ZNS3_19islandGenSecondPassEPNS_10PxBaseTaskEEEE11runInternalEv
Gad:__ZN15CollisionModule9ResetSeedERK27ParticleSystemReadOnlyState
eEb:__ZN18StreamedBinaryReadILb1EE21TransferSTLStyleArrayI13dynamic_arrayIdLj0EEEEvRT_17TransferMetaFlags
Gvc:__ZN19RuntimeSceneManager32LoadSceneAsyncByNameOrBuildIndexERKN4core12basic_stringIcNS0_20StringStorageDefaultIcEEEEiNS_11LoadingModeEb
l$l:_Dictionary_2_set_Item_m3327106492_gshared
Xle:__ZN5physx6shdfnd4sortIPvNS0_4LessIS2_EENS0_19ReflectionAllocatorINS_10NpMaterialEEEEEvPT_jRKT0_RKT1_j
blk:_MD4Managed_Encode_m386285215
hea:__ZN10InputEventD2Ev
Bol:_Enumerator_MoveNext_m3398155861_AdjustorThunk
jw:__ZN7mecanim4hand8HandPoseC2Ev
Amn:_UnityAction_3_Invoke_m2703100401_gshared
Gvl:_ShimEnumerator_get_Key_m1158193206_gshared
cPf:__ZN22UnityWebRequestManagerD2Ev
ZAn:_Event_get_character_m1666742088
VLb:__Z20SetPlayerPauseDirect11PlayerPause
T$d:__ZN5physx3Cct15ObstacleContext13onOriginShiftERKNS_6PxVec3E
vQo:_isalpha
fXf:_SubmitEvent__ctor_m1301885711
TSf:__GLOBAL__sub_I_artifacts_WebGL_codegenerator_0_cpp_7535
D4k:_Convert_ToChar_m1442101407
KEe:__ZN5physx6shdfnd8PoolBaseINS_2Gu31SpherePersistentContactManifoldENS0_19ReflectionAllocatorIS3_EEE12allocateSlabEv
s8d:__ZN5physx6shdfnd5ArrayIPNS_2Sc7BodySimENS0_19ReflectionAllocatorIS4_EEE8recreateEj
pfd:__Z25UpdateOrbitalAndRadialTplIL27ParticleSystemCurveEvalMode4ELS0_3ELS0_1EEvRK11MinMaxCurveS3_S3_S3_S3_S3_S3_R23ParticleSystemParticlesjjRKN4math8float3x3ERKNS6_7affineXERKNS6_7_float4E
tBc:__ZZL31RegisterRectTransformPropertiesR22GenericPropertyBindingEN28Wrapper_RectTransformPivoty113SetFloatValueEPvf
itd:__ZNK12b2MotorJoint17GetReactionTorqueEf
Ibl:_DateTimeOffset_get_Offset_m2040541042_AdjustorThunk
Tfm:_Array_InternalArray__set_Item_TisResolveHandler_t4124874245_m3279250566_gshared
uco:__ZN6il2cpp2vmL17IsSocketAsyncCallEP14Il2CppDelegate
Y1k:_Slot_t3975888750_marshal_pinvoke_back
dcd:__ZNK13TriggerModule6UpdateERK24ParticleSystemUpdateDataR23ParticleSystemParticlesjRKf
HSl:_List_1_GetIndex_m3976890482_gshared
xCj:_Selectable_get_image_m1928917691
EKb:__ZN17PersistentManager9AddStreamEv
Sl:_time
cAh:_ContentSizeFitter_set_verticalFit_m1831566876
X_j:_TripleDESCryptoServiceProvider_CreateDecryptor_m740960117
ZAi:__Z122RuntimeInvoker_Void_t1185182177_Color_t2555686324_Single_t1397266774_SByte_t1669577662_SByte_t1669577662_SByte_t1669577662PFvvEPK10MethodInfoPvPS4_
e3d:__ZNK5physx2Sc8ShapeSim15getPxsRigidCoreEv
Ria:__ZN18SpriteAtlasManagerD2Ev
fmj:_Material_EnableKeyword_m329692301
i4d:__ZN5physx2Sc20ContactStreamManager28fillInContactReportExtraDataEPNS_17PxContactPairPoseEjRKNS0_8RigidSimEb
Xpf:_cf2_stack_free
iQc:__Z41Quaternion_CUSTOM_SlerpUnclamped_InjectedRK11QuaternionfS1_fRS_
ure:__ZN5physx7NpCloth23removeCollisionTriangleEj
TZj:_SHA512Managed_HashCore_m2377807474
udd:__Z9UpdateTplIL27ParticleSystemCurveEvalMode4EEvRK11MinMaxCurveR23ParticleSystemParticlesPfRKN4math7_float4EjjRK8Vector2f
rvk:_CompareInfo_IndexOf_m667936183
mz:__ZN7mecanim9animation19EvaluateFloatValuesEPKNS0_18ClipMuscleConstantEPKNS_18ValueArrayConstantEPKNS0_12ClipBindingsEPKNS0_10ClipOutputEPNS0_18AnimationNodeStateEfbb
CH:__ZN8Animator31ClearInternalControllerPlayableEv
fYb:__ZN26SinglePassStereoSupportExt18AfterSetViewMatrixEv
b1j:_SecurityContext_Capture_m1047743382
Rej:_Bounds__ctor_m1937678907_AdjustorThunk
xwj:_SetupCoroutine_InvokeMember_m2661944898
Ukj:_Input_GetAxisRaw_m2316819917
_Re:__ZNK5physx2Gu29EPASupportMapPairRelativeImplINS0_9TriangleVENS0_11ConvexHullVEE9doSupportERKNS_6shdfnd3aos5Vec3VERS7_SA_SA_
VWi:_NumberFormatter_Append_m950227932
ego:__ZN15dense_hashtableINSt3__24pairIK10KeyWrapperINS1_IPK9FieldInfoP11Il2CppClassEEEjEES9_17ReflectionMapHashIS8_EN14dense_hash_mapIS9_jSD_NS9_14EqualsComparerINS0_8equal_toIS8_EEEENS0_9allocatorISB_EEE9SelectKeyESI_SK_E4findERSA_
XTk:_SimpleEnumerator_MoveNext_m3113120129
xgj:_Color_get_yellow_m1287957903
_Mb:__ZN13LoadOperationC2E10MemLabelId
Ebb:__ZNK9Transform21GetLocalToWorldMatrixEv
B0b:__ZN13RenderTexture19SetAutoGenerateMipsEb
qKa:__Z20GetTextureFormatInfo13TextureFormat
mEc:__Z40InitializeLightAnimationBindingInterfacev
lmk:_RSAManaged_ToXmlString_m2369501989
aC:__ZN26AnimatorControllerPlayable8GetFloatEiRf
Ocl:_Decimal_System_IConvertible_ToUInt64_m1323635232_AdjustorThunk
lUh:_LogicalCallContext__ctor_m1263247987
Z9k:_DateTime_System_IConvertible_ToSingle_m2193708681_AdjustorThunk
aIb:__ZNK35ScriptingManagedObjectProxyRegistry11InitProxiesEv
ZFh:_Image_get_alphaHitTestMinimumThreshold_m2015654453
ylg:__ZL64String_t_CustomAttributesCacheGenerator_String_Split_m3580120853P21CustomAttributesCache
RLo:__ZN6il2cpp5utils10MemoryPool6MallocEj
vO:__ZN11SoundHandle8InstanceD2Ev
QNh:_ResourceEnumerator_Reset_m3754276504
Lha:__ZN31CanvasBatchIntermediateRenderer13StaticDestroyEPv
MHe:__ZN5physx13NpVolumeCache13onOriginShiftERKNS_6PxVec3E
J_j:_ToBase64Transform_TransformBlock_m2497349397
