jd:_glClearStencil
oim:_Array_Resize_TisByte_t1134296376_m80436779_gshared
krm:_UInt16_System_IConvertible_ToChar_m2096055221_AdjustorThunk
LFj:_MaskableGraphic_OnCanvasHierarchyChanged_m1780820310
EQj:_Array_TrueForAll_TisRuntimeObject_m1084992726_gshared
JRd:__ZN5physx2Gu19gjkLocalPenetrationINS0_8CapsuleVENS0_17ShrunkConvexHullVEEEjRKT_RKT0_RKNS_6shdfnd3aos6FloatVERNSB_5Vec3VESG_SG_RSC_PhSI_Rhb
_he:__ZN5physx2Sc27ConstraintProjectionManager29removeFromPendingGroupUpdatesERNS0_13ConstraintSimE
l1g:__ZL95CanvasRenderer_t2598313366_CustomAttributesCacheGenerator_CanvasRenderer_SetMaterial_m824577244P21CustomAttributesCache
bBo:__ZN6il2cpp2vm5Array13GetByteLengthEP11Il2CppArray
kgm:_Array_InternalArray__set_Item_TisDateTime_t3738529785_m1331437427_gshared
yDn:_KeyBuilder_get_Rng_m3373220441
oOh:_CompilerGeneratedAttribute__ctor_m3151881902
_Of:__ZN15DownloadHandler7OnAbortEv
D5e:__ZN5physx15PxsCCDSweepTaskD0Ev
wAa:__Z30GetIntermediateRendererManagerv
cPm:_U3CCreateWhereIteratorU3Ec__Iterator1D_1_System_Collections_Generic_IEnumeratorU3CTSourceU3E_get_Current_m1909387290_gshared
aVa:__Z21SourceMipLevelForBlitiiii
AGa:__ZN31CanvasBatchIntermediateRenderer15AddAsRenderNodeER15RenderNodeQueueRK20DeprecatedSourceData
sZk:_Dictionary_2_Do_ICollectionCopyTo_TisInt32_t2950945753_m2590022749_gshared
yom:_TimeSpan_get_Hours_m550761902
rZg:__ZL72GUISkin_t1244372282_CustomAttributesCacheGenerator_m_verticalSliderThumbP21CustomAttributesCache
anc:__ZN9ShaderLab9SubShader15FindNamedPassesERKN4core12basic_stringIcNS1_20StringStorageDefaultIcEEEER13dynamic_arrayIPNS_4PassELj0EE
Vfk:_Capture_get_Index_m745081289
EQg:__ZL63PlayableOutputHandle_t4208053793_CustomAttributesCacheGeneratorP21CustomAttributesCache
z0:__ZN11UnityEngine15CloudWebService26CloudServiceEventWithParam12ToJsonStringER9JSONWrite
Hyh:_CanvasScaler_get_defaultSpriteDPI_m871626936
IKf:__ZN11UnityEngine7Connect14AppUpdateEventD0Ev
kwc:__Z59Register_UnityEngine_PlayerConnectionInternal_DisconnectAllv
Bng:__ZL66RuntimeArray_CustomAttributesCacheGenerator_Array_Sort_m3287581440P21CustomAttributesCache
fHn:_AnalyticsEventTracker_SendEvent_m1365958832
aMe:__ZNK5physx2Sc5Scene24getContactModifyCallbackEv
j4:__ZdlPv
Lt:__ZN11UnityEngine9Animation28GenericAnimationBindingCacheD2Ev
hPe:__ZN5physx2Sq10AABBPruner10addObjectsEPjPKNS_9PxBounds3EPKNS0_13PrunerPayloadEj
Dfn:_X509Store_LoadCrl_m1881903843
QEo:__ZN15dense_hashtableINSt3__24pairIK10KeyWrapperIPK19Il2CppGenericMethodEP10MethodInfoEES6_N6il2cpp8metadata23Il2CppGenericMethodHashEN14dense_hash_mapIS6_S9_SD_NS6_14EqualsComparerINSC_26Il2CppGenericMethodCompareEEENS0_9allocatorISA_EEE9SelectKeyESH_SJ_E13set_empty_keyERKSA_
NXk:_Array_Sort_TisUICharInfo_t75501106_TisUICharInfo_t75501106_m722747892_gshared
kpo:_il2cpp_runtime_unhandled_exception_policy_set
WUk:_CaseInsensitiveComparer__ctor_m2101975011
$ki:__Z67RuntimeInvoker_Byte_t1134296376_Int32_t2950945753_Int32_t2950945753PFvvEPK10MethodInfoPvPS4_
Dji:__Z53RuntimeInvoker_UInt32_t2560061978_Decimal_t2948259380PFvvEPK10MethodInfoPvPS4_
Lzm:_ReadOnlyCollection_1_System_Collections_ICollection_get_SyncRoot_m1285464749_gshared
ic:invoke_viiiifiiiiif
Vcc:__Z18RestoreRenderStateR20CameraRenderOldStateR17ShaderPassContext
jDb:__Z18Transfer_BlittableI18StreamedBinaryReadILb1EELb1E5RectTIfEEvRK29SerializationCommandArgumentsR31RuntimeSerializationCommandInfo
Yyb:__Z18Transfer_BlittableI24GenerateTypeTreeTransferLb0E11ColorRGBA32EvRK29SerializationCommandArgumentsR31RuntimeSerializationCommandInfo
Bmj:_Material_GetVector_m2472259403
bIb:__Z25scripting_class_from_name17ScriptingImagePtrPKcS1_
cfm:_Array_InternalArray__Insert_TisSingle_t1397266774_m3161726127_gshared
Gin:_TMP_XmlTagStack_1_Add_m479786267_AdjustorThunk
Ulo:__ZN14dense_hash_mapI10KeyWrapperINSt3__24pairIPK12PropertyInfoP11Il2CppClassEEEj17ReflectionMapHashIS8_ENS9_14EqualsComparerINS1_8equal_toIS8_EEEENS1_9allocatorINS2_IKS9_jEEEEE15set_deleted_keyERSH_
VJb:__Z29scripting_class_enum_basetype17ScriptingClassPtr
x2d:__ZN5physx6shdfnd8PoolBaseINS_2Sc10NPhaseCore16ClothListElementENS0_19ReflectionAllocatorIS4_EEE17releaseEmptySlabsEv
mef:__Z20GetPhysicsModuleSpecv
IWc:__ZN6IDList10BeginOnGUIEv
lQj:_Array_InternalArray__ICollection_Remove_TisColor_t2555686324_m1658001816_gshared
xza:__ZNK12BaseRenderer18GetRenderNodeCountEv
cGm:_ReadOnlyCollection_1_System_Collections_ICollection_get_IsSynchronized_m262185694_gshared
evd:__ZN16PhysicsManager2D7RaycastERK3RayfiR12RaycastHit2D
Aam:_Enumerator_MoveNext_m3714175425_gshared
wTn:__ZN30GenericInterfaceActionInvoker1IP24SingleU5BU5D_t1444911251E6InvokeEPK10MethodInfoP12Il2CppObjectS1_
f6e:__ZN5physx2Sc14ConstraintCore10breakApartEv
MGh:_PropertyBuilder_get_CanWrite_m2657562188
Ghi:__Z143RuntimeInvoker_Boolean_t97287965_RuntimeObject_Int32_t2950945753_RuntimeObject_SByte_t1669577662_UInt64U26_t1265593412_ExceptionU26_t3600731591PFvvEPK10MethodInfoPvPS4_
vma:__ZL43__ManagedRegistrationHelperFunction_TexturePv
U2f:_TMP_SubMesh_UpdateMeshPadding_m2529023756
zSn:__ZL25UnresolvedVirtualCall_313P12Il2CppObjecti40CustomAttributeTypedArgument_t2723150157PK10MethodInfo
OUj:_Array_InternalArray__IndexOf_TisKeyValuePair_2_t625878672_m2693022864_gshared
pbi:_InternalEnumerator_1_get_Current_m1477715453_gshared
akg:_TMP_ExampleScript_01_Update_m1912934944
rLl:_Enumerator__ctor_m2827156589_AdjustorThunk
Mgb:__ZNK20LocalFileSystemPosix6ParentERK13FileEntryDataRN4core12basic_stringIcNS3_20StringStorageDefaultIcEEEE
bKg:__ZL118TouchScreenKeyboard_t731888065_CustomAttributesCacheGenerator_TouchScreenKeyboard_Open_m3609399077____textPlaceholder6P21CustomAttributesCache
Qcf:__ZN5physx7Cooking20loadTriangleMeshDescERKNS_18PxTriangleMeshDescERNS_19TriangleMeshBuilderE
B7m:_Collection_1_System_Collections_IList_Remove_m1476284619_gshared
Kgl:_ContractionComparer__ctor_m3439667810
tZl:_List_1_Find_m279961672_gshared
nMg:__ZL51AIUpdate_t2336814084_CustomAttributesCacheGeneratorP21CustomAttributesCache
YYj:_SHA1CryptoServiceProvider__ctor_m4195188793
Nlo:__ZN15dense_hashtableINSt3__24pairIK10KeyWrapperINS1_IPK9EventInfoP11Il2CppClassEEEjEES9_17ReflectionMapHashIS8_EN14dense_hash_mapIS9_jSD_NS9_14EqualsComparerINS0_8equal_toIS8_EEEENS0_9allocatorISB_EEE9SelectKeyESI_SK_E15set_deleted_keyERKSB_
Jpa:__ZN9Scripting11UnityEngine9Profiling8Recorder12CleanupProxyEv
XCg:__ZL64MissingFieldException_t1989070983_CustomAttributesCacheGeneratorP21CustomAttributesCache
zDh:_Graphic_get_defaultGraphicMaterial_m3107284931
jSe:__ZNK5physx2Gu29EPASupportMapPairRelativeImplINS0_9TriangleVENS0_4BoxVEE6getDirEv
jHb:__ZN18StreamedBinaryReadILb0EE21TransferSTLStyleArrayI13dynamic_arrayI11ColorRGBA32Lj0EEEEvRT_17TransferMetaFlags
qCh:_Dropdown_Hide_m504034854
RXi:_NumberFormatter_NumberToString_m264078176
qqa:__ZN9Scripting11UnityEngine20ManagedStreamHelpers9InitProxyEv
P4n:__ZN13Il2CppHashSetIPK19Il2CppGenericMethodN6il2cpp8metadata23Il2CppGenericMethodHashENS4_26Il2CppGenericMethodCompareENSt3__29allocatorI10KeyWrapperIS2_EEEEC2EjRKS5_RKS6_
ZKn:_Vector2_get_up_m2647420593
KTb:__ZN7ApiGLES17CopyBufferSubDataEjjlll
Gdm:_Array_InternalArray__ICollection_CopyTo_TisUInt64_t4134040092_m691431926_gshared
g7m:__ZN23InterfaceActionInvoker2Ii22OrderBlock_t1585977831E6InvokeEjP11Il2CppClassP12Il2CppObjectiS0_
tak:_IPAddress_ToString_m1181734207
ygg:_KeyEnumerator_get_Current_m485720715
Izf:__Z48Register_UnityEngine_TextMesh_INTERNAL_get_colorv
Vjm:_StringBuilder_Append_m1965104174
JYc:__ZN5Unity9rapidjson15GenericDocumentINS0_4UTF8IcEE13JSONAllocatorS4_E11ParseStreamILj1ES3_NS0_25GenericInsituStringStreamIS3_EEEERS5_RT1_
C4n:__ZNSt3__26vectorIPK10Il2CppTypeNS_9allocatorIS3_EEE7reserveEj
V5l:_EqualityComparer_1__cctor_m3766928733_gshared
m9l:_GenericComparer_1__ctor_m2809113506_gshared
DX:__ZN11AudioModule26SetDefaultMicrophoneDriverEPv
Oue:__ZNK5physx15NpActorTemplateINS_15PxParticleFluidEE22getClientBehaviorFlagsEv
Kik:_Kernel_modInverse_m652700340
uRa:__ZNK14Texture2DArray26CanReuploadDataToGfxDeviceEv
hln:_InvokableCall_3_remove_Delegate_m1676240702_gshared
zbh:__ZL69TMP_Dropdown_t3024694699_CustomAttributesCacheGenerator_m_CaptionTextP21CustomAttributesCache
d1g:__ZL57CanvasRenderer_t2598313366_CustomAttributesCacheGeneratorP21CustomAttributesCache
Vxa:__ZN17GlobalGameManager23VirtualRedirectTransferER17RemapPPtrTransfer
mvf:_sfnt_stream_close
REb:__ZN18StreamedBinaryReadILb1EE8TransferI13dynamic_arrayIsLj0EEEEvRT_PKc17TransferMetaFlags
C8f:_BossMovement__ctor_m3937984545
rPl:_List_1_System_Collections_Generic_ICollectionU3CTU3E_get_IsReadOnly_m1990628894_gshared
QXc:__ZN5IMGUI18RepaintModalWindowER8GUIState
X_m:_Collection_1_InsertItem_m578029531_gshared
L6f:_TMP_Text_SetFontBaseMaterial_m3898558333
M7j:_HybridDictionary_get_IsSynchronized_m2987560362
nPn:__ZL25UnresolvedVirtualCall_139P12Il2CppObject17Color_t2555686324PK10MethodInfo
t_h:_InternalEnumerator_1_Dispose_m2258333122_AdjustorThunk
uDa:__ZNK15dense_hashtableINSt3__24pairIKN9ShaderLab7Program23ShaderKeywordSetAndHashEPKNS2_10SubProgramEEES4_NS3_24ShaderKeywordHashFunctorEN14dense_hash_mapIS4_S8_SA_NS0_8equal_toIS4_EE13stl_allocatorIS9_L18MemLabelIdentifier67ELi16EEE9SelectKeyESD_SG_E23find_position_with_hashERS5_j
dvk:_CompareInfo_Finalize_m404687489
WZa:__Z23SetSpriteMeshIndexCountP14SharedMeshDataj
Zlm:_UTF8Decoder_GetChars_m1236346907
UWf:_TMP_FontAsset_HasCharacters_m3087390417
hWg:__ZL99AudioSource_t3935305588_CustomAttributesCacheGenerator_AudioSource_t3935305588____clip_PropertyInfoP21CustomAttributesCache
SEo:__ZN6il2cpp8metadata13GenericMethod9GetMethodEPK19Il2CppGenericMethod
ts:__ZNSt3__26vectorIN4core12basic_stringIcNS1_20StringStorageDefaultIcEEEENS_9allocatorIS5_EEE7reserveEj
e_i:_Default_SelectProperty_m1220817815
S4i:_RemotingConfiguration_IsRemotelyActivatedClientType_m4117048589
azj:_Transform_TransformPoint_m226827784
Hpn:_ListPool_1_Get_m738675669_gshared
JPb:__ZN13GfxDeviceGLES11SetViewportERK5RectTIiE
apd:__Z19UpdateSingleRow2TplIL27ParticleSystemCurveEvalMode3ELS0_2EEvfRK11MinMaxCurveS3_RK23ParticleSystemParticlesPfbiii
hlh:__ZL135U3CAnimateVertexColorsU3Ec__Iterator0_t956521787_CustomAttributesCacheGenerator_U3CAnimateVertexColorsU3Ec__Iterator0__ctor_m3442072150P21CustomAttributesCache
Yoh:_TextMeshPro_set_sortingOrder_m8809902
XSc:__Z24Time_Get_Custom_PropTimev
L9d:__ZN5physx3Scb5Scene14addRigidStaticERNS0_11RigidStaticEb
De:_emscripten_glDepthRange
ban:_SslStreamBase_BeginNegotiateHandshake_m4180435790
TSn:__ZL25UnresolvedVirtualCall_333P12Il2CppObject22UILineInfo_t4195266810PK10MethodInfo
pkf:__ZN9Scripting11UnityEngine10UILineInfo12CleanupProxyEv
WWd:__ZN5physx2Gu24contactConvexHeightfieldERKNS0_13GeometryUnionES3_RKNS_11PxTransformES6_RKfRNS0_5CacheERNS0_13ContactBufferE
c7d:__ZN5physx6shdfnd5ArrayIPvNS0_19ReflectionAllocatorINS_2Cm5BlockIS2_Lj8EEEEEE15growAndPushBackERKS2_
mfc:__ZNSt3__26vectorINS_4pairIN4core12basic_stringIcNS2_20StringStorageDefaultIcEEEES6_EE13stl_allocatorIS7_L18MemLabelIdentifier38ELi16EEE12__move_rangeEPS7_SC_SC_
Bjc:__Z14resize_trimmedINSt3__26vectorIN9ShaderLab20SerializedSubProgram12UAVParameterENS0_9allocatorIS4_EEEEEvRT_j
PYc:__ZN5Unity9rapidjson13GenericReaderINS0_4UTF8IcEES3_13JSONAllocatorE11ParseObjectILj1ENS0_25GenericInsituStringStreamIS3_EENS0_15GenericDocumentIS3_S4_S4_EEEEvRT0_RT1_
kLc:__Z10DestripifyPKjjRNSt3__26vectorIj13stl_allocatorIjL18MemLabelIdentifier1ELi16EEEE
Vwh:_StandaloneInputModule_GetRawMoveVector_m2737091079
xin:_TMP_XmlTagStack_1_Pop_m3298593939_AdjustorThunk
I7g:__ZL62Selectable_t3250028441_CustomAttributesCacheGenerator_m_ColorsP21CustomAttributesCache
y5k:_Convert_ToDateTime_m2616935982
WRb:__ZThn10632_N13GfxDeviceGLES22SetScissorRectPlatformERK5RectTIiE
Lan:_SslStreamBase_EndWrite_m4073224031
pca:__ZNSt3__218__insertion_sort_3IRNS_6__lessI14ObjectLoadDataS2_EEPS2_EEvT0_S6_T_
sYg:__ZL92Event_t2956885303_CustomAttributesCacheGenerator_Event_Internal_GetMousePosition_m1101229675P21CustomAttributesCache
seg:_JSONLazyCreator_GetEnumerator_m3802060621
Rma:__ZL50__ManagedRegistrationHelperFunction_PostLateUpdatePv
DUa:__ZN4crndL20crnd_default_reallocEPvjPjbS0_
DNi:__Z54RuntimeInvoker_CustomAttributeNamedArgument_t287865710PFvvEPK10MethodInfoPvPS4_
yRg:__ZL122SupportedRenderingFeatures_t353898663_CustomAttributesCacheGenerator_U3CrendererSupportsReflectionProbesU3Ek__BackingFieldP21CustomAttributesCache
lXe:__ZN5physx24PxsComputeAABBLocalSpaceERKNS_18PxcAABBDataDynamicERNS_9PxBounds3E
eNj:_Array_get_swapper_TisProgressHandler_t926933139_m2329401730_gshared
c$a:__ZN18SpriteAtlasManager19AddRequestingSpriteE4PPtrI6SpriteE
ggn:_Predicate_1_EndInvoke_m3987519925_gshared
kJc:__Z20IsValidRealtimeLightRK15SharedLightData9LightTypej
JZg:__ZL102GUIStyle_t3956901511_CustomAttributesCacheGenerator_GUIStyle_INTERNAL_CALL_GetRectOffsetPtr_m152975056P21CustomAttributesCache
lS:__ZNK4PPtrI9AudioClipEptEv
nTi:_UnmanagedMemoryStream_Write_m930787521
_bc:__ZN23ScriptableRenderContextC2Ev
dFh:_GridLayoutGroup_get_spacing_m2409263614
PAa:__ZN4PPtrI13RenderTextureE8TransferI18StreamedBinaryReadILb0EEEEvRT_
IUl:_List_1_CheckIndex_m581273900_gshared
bxf:_UNITY_FT_Stream_GetChar
iCn:_GUIStyle_get_fixedWidth_m2576616348
Xpn:_ObjectPool_1_get_countAll_m819305395_gshared
KDb:__Z18Transfer_BlittableI18StreamedBinaryReadILb1EELb1EdEvRK29SerializationCommandArgumentsR31RuntimeSerializationCommandInfo
wTm:_List_1_ToArray_m190175978_gshared
$Xi:_NumberFormatter_NumberToString_m655666043
vQk:_Byte_System_IConvertible_ToUInt64_m371883985_AdjustorThunk
HWj:_Enumerable_ThenByDescending_TisRuntimeObject_TisInt32_t2950945753_m267759832_gshared
gqn:_TMPro_InstructionOverlay__ctor_m2020557448
LPe:__ZN5physx6shdfnd8internal8HashBaseINS0_4PairIKNS_2Sq13PrunerPayloadEjEES5_NS0_4HashIS5_EENS1_11HashMapBaseIS5_jS9_NS0_9AllocatorEE6GetKeyESB_Lb1EE5eraseERS6_
aKb:__Z26BuildSerializationCacheFor17ScriptingClassPtrRb
qhn:_FastAction_2_Call_m3751671956_gshared
$sh:_EventSystem_get_firstSelectedGameObject_m1576206896
Dmh:_FloatTween_TweenValue_m554509216
FVb:__ZN7ApiGLES15BlitFramebufferEN2gl6HandleILNS0_10ObjectTypeE9EEENS0_15FramebufferReadES3_S3_iiiiiiiiNS0_15FramebufferTypeE
D7e:__ZN5physx13GuMeshFactory16createConvexMeshERNS_13PxInputStreamE
Hgf:__ZN5physx6shdfnd8internal8HashBaseINS0_4PairIKPKcjEES5_NS0_4HashIS5_EENS1_11HashMapBaseIS5_jS9_NS_7profile26WrapperReflectionAllocatorIjEEE6GetKeyESD_Lb1EE6createERS6_Rb
jti:__Z112RuntimeInvoker_RuntimeObject_RuntimeObject_RuntimeObject_RuntimeObject_RuntimeObject_RuntimeObject_RuntimeObjectPFvvEPK10MethodInfoPvPS4_
Eai:_InternalEnumerator_1_System_Collections_IEnumerator_get_Current_m3553395619_AdjustorThunk
cqg:__ZL70AssemblyVersionCompatibility_t766556580_CustomAttributesCacheGeneratorP21CustomAttributesCache
YPg:__ZL60ReadOnlyAttribute_t3518714744_CustomAttributesCacheGeneratorP21CustomAttributesCache
jNk:_Array_SetValue_m3998268557
X7l:_EqualityComparer_1__cctor_m818408565_gshared
aSh:_ServerContextTerminatorSink__ctor_m2519287841
$Vn:_RequestHelper_set_Uri_m1421599463
Bzh:_ColorBlock_set_highlightedColor_m2089444414_AdjustorThunk
cHi:__Z59RuntimeInvoker_Boolean_t97287965_X509ChainStatus_t133602714PFvvEPK10MethodInfoPvPS4_
cJl:_Enumerator_MoveNext_m880141662_AdjustorThunk
swi:__Z52RuntimeInvoker_Boolean_t97287965_Vector3_t3722313464PFvvEPK10MethodInfoPvPS4_
d4f:_TMP_Text_get_alpha_m1443805135
Iqk:_Context_EndSwitchingSecurityParameters_m4148956166
msf:_otv_PairPos_validate
_zg:__ZL63ThreadStateException_t3003788475_CustomAttributesCacheGeneratorP21CustomAttributesCache
_z:__ZN7mecanim9animation14CopyHumanPosesEPKNS0_18AnimationNodeStateEPS1_RKNS_6bitsetILj83EEE
_yh:__ZN23InterfaceActionInvoker1IiE6InvokeEjP11Il2CppClassP12Il2CppObjecti
Udo:__ZN6il2cpp6icalls8mscorlib6SystemL8IsStaticEPK12PropertyInfo
fLb:__Z9InitInputv
elo:__ZN30dense_hashtable_const_iteratorINSt3__24pairIK10KeyWrapperIPK22Il2CppGenericParameterEPK24MonoGenericParameterInfoEES6_N6il2cpp5utils11PointerHashIS4_EEN14dense_hash_mapIS6_SA_SF_NS6_14EqualsComparerINS0_8equal_toIS5_EEEENS0_9allocatorISB_EEE9SelectKeyESK_SM_E30advance_past_empty_and_deletedEv
n_f:_TMP_InputField_FindtPrevWordBegin_m2238803771
bza:__ZN17TransformInternal36OnScaleChangedCalculateTransformTypeE15TransformAccess
B7e:__ZNK5physx13GuMeshFactory15getConvexMeshesEPPNS_12PxConvexMeshEjj
qho:__ZN6il2cpp2gc19AppendOnlyGCHashMapINSt3__24pairIPK10MethodInfoP11Il2CppClassEEP22Il2CppReflectionMethod17ReflectionMapHashIS9_ENS2_8equal_toIS9_EEE3AddERKS9_SB_
Lkb:__ZN16MemoryFileSystem6DeleteER13FileEntryDatab
Vni:__Z81RuntimeInvoker_Void_t1185182177_RuntimeObject_Int64_t3736567304_Int32_t2950945753PFvvEPK10MethodInfoPvPS4_
UVl:_List_1_set_Item_m1979164443_gshared
cXj:_Array_InternalArray__ICollection_Add_TisLink_t3209266973_m77922316_gshared
LRa:__ZL21BlitScaleStbImageImplRK14ImageReferenceRS_NS_10ColorSpaceE
Weh:__ZL70TMP_Text_t2599618874_CustomAttributesCacheGenerator_m_characterSpacingP21CustomAttributesCache
gme:__ZN5physx10NpMaterial17setStaticFrictionEf
Sdd:__Z9UpdateTplIL27ParticleSystemCurveEvalMode0EEvRK11MinMaxCurveS3_S3_R23ParticleSystemParticlesjjRKN4math8float3x3ERKNS6_7_float4E
cHe:__ZNK5physx7NpScene18getStaticStructureEv
qu:__ZL48__ManagedRegistrationHelperFunction_SkeletonBonePv
Vqh:_TextMeshProUGUI_OnEnable_m1040268881
AGe:__ZNK5physx7NpScene19getFilterShaderDataEv
DAj:_InputField_get_keyboardType_m1248105267
Oub:__Z29Transfer_Blittable_ArrayFieldI14SafeBinaryReadyEvRT_R9ArrayInfoRK23StaticTransferFieldInfo
sS:__ZN20SoundChannelInstance15setChannelGroupEPN4FMOD12ChannelGroupE
Vbh:__ZL66TMP_FontAsset_t364381626_CustomAttributesCacheGenerator_m_fontInfoP21CustomAttributesCache
Osn:_Match__ctor_m2425511580
$ll:_KeyPairPersistence_Remove_m1876145547
brg:__ZL63FileNotFoundException_t225391025_CustomAttributesCacheGeneratorP21CustomAttributesCache
hhe:__ZN5physx2Sc19ShapeInstancePairLL26onPoseChangedWhileSleepingEv
FSj:_Array_InternalArray__IEnumerable_GetEnumerator_TisTMP_LineInfo_t1079631636_m1406321289_gshared
ddh:__ZL140U3CMouseDragOutsideRectU3Ec__Iterator1_t2283961069_CustomAttributesCacheGenerator_U3CMouseDragOutsideRectU3Ec__Iterator1_Dispose_m2308839382P21CustomAttributesCache
qad:__ZN12LightsModule13AwakeFromLoadEP14ParticleSystemRK27ParticleSystemReadOnlyState
t$f:_TMP_LinkInfo_GetLinkText_m1788600626_AdjustorThunk
sRe:__ZN5physx22PxcSweepCapsuleCapsuleERKNS_11PxsCCDShapeES2_PKNS_12PxsRigidBodyES5_RKNS_11PxTransformES8_S8_S8_fRNS_6PxVec3ESA_RNS_10PxcNpCacheERNS_18PxcNpThreadContextEf
Wc:invoke_vifffii
xGb:__Z35Transfer_Blittable_FixedBufferFieldI18StreamedBinaryReadILb0EEaEvRK29SerializationCommandArgumentsR31RuntimeSerializationCommandInfo
fEi:__Z89RuntimeInvoker_Void_t1185182177_Single_t1397266774_Single_t1397266774_Color32_t2600501292PFvvEPK10MethodInfoPvPS4_
E3j:_String_IndexOf_m3406607758
m$d:__ZNK5physx3Cct17CapsuleController21getHalfHeightInternalEv
djb:__ZNK25MultiBlocksMemoryFileData5CloneEv
AOk:_AsyncCallback_BeginInvoke_m2710486612
DKo:_GC_add_ext_descriptor
Hfo:__ZNK15dense_hashtableINSt3__24pairIK10KeyWrapperINS1_IPK14Il2CppAssemblyP11Il2CppClassEEEjEES9_17ReflectionMapHashIS8_EN14dense_hash_mapIS9_jSD_NS9_14EqualsComparerINS0_8equal_toIS8_EEEENS0_9allocatorISB_EEE9SelectKeyESI_SK_E23find_position_with_hashERSA_j
GOd:__ZN5physx21PxQueryFilterCallbackD2Ev
e$k:_LayoutGroup_SetProperty_TisSingle_t1397266774_m793506911_gshared
ILo:__ZN6il2cpp2os14WindowsRuntime22GetRestrictedErrorInfoEv
yaj:_CryptoConfig_CreateFromName_m1538277313
Y1o:_glInvalidateFramebuffer__wrapper
vZh:_InternalEnumerator_1_get_Current_m3073360606_gshared
nib:__ZN17ArchiveFileSystem11CreateAsDirER13FileEntryData
I4d:__ZL30GeomOverlapCallback_CapsuleBoxRKN5physx10PxGeometryERKNS_11PxTransformES2_S5_PNS_2Gu12TriggerCacheE
aVo:dynCall_iiiiiiiiiiii
Wq:__ZN9Scripting11UnityEngine2AI18NavMeshBuildSource9InitProxyEv
g8f:_TMP_Text_DrawUnderlineMesh_m1146477450
HJf:__ZN18UnityConnectClient16IsServiceEnabledEv
OLl:_Enumerator_System_Collections_IEnumerator_Reset_m3951708793_gshared
wsa:__ZN9Scripting11UnityEngine10ColorGamut9InitProxyEv
jlb:__ZN22VertexDeclarationCacheD0Ev
KKj:_Selectable_set_interactable_m3105888815
PGa:__ZL26KeywordSetToStringDontSortRKNSt3__26vectorIN4core12basic_stringIcNS1_20StringStorageDefaultIcEEEENS_9allocatorIS5_EEEERS5_
kja:__ZN6prcoreL17RemapGenericFloatI16TexFormatRGFloat17TexFormatRGBAHalfEEvPKNS_9InnerInfoE
tU:__ZN12AudioManager22CreateFMODSoundFromWWWEP10IWWWStream15FMOD_SOUND_TYPE17FMOD_SOUND_FORMATjjbbP10SampleClip
EGc:__ZNK32RendererMaterialAnimationBinding15GenerateBindingERKN4core12basic_stringIcNS0_20StringStorageDefaultIcEEEEbRN11UnityEngine9Animation14GenericBindingE
SMh:_TargetException__ctor_m4172127019
thd:__Z25UpdateOrbitalAndRadialTplIL27ParticleSystemCurveEvalMode0ELS0_2ELS0_0EEvRK11MinMaxCurveS3_S3_S3_S3_S3_S3_R23ParticleSystemParticlesjjRKN4math8float3x3ERKNS6_7affineXERKNS6_7_float4E
rSm:_List_1_CheckCollection_m274117203_gshared
j2g:__ZL70EventSystem_t1003666588_CustomAttributesCacheGenerator_m_FirstSelectedP21CustomAttributesCache
qJl:_LinkedList_1_Clear_m2711926805_gshared
Caa:__ZN8Remapper23GetOrGenerateInstanceIDERK26SerializedObjectIdentifier
qcl:_Decimal_System_IConvertible_ToByte_m1059182322
mAh:_ColorTween_get_startColor_m3792586410_AdjustorThunk
wfb:__ZN17FileSystemHandler10AtomicMoveER13FileEntryDataS1_
H$g:__ZL106Physics_t2310948930_CustomAttributesCacheGenerator_Physics_Raycast_m3101461809____queryTriggerInteraction5P21CustomAttributesCache
ggh:__ZL105TrackableField_t1772682203_CustomAttributesCacheGenerator_TrackableField__ctor_m3758796351____validTypes0P21CustomAttributesCache
F6i:_BinaryFormatter_get_SurrogateSelector_m2111882017
VCl:_ValueCollection_System_Collections_Generic_IEnumerableU3CTValueU3E_GetEnumerator_m1386883788_gshared
pIk:_X509CertificateCollection__ctor_m3365535796
wpb:__ZN11TextureData17GetImageReferenceEii
LHi:__Z82RuntimeInvoker_Int32_t2950945753_Int16_t2552820387_Int16_t2552820387_RuntimeObjectPFvvEPK10MethodInfoPvPS4_
rth:_EventSystem_ToString_m3779610692
msk:_RecordProtocol_BeginReceiveRecord_m295321170
m_a:__ZN6Sprite8TransferI24GenerateTypeTreeTransferEEvRT_
kAn:_TMPro_EventManager_ON_TEXTMESHPRO_UGUI_PROPERTY_CHANGED_m531824844
M3i:_SoapTypeAttribute_get_IsInteropXmlType_m629667929
ryc:__Z48Register_UnityEngine_Transform_SetAsFirstSiblingv
g3h:_InternalEnumerator_1_System_Collections_IEnumerator_get_Current_m694606607_gshared
d1k:_Resources_Load_TisRuntimeObject_m3577225874_gshared
r_a:__ZN7SubMesh8TransferI24GenerateTypeTreeTransferEEvRT_
yee:__ZNK5physx19NpArticulationJoint28getTwistLimitContactDistanceEv
cnn:_UnityEvent_1_FindMethod_Impl_m2511430237_gshared
$wn:_Literal_IsComplex_m4067122560
G1n:_NativeTypeAttribute__ctor_m133676646
Pwc:__Z48Register_UnityEngine_Application_get_absoluteURLv
YVd:__ZN5physx3Cct10Controller6setPosERKNS_14PxExtendedVec3E
IYb:__ZN19GfxThreadableDevice20SetShadersThreadableEPP10GpuProgramPPK20GpuProgramParametersPKPKh
zwm:_Collection_1_System_Collections_IList_Contains_m296643274_gshared
BXd:__ZN5physx2GuL14testFaceNormalERKNS0_13PolygonalDataES3_PNS0_12SupportLocalES5_RKNS_6shdfnd3aos15PsMatTransformVESA_RKNS7_6FloatVERSB_RjRNS7_5Vec3VENS0_13FeatureStatusERSI_
HDk:_DirectoryInfo__ctor_m126519516
jJh:_MethodBase_GetMethodFromIntPtr_m3014201362
I6h:_InternalEnumerator_1_System_Collections_IEnumerator_get_Current_m2011757623_gshared
rHm:__ZN21InterfaceFuncInvoker1I19Color32_t2600501292iE6InvokeEjP11Il2CppClassP12Il2CppObjecti
G8h:_InternalEnumerator_1_get_Current_m2315302778_AdjustorThunk
dwn:_Reference_get_CapturingGroup_m3861468528
Aki:__Z40RuntimeInvoker_TypeAttributes_t113483779PFvvEPK10MethodInfoPvPS4_
Oxc:__ZN9Transform23SetSiblingIndexInternalEib
dTm:_List_1_Clear_m1143167521_gshared
tCm:_ReadOnlyCollection_1_System_Collections_Generic_IListU3CTU3E_get_Item_m1043040529_gshared
U$c:__ZN9JSONWrite8TransferI13dynamic_arrayIaLj0EEEEvRT_PKc17TransferMetaFlags
O4d:__ZL32GeomOverlapCallback_ConvexConvexRKN5physx10PxGeometryERKNS_11PxTransformES2_S5_PNS_2Gu12TriggerCacheE
zym:_Collection_1_SetItem_m794903769_gshared
p0l:_Dictionary_2_Resize_m1924695631_gshared
X2k:_Enumerator_MoveNext_m635366482
ubg:_U3CSpawnWormholesU3Ec__Iterator7_Reset_m4145533915
dKk:_X509Extension_Equals_m1222951829
oy:__ZN7mecanim5human12HumanPoseSubERNS0_9HumanPoseERKS1_S4_
Nkn:_InvokableCall_2_add_Delegate_m1005690394_gshared
zQi:__Z37RuntimeInvoker_Enumerator_t1789501480PFvvEPK10MethodInfoPvPS4_
CVj:_Array_InternalArray__IndexOf_TisTextAlignmentOptions_t4036791236_m4075827900_gshared
ron:_UnityEvent_3_RemoveListener_m3362577121_gshared
dSk:_Char_GetTypeCode_m2433327340_AdjustorThunk
ntb:__Z18Transfer_BlittableI14SafeBinaryReadLb0E10Matrix4x4fEvRK29SerializationCommandArgumentsR31RuntimeSerializationCommandInfo
rJb:__Z24GetFixedBehaviourManagerv
mmg:__ZL69IntPtr_t_CustomAttributesCacheGenerator_IntPtr_op_Equality_m408849716P21CustomAttributesCache
Qco:__ZN6il2cpp2vm10ThreadPool4WaitEP17Il2CppAsyncResultPPv
yJk:_PKCS12_Encrypt_m2617413749
nfn:_X509Crl_VerifySignature_m1377612461
rLk:_Activator_CreateInstance_m94526014
gQo:_vfprintf
qYc:__ZN10GUIManager12AddGUIScriptER8ListNodeI13MonoBehaviourE
eoa:__ZL53__ManagedRegistrationHelperFunction_StackTraceUtilityPv
l3k:_Stack_Clear_m2010200235
zQa:__ZL13SortTexByNameRKNSt3__24pairIN9ShaderLab16FastPropertyNameEN18UnityPropertySheet11UnityTexEnvEEES7_
Yof:_cf2_getVStore
gvh:_PointerEventData_set_pointerPressRaycast_m1363193059
Y1b:__ZN20DynamicPropertySheetD0Ev
PYl:_List_1_get_Item_m718437397_gshared
sPh:_SafeHandle_Dispose_m4229010569
qfc:__ZN14SafeBinaryRead17RegisterConverterEPKcS1_PFbPvRS_E
vIg:__ZL77RuntimePlatform_t4159857903_CustomAttributesCacheGenerator_OSXDashboardPlayerP21CustomAttributesCache
V2:__ZN35RegisterRuntimeInitializeAndCleanup8RegisterEPFvPvES2_iS0_
dAe:__ZNK5physx19NpRigidBodyTemplateINS_14PxRigidDynamicEE17getRigidBodyFlagsEv
f1i:_FieldBuilder_SetValue_m828035213
QNg:__ZL81RectOffset_t1369453676_CustomAttributesCacheGenerator_RectOffset_Init_m2028508611P21CustomAttributesCache
Vfg:_U3CU3Ec__Iterator0_System_Collections_IEnumerator_get_Current_m3904563485
bJm:_ReadOnlyCollection_1_System_Collections_IList_get_IsFixedSize_m733459177_gshared
JEd:__ZN4PPtrI17PhysicsMaterial2DE8TransferI18StreamedBinaryReadILb0EEEEvRT_
yOm:__ZN28GenericInterfaceFuncInvoker0IfE6InvokeEPK10MethodInfoP12Il2CppObject
Jmg:__ZL72Enum_t4135868527_CustomAttributesCacheGenerator_Enum_ToObject_m121962870P21CustomAttributesCache
M1k:__ZN23InterfaceActionInvoker2IP24ObjectU5BU5D_t2843939325iE6InvokeEjP11Il2CppClassP12Il2CppObjectS1_i
wRe:__ZN5physx25PxcSweepConvexHeightfieldERKNS_11PxsCCDShapeES2_PKNS_12PxsRigidBodyES5_RKNS_11PxTransformES8_S8_S8_fRNS_6PxVec3ESA_RNS_10PxcNpCacheERNS_18PxcNpThreadContextEf
lTc:__Z21Object_CUSTOM_DestroyP12Il2CppObjectf
mJg:__ZL99SetupCoroutine_t2062820429_CustomAttributesCacheGenerator_SetupCoroutine_InvokeMoveNext_m3199342729P21CustomAttributesCache
H_b:__ZN8Material26ResetAllCachedMaterialDataEP6Shader
Nri:__Z63RuntimeInvoker_Void_t1185182177_RuntimeObject_Int16_t2552820387PFvvEPK10MethodInfoPvPS4_
nxf:_UNITY_TT_Get_MM_Var
T7i:_ObjectManager_AddFixup_m2154325362
Cdi:_Comparer_1__cctor_m3761458313_gshared
vbl:_DateTimeOffset_CompareTo_m1350732322_AdjustorThunk
ba:invoke_diddi
zCf:__ZNK2UI6Canvas13GetRenderModeEv
Nij:_PersistentCall__ctor_m1217622171
FTj:_Array_compare_TisCustomAttributeTypedArgument_t2723150157_m1384644047_gshared
QRo:_unlink
Lnl:_StrongName_get_TokenAlgorithm_m1794722022
ysb:__Z18Transfer_BlittableI14SafeBinaryReadLb0EiEvRK29SerializationCommandArgumentsR31RuntimeSerializationCommandInfo
Mao:__ZN6il2cpp2vm13MetadataCache30GetPropertyDefinitionFromIndexEi
GDn:_SymmetricTransform_Transform_m1683494363
hze:__ZN5physx14NpRigidDynamic7releaseEv
KMf:__ZN22BaseUnityConnectClient17InitializeSessionERKN4core12basic_stringIcNS0_20StringStorageDefaultIcEEEES6_N19CloudServiceHandler13InitModeFlagsE
qpg:__ZL56KeyCollection_t4251528776_CustomAttributesCacheGeneratorP21CustomAttributesCache
tyi:__Z74RuntimeInvoker_RuntimeObject_Int32_t2950945753_RuntimeObject_RuntimeObjectPFvvEPK10MethodInfoPvPS4_
LNe:__ZN5physx6shdfnd8PoolBaseINS_21PxsBodyTransformVault13PxsBody2WorldENS0_19ReflectionAllocatorIS3_EEE15disposeElementsEv
djg:_TeleType__ctor_m1571455078
LVh:_ReturnMessage_get_Exception_m3375728265
dTn:__ZL25UnresolvedVirtualCall_345P12Il2CppObject22RaycastHit_t1056001966S1_PK10MethodInfo
h0f:_TMP_MeshInfo__ctor_m3699236577_AdjustorThunk
l3h:_InternalEnumerator_1_MoveNext_m3664960764_AdjustorThunk
ZOc:__ZN13MonoBehaviour34StopCoroutineFromEnumeratorManagedE18ScriptingObjectPtr
oJg:__ZL57DebugLogHandler_t826086171_CustomAttributesCacheGeneratorP21CustomAttributesCache
w_f:_TMP_InputField_Append_m3961630412
QZl:_List_1__ctor_m1345008423_gshared
ovf:_gray_raster_reset
zu:__ZN9Scripting11UnityEngine9HumanBone12CleanupProxyEv
cUd:__ZN5physx2Gu30computeCapsule_TriangleMeshMTDERKNS_22PxTriangleMeshGeometryERKNS_11PxTransformERNS0_8CapsuleVEffbRNS_10PxSweepHitE
qrd:__ZN11UnityEngine9Analytics18SceneLoadTimeEvent12SetSceneLoadERKN4core12basic_stringIcNS2_20StringStorageDefaultIcEEEEiyyyy
S8a:__ZN30RuntimeInitializeOnLoadManager8TransferI18StreamedBinaryReadILb0EEEEvRT_
f5k:_DateTimeOffset__ctor_m2084804982
vYn:_CanvasRenderer_GetMaterial_m3822557591
Jtf:_UNITY_tt_face_load_pclt
ksb:__ZN9profiling17ScriptingProfiler31UpdateRegisteredScriptingEventsEv
qtc:__ZL34GetComponentsImplementationRecurseILb1ELi0ELi2EEbR10GameObjectbRK17CompareParametersRK39GetComponentsImplementation_ReturnValue
UZk:_Dictionary_2_Do_ICollectionCopyTo_TisRuntimeObject_m2206321454_gshared
xFn:_UnityWebRequest_set_downloadHandler_m970510352
KDd:__ZN10ClipperLib7Clipper24InsertLocalMinimaIntoAELEx
BCa:__ZN4PPtrI5FlareE8TransferI14SafeBinaryReadEEvRT_
$lj:_Material_GetTexture_m3545614349
YEe:__ZThn8_N5physx2Sc19ShapeInstancePairLL10onActivateEj
u$a:__ZN13ScreenManager22SetResolutionImmediateEii14FullscreenModei
Dii:__Z64RuntimeInvoker_RuntimeObject_Int32_t2950945753_Int16_t2552820387PFvvEPK10MethodInfoPvPS4_
v9c:__ZN16CustomDataModule8TransferI19StreamedBinaryWriteILb0EEEEvRT_
KCh:_U3CDelayedDestroyDropdownListU3Ec__Iterator0_System_Collections_IEnumerator_get_Current_m1619733476
ykl:_ASN1_get_Length_m1923878580
R6l:_EqualityComparer_1__cctor_m4244842342_gshared
r1b:__ZNK6Camera18WorldToScreenPointERK8Vector3fPb
DXe:__ZN5physx2Cm12DelegateTaskINS_10PxsContextEXadL_ZNS2_28mergeCMDiscreteUpdateResultsEPNS_10PxBaseTaskEEEE11runInternalEv
kwj:_SendMouseEvents_DoSendMouseEvents_m2140870850
vHf:__ZN14UnityAnalyticsD0Ev
lcf:__ZN5physx19TriangleMeshBuilder10importMeshERKNS_18PxTriangleMeshDescERKNS_15PxCookingParamsEb
Otn:_PatternCompiler_EmitJump_m3915926156
ePb:__Z18IsCompressedFormat14GraphicsFormat
TOc:__ZNK13MonoBehaviour6GetDSPEv
l8i:_SerializationEntry_get_Name_m1530029541_AdjustorThunk
YKh:_MonoMethod_GetBaseDefinition_m2844667474
Nom:__Z33il2cpp_codegen_check_add_overflowxx
G8:__ZNSt3__227__insertion_sort_incompleteIRPFbRKN18AwakeFromLoadQueue4ItemES4_EPS2_EEbT0_S9_T_
F6h:_InternalEnumerator_1__ctor_m324037018_gshared
DIg:__ZL73RuntimePlatform_t4159857903_CustomAttributesCacheGenerator_MetroPlayerARMP21CustomAttributesCache
_Ck:_InvalidOperationException__ctor_m1685032583
M8n:__ZN14dense_hash_mapI10KeyWrapperIN6il2cpp5utils13dynamic_arrayIPK10Il2CppTypeLj4EEEEPFvvENS1_8metadata19Il2CppSignatureHashENS8_14EqualsComparerINSB_22Il2CppSignatureCompareEEENSt3__29allocatorINSG_4pairIKS8_SA_EEEEE15set_deleted_keyERSJ_
tpm:_TimeSpan_op_Subtraction_m3592306516
lAn:_TMPro_EventManager_ON_COMPUTE_DT_EVENT_m4224094755
Ato:__ZN6il2cpp2vm9Exception25RaiseOutOfMemoryExceptionERKNS_5utils10StringViewIDsEEP19Il2CppSequencePoint
_Qi:__Z94RuntimeInvoker_RuntimeObject_Single_t1397266774_Single_t1397266774_RuntimeObject_RuntimeObjectPFvvEPK10MethodInfoPvPS4_
U8l:_EqualityComparer_1_System_Collections_IEqualityComparer_GetHashCode_m1517903420_gshared
ise:__ZN5physx6shdfnd5ArrayINS_18PxClothFabricPhaseENS0_19ReflectionAllocatorIS2_EEE8recreateEj
VYa:__ZN26EnlightenSystemInformation8TransferI14SafeBinaryReadEEvRT_
K9c:__ZN13InitialModule5ResetEv
AGm:_ReadOnlyCollection_1_System_Collections_IList_Add_m3968477706_gshared
G9a:__ZN24GenerateTypeTreeTransfer8TransferINSt3__26vectorIN15ResourceManager10DependencyE13stl_allocatorIS4_L18MemLabelIdentifier52ELi16EEEEEEvRT_PKc17TransferMetaFlags
rDg:__ZL59StringComparison_t3657712135_CustomAttributesCacheGeneratorP21CustomAttributesCache
zqn:_VertexJitter_ON_TEXT_CHANGED_m106761234
jBi:__Z119RuntimeInvoker_Void_t1185182177_RuntimeObject_Single_t1397266774_Single_t1397266774_SByte_t1669577662_Int32_t2950945753PFvvEPK10MethodInfoPvPS4_
WBa:__ZN27PerObjectLightCullingOutputD2Ev
LHe:__ZN5physx2Sq17SceneQueryManager11shiftOriginERKNS_6PxVec3E
j5a:__ZN12MeshRendererD0Ev
EV:__ZN12AudioManager35GetCurrentSpatializerDefinitionNameEv
URd:__ZN5physx2Gu16sweepBoxTriangleERKNS_10PxTriangleERKNS_9PxBounds3ERKNS_6PxVec3ES9_RS7_SA_Rf
Vxj:_TouchScreenKeyboard_get_active_m4267591905
toa:__ZN9Scripting11UnityEngine14WaitForSeconds9InitProxyEv
Cko:__ZNK15dense_hashtableINSt3__24pairIK10KeyWrapperIPK14Il2CppAssemblyEPK22Il2CppMonoAssemblyNameEES6_N6il2cpp5utils11PointerHashIS4_EEN14dense_hash_mapIS6_SA_SF_NS6_14EqualsComparerINS0_8equal_toIS5_EEEENS0_9allocatorISB_EEE9SelectKeyESK_SM_E8min_sizeEjj
oi:_utime
Xcf:__ZN5physx10writeChunkEaaaaRNS_14PxOutputStreamE
hwn:_BalancingGroup_Compile_m2575117193
gRn:__ZL25UnresolvedVirtualCall_240P12Il2CppObject6Guid_tPK10MethodInfo
Vco:__ZN6il2cpp6icalls8mscorlib6System8MonoType18IsGenericParameterEPK10Il2CppType
cno:__ZNSt3__26vectorIN6il2cpp2vm17TypeNameParseInfoENS_9allocatorIS3_EEE8allocateEj
Eu:__ZN9Scripting11UnityEngine22AnimatorTransitionInfo9InitProxyEv
SRh:_Context_NotifyDynamicSinks_m1841702879
Jsn:_Mark_get_Index_m3048692661_AdjustorThunk
Lbn:_TlsServerSettings_get_CertificateRequest_m842655670
Q6n:__ZN15dense_hashtableI10KeyWrapperIPK17Il2CppGenericInstES4_N6il2cpp8metadata21Il2CppGenericInstHashEN14dense_hash_setIS4_S7_NS4_14EqualsComparerINS6_24Il2CppGenericInstCompareEEENSt3__29allocatorIS4_EEE8IdentityESB_SE_ED2Ev
Qn:FUNCTION_TABLE_viiiiif
rem:_Array_InternalArray__Insert_TisRejectHandler_t1435172309_m1864675154_gshared
Kci:_DefaultComparer_Compare_m3931992727_gshared
zo:FUNCTION_TABLE_viiiiii
gbi:_InternalEnumerator_1_System_Collections_IEnumerator_get_Current_m1847780851_AdjustorThunk
dfg:_JSONNode_Add_m988733008
wCn:_GUILayoutUtility_get_spaceStyle_m3392862907
v1j:_SecurityException_ToString_m3228070608
g5k:_DateTimeOffset__ctor_m74032857
BVi:_MonoType_IsPrimitiveImpl_m2401722705
_ie:__ZN5physx2Sc9RigidCore13onShapeChangeERNS0_9ShapeCoreENS_7PxFlagsINS0_21ShapeChangeNotifyFlag4EnumEjEENS4_INS_11PxShapeFlag4EnumEhEE
sKk:_SmallXmlParser_Error_m3899025466
GH:__ZN7mecanim9animation22DestroyAvatarWorkspaceEPNS0_15AvatarWorkspaceERNS_6memory9AllocatorE
WQh:_ConfigHandler_ParseElement_m3124222564
nqm:_Type_type_is_assignable_from_m76737532
pVc:__ZN9Scripting11UnityEngine14GUILayoutGroup12CleanupProxyEv
KFj:_MaskableGraphic_ParentMaskStateChanged_m1092090553
Hwe:__ZN5physx6shdfnd5ArrayIPvNS0_15InlineAllocatorILj256ENS0_19ReflectionAllocatorINS_2Sc19ParticlePacketShapeEEEEEE15growAndPushBackERKS2_
aUe:__ZN5physx17solveContactBlockEPKNS_23PxcSolverConstraintDescEjRNS_16PxcSolverContextE
edf:__ZN5physx6shdfnd10FoundationD2Ev
VQa:__ZN14PlayableOutput17SetSourcePlayableEP8Playable
K8a:__ZNSt3__26vectorIN4core12basic_stringIcNS1_20StringStorageDefaultIcEEEE13stl_allocatorIS5_L18MemLabelIdentifier13ELi16EEE8__appendEj
B5d:__ZN5physx9NpFactory21releaseConnectorArrayEPNS_16NpConnectorArrayE
hH:__ZN7mecanim9animation29MotionOutputGetDeltaTransformEPKNS0_12MotionOutputE
Txa:__ZN17GlobalGameManager23VirtualRedirectTransferER19StreamedBinaryWriteILb0EE
prd:__ZN27PerformanceReportingManager21OnSceneTimingCallbackERK15SceneLoadTimingRKN4core12basic_stringIcNS3_20StringStorageDefaultIcEEEE
mcn:_ValidationResult_get_ErrorCode_m1533688152
pxc:__Z43Transform_CUSTOM_INTERNAL_get_localRotationP12Il2CppObjectP11Quaternionf
hOe:__ZN5physx2Sc10NPhaseCoreD2Ev
M6d:__ZN5physx2Sc7BodySim18onConstraintDetachEv
_Ko:__ZN6il2cpp6icalls8mscorlib6System10Reflection4Emit13ModuleBuilder13RegisterTokenEP29Il2CppReflectionModuleBuilderP12Il2CppObjecti
Eqh:_TextMeshProUGUI_set_maskOffset_m1831053298
gdk:_X509Certificate2_GetValueAsString_m1348462142
pfo:__ZN6il2cpp2os4File9SetLengthEPNS0_10FileHandleExPi
oEc:__ZZL23RegisterLightPropertiesR22GenericPropertyBindingEN20Wrapper_LightColorr013SetFloatValueEPvf
TRg:__ZL63SpriteBone_t303320096_CustomAttributesCacheGenerator_m_ParentIdP21CustomAttributesCache
zzl:_Transform_1_EndInvoke_m2716226219_gshared
Ti:_emscripten_glGetTexParameteriv
rma:__ZL49__ManagedRegistrationHelperFunction_ComputeBufferPv
GGe:__ZN5physx7NpScene8simulateEfPNS_10PxBaseTaskEPvjb
q$o:_glGenTextures__wrapper
lNd:__ZN5physx2Gu13GeometryUnion3setERKNS_10PxGeometryE
Fkm:_UnicodeEncoding_GetHashCode_m354003420
Yjc:__ZN9ShaderLab20SerializedSubProgram14ConstantBufferaSERKS1_
cGd:__ZN9Polygon2D8TransferI18StreamedBinaryReadILb0EEEEvRT_
shd:__Z25UpdateOrbitalAndRadialTplIL27ParticleSystemCurveEvalMode0ELS0_1ELS0_4EEvRK11MinMaxCurveS3_S3_S3_S3_S3_S3_R23ParticleSystemParticlesjjRKN4math8float3x3ERKNS6_7affineXERKNS6_7_float4E
ISn:__ZL25UnresolvedVirtualCall_322P12Il2CppObject22OrderBlock_t1585977831PK10MethodInfo
BXg:__ZL74SharedBetweenAnimatorsAttribute_t2857104338_CustomAttributesCacheGeneratorP21CustomAttributesCache
kgl:_Enum_Equals_m3617313991
$mg:__ZL69RuntimeArray_CustomAttributesCacheGenerator_Array_SetValue_m394135409P21CustomAttributesCache
MFi:__Z74RuntimeInvoker_Boolean_t97287965_LineTypeU26_t2430394419_Int32_t2950945753PFvvEPK10MethodInfoPvPS4_
RNa:__ZN8PlayableD0Ev
lh:emscriptenWebGLGetBufferBinding
TN:__ZN12AudioManager8TransferI19StreamedBinaryWriteILb0EEEEvRT_
hYn:_CanvasGroup_IsRaycastLocationValid_m2128397950
lLj:_Slider_UpdateCachedReferences_m3259451627
tFg:__ZL63X509ChainStatusFlags_t1026973125_CustomAttributesCacheGeneratorP21CustomAttributesCache
hqi:__Z50RuntimeInvoker_Double_t594665363_Double_t594665363PFvvEPK10MethodInfoPvPS4_
Qoi:__Z60RuntimeInvoker_Void_t1185182177_StreamingContext_t3711869237PFvvEPK10MethodInfoPvPS4_
eah:__ZL62Shadow_t773074319_CustomAttributesCacheGenerator_m_EffectColorP21CustomAttributesCache
vol:_Enumerator_get_CurrentKey_m2230405065_gshared
vro:__ZN15dense_hashtableINSt3__24pairIK10KeyWrapperINS1_IP11Il2CppClassjEEES4_EES6_N6il2cpp8metadata14ArrayClassHashEN14dense_hash_mapIS6_S4_SB_NS6_14EqualsComparerINSA_17ArrayClassCompareEEENS0_9allocatorIS8_EEE9SelectKeyESF_SH_E6insertERKS8_
N4k:_DateTimeOffset__ctor_m1464148220
NCh:_U3CShowU3Ec__AnonStorey1_U3CU3Em__0_m2340880019
NMf:__ZN22BaseUnityConnectClient38PrepareConfigRequestOnMainThreadStaticEPS_
yKj:_Selectable_OnSetProperty_m1693943217
EUl:_List_1_GetIndex_m2300811709_gshared
DGc:__ZNK32RendererMaterialAnimationBinding12GetPPtrValueERKN11UnityEngine9Animation10BoundCurveE
IFb:__Z18Transfer_BlittableI18StreamedBinaryReadILb0EELb0E8Vector2fEvRK29SerializationCommandArgumentsR31RuntimeSerializationCommandInfo
Ofe:__ZN5physx18NpArticulationLink10clearForceENS_11PxForceMode4EnumE
kEl:_ValueCollection_System_Collections_ICollection_CopyTo_m2227772295_gshared
B1l:_Dictionary_2__ctor_m4248073191_gshared
XTd:__ZN5physx2Gu30distanceSegmentTriangleSquaredERKNS_6PxVec3ES3_S3_S3_S3_PfS4_S4_
VFf:__ZN2UI11CanvasGroup12CleanupClassEv
gcn:_TlsStream_Flush_m3793197834
BVl:_List_1_GetIndex_m2832472557_gshared
yfb:__ZN22LocalFileSystemHandler9MakeLocalER13FileEntryDatab
tGo:__ZN6il2cpp2vm8Profiler10AllocationEP12Il2CppObjectP11Il2CppClass
Hxn:_Uri_IsHexEncoding_m3290929897
B5g:__ZL61Graphic_t1660335611_CustomAttributesCacheGenerator_m_MaterialP21CustomAttributesCache
Bia:__Z13FormatOrderedPKcz
cZh:_InternalEnumerator_1_System_Collections_IEnumerator_get_Current_m3925261124_AdjustorThunk
oGg:__ZL91Enumerable_t538148348_CustomAttributesCacheGenerator_Enumerable_ThenByDescending_m141410882P21CustomAttributesCache
weo:__ZN6il2cpp2vm8basepathEPKc
i9h:_InternalEnumerator_1_get_Current_m1506120701_AdjustorThunk
kqe:__ZNK5physx15NpActorTemplateINS_7PxClothEE12getAggregateEv
Sdk:_X509Chain_GetAuthorityKeyIdentifier_m614536199
Mkf:__ZN14SafeBinaryRead21TransferSTLStyleArrayI10vector_mapINSt3__24pairIttEEfN20TextRenderingPrivate8FontImpl14KerningCompareENS2_9allocatorINS3_IS4_fEEEEEEEvRT_17TransferMetaFlags
vpk:_TlsServerFinished__ctor_m1445633918
bYi:_NumberFormatter_FastIntegerToString_m390846811
PEj:__ZN21InterfaceFuncInvoker0IfE6InvokeEjP11Il2CppClassP12Il2CppObject
h4a:__ZN14CompressedMesh10GetQualityE15MeshCompression
P8b:__ZN25DeferredRenderLoopScratchD0Ev
QA:__ZN27AnimationLayerMixerPlayable14SetInputWeightEif
ZQn:__ZL25UnresolvedVirtualCall_231P12Il2CppObject19Vector2_t2156229523S1_PK10MethodInfo
dwi:__Z83RuntimeInvoker_Void_t1185182177_RuntimeObject_Single_t1397266774_Single_t1397266774PFvvEPK10MethodInfoPvPS4_
Luh:_PhysicsRaycaster_Raycast_m776323695
qoh:_TextContainer_GetAnchorPosition_m4045774284
ky:__ZN7mecanim9animation17EvaluateHumanPoseERKNS0_18ClipMuscleConstantERKNS0_15ClipMuscleInputEPKfRKNS0_12MotionOutputERNS_5human9HumanPoseE
rfm:_Array_InternalArray__Insert_TisTMP_LinkInfo_t1092083476_m719690151_gshared
BQe:__ZNK5physx2Cm12DelegateTaskINS_13PxsCCDContextEXadL_ZNS2_14postCCDAdvanceEPNS_10PxBaseTaskEEEE7getNameEv
KQf:__ZN21DownloadHandlerBufferD0Ev
zah:__ZL131U3CSendWebRequestU3Ed__0_t1093541222_CustomAttributesCacheGenerator_U3CSendWebRequestU3Ed__0_System_IDisposable_Dispose_m3774734000P21CustomAttributesCache
c3g:__ZL92PointerEventData_t3807901092_CustomAttributesCacheGenerator_U3CscrollDeltaU3Ek__BackingFieldP21CustomAttributesCache
hjc:__ZN15dense_hashtableINSt3__24pairIKiN4core17string_with_labelILi1EEEEEi18SInt32HashFunctionN14dense_hash_mapIiS5_S7_NS0_8equal_toIiEE13stl_allocatorIS6_L18MemLabelIdentifier1ELi16EEE9SelectKeyESA_SD_E9copy_fromERKSG_j
D_i:_CustomAttributeNamedArgument_GetHashCode_m2317130892
b9a:__ZN15ResourceManagerD0Ev
P6l:_EqualityComparer_1_get_Default_m990790318_gshared
_Gj:_GetRayIntersectionAllCallback__ctor_m391992746
HDa:__ZN22CreateGpuProgramOutputD2Ev
EKi:__Z76RuntimeInvoker_Void_t1185182177_Int32_t2950945753_KeyValuePair_2_t4237331251PFvvEPK10MethodInfoPvPS4_
m0d:__ZNK5physx3Cct15ObstacleContext14getNbObstaclesEv
r0n:_ControllerColliderHit_t240592346_marshal_pinvoke_cleanup
UAb:__Z18Transfer_BlittableI19StreamedBinaryWriteILb0EELb1EsEvRK29SerializationCommandArgumentsR31RuntimeSerializationCommandInfo
TZk:_Dictionary_2_Do_ICollectionCopyTo_TisInt64_t3736567304_m855156891_gshared
tpd:__Z17UpdateSprites2TplIL27ParticleSystemCurveEvalMode2ELS0_3EEvfRK11MinMaxCurveS3_RK23ParticleSystemParticlesPf
qxg:__ZL52HMACSHA512_t923916539_CustomAttributesCacheGeneratorP21CustomAttributesCache
Y9e:__ZN5physx6shdfnd8PoolBaseINS_11NpAggregateENS0_19ReflectionAllocatorIS2_EEE12allocateSlabEv
Sye:__ZN5physx16NpParticleSystem23setParticleReadDataFlagENS_22PxParticleReadDataFlag4EnumEb
Hgd:__Z25UpdateOrbitalAndRadialTplIL27ParticleSystemCurveEvalMode3ELS0_4ELS0_0EEvRK11MinMaxCurveS3_S3_S3_S3_S3_S3_R23ParticleSystemParticlesjjRKN4math8float3x3ERKNS6_7affineXERKNS6_7_float4E
Qkn:_InvokableCall_2_Invoke_m1013424127_gshared
cvj:__ZN23InterfaceActionInvoker1IP25RectTransform_t3704657025E6InvokeEjP11Il2CppClassP12Il2CppObjectS1_
_Yj:_SHA1CryptoServiceProvider_Finalize_m1793183797
Jdj:_AnimationCurve_get_keys_m1672862131
Pam:_HashSet_1_System_Collections_Generic_ICollectionU3CTU3E_CopyTo_m408073502_gshared
Bxe:__ZN5physx7NpScene26removeFromParticleBaseListERNS_14PxParticleBaseE
H6i:_BinaryFormatter_Deserialize_m193346007
Sse:__ZN5physx2Sc9ClothCore23setSelfCollisionIndicesEPKjj
Nfb:__ZN12HandlerChain4OpenER13FileEntryData14FilePermission16FileAutoBehavior
ycm:_Array_InternalArray__ICollection_Add_TisPlayerLoopSystem_t105772105_m1930641144_gshared
wLi:__Z72RuntimeInvoker_Void_t1185182177_Int32_t2950945753_RaycastHit_t1056001966PFvvEPK10MethodInfoPvPS4_
IBg:__ZL79Convert_t2465617642_CustomAttributesCacheGenerator_Convert_ToUInt16_m1147931813P21CustomAttributesCache
uho:__ZN15dense_hashtableINSt3__24pairIK10KeyWrapperINS1_IPK10MethodInfoP11Il2CppClassEEEjEES9_17ReflectionMapHashIS8_EN14dense_hash_mapIS9_jSD_NS9_14EqualsComparerINS0_8equal_toIS8_EEEENS0_9allocatorISB_EEE9SelectKeyESI_SK_E6insertERKSB_
GM:__ZL55__ManagedRegistrationHelperFunction_AudioPlayableOutputPv
Brd:__ZN27PerformanceReportingManager29OnSceneLoadedAfterAwakeStaticEPS_iR18AwakeFromLoadQueueN19RuntimeSceneManager11LoadingModeE
xag:_GameController_SpawnBackgroundSpaceShip_m1444121968
hNk:_Array_SetValue_m394135409
EMm:__ZN28GenericInterfaceFuncInvoker2IiffE6InvokeEPK10MethodInfoP12Il2CppObjectff
Kba:__ZN14FileCacherReadD2Ev
Xbb:__ZN13RendererScene23UpdatePreviousFrameDataEii
Yoj:_MonoBehaviour_StopCoroutine_m615723318
Ysc:__Z50Register_UnityEngine_CullingGroup_FinalizerFailurev
Ifo:__ZNK15dense_hashtableINSt3__24pairIK10KeyWrapperINS1_IPK14Il2CppAssemblyP11Il2CppClassEEEjEES9_17ReflectionMapHashIS8_EN14dense_hash_mapIS9_jSD_NS9_14EqualsComparerINS0_8equal_toIS8_EEEENS0_9allocatorISB_EEE9SelectKeyESI_SK_E10test_emptyEj
s1k:_Mesh_GetAllocArrayFromChannel_TisVector2_t2156229523_m1057679375_gshared
F6c:__Z32TransferEnumWithNameForceIntSizeI14SafeBinaryReadN8UVModule4ModeEEvRT_RT0_PKc17TransferMetaFlags
yCa:__ZNK4PPtrI5FlareEcvPS0_Ev
HB:__ZN26AnimatorControllerPlayable6MemoryD2Ev
iQi:__Z56RuntimeInvoker_Int32_t2950945753_SpriteState_t1362986479PFvvEPK10MethodInfoPvPS4_
n_h:_InternalEnumerator_1__ctor_m4227797183_gshared
cQl:_List_1_get_Item_m280817263_gshared
_nc:__ZN12ShaderErrors11ShaderErrorC2EOS0_
SSo:__ZNKSt3__221__basic_string_commonILb1EE20__throw_out_of_rangeEv
$Qe:__ZN5physx10PxsCCDPair12updateShapesEv
kli:__Z78RuntimeInvoker_Boolean_t97287965_RuntimeObject_RuntimeObject_Int32_t2950945753PFvvEPK10MethodInfoPvPS4_
Vbo:_UpdatedEventHandler_Invoke_m1320302085
Fqh:_TextMeshProUGUI_UpdateMask_m1876478509
lwo:__ZNK15dense_hashtableINSt3__24pairIK10KeyWrapperIP14Il2CppIUnknownEjEES5_N6il2cpp5utils11PointerHashIS3_EEN14dense_hash_mapIS5_jSB_NS5_14EqualsComparerINS0_8equal_toIS4_EEEENS0_9allocatorIS7_EEE9SelectKeyESG_SI_E12test_deletedERK24dense_hashtable_iteratorIS7_S5_SB_SK_SG_SI_E
gU:__ZN9AudioClip23VirtualRedirectTransferER18StreamedBinaryReadILb0EE
CI:__ZN26AnimatorOverrideController23VirtualRedirectTransferER24GenerateTypeTreeTransfer
RXm:_List_1_AddEnumerable_m2724989594_gshared
CQl:_List_1_AddRange_m1807884661_gshared
UYm:_List_1_Contains_m2043463915_gshared
qte:__ZN5physx2Sc9ClothCore22removeCollisionCapsuleEj
bAi:__Z82RuntimeInvoker_Vector2_t2156229523_Vector2_t2156229523_RuntimeObject_RuntimeObjectPFvvEPK10MethodInfoPvPS4_
kRc:__Z70Register_UnityEngine_Playables_PlayableHandle_GetPlayableType_Injectedv
NBl:_Enumerator_get_Current_m2708222222_AdjustorThunk
ENb:__ZNK4PPtrI23ShaderVariantCollectionEcvPS0_Ev
U7d:__ZN5physx16PxsIslandManager25setArticulationLinkHandleEjPvRKNS_20PxsIslandManagerHookIjLj4294967295EEE
sk:_glCopyTexSubImage2D
LGc:__ZNK24RendererAnimationBinding13GetFloatValueERKN11UnityEngine9Animation10BoundCurveE
_cd:__ZNK21RotationBySpeedModule6UpdateERK27ParticleSystemReadOnlyStateRK19ParticleSystemStateR23ParticleSystemParticlesRKN4math7_float4Ejj
DCm:_ReadOnlyCollection_1_System_Collections_IList_Insert_m1104620799_gshared
V$:__ZNK15DownloadHandler14HasPendingDataEv
cGl:_Dictionary_2__ctor_m2856239275_gshared
qKn:_UnitySynchronizationContext_ExecuteTasks_m1310741010
q9m:_RIPEMD160Managed_CompressFinal_m497690796
MKb:__ZN18ScreenManagerWebGL13SetShowCursorEb
K$h:_InternalEnumerator_1_MoveNext_m1773160976_gshared
JYb:__ZN13DrawImmediateC2ER9GfxDevice
fGa:__ZN18VertexChannelsInfoC2ERA12_K11ChannelInfo
B7k:_Convert_ToInt64_m2849840611
kDf:__ZN2UI13CanvasManager14GetRenderOrderEPKNS_6CanvasE
Jhe:__ZN5physx6shdfnd5ArrayIPNS_3Scb5ShapeENS0_15InlineAllocatorILj16ENS0_19ReflectionAllocatorIS4_EEEEE15growAndPushBackERKS4_
jtb:__Z18Transfer_BlittableI14SafeBinaryReadLb0E5RectTIfEEvRK29SerializationCommandArgumentsR31RuntimeSerializationCommandInfo
fYi:_NumberFormatter_NumberToString_m2562899600
Twe:__ZNK5physx2Sc18ParticleSystemCore15getParticleMassEv
o_j:_SymmetricAlgorithm_get_FeedbackSize_m3666584308
CSj:_Array_InternalArray__IEnumerable_GetEnumerator_TisTMP_CharacterInfo_t3185626797_m2871718332_gshared
usf:_otv_u_C_x_Ox
FKd:__ZL44__ManagedRegistrationHelperFunction_ColliderPv
mpb:__ZN18AsyncUploadManager19AsyncResourceUploadER9GfxDeviceii9TextureID
Zmg:__ZL70RuntimeArray_CustomAttributesCacheGenerator_Array_GetValue_m1062368071P21CustomAttributesCache
e0o:_emscripten_glGenVertexArrays__wrapper
Hum:_Version_Clone_m1749041863
$vl:_ShimEnumerator_get_Key_m4155849607_gshared
lSa:__ZN6prcoreL21CreateRemapAnyBlitterE13TextureFormatS0_
imk:_RSAManaged_ExportParameters_m1754454264
WMc:__ZN17AnimationCurveTplIfE16StripInvalidKeysEv
YOn:__ZL25UnresolvedVirtualCall_122P12Il2CppObject29CullingGroupEvent_t1722745023PK10MethodInfo
KPk:_Boolean_Equals_m535526264_AdjustorThunk
tPi:__Z71RuntimeInvoker_KeyValuePair_2_t71524366_Int32_t2950945753_RuntimeObjectPFvvEPK10MethodInfoPvPS4_
dPm:_U3CCreateWhereIteratorU3Ec__Iterator1D_1_System_Collections_IEnumerator_get_Current_m2550921559_gshared
wOf:__ZN13dynamic_arrayIiLj0EE6insertEPiPKiS3_
rWm:_List_1_TrimExcess_m3801445587_gshared
uDf:__ZNK2UI6Canvas17GetSortingLayerIDEv
n8k:_Convert_ToUInt16_m3116648921
kOc:__ZL12HashLen0to16PKcj
kyd:__ZN14Raycast2DQuery8RunQueryEb
oYa:__ZN8Renderer24SetupNewRendererForSceneEv
hqm:_Type_internal_from_name_m1721940673
tpo:_il2cpp_type_get_class_or_element_class
vYk:_Array_swap_TisCustomAttributeTypedArgument_t2723150157_TisCustomAttributeTypedArgument_t2723150157_m365781156_gshared
rgl:_Environment_get_TickCount_m2088073110
u5i:_RemotingServices_GetMethodBaseFromName_m3194612939
o4f:_TMP_Text_set_tintAllSprites_m2515828743
w1c:__Z35Transfer_Blittable_FixedBufferFieldI8JSONReadtEvRK29SerializationCommandArgumentsR31RuntimeSerializationCommandInfo
uCa:__ZN4PPtrI7TextureE8TransferI14SafeBinaryReadEEvRT_
x0e:__ZN5physx2Sc8ClothSim16addCollisionMeshEPKNS0_8ShapeSimE
JJc:__ZN14PlayableOutput6HandleEv
AZa:__ZNK6Sprite22GetTypeVirtualInternalEv
Ira:__ZN9Scripting11UnityEngine12Experimental9Playables22MaterialEffectPlayable9InitProxyEv
BMf:__ZNSt3__26__treeINS_12__value_typeIN4core12basic_stringIcNS2_20StringStorageDefaultIcEEEEN11UnityEngine7Connect19RemoteSettingsValueEEENS_19__map_value_compareIS6_SA_NS_4lessIS6_EELb1EEE13stl_allocatorISA_L18MemLabelIdentifier6ELi16EEE16__construct_nodeIJNS_4pairIS6_S9_EEEEENS_10unique_ptrINS_11__tree_nodeISA_PvEENS_22__tree_node_destructorISF_ISP_LSG_6ELi16EEEEEEDpOT_
to:FUNCTION_TABLE_iiiiiiiiiiiiii
A1n:_NativePropertyAttribute__ctor_m2033094153
z5e:__ZN5physx6shdfnd5ArrayIPKNS_10PxsCCDBodyENS0_19ReflectionAllocatorIS4_EEE8recreateEj
t4m:_Collection_1_InsertItem_m353733697_gshared
k8h:_InternalEnumerator_1_MoveNext_m683739489_gshared
Dhe:__ZN5physx6shdfnd4sortINS_2Cm19PreallocatingRegionENS0_4LessIS3_EENS0_19ReflectionAllocatorIS3_EEEEvPT_jRKT0_RKT1_j
MOf:__ZN19UnityConnectService18OnPlayerQuitStaticEPS_
Fmm:_SynchronizationLockException__ctor_m3407855920
ltf:_UNITY_tt_get_cmap_info
PYh:_InternalEnumerator_1__ctor_m3504696505_gshared
IOm:__ZN21InterfaceFuncInvoker0IjE6InvokeEjP11Il2CppClassP12Il2CppObject
Etk:_SslClientStream_RaiseServerCertificateValidation_m3477149273
Zzb:__Z29Transfer_Blittable_ArrayFieldI24GenerateTypeTreeTransfer5RectTIiEEvRT_R9ArrayInfoRK23StaticTransferFieldInfo
EIa:__ZN16ReflectionProbes8ScheduleEN18ReflectionProbeJob7JobTypeEP15ReflectionProbei
zpk:_ClientSessionInfo_KeepAlive_m1020179566
Lfg:_JSONNode_op_Implicit_m15872920
kZm:_List_1_ToArray_m4056539300_gshared
nqg:__ZL51Calendar_t1661121569_CustomAttributesCacheGeneratorP21CustomAttributesCache
xGl:_Dictionary_2_InitArrays_m2954966963_gshared
Sca:__ZN16MessageForwarder13HandleMessageEPviR11MessageData
mhb:__Z18IsDirectoryCreatedRKN4core12basic_stringIcNS_20StringStorageDefaultIcEEEE
A$j:_String_FormatHelper_m3913915042
$ze:__ZN5physx19NpRigidBodyTemplateINS_14PxRigidDynamicEE20setRigidDynamicFlagsENS_7PxFlagsINS_15PxRigidBodyFlag4EnumEhEE
qBf:__ZN2UI13CanvasManagerD2Ev
pqd:__ZZN14ParticleSystem15InitializeClassEvEN52PreLateUpdateParticleSystemBeginUpdateAllRegistrator7ForwardEv
y5n:__ZN15dense_hashtableINSt3__24pairIK10KeyWrapperIPKcEP11Il2CppClassEES5_N6il2cpp5utils11StringUtils12StringHasherIS4_EEN14dense_hash_mapIS5_S8_SE_NS5_14EqualsComparerINSB_13VmStringUtils21CaseSensitiveComparerEEENS0_9allocatorIS9_EEE9SelectKeyESJ_SL_E15set_deleted_keyERKS9_
lBi:__Z38RuntimeInvoker_ContentType_t1787303396PFvvEPK10MethodInfoPvPS4_
DBm:_ReadOnlyCollection_1_Contains_m1700717617_gshared
vhi:__Z141RuntimeInvoker_Boolean_t97287965_RuntimeObject_Int32_t2950945753_RuntimeObject_SByte_t1669577662_Int64U26_t200113976_ExceptionU26_t3600731591PFvvEPK10MethodInfoPvPS4_
B_i:_CustomAttributeData_GetHashCode_m3727773664
cnf:_UNITY_FT_GlyphLoader_Done
cia:__ZNSt3__23mapIiN11TypeManager18TypeCallbackStructENS_4lessIiEENS_9allocatorINS_4pairIKiS2_EEEEEixERS7_
MZg:__ZL89GUIStyle_t3956901511_CustomAttributesCacheGenerator_GUIStyle_get_stretchWidth_m3556443132P21CustomAttributesCache
xKc:__ZN9Polygon2D16CheckConsistencyEv
FCh:_U3CDelayedDestroyDropdownListU3Ec__Iterator0__ctor_m912479353
Kye:__ZN5physx22NpParticleBaseTemplateINS_16PxParticleSystemENS_16NpParticleSystemEE20setMaxMotionDistanceEf
Irb:__ZNK17InstancingBatcher15RenderInstancesERK19ShaderPropertySheetRKNS_22RenderInstancesConfigsERK11MeshBuffersRK16DrawBuffersRange16VertexInputMasks
nel:_StackTrace_get_FrameCount_m344690939
yba:__ZN13dynamic_arrayIcLj0EE6insertEPcPKcS3_
GFm:_ReadOnlyCollection_1_CopyTo_m2330334359_gshared
Ksj:_Quaternion_GetHashCode_m2636680144_AdjustorThunk
ein:_TMP_XmlTagStack_1_Push_m1847519558_gshared
oFk:_FileStream_BeginRead_m2419864669
_Si:_UnexceptionalStreamWriter_Write_m363195622
JUe:__ZN5physx18ComputeSortedListsEPNS_2Cm10BitMapBaseINS_6shdfnd9AllocatorEEEjjPKjPPNS_8SapBox1DES7_PjSB_jRKNS_2Gu4AxesESB_RjSB_SG_RbSH_
lNj:_Array_get_swapper_TisRuntimeObject_m1378919517_gshared
r4g:__ZL108U3CStartU3Ec__Iterator0_t1249263001_CustomAttributesCacheGenerator_U3CStartU3Ec__Iterator0__ctor_m1316384627P21CustomAttributesCache
luf:_tt_cmap14_char_var_index
GGb:__Z35Transfer_Blittable_FixedBufferFieldI18StreamedBinaryReadILb0EEdEvRK29SerializationCommandArgumentsR31RuntimeSerializationCommandInfo
BZn:_Physics2D_Raycast_m1700114981
BBj:_Selectable_OnPointerDown_m1086067264
qyf:_psh_globals_new
fCh:_Dropdown_SetupTemplate_m628218778
dmm:_Thread_GetCompressedStack_m2923422412
Xmk:__ZN28GenericInterfaceFuncInvoker2IbP26X509Certificate_t713131622P22Int32U5BU5D_t385246372E6InvokeEPK10MethodInfoP12Il2CppObjectS1_S3_
wnj:_Matrix4x4_MultiplyPoint3x4_m4145063176
fck:_X509BasicConstraintsExtension_ToString_m1809935297
slb:__ZN9GfxDevice20SetMaxBufferedFramesEi
fof:__ZNK20TextRenderingPrivate8TextMesh22GetTypeVirtualInternalEv
spn:_TweenRunner_1_StartTween_m1055628540_gshared
_hm:_Array_qsort_TisUIVertex_t4057497605_TisUIVertex_t4057497605_m678708019_gshared
U_k:_Mesh_SetArrayForChannel_TisVector4_t3319028937_m3058558403_gshared
Rsd:__ZN10Collider2D19WakeAllBodyContactsEv
M_k:_GameObject_GetComponents_TisRuntimeObject_m1246177135_gshared
ZQ:__ZN24AudioScriptBufferManagerD2Ev
U2n:__ZNSt3__218uninitialized_fillIPNS_4pairIK10KeyWrapperIPK22Il2CppGenericParameterEP11Il2CppClassEESA_EEvT_SC_RKT0_
UTi:_MethodAccessException__ctor_m3542088436
Lgc:__Z23ConvertIntegerToTypePtrIsEbPvR14SafeBinaryRead
cv:__ZN9Scripting11UnityEngine10Animations26AnimatorControllerPlayable9InitProxyEv
Eud:__ZN12b2MouseJoint11ShiftOriginERK6b2Vec2
Sce:__ZNK5physx14NpArticulation17releaseDriveCacheERNS_24PxArticulationDriveCacheE
E4n:__ZN6il2cpp2vm5Class12HasAttributeEP11Il2CppClassS3_
dTk:_ArrayListWrapper_get_Capacity_m51087796
gDj:_LayoutElement_get_minHeight_m4160507569
WMf:__ZN11UnityEngine7Connect13ConfigHandler13ConfigChangedERKN4core12basic_stringIcNS2_20StringStorageDefaultIcEEEEb
Onh:_MaterialReferenceManager_TryGetSpriteAssetInternal_m3148505359
e6l:_EqualityComparer_1_System_Collections_IEqualityComparer_GetHashCode_m2230215241_gshared
nKg:__ZL91Quaternion_t2301928331_CustomAttributesCacheGenerator_Quaternion_FromToRotation_m3769621427P21CustomAttributesCache
I8g:__ZL60ContentSizeFitter_t3850442145_CustomAttributesCacheGeneratorP21CustomAttributesCache
vWk:_Hashtable_Contains_m2145146412
DHg:__ZL64UnmarshalledAttribute_t1517743549_CustomAttributesCacheGeneratorP21CustomAttributesCache
SKh:_MonoGenericCMethod__ctor_m1374831274
ula:__ZN6prcoreL29inner_stretch_rgb565_bilinearEPKNS_9InnerInfoE
kpl:_Enumerator__ctor_m1195706188_AdjustorThunk
Tse:__ZNK5physx2Sc9ClothCore25getSelfCollisionStiffnessEv
nbd:__Z13UpdateSizeTplIL27ParticleSystemCurveEvalMode3EEvRK11MinMaxCurveR23ParticleSystemParticlesbjj
oAo:__ZN6il2cpp2vm12GenericClass12SetupMethodsEP11Il2CppClass
Kjj:_MaterialEffectPlayable_Equals_m3750885802
rFa:__Z26TransformVerticesInnerLoopILb0ELb0ELb1EEvPhRK10Matrix4x4fRK10Matrix3x3fjPKhiS8_ii25GfxTransformVerticesFlagsj
ENo:__ZN6il2cpp2os9FastMutex4LockEv
hAk:_Int32_FindCurrency_m3541026887
Whk:_Interval_CompareTo_m3282557545
l1o:_pthread_cond_wait__wrapper
W7b:__ZNK14RenderSettings19GetFlatAmbientColorEv
MEa:__ZN8DrawUtil24DrawMeshRawFromNodeQueueERK15RenderNodeQueuej16VertexInputMasksi
U7a:__ZN18StreamedBinaryReadILb0EE21TransferSTLStyleArrayI10vector_mapIPKN5Unity4TypeE7Hash128NSt3__24lessIS6_EENS8_9allocatorINS8_4pairIS6_S7_EEEEEEEvRT_17TransferMetaFlags
NC:__ZNK27StateMachineBehaviourPlayer15IsSenderEnabledEv
Xho:__ZN6il2cpp2gc19AppendOnlyGCHashMapINSt3__24pairIPK11Il2CppImageP11Il2CppClassEEP22Il2CppReflectionModule17ReflectionMapHashIS9_ENS2_8equal_toIS9_EEE11TryGetValueERKS9_PSB_
j8g:__ZL58Text_t1901882714_CustomAttributesCacheGenerator_m_FontDataP21CustomAttributesCache
B1i:_GenericTypeParameterBuilder_IsPrimitiveImpl_m1952010459
xEm:_ReadOnlyCollection_1_CopyTo_m3474153465_gshared
NEn:_DownloadHandler_get_text_m2427232382
$8m:_RijndaelManagedTransform_TransformBlock_m1610137419
ggi:_Enumerator_System_Collections_IDictionaryEnumerator_get_Entry_m1355283127_gshared
jyc:__Z40Register_UnityEngine_Transform_SetParentv
syg:__ZL94WindowsIdentity_t2948242406_CustomAttributesCacheGenerator_WindowsIdentity_Dispose_m3466258450P21CustomAttributesCache
Yrn:_TMP_TextEventHandler_Awake_m3560580738
CRa:__ZN14Texture2DArray17UploadToGfxDeviceEv
cBm:_ReadOnlyCollection_1_IndexOf_m1402369841_gshared
PAn:_Event_set_displayIndex_m1342258734
QP:__Z14FMODMemoryFreePvjPKc
VUg:__ZL100RectTransform_t3704657025_CustomAttributesCacheGenerator_RectTransform_INTERNAL_get_rect_m3130887130P21CustomAttributesCache
Bvh:_PointerEventData_ToString_m238029461
Bra:__ZN9Scripting11UnityEngine12Experimental10PlayerLoop11FixedUpdate12CleanupProxyEv
Kzk:_Int16_System_IConvertible_ToType_m3672347013
FMn:_NetFxCoreExtensions_GetMethodInfo_m444570327
_pm:_Type_get_IsSystemType_m624798880
ioj:_Mesh_SetNormals_m2521889643
S0f:_TMP_Settings_get_missingGlyphCharacter_m3560139616
jvf:_tt_cmap0_validate
Xng:__ZL107ArrayReadOnlyList_1_t221793636_CustomAttributesCacheGenerator_ArrayReadOnlyList_1_GetEnumerator_m2012327150P21CustomAttributesCache
Dpf:_cf2_glyphpath_moveTo
y9f:_EnemyScript_Start_m2844579575
CKe:__ZN5physx3Scb4Body9syncStateEv
ehh:__ZL109GameController_t2330501625_CustomAttributesCacheGenerator_GameController_SpawnBackgroundSpaceShip_m1444121968P21CustomAttributesCache
Lah:__ZL65TextMeshPro_t2393593166_CustomAttributesCacheGenerator_m_rendererP21CustomAttributesCache
lGd:__ZNK13BoxCollider2D22GetTypeVirtualInternalEv
Fvd:__Z6b2FreePv10MemLabelId
ZPc:__Z51Register_UnityEngine_Texture_get_texelSize_Injectedv
$wj:_StackTraceUtility_SetProjectFolder_m830524047
ahe:__ZN5physx12PxsRigidBody23updatePoseDependenciesVERNS_10PxsContextE
lz:__ZN7mecanim23TransformValueArrayLoopEiiiRKN4math4trsXES3_RNS_10ValueArrayEf
Opk:_ClientSessionInfo_Finalize_m2165787049
RXc:__ZN5IMGUI14GUIWindowStateD2Ev
Lok:_ClientContext_Clear_m1774063253
TLc:__ZN4Mesh17SetIndicesComplexEPKvjj16GfxPrimitiveTypeij
tod:__Z20UpdateWholeSheet2TplIL27ParticleSystemCurveEvalMode1ELS0_0EEvfRK11MinMaxCurveS3_RK23ParticleSystemParticlesPf
x5f:_TMP_Text_get_mappingUvLineOffset_m762916951
Hal:_DateTime_AddSeconds_m332574389_AdjustorThunk
d0g:__ZL81Physics_t2310948930_CustomAttributesCacheGenerator_Physics_RaycastAll_m2266459302P21CustomAttributesCache
mQk:_Byte_System_IConvertible_ToSByte_m1869482168
ICh:_U3CDelayedDestroyDropdownListU3Ec__Iterator0_MoveNext_m213723240
LMb:__Z21PlayerStartFirstSceneb
mG:__ZN7mecanim5human10RetargetToEPKNS0_5HumanEPKNS0_9HumanPoseES6_RKN4math4trsXEPS4_PNS_8skeleton13SkeletonPoseTIS8_EESF_
ez:__ZN7mecanim9animation8SeekClipERKNS0_12StreamedClipERNS0_18StreamedClipMemoryEf
B1m:_Collection_1_Add_m2420538118_gshared
rkj:_GameObject_Internal_AddComponentWithType_m3797731663
cn:_emscripten_glIsTexture
xEi:__Z93RuntimeInvoker_Single_t1397266774_Vector3_t3722313464_Vector3_t3722313464_Vector3_t3722313464PFvvEPK10MethodInfoPvPS4_
gOl:_List_1__ctor_m2190796336_gshared
Jl:_emscripten_glHint
_Dn:_Check_SourceAndPredicate_m2332465641
a$g:__ZL74ContactFilter2D_t3805203441_CustomAttributesCacheGenerator_useOutsideDepthP21CustomAttributesCache
Pmg:__ZL70RuntimeArray_CustomAttributesCacheGenerator_Array_get_Length_m21610649P21CustomAttributesCache
$wf:_ft_var_readpackeddeltas
OQg:__ZL80Logger_t274032455_CustomAttributesCacheGenerator_U3ClogEnabledU3Ek__BackingFieldP21CustomAttributesCache
V2l:_Dictionary_2_Clear_m1938428402_gshared
zrn:_U3CWarpTextU3Ec__Iterator0_MoveNext_m859178164
xmh:_FloatTween_set_duration_m2869502762
fDb:__Z35Transfer_Blittable_FixedBufferFieldI18StreamedBinaryReadILb1EEtEvRK29SerializationCommandArgumentsR31RuntimeSerializationCommandInfo
ssm:_UInt32_System_IConvertible_ToInt64_m2261037378
fn:_SDL_UpperBlit
h5e:__ZN5physx2Cm12DelegateTaskINS_2Sc5SceneEXadL_ZNS3_13ccdBroadPhaseEPNS_10PxBaseTaskEEEED0Ev
jRl:_List_1_System_Collections_IList_Add_m49923158_gshared
zIa:__Z35GetTextureDecodeValuesWithIntensity16TextureUsageMode17TextureColorSpace10ColorSpacef
Sun:_Parser_ParseRepetitionBounds_m1246581246
iPj:_Array_InternalArray__ICollection_Remove_TisChar_t3634460470_m4143749387_gshared
XYb:__ZN15dense_hashtableINSt3__24pairIK9TextureIDiEES2_14GfxGenericHashIS2_EN14GfxDoubleCacheIS2_iS6_NS0_8equal_toIS2_EEN31GfxDoubleCacheConcurrencyPolicy11LocklessGetE42GfxDoubleCacheDefaultEmptyDeletedGeneratorIS2_EE9SelectKeyES9_13stl_allocatorIS4_L18MemLabelIdentifier24ELi16EEE14squash_deletedEv
rAc:__Z13RegisterClassI14Texture2DArrayEvPKc
EYf:_TMP_InputField_get_readOnly_m494535143
EWe:__ZN5physx14PxsAABBManager21processAggregatePairsEPKNS_19AggregateSortedDataE
Aud:__ZNK12b2MouseJoint10GetAnchorAEv
XCb:__Z18Transfer_BlittableI18StreamedBinaryReadILb1EELb0E9BoundsIntEvRK29SerializationCommandArgumentsR31RuntimeSerializationCommandInfo
Xuk:_GregorianCalendar__ctor_m979779718
dtk:_SslClientStream__ctor_m2402546929
AJb:__ZN14SafeBinaryRead20OverrideRootTypeNameEPKc
n8j:_DictionaryNodeEnumerator_get_Entry_m2309234501
D2n:__ZNK10KeyWrapperIPK22Il2CppGenericParameterE14EqualsComparerINSt3__28equal_toIS2_EEEclERKS3_SA_
Oba:__ZN14FileCacherRead16UnlockCacheBlockEj
zMl:_Enumerator_Dispose_m951715887_AdjustorThunk
CUf:_TMP_Text_set_extraPadding_m286773043
HKi:__Z76RuntimeInvoker_Void_t1185182177_Int32_t2950945753_KeyValuePair_2_t2245450819PFvvEPK10MethodInfoPvPS4_
bJ:__ZN26AnimatorOverrideController8TransferI24GenerateTypeTreeTransferEEvRT_
XEk:_IsolatedStorageException__ctor_m1022659452
_je:__ZNK5physx12NpBatchQuery23getFilterShaderDataSizeEv
Y5:__ZN10InstancingL21OnGraphicsCapsChangedEv
Gwb:__Z18Transfer_BlittableI17RemapPPtrTransferLb1E8Vector3fEvRK29SerializationCommandArgumentsR31RuntimeSerializationCommandInfo
Ltg:__ZL61ClassInterfaceType_t4029497327_CustomAttributesCacheGeneratorP21CustomAttributesCache
MOg:__ZL101SystemInfo_t3561985952_CustomAttributesCacheGenerator_SystemInfo_GetOperatingSystemFamily_m1440411909P21CustomAttributesCache
gom:_WaitHandle_get_Handle_m3260446580
uNl:_Enumerator_VerifyState_m1745883925_AdjustorThunk
crn:_U3CAnimateVertexColorsU3Ec__Iterator0_Dispose_m1243804753
vd:_emscripten_glUniform1f
Cjh:__ZL107U3CStartU3Ec__Iterator0_t2216151886_CustomAttributesCacheGenerator_U3CStartU3Ec__Iterator0_Reset_m816692654P21CustomAttributesCache
Zpo:__ZN6il2cpp2vm6Thread28GetThreadStaticDataForThreadEiP12Il2CppThread
K6c:__ZN14SafeBinaryRead21TransferSTLStyleArrayI13dynamic_arrayIN8UVModule10SpriteDataELj0EEEEvRT_17TransferMetaFlags
Rhf:__ZN5physx7profile11EventBufferINS_24PxDefaultContextProviderENS_6shdfnd6MutexTINS0_26WrapperReflectionAllocatorIhEEEENS0_14ScopedLockImplIS7_EENS_24PxProfileNullEventFilterEE10doAddEventINS0_17RelativeStopEventEEEvhtRKT_
sji:__Z75RuntimeInvoker_Int32_t2950945753_DecimalU26_t3714369516_Int64U26_t200113976PFvvEPK10MethodInfoPvPS4_
Pnf:__Z20ParseImageParametersR11UTF16StringRiRN20TextRenderingPrivate16TextFormatChangeE
x8g:__ZL55CanvasScaler_t2767979955_CustomAttributesCacheGeneratorP21CustomAttributesCache
Jxm:_Collection_1_RemoveItem_m2942561924_gshared
Ytm:_UIntPtr_ToString_m984583492_AdjustorThunk
Ad:_emscripten_glUniform1i
Rhg:_JSONString_get_Tag_m2633482921
uyb:__Z18Transfer_BlittableI24GenerateTypeTreeTransferLb1EN4math12int3_storageEEvRK29SerializationCommandArgumentsR31RuntimeSerializationCommandInfo
uG:__ZN12_GLOBAL__N_119PreProcessAnimationER35AnimationPlayableEvaluationConstantR17AnimationPlayable
i4e:__ZN5physx2Sc19ShapeInstancePairLL23postIslandGenSecondPassEv
$Ld:__ZN14PhysicsManager23VirtualRedirectTransferER19StreamedBinaryWriteILb0EE
Lho:__ZN15dense_hashtableINSt3__24pairIK10KeyWrapperINS1_IPK10MethodInfoP11Il2CppClassEEEjEES9_17ReflectionMapHashIS8_EN14dense_hash_mapIS9_jSD_NS9_14EqualsComparerINS0_8equal_toIS8_EEEENS0_9allocatorISB_EEE9SelectKeyESI_SK_E12expand_arrayEjN21dense_hash_map_traits17integral_constantIbLb0EEE
Dqh:_TextMeshProUGUI_get_maskOffset_m421670010
o_:__ZN11UnityEngine15CloudWebService16SessionContainer20RestoreSessionHeaderERKN4core12basic_stringIcNS2_20StringStorageDefaultIcEEEES8_RNS0_13SessionHeaderE
iif:__ZN5physx26PxPhysicsInsertionCallbackD2Ev
ePf:__ZN22UnityWebRequestManager13BackendRetainEv
aLc:__ZN8Material28ApplyMaterialPropertyDrawersEv
SPe:__ZN5physx2Sq16BucketPrunerCore12updateObjectERKNS_9PxBounds3ERKNS0_13PrunerPayloadE
v3e:__ZN5physx18PxsDynamicsContext23atomIntegrationParallelEfPKPNS_11PxsBodyCoreEPKPNS_12PxsRigidBodyEjPKNS_2Cm13SpatialVectorEPNS_13PxcSolverBodyEPNS_17PxcSolverBodyDataEPSA_RjSI_RNS_10PxBaseTaskE
gql:_Enumerator_Dispose_m1360775770_AdjustorThunk
i3n:__ZN24dense_hashtable_iteratorINSt3__24pairIK10KeyWrapperIPK22Il2CppGenericParameterEP11Il2CppClassEES6_N6il2cpp5utils11PointerHashIS4_EEN14dense_hash_mapIS6_S9_SE_NS6_14EqualsComparerINS0_8equal_toIS5_EEEENS0_9allocatorISA_EEE9SelectKeyESJ_SL_E30advance_past_empty_and_deletedEv
Zv:__ZN11UnityEngine9Animation27CreateAvatarBindingConstantER9TransformPKN7mecanim9animation14AvatarConstantERNS3_6memory9AllocatorE
k9j:_MonoTODOAttribute__ctor_m1298576268
qFj:_MaskableGraphic_get_onCullStateChanged_m3331479633
yni:__Z151RuntimeInvoker_RuntimeObject_Int32_t2950945753_RuntimeObject_ObjectU5BU5DU26_t712384779_RuntimeObject_RuntimeObject_RuntimeObject_ObjectU26_t2146539884PFvvEPK10MethodInfoPvPS4_
HHf:__ZN8JSONRead19TransferSTLStyleMapINSt3__23mapIN4core12basic_stringIcNS3_20StringStorageDefaultIcEEEEN11UnityEngine9Analytics16LimitEventConfigENS1_4lessIS7_EE13stl_allocatorINS1_4pairIKS7_SA_EEL18MemLabelIdentifier6ELi16EEEEEEvRT_17TransferMetaFlags
iPc:__ZN9BlobWriteC2ER13dynamic_arrayIhLj16EE24TransferInstructionFlags19BuildTargetPlatform
b0g:__ZL81Physics_t2310948930_CustomAttributesCacheGenerator_Physics_RaycastAll_m2709753186P21CustomAttributesCache
$Sg:__ZL77Input_t1431474628_CustomAttributesCacheGenerator_Input_GetAxisRaw_m2316819917P21CustomAttributesCache
W9:__ZN14MessageHandler3GetEv
Ftg:__ZL70ReliabilityContractAttribute_t502331440_CustomAttributesCacheGeneratorP21CustomAttributesCache
mYh:_InternalEnumerator_1__ctor_m1359891754_AdjustorThunk
akj:_SupportedRenderingFeatures_FallbackMixedLightingModeByRef_m3859171964
Pd:_emscripten_glAttachShader
Aqc:__Z16tesedgeIntersectP10TESSvertexS0_S0_S0_S0_
Y3:__Z40DebugStringToFilePostprocessedStacktraceRK21DebugStringToFileData
Ifh:__ZL77U3CPrivateImplementationDetailsU3E_t3057255366_CustomAttributesCacheGeneratorP21CustomAttributesCache
Qmm:_SendOrPostCallback_EndInvoke_m2485163446
plc:__ZNSt3__26vectorIN4core12basic_stringIcNS1_20StringStorageDefaultIcEEEENS_9allocatorIS5_EEE6assignIPS5_EENS_9enable_ifIXaasr21__is_forward_iteratorIT_EE5valuesr16is_constructibleIS5_NS_15iterator_traitsISC_E9referenceEEE5valueEvE4typeESC_SC_
YZd:__ZN5physx2Gu19GetRaycastFuncTableEv
MFn:_UploadHandler_Dispose_m3057340132
Kqn:_VertexShakeA_Start_m1684282329
CXa:__ZThn32_N8Renderer15AddAsRenderNodeER15RenderNodeQueueRK20DeprecatedSourceData
tVb:__ZN13dynamic_arrayIN18GlslGpuProgramGLES9GLProgramELj0EE6insertEPS1_jRKS1_
cGg:__ZL84Enumerable_t538148348_CustomAttributesCacheGenerator_Enumerable_ElementAt_m255591664P21CustomAttributesCache
Jlg:__ZL76String_t_CustomAttributesCacheGenerator_String_Concat_m1809518182____values0P21CustomAttributesCache
Ssb:__Z18Transfer_BlittableI14SafeBinaryReadLb0E11QuaternionfEvRK29SerializationCommandArgumentsR31RuntimeSerializationCommandInfo
iGd:__ZN13BoxCollider2D16CheckConsistencyEv
a4e:__ZN5physx17EdgeChangeManager23cleanupBrokenEdgeEventsEPKNS_4EdgeE
oGb:__Z18Transfer_BlittableI18StreamedBinaryReadILb0EELb1E12PropertyNameEvRK29SerializationCommandArgumentsR31RuntimeSerializationCommandInfo
G3:_tlsf_walk_heap
nni:__Z49RuntimeInvoker_Void_t1185182177_OpCode_t123070264PFvvEPK10MethodInfoPvPS4_
Q2d:__ZN5physx2Sc35ParticleElementRbElementInteraction7destroyEbj
Kro:__ZNK15dense_hashtableINSt3__24pairIK10KeyWrapperIP11Il2CppClassES4_EES5_N6il2cpp8metadata16SZArrayClassHashEN14dense_hash_mapIS5_S4_SA_NS5_14EqualsComparerINS9_19SZArrayClassCompareEEENS0_9allocatorIS7_EEE9SelectKeyESE_SG_E10test_emptyERK24dense_hashtable_iteratorIS7_S5_SA_SI_SE_SG_E
Meo:__ZN6il2cpp2vm7Runtime6InvokeEPK10MethodInfoPvPS5_PP15Il2CppException
gwi:__Z69RuntimeInvoker_Void_t1185182177_Int32_t2950945753_HitInfo_t3229609740PFvvEPK10MethodInfoPvPS4_
JXg:__ZL59AnimatorClipInfo_t3156717155_CustomAttributesCacheGeneratorP21CustomAttributesCache
M8k:_Convert_ToUInt32_m3592050311
Ab:invoke_vif
A_k:_Component_GetComponents_TisRuntimeObject_m2416546752_gshared
Bb:invoke_vid
O4h:_InternalEnumerator_1__ctor_m2202456613_AdjustorThunk
Ezf:__Z38Register_UnityEngine_TextMesh_get_fontv
Db:invoke_vii
V0b:__ZNK12ImageFilters8DoRenderER17ShaderPassContextP13RenderTextureS3_RKNSt3__26vectorI11ImageFilterNS4_9allocatorIS6_EEEE
MMo:__GLOBAL__sub_I_Runtime_cpp_36473
VIe:__ZN5physx13NpVolumeCacheD2Ev
Q6f:_TMP_Text_SetVertexColorGradient_m1499765483
Gwa:__ZN12TLSAllocatorI14StackAllocatorE16ThreadInitializeEP13BaseAllocator
Noi:__Z82RuntimeInvoker_Boolean_t97287965_SByte_t1669577662_RuntimeObject_SByte_t1669577662PFvvEPK10MethodInfoPvPS4_
Dlb:__ZN9GfxDevice32UpdateStereoViewProjectionMatrixE21MonoOrStereoscopicEye
NPl:_List_1_GetEnumerator_m668609203_gshared
v8f:_BackgroundShipColour_Update_m1959052819
X0e:__ZThn8_N5physx2Sc35ParticleElementRbElementInteraction12onDeactivateEj
G0:__Z29GetCloudWebServicesModuleSpecv
vEf:__Z41CanvasRenderer_CUSTOM_DisableRectClippingP12Il2CppObject
F0l:_Dictionary_2__ctor_m1324730059_gshared
eVi:_MonoType_GetConstructorImpl_m441167626
jig:_U3CStartU3Ec__Iterator0_Reset_m816692654
OSe:__ZN5physx16PxsThreadContextC2EPNS_10PxsContextE
tma:__ZL45__ManagedRegistrationHelperFunction_CoroutinePv
RLf:__ZNSt3__26__treeINS_12__value_typeIN4core12basic_stringIcNS2_20StringStorageDefaultIcEEEE14CallbackArray3IRKS6_R8JSONReadbEEENS_19__map_value_compareIS6_SD_NS_4lessIS6_EELb1EEE13stl_allocatorISD_L18MemLabelIdentifier6ELi16EEE4findIS6_EENS_15__tree_iteratorISD_PNS_11__tree_nodeISD_PvEEiEERKT_
G4m:_Collection_1_IsFixedSize_m3709118201_gshared
Qjb:__ZN25SingleBlockMemoryFileDataD0Ev
XL:__ZNSt3__26vectorI14ConstantStringNS_9allocatorIS1_EEE6assignINS_11__wrap_iterIPS1_EEEENS_9enable_ifIXaasr21__is_forward_iteratorIT_EE5valuesr16is_constructibleIS1_NS_15iterator_traitsISA_E9referenceEEE5valueEvE4typeESA_SA_
sLm:_ReadOnlyCollection_1_CopyTo_m586367390_gshared
ZVd:__ZN5physx3Cct10Controller4moveERNS0_11SweptVolumeERKNS_6PxVec3EffRKNS_19PxControllerFiltersEPKNS_17PxObstacleContextEb
j_:__ZN11UnityEngine15CloudWebService16SessionContainer21ConvertFromFolderTimeERKN4core12basic_stringIcNS2_20StringStorageDefaultIcEEEEPjPt
Roh:_TextContainer_OnDisable_m1100107207
Uab:__Z15UnloadGameScenev
Cub:__ZNSt3__26vectorI8GUIStyle13stl_allocatorIS1_L18MemLabelIdentifier1ELi16EEE7reserveEj
$Em:_ReadOnlyCollection_1_Contains_m3869904379_gshared
Iso:__ZN6il2cpp6icalls8mscorlib6System9Threading6Thread27GetSerializedCurrentCultureEP12Il2CppThread
wTj:__ZN21InterfaceFuncInvoker2IibbE6InvokeEjP11Il2CppClassP12Il2CppObjectbb
jqk:_Context_set_ReadSequenceNumber_m2154909392
W8m:_RijndaelTransform_SubByte_m3037693507
ncm:_Array_InternalArray__ICollection_Add_TisTMP_LinkInfo_t1092083476_m2596765647_gshared
rCc:__Z31CalculateHierarchyTransformType23TransformAccessReadOnly
qP:__ZN4FMOD8ChannelI11setPositionEjj
hlj:_Input_INTERNAL_CALL_GetTouch_m3481893561
XCd:__ZN10Collider2D12SetPolygon2DEP9Polygon2D
uze:__ZN5physx15NpActorTemplateINS_14PxRigidDynamicEE17setDominanceGroupEh
GIo:_GC_set_fl_marks
A9d:__ZN5physx6shdfnd8PoolBaseINS_2Sc12SimStateDataENS0_19ReflectionAllocatorIS3_EEE17releaseEmptySlabsEv
HFh:_Image__ctor_m2551076292
Glb:__ZN9GfxDevice17SetStereoViewportE15StereoscopicEyeRK5RectTIiE
Uha:__ZN17BaseObjectManager13StaticDestroyEPv
L3l:_DefaultComparer_GetHashCode_m1018059730_gshared
z2:__GLOBAL__sub_I_Runtime_Graphics_Mesh_1_cpp
inh:_KerningTable_RemoveKerningPair_m3737762598
EOh:_ClassInterfaceAttribute__ctor_m637338123
xzd:__ZN27b2UpdateTriggerContactsTask8FinalizeEv
yQd:__ZN5physx2Gu22closestPtPointTriangleEPNS_6shdfnd3aos5Vec3VES4_S4_Rj
PUj:_Array_InternalArray__IndexOf_TisKeyValuePair_2_t4237331251_m1795282647_gshared
_U:__ZN12AudioManager14UpdateListenerERK8Vector3fS2_S2_S2_
Rmg:__ZL70RuntimeArray_CustomAttributesCacheGenerator_Array_get_Rank_m3448755881P21CustomAttributesCache
xje:__ZN5physx2Cm8PtrTableC2Ev
jGk:_FileSystemInfo_get_FullName_m3468398407
JLn:_Vector3_get_forward_m3100859705
cfl:_Double_Equals_m2309369974_AdjustorThunk
sN:__ZN4FMOD6Reverb13setPropertiesEPK22FMOD_REVERB_PROPERTIES
fve:__ZNK5physx22NpParticleBaseTemplateINS_15PxParticleFluidENS_15NpParticleFluidEE14getRestitutionEv
H2b:__ZN9DepthPass13PrepareSubsetEjRK10RenderNodeifRK17ShaderReplaceData
YVe:__ZN5physx16PxsBroadPhaseMBP6updateEjjRKNS_23PxcBroadPhaseUpdateDataEPNS_10PxBaseTaskE
lne:__ZN5physx9NpPhysics18createRigidDynamicERKNS_11PxTransformE
o4d:__ZN5physx6shdfnd5ArrayIPvNS0_19ReflectionAllocatorINS_2Sc18TriggerInteractionEEEE15growAndPushBackERKS2_
n5f:_TMP_Text_get_isOrthographic_m424304365
fkc:__ZN9ShaderLab20SerializedSubProgram16TextureParameter8TransferI14SafeBinaryReadEEvRT_
zii:__Z82RuntimeInvoker_Int32_t2950945753_RuntimeObject_Int32_t2950945753_Int32_t2950945753PFvvEPK10MethodInfoPvPS4_
Pjk:_ASN1__ctor_m3517592395
$sf:_otv_BaseCoord_validate
cMc:__Z35SetMeshComponentFromArrayFromScriptR4Mesh30InternalScriptingShaderChannel34InternalScriptingVertexChannelTypei17ScriptingArrayPtri
Mtc:__Z18ExtractTagThrowingR11ICallString
jIa:__ZN4PPtrI6ShaderE8TransferI19StreamedBinaryWriteILb0EEEEvRT_
xXj:_Array_InternalArray__ICollection_Add_TisCustomAttributeNamedArgument_t287865710_m4157175270_gshared
Tqh:_TextMeshProUGUI_UpdateFontAsset_m4196244475
$Sd:__ZN5physx2Gu17intersectRayAABB2ERKNS_6shdfnd3aos5Vec3VES5_S5_S5_RKNS2_6FloatVERS6_S9_
ms:__ZN4core20StringStorageDefaultIcE6assignEPKcj
itl:_KeyCollection_System_Collections_Generic_ICollectionU3CTKeyU3E_Remove_m1071033400_gshared
J2m:_Collection_1_System_Collections_IEnumerable_GetEnumerator_m1376351129_gshared
poe:__ZNK5physx7NpShape17getSphereGeometryERNS_16PxSphereGeometryE
bjk:_BigInteger_ModPow_m3776562770
Eih:__ZL85Scoreboard_t4002975821_CustomAttributesCacheGenerator_Scoreboard_get_Score_m459727822P21CustomAttributesCache
EZd:__ZL18intersectAnyVsMeshILi1EEbPKN5physx2Gu6SphereEPKNS1_7CapsuleEPKNS1_3BoxERKNS1_13RTreeMidphaseERKNS0_11PxTransformERKNS0_11PxMeshScaleEP14LimitedResults
A5f:_TMP_Text_set_renderMode_m3516136471
SLf:__ZNSt3__26__treeINS_12__value_typeIN4core12basic_stringIcNS2_20StringStorageDefaultIcEEEE14CallbackArray3IRKS6_R8JSONReadbEEENS_19__map_value_compareIS6_SD_NS_4lessIS6_EELb1EEE13stl_allocatorISD_L18MemLabelIdentifier6ELi16EEE25__emplace_unique_key_argsIS6_JNS_4pairIS6_SC_EEEEENSN_INS_15__tree_iteratorISD_PNS_11__tree_nodeISD_PvEEiEEbEERKT_DpOT0_
mij:_ArgumentCache_get_unityObjectArgumentAssemblyTypeName_m3450114170
REc:__ZN15SharedLightDataC2E10MemLabelId
Mag:_U3CSpawnBackgroundSpaceShipU3Ec__Iterator9_Dispose_m3935238282
MYm:_List_1_Add_m2996644200_gshared
I7d:__ZN5physx6shdfnd5ArrayIPvNS0_15InlineAllocatorILj256ENS0_19ReflectionAllocatorINS_2Cm5BlockIhLj128EEEEEEEE15growAndPushBackERKS2_
Hcc:__ZN6Camera6SetFarEf
q6i:_FormatterConverter_ToBoolean_m1680758923
EWo:dynCall_viiiiiiii
lPj:_Array_InternalArray__ICollection_Remove_TisKeyValuePair_2_t1383673463_m2503620538_gshared
ela:__ZN6prcoreL12RemapGenericI17TexFormatABGR888817TexFormatARGB8888EEvPKNS_9InnerInfoE
dxa:__ZN11GameManager17MainThreadCleanupEv
i3k:_Stack_get_Count_m2258661097
Dfd:__Z25UpdateOrbitalAndRadialTplIL27ParticleSystemCurveEvalMode1ELS0_4ELS0_2EEvRK11MinMaxCurveS3_S3_S3_S3_S3_S3_R23ParticleSystemParticlesjjRKN4math8float3x3ERKNS6_7affineXERKNS6_7_float4E
cEf:__Z50Register_UnityEngine_UISystemProfilerApi_EndSamplev
Z_l:_Dictionary_2_System_Collections_ICollection_get_SyncRoot_m2020472285_gshared
jTo:__ZNKSt3__212basic_stringIcNS_11char_traitsIcEENS_9allocatorIcEEE4findEcj
g_f:_TMP_InputField_PageDownCharacterPosition_m1882261777
Exl:__ZN23GenericVirtFuncInvoker2I25KeyValuePair_2_t727985506ixE6InvokeEPK10MethodInfoP12Il2CppObjectix
P9h:_InternalEnumerator_1_System_Collections_IEnumerator_Reset_m1775752715_AdjustorThunk
uZn:_Physics2D_Raycast_m2082490717
_Hg:__ZL91Application_t1852185770_CustomAttributesCacheGenerator_Application_get_isPlaying_m100394690P21CustomAttributesCache
k3l:_DefaultComparer_GetHashCode_m1852619184_gshared
TQh:_ConfigHandler_OnProcessingInstruction_m4212209262
RCd:__ZN10Collider2D12AddToManagerEv
zad:__ZN14ParticleSystem10ResetSeedsEv
s7i:_SerializationCallbacks_GetSerializationCallbacks_m2939476649
Sqe:__ZNK5physx7NpCloth24getParticleAccelerationsEPNS_6PxVec4E
Eqb:__ZNSt3__26vectorIN20GpuProgramParameters19AtomicCounterBufferENS_9allocatorIS2_EEE21__push_back_slow_pathIRKS2_EEvOT_
Nvf:_UNITY_tt_slot_init
p_b:__ZZ23InitPlayerLoopCallbacksvEN41PostLateUpdateUpdateResolutionRegistrator7ForwardEv
Gul:_KeyCollection_GetEnumerator_m1168803204_gshared
dIb:__Z25scripting_array_class_get17ScriptingClassPtrj
hye:__ZN5physx22NpParticleBaseTemplateINS_16PxParticleSystemENS_16NpParticleSystemEE20lockParticleReadDataEv
TT:__ZNK10SampleClip22GetTypeVirtualInternalEv
ymb:__ZN9GfxDevice20DestroyRenderSurfaceER12ObjectHandleI17RenderSurface_TagP17RenderSurfaceBaseE
f3k:_Stack__ctor_m2602729586
Mhi:__Z77RuntimeInvoker_Byte_t1134296376_RuntimeObject_Int32_t2950945753_RuntimeObjectPFvvEPK10MethodInfoPvPS4_
bxc:__Z35Resources_CUSTOM_GetBuiltinResourceP12Il2CppObjectP12Il2CppString
KAk:_Int32_System_IConvertible_ToInt32_m265310525_AdjustorThunk
aOk:_Array_slow_swapper_m4116724811
zbc:__ZN12_GLOBAL__N_15qAsinEff
Rhj:_Display__ctor_m3105658851
R1k:_HashValues_get_IsSynchronized_m3461082747
k0h:_InternalEnumerator_1_System_Collections_IEnumerator_get_Current_m2629988057_AdjustorThunk
Hwa:__ZN12TLSAllocatorI14StackAllocatorE13ThreadCleanupEv
T1l:_Dictionary_2_get_Item_m2136868513_gshared
x0a:__ZN14SafeBinaryRead21TransferSTLStyleArrayI13dynamic_arrayI8Vector4fLj0EEEEvRT_17TransferMetaFlags
AP:__Z18GetAudioManagerPtrv
rum:_ValueType_InternalEquals_m1384040357
opk:_Context_get_HandshakeMessages_m3655705111
kGo:__ZThn4_N6il2cpp2vm13ComObjectBase16MarshalInterfaceEP13Il2CppIStreamRK10Il2CppGuidPvjS7_j
APi:__Z74RuntimeInvoker_DictionaryEntry_t3123975638_RuntimeObject_SByte_t1669577662PFvvEPK10MethodInfoPvPS4_
Xhc:__Z27FindActiveTransformWithPathPKc
vIm:_ReadOnlyCollection_1_System_Collections_IList_Remove_m4169110229_gshared
Yrm:_UInt16_ToString_m3020002356
HEe:__ZN5physx16PxsIslandManager14setEdgeRigidCMERKNS_20PxsIslandManagerHookIjLj4294967295EEEPNS_17PxsContactManagerE
sEj:_LayoutRebuilder_LayoutComplete_m68578143
X1n:_RequiredByNativeCodeAttribute__ctor_m119855101
uza:__ZN12BaseRendererD0Ev
Cgc:__Z29StdTemplateConversionFunctionIbyEbPvR14SafeBinaryRead
S8m:_RijndaelManaged_GenerateKey_m1736287430
hkh:__ZL143U3CStartU3Ec__Iterator0_t3341539328_CustomAttributesCacheGenerator_U3CStartU3Ec__Iterator0_System_Collections_IEnumerator_get_Current_m22834162P21CustomAttributesCache
Dce:__ZN5physx14NpArticulation25setStabilizationThresholdEf
tMn:_WaitForSeconds_t1699091251_marshal_pinvoke
Q2g:__ZL90PointerEventData_t3807901092_CustomAttributesCacheGenerator_U3ClastPressU3Ek__BackingFieldP21CustomAttributesCache
G2k:_SortedList_Find_m3363512987
v8e:__ZN5physx2Gu11HeightField7releaseEv
O4b:__ZNK6Camera7GetNearEv
m1i:_GenericTypeParameterBuilder_GetConstructorImpl_m863833310
Dsl:_Enumerator_get_Current_m3687673883_AdjustorThunk
LCf:__ZN2UI13CanvasManager8SortListEv
aVb:__ZN7ApiGLES11UnmapBufferEjN2gl12BufferTargetE
BGo:__ZN6il2cpp5utilsL24Utf32CharToSurrogatePairEjRA2_Ds
qUa:__Z25GetNextAllowedTextureSizeib13TextureFormat
WKb:__ZN20LocalFileSystemWebGL4CopyER13FileEntryDataS1_
p1:__ZN19CloudServiceHandler6RetainEv
pag:_GameController_SpawnPowerUpWaves_m3905404505
HOo:__ZN6il2cpp2os9Semaphore4WaitEb
Btd:__ZN15b2FrictionJointD0Ev
JDm:_ReadOnlyCollection_1_System_Collections_IList_IndexOf_m198887188_gshared
T0k:_Component_GetComponent_TisRuntimeObject_m2906321015_gshared
QVc:__Z36Event_CUSTOM_Internal_SetNativeEventPv
Lkm:_UTF32Encoding_GetBytes_m3180303867
VYm:_List_1_CopyTo_m4034402519_gshared
y0e:__ZN5physx2Sc8ClothSim23addCollisionHeightfieldEPKNS0_8ShapeSimE
yTj:__ZN21InterfaceFuncInvoker2IihhE6InvokeEjP11Il2CppClassP12Il2CppObjecthh
_Xl:_List_1_System_Collections_IList_Add_m1651178974_gshared
Ycb:__Z34scripting_liveness_calculation_endPv
TQk:_Char_GetDataTablePointers_m754571594
SCo:__ZN6il2cpp2os6ThreadC2Ev
mXh:_U3CGetEnumeratorU3Ec__Iterator0_System_Collections_Generic_IEnumeratorU3CTU3E_get_Current_m1566629109_gshared
pFc:__ZN28ReflectionProbeAnchorManager7CleanupEv
xUm:_List_1_set_Capacity_m725662605_gshared
Jbl:_DateTimeOffset_get_UtcDateTime_m1021718282_AdjustorThunk
Dla:__ZN16memory_pool_implILi64EE15AutoPoolWrapper12UninitializeEPv
zy:__ZN21AnimationClipPlayable22ProcessAnimationNoClipEPK35AnimationPlayableEvaluationConstantPK32AnimationPlayableEvaluationInputP33AnimationPlayableEvaluationOutput
hBo:__ZNK6il2cpp2os10SocketImpl12GetLastErrorEv
L7j:_HybridDictionary_get_Count_m1166314536
bcn:_TlsStream_Write_m1412844442
_0c:__Z18Transfer_BlittableI8JSONReadLb0E8Vector3fEvRK29SerializationCommandArgumentsR31RuntimeSerializationCommandInfo
yWg:__ZL84TextMesh_t1536577757_CustomAttributesCacheGenerator_TextMesh_set_fontSize_m147394684P21CustomAttributesCache
jnj:_Matrix4x4__ctor_m53065545_AdjustorThunk
Apo:__ZN6il2cpp2vm6Thread6DetachEP12Il2CppThread
Ecn:_GeneralNames_get_DNSNames_m3788548987
rVl:_List_1_AddCollection_m2026039026_gshared
Fyf:_Render_Single_Pass
uig:_Benchmark03__ctor_m2259752292
hge:__ZNK5physx18NpArticulationLink13isSubordinateEv
p_j:_SymmetricAlgorithm_get_IV_m1875559108
RQj:_SetPropertyUtility_SetStruct_TisContentType_t1128941285_m1600165170_gshared
JGi:__Z58RuntimeInvoker_Boolean_t97287965_KeyValuePair_2_t625878672PFvvEPK10MethodInfoPvPS4_
g8i:_SerializationEntry_t648286436_marshal_pinvoke
Mma:__ZL56__ManagedRegistrationHelperFunction_TextureMixerPlayablePv
lw:__ZN7mecanim8skeleton30SkeletonBuildReverseIndexArrayEPiPKiPKNS0_8SkeletonES6_
ehd:__Z22UpdateOrbitalOffsetTplIL27ParticleSystemCurveEvalMode0ELS0_0EEvRK11MinMaxCurveS3_S3_S3_S3_S3_S3_R23ParticleSystemParticlesjjRKN4math8float3x3ERKNS6_7affineXERKNS6_7_float4E
lWc:__Z19GetGUIBlendMaterialv
U4l:_DefaultComparer_GetHashCode_m177499767_gshared
HTi:_Math_Round_m3018379666
Kpi:__Z41RuntimeInvoker_Boolean_t97287965_IntPtr_tPFvvEPK10MethodInfoPvPS4_
HDo:__ZN6il2cpp2os10ThreadImpl5SleepEjb
edi:_Comparer_1__cctor_m269133611_gshared
zQc:__Z53Register_UnityEngine_Quaternion_LookRotation_Injectedv
kVe:__ZN5physx14SapPairManager12shrinkMemoryEv
HMf:__ZN22BaseUnityConnectClient12IsNewSessionEv
$Yg:__ZL82LayoutCache_t78309876_CustomAttributesCacheGenerator_LayoutCache__ctor_m3885940174P21CustomAttributesCache
hMh:__ZN28GenericInterfaceFuncInvoker0IP12Il2CppObjectE6InvokeEPK10MethodInfoS1_
Gcf:__ZN5physx6shdfnd8internal7median3IjKNS_19SortBoundsPredicateEEEvPT_iiRT0_
ZQj:_PlayableHandle_IsPlayableOfType_TisRuntimeObject_m503495943_AdjustorThunk
G$o:_glBindSampler__wrapper
xZb:__ZNSt3__26vectorIN20ArchiveStorageHeader12StorageBlockE13stl_allocatorIS2_L18MemLabelIdentifier55ELi16EEE8__appendEj
wg:_emscripten_set_mouseup_callback
Sic:__Z14resize_trimmedINSt3__26vectorIN9ShaderLab14SerializedPassENS0_9allocatorIS3_EEEEEvRT_j
$mj:_Mathf_Clamp_m3350697880
pob:__ZN9GfxDevice27SetRandomWriteTargetTextureEi9TextureID
L1l:_Dictionary_2_System_Collections_Generic_ICollectionU3CSystem_Collections_Generic_KeyValuePairU3CTKeyU2CTValueU3EU3E_Contains_m3033743418_gshared
_oi:__Z165RuntimeInvoker_Void_t1185182177_UInt32U26_t3735378166_Int32_t2950945753_UInt32U26_t3735378166_Int32_t2950945753_Int32_t2950945753_Int32_t2950945753_Int32_t2950945753PFvvEPK10MethodInfoPvPS4_
hVl:_List_1_System_Collections_IList_Remove_m3140917266_gshared
W5j:_Encoding_get_DecoderFallback_m1525880676
Nvg:__ZL59ITrackingHandler_t1244553475_CustomAttributesCacheGeneratorP21CustomAttributesCache
kdg:_PowerUpSpeed_Update_m2424033379
Hbj:_DSASignatureDeformatter__ctor_m2759753186
tHe:__ZN5physx7NpScene22removeBroadPhaseRegionEj
H4d:__ZL34GeomOverlapCallback_CapsuleCapsuleRKN5physx10PxGeometryERKNS_11PxTransformES2_S5_PNS_2Gu12TriggerCacheE
xwm:_Collection_1_System_Collections_IEnumerable_GetEnumerator_m801406918_gshared
PKb:__ZNK18ScreenManagerWebGL8GetWidthEv
BGe:__ZNK5physx7NpScene23getFilterShaderDataSizeEv
lwl:_Transform_1_Invoke_m1211838035_gshared
Iom:_TimeSpan_get_TotalHours_m306507525_AdjustorThunk
QT:__ZN10SampleClipD2Ev
H1i:_GenericTypeParameterBuilder_get_AssemblyQualifiedName_m2323022482
zgn:_Predicate_1_Invoke_m2389850270_gshared
nkh:__ZL129U3CRevealCharactersU3Ec__Iterator0_t860191687_CustomAttributesCacheGenerator_U3CRevealCharactersU3Ec__Iterator0__ctor_m4163835966P21CustomAttributesCache
aTi:_UnmanagedMemoryStream_get_CanSeek_m2636857629
LTg:__ZL90PlayerPrefs_t3518992213_CustomAttributesCacheGenerator_PlayerPrefs_TrySetFloat_m2507302512P21CustomAttributesCache
qcb:__Z13GetGISettingsv
Iqc:__ZN19SpriteMeshGenerator7contourERNSt3__26vectorINS_6vertexENS0_9allocatorIS2_EEEERiRf
$0:__ZN11UnityEngine15CloudWebService20WebRequestRestClientC2Ev
mrf:_cff_cmap_unicode_init
jzf:__Z31Font_CUSTOM_Internal_CreateFontP12Il2CppObjectP12Il2CppString
$la:__ZL60__ManagedRegistrationHelperFunction_AssemblyIsEditorAssemblyPv
Rba:__ZN14FileCacherRead13GetFileLengthEv
_ln:_UnityAction_1_EndInvoke_m542551745_gshared
j3m:_Collection_1_IsValidItem_m3080586124_gshared
rXg:__ZL64DownloadHandler_t2937767557_CustomAttributesCacheGenerator_m_PtrP21CustomAttributesCache
gCh:_DropdownItem_set_text_m3702712387
rzh:_ClipperRegistry_Register_m2407166513
KRo:_readlink
pjo:__ZN15dense_hashtableINSt3__24pairIK10KeyWrapperINS1_IPK9EventInfoP11Il2CppClassEEEjEES9_17ReflectionMapHashIS8_EN14dense_hash_mapIS9_jSD_NS9_14EqualsComparerINS0_8equal_toIS8_EEEENS0_9allocatorISB_EEE9SelectKeyESI_SK_E12resize_deltaEjj
XJh:_MonoCMethod_Invoke_m2700167622
W1k:_KeyMarker__cctor_m2590194914
bcd:__ZN14ParticleSystem38UpdateModulesPostSimulationIncrementalER24ParticleSystemUpdateDataR23ParticleSystemParticlesjRKf
RMo:__ZN6il2cpp8metadata14Il2CppTypeHash4HashEPK10Il2CppType
TNo:__ZN6il2cpp2os13SemaphoreImplC2Eii
WQl:_List_1_Sort_m2867357390_gshared
YTl:_List_1_get_Item_m3345800295_gshared
xEd:__ZNSt3__26vectorIN10ClipperLib8IntPointENS_9allocatorIS2_EEE21__push_back_slow_pathIS2_EEvOT_
r2a:__ZNK6Sprite9GetBoundsE8Vector2fbb
JBa:__ZNK19RenderEventsContext21CleanupCommandBuffersEv
gXn:_TextGenerator_PopulateWithErrors_m1222498386
col:_Enumerator_get_Current_m465000956_AdjustorThunk
fWl:_List_1_System_Collections_Generic_ICollectionU3CTU3E_get_IsReadOnly_m507350231_gshared
BSb:__ZN11ContextGLES6CreateEi
eZd:__ZN5physx6shdfnd5ArrayINS_10PxTriangleENS0_19ReflectionAllocatorIS2_EEE15growAndPushBackERKS2_
aYn:_WillRenderCanvases_BeginInvoke_m1804779886
Puj:_RectTransform_INTERNAL_set_anchoredPosition_m939517950
L_l:_List_1_set_Capacity_m3382070520_gshared
SCj:_U3CMouseDragOutsideRectU3Ec__Iterator1_Dispose_m267465418
jdl:_Decimal_CompareTo_m3502307243_AdjustorThunk
dHb:__Z19TransferField_ArrayI18StreamedBinaryReadILb0EE27Converter_SimpleNativeClassI17AnimationCurveTplIfEEEvRK23StaticTransferFieldInfoR31RuntimeSerializationCommandInfoRT0_
$wa:__ZN14StackAllocator16FrameMaintenanceEb
HYd:__ZL11SweepBoxBoxPKN5physx3Cct9SweepTestEPKNS0_11SweptVolumeEPKNS0_11TouchedGeomERKNS_14PxExtendedVec3ERKNS_6PxVec3ERNS0_12SweptContactE
VWa:__Z18ReadStringFromFilePN4core17string_with_labelILi1EEERKNS_12basic_stringIcNS_20StringStorageDefaultIcEEEE
T$c:__ZN9JSONWrite8TransferI13dynamic_arrayIjLj0EEEEvRT_PKc17TransferMetaFlags
zca:__ZNK10GameObject20QueryComponentByTypeEPKN5Unity4TypeE
Ccl:_Decimal_System_IConvertible_ToInt32_m1488426794_AdjustorThunk
Bbh:__ZL66TMP_Dropdown_t3024694699_CustomAttributesCacheGenerator_m_ItemTextP21CustomAttributesCache
kUi:_MonoCustomAttrs_IsUserCattrProvider_m2878058089
kxj:_TextAsset_ToString_m2170047097
h6g:__ZL71InputField_t3762917431_CustomAttributesCacheGenerator_m_HideMobileInputP21CustomAttributesCache
CGn:_UploadHandler_Finalize_m3322774190
$Sa:__ZN11TextureData5ResetEv
luc:__Z53Register_UnityEngine_GameObject_get_activeInHierarchyv
M_j:_ToBase64Transform_InternalTransformFinalBlock_m360524956
lLk:_ActivationContext_Dispose_m2038725770
wwb:__Z35Transfer_Blittable_FixedBufferFieldI17RemapPPtrTransferiEvRK29SerializationCommandArgumentsR31RuntimeSerializationCommandInfo
F7:__ZL30InitializeCoreScriptingClassesv
fJm:_ReadOnlyCollection_1_Contains_m1699971074_gshared
eIa:__ZN15SerializeTraitsI12fixed_bitsetILi28EjEE8TransferI18StreamedBinaryReadILb0EEEEvRS1_RT_
th:_glBlitFramebuffer
xib:__ZN17ArchiveFileSystem5TouchER13FileEntryData
fPe:__ZN5physx2Sq10AABBPrunerC2Eb
Nul:_KeyCollection_System_Collections_Generic_IEnumerableU3CTKeyU3E_GetEnumerator_m818204647_gshared
rwb:__Z35Transfer_Blittable_SingleValueFieldI14SafeBinaryReadhEvRT_R17GeneralMonoObjectRK23StaticTransferFieldInfo
iOc:__ZN4core8hash_setINS_4pairIKy9PlaneDataLb0EEENS_9hash_pairIN32PlaneColliderCache_dense_hashmap17UInt64HashFunctorES2_S3_EENS_10equal_pairINSt3__28equal_toIyEES2_S3_EEE4growEv
Wom:_TimeSpan_Duration_m2963553230
d3g:__ZL97PointerEventData_t3807901092_CustomAttributesCacheGenerator_U3CuseDragThresholdU3Ek__BackingFieldP21CustomAttributesCache
Wue:__ZN5physx22NpParticleBaseTemplateINS_15PxParticleFluidENS_15NpParticleFluidEE13setVelocitiesEjRKNS_16PxStrideIteratorIKjEERKNS4_IKNS_6PxVec3EEE
lFf:__Z47Register_UnityEngine_CanvasRenderer_GetMaterialv
jOc:__ZN4core8hash_setINS_4pairIKy9PlaneDataLb0EEENS_9hash_pairIN32PlaneColliderCache_dense_hashmap17UInt64HashFunctorES2_S3_EENS_10equal_pairINSt3__28equal_toIyEES2_S3_EEE4growEi
J7c:__ZN24GenerateTypeTreeTransfer8TransferI13dynamic_arrayIN8UVModule10SpriteDataELj0EEEEvRT_PKc17TransferMetaFlags
ldm:_Array_InternalArray__ICollection_CopyTo_TisInt64_t3736567304_m2845057751_gshared
hTa:__ZNK12CubemapArray22GetTypeVirtualInternalEv
PRb:__ZN13GfxDeviceGLES25SetStereoConstantPlatformEijRK10Matrix4x4f
n$m:_Collection_1_System_Collections_IList_Add_m842425514_gshared
Wo:FUNCTION_TABLE_vif
Xo:FUNCTION_TABLE_vid
HZk:_Dictionary_2_Do_CopyTo_TisInt32_t2950945753_TisRuntimeObject_m213146570_gshared
Zo:FUNCTION_TABLE_vii
hdb:__Z40scripting_liveness_calculation_from_root18ScriptingObjectPtrPv
e5g:__ZL67OptionDataList_t1438173104_CustomAttributesCacheGenerator_m_OptionsP21CustomAttributesCache
gXg:__ZL102UnityWebRequest_t463507806_CustomAttributesCacheGenerator_UnityWebRequest_get_isModifiable_m4181352937P21CustomAttributesCache
yjd:__ZN13InitialModuleD2Ev
O$l:_Dictionary_2_System_Collections_IDictionary_get_Item_m2163779460_gshared
$ug:__ZL65IContributeDynamicSink_t2255997386_CustomAttributesCacheGeneratorP21CustomAttributesCache
ANa:__ZN7Texture23VirtualRedirectTransferER24GenerateTypeTreeTransfer
hmf:_UNITY_FT_Set_Transform
CGc:__ZNK32RendererMaterialAnimationBinding12SetPPtrValueERKN11UnityEngine9Animation10BoundCurveEi
J1a:__ZN14SpriteRenderer16CheckConsistencyEv
j$o:_glDeleteFramebuffers__wrapper
O0m:_Collection_1_System_Collections_IList_get_IsFixedSize_m2620019318_gshared
wli:__Z220RuntimeInvoker_Boolean_t97287965_RuntimeObject_Int32U26_t1369213839_Int32_t2950945753_Int32_t2950945753_Int32_t2950945753_RuntimeObject_SByte_t1669577662_Int32_t2950945753_ContractionU26_t961830454_ContextU26_t3937453398PFvvEPK10MethodInfoPvPS4_
MNg:__ZL73Rect_t2360479859_CustomAttributesCacheGenerator_Rect_get_zero_m4034156123P21CustomAttributesCache
QTe:__ZN5physx37solveFrictionCoulombPreBlock_ConcludeEPKNS_23PxcSolverConstraintDescEjRNS_16PxcSolverContextE
Lqg:__ZL78TextInfo_t3810425522_CustomAttributesCacheGenerator_TextInfo_Clone_m3838580862P21CustomAttributesCache
wpf:_cff_blend_build_vector
yUf:_TMP_DefaultControls_CreateScrollbar_m4251525859
Y3h:_InternalEnumerator_1_MoveNext_m1015797184_gshared
xze:__ZNK5physx15NpActorTemplateINS_14PxRigidDynamicEE14getOwnerClientEv
Sni:__Z91RuntimeInvoker_Void_t1185182177_RuntimeObject_RuntimeObject_RuntimeObject_Int32_t2950945753PFvvEPK10MethodInfoPvPS4_
dMh:_GetterAdapter_Invoke_m3767885970
P$l:_Dictionary_2_System_Collections_IDictionary_set_Item_m977858099_gshared
qfn:_X509Extension_get_Oid_m4107042796
q2i:_MethodBuilder_get_ReflectedType_m3038768129
w5j:_String_CreateString_m2818852475
MLl:_Enumerator_get_Current_m335492761_AdjustorThunk
zHc:__Z22GenerateBoxTilingShapeP22GenerateTilingAreaInfo
XYa:__ZN28EnlightenRendererInformation8TransferI14SafeBinaryReadEEvRT_
LYn:_CanvasRenderer_get_hasMoved_m2236392341
bke:__ZN5physx12NpBatchQuery13getUserMemoryEv
Apj:_MessageEvent__ctor_m1231650089
hfb:__ZNK15Lz4Decompressor16DecompressMemoryEPKvPjPvS2_
guf:_UNITY_tt_face_build_cmaps
TTi:_MemberAccessException__ctor_m3713703094
sJh:_MethodBase_get_ContainsGenericParameters_m2144492325
Frg:__ZL117GenericTypeParameterBuilder_t1988827940_CustomAttributesCacheGenerator_GenericTypeParameterBuilder_Equals_m3260957994P21CustomAttributesCache
Hoc:__ZN4core8hash_mapINS_12basic_stringIcNS_20StringStorageDefaultIcEEEE10vector_setI4PPtrI11SpriteAtlasENSt3__24lessIS8_EE13stl_allocatorIS8_L18MemLabelIdentifier81ELi16EEENS_4hashIS4_EENS9_8equal_toIS4_EEEixERKS4_
vHd:__ZN11Rigidbody2D8TransferI24GenerateTypeTreeTransferEEvRT_
DNn:__ZL24UnresolvedVirtualCall_47P12Il2CppObject20DateTime_t3738529785PK10MethodInfo
idh:__ZL84U3CRemoveStencilMaterialU3Ec__AnonStorey2_t2443477048_CustomAttributesCacheGeneratorP21CustomAttributesCache
lQa:__Z35UnityPropertySheet_MakeSortedColorsRKNSt3__23mapIN9ShaderLab16FastPropertyNameE10ColorRGBAfNS_4lessIS2_EENS_9allocatorINS_4pairIKS2_S3_EEEEEER10vector_mapIS2_S3_S5_NS6_INS7_IS2_S3_EEEEE
iEg:__ZL72PKCS12_t4101533061_CustomAttributesCacheGenerator_U3CU3Ef__switchU24map8P21CustomAttributesCache
n9m:_RIPEMD160Managed_ProcessBlock_m3304263146
Dtf:_UNITY_tt_face_load_os2
PPm:_SortContext_1__ctor_m1830173245_gshared
_Fd:__ZN17PolygonCollider2D8TransferI24GenerateTypeTreeTransferEEvRT_
gem:_Array_InternalArray__ICollection_CopyTo_TisUICharInfo_t75501106_m4268526610_gshared
aAe:__ZN5physx19NpRigidBodyTemplateINS_14PxRigidDynamicEE16setRigidBodyFlagENS_15PxRigidBodyFlag4EnumEb
w7d:__ZN5physx6shdfnd8PoolBaseINS_2Sc19ConstraintGroupNodeENS0_19ReflectionAllocatorIS3_EEE17releaseEmptySlabsEv
Mvb:__Z29Transfer_Blittable_ArrayFieldI14SafeBinaryRead8Vector4fEvRT_R9ArrayInfoRK23StaticTransferFieldInfo
BBo:__GLOBAL__sub_I_BoehmGC_cpp
yI:__ZNK26AnimatorOverrideController22GetTypeVirtualInternalEv
fff:__ZNSt3__27__sort4IRNS_6__lessI24InterpolationDepthHandleS2_EEPS2_EEjT0_S6_S6_S6_T_
vIk:_PKCS12_Compare_m2975811353
GYh:_InternalEnumerator_1__ctor_m2406468324_AdjustorThunk
Rlm:_UTF8Encoding_GetMaxCharCount_m3762459613
OJg:__ZL81Shader_t4151988712_CustomAttributesCacheGenerator_Shader_PropertyToID_m1030499873P21CustomAttributesCache
d$i:_ModuleBuilder_RegisterToken_m4166846047
_Vd:__ZN5physx3Cct8SweptBoxD2Ev
aph:_TextMeshPro_get_transform_m2127581678
g_b:__ZZ23InitPlayerLoopCallbacksvEN51PostLateUpdateUpdateCustomRenderTexturesRegistrator7ForwardEv
NQe:__ZN5physx2Cm12DelegateTaskINS_13PxsCCDContextEXadL_ZNS2_12postCCDSweepEPNS_10PxBaseTaskEEEED0Ev
BGj:_RawImage_OnPopulateMesh_m1115858855
Wmi:__Z74RuntimeInvoker_MonoFileType_t221779374_IntPtr_t_MonoIOErrorU26_t1548853198PFvvEPK10MethodInfoPvPS4_
ibo:__ZN6il2cpp2vm13MetadataCache25GetStringLiteralFromIndexEi
MLk:_Hashtable_ToPrime_m33531354
Yy:__ZN7mecanim9animation12EvaluateClipEPKNS0_4ClipEPKNS0_9ClipInputEPNS0_10ClipMemoryEPNS0_10ClipOutputE
dxm:_Collection_1_IsSynchronized_m1117613618_gshared
SPf:__ZN20UnityWebRequestProtoI24UnityWebRequestTransport16AtomicRefCounter14RedirectHelper14ResponseHelper15DownloadHandler13UploadHandler18CertificateHandler12HeaderHelper14AsyncOperationE19Task_FinishRedirectEPv
Z2j:_String__ctor_m1926862525
jxh:_TouchInputModule_ProcessTouchPress_m3504077560
x0d:__ZN5physx3Cct9SweepTest15onObstacleAddedEjPKNS_17PxObstacleContextERKNS_6PxVec3ES7_f
g5d:__ZN5physx2Gu10SupportMapD2Ev
brm:_TypeInitializationException__ctor_m3546444694
qxc:__ZNK9Transform16GetLocalRotationEv
lsl:_Enumerator_System_Collections_IEnumerator_Reset_m4278714428_gshared
gZa:__ZN4PPtrI11LightProbesE8TransferI18StreamedBinaryReadILb0EEEEvRT_
b0:__ZN11UnityEngine15CloudWebService23WebRequestUploadHandler17ConsumeUploadDataEj
Fco:__ZNSt3__214__split_bufferI6pollfdRNS_9allocatorIS1_EEEC2EjjS4_
BQh:_CrossAppDomainData_get_DomainID_m3516796532
pfe:__ZNK5physx15NpActorTemplateINS_18PxArticulationLinkEE22getClientBehaviorFlagsEv
zGk:_MemoryStream_set_Position_m3169779190
Bbc:__ZN13RenderManager29SetCurrentCameraAndStackStateEP6CameraP25CameraStackRenderingState
K$g:__ZL77Physics_t2310948930_CustomAttributesCacheGenerator_Physics_Raycast_m630863594P21CustomAttributesCache
quh:_ExecuteEvents_get_scrollHandler_m2659345019
Axa:__ZNSt3__26__treeINS_12__value_typeIjN4core12basic_stringIcNS2_20StringStorageDefaultIcEEEEEENS_19__map_value_compareIjS7_NS_4lessIjEELb1EEE13stl_allocatorIS7_L18MemLabelIdentifier7ELi16EEE7destroyEPNS_11__tree_nodeIS7_PvEE
R_k:_Mesh_SetArrayForChannel_TisColor32_t2600501292_m4048852508_gshared
Dro:__ZN15dense_hashtableINSt3__24pairIK10KeyWrapperINS1_IP11Il2CppClassjEEES4_EES6_N6il2cpp8metadata14ArrayClassHashEN14dense_hash_mapIS6_S4_SB_NS6_14EqualsComparerINSA_17ArrayClassCompareEEENS0_9allocatorIS8_EEE9SelectKeyESF_SH_E12resize_deltaEjj
Ii:_JS_WebRequest_Release
WOg:__ZL85Time_t2420636075_CustomAttributesCacheGenerator_Time_t2420636075____time_PropertyInfoP21CustomAttributesCache
dfi:_Enumerator_System_Collections_IEnumerator_Reset_m2031362704_AdjustorThunk
qfe:__ZNK5physx15NpActorTemplateINS_18PxArticulationLinkEE12getAggregateEv
L_:__ZN11UnityEngine15CloudWebService14DataErrorEventD0Ev
Q$m:_Collection_1_ConvertItem_m525844156_gshared
Ruo:__ZN6il2cpp6icalls8mscorlib6System4Type20internal_from_handleEi
J9l:_GenericEqualityComparer_1__ctor_m1453861043_gshared
LGg:__ZL72RequiredByNativeCodeAttribute_t4130846357_CustomAttributesCacheGeneratorP21CustomAttributesCache
yPk:_Boolean_System_IConvertible_ToUInt16_m3465173538_AdjustorThunk
M9c:__ZN14EmissionModule5ResetEv
vYl:_List_1_CheckMatch_m2532733861_gshared
wRh:_Context__ctor_m254302079
QQe:__ZN5physx13PxsCCDContext12postCCDSweepEPNS_10PxBaseTaskE
Gra:__ZN9Scripting11UnityEngine12Experimental9Playables20TextureMixerPlayable9InitProxyEv
anl:_KeyGeneratedEventHandler_EndInvoke_m3057317531
bWa:__ZN19ShaderPropertySheet16SetArrayPropertyEN9ShaderLab16FastPropertyNameENS_12PropertyTypeEPKvj
vIj:_Selectable_FindSelectable_m2348614027
J3b:__ZN22PerThreadPageAllocatorC2Ev
d2m:_Collection_1_System_Collections_IList_Remove_m1265898254_gshared
OAh:_FloatTween_get_duration_m1227071020
$Qf:__ZN16UploadHandlerRaw17ConsumeUploadDataEj
PCh:_DropdownItem_OnPointerEnter_m1492957598
mdf:__ZN5physx6shdfnd10Foundation19AlignCheckAllocator28deregisterAllocationListenerERNS_20PxAllocationListenerE
Ree:__ZN5physx2Sc21ArticulationJointCore12setChildPoseERKNS_11PxTransformE
sMh:_ParameterInfo_get_ParameterType_m4197803362
tmi:__Z91RuntimeInvoker_Void_t1185182177_Int32U26_t1369213839_Int32U26_t1369213839_Int32_t2950945753PFvvEPK10MethodInfoPvPS4_
Ksa:__ZN9Scripting11UnityEngine9BoundsInt9InitProxyEv
O1n:_StaticAccessorAttribute_set_Type_m2333258271
GWc:__ZN8GUIState8EndOnGUIEv
YKf:__ZN11UnityEngine15PlatformWrapper16GetApplicationIdEv
Oso:__ZN6il2cpp6icalls8mscorlib6System2IO6MonoIO16get_ConsoleErrorEv
Uvf:_UNITY_TT_Get_VMetrics
gii:__Z49RuntimeInvoker_Char_t3634460470_Int16_t2552820387PFvvEPK10MethodInfoPvPS4_
dTe:__ZN5physx33solveContactCoulombBlockWriteBackEPKNS_23PxcSolverConstraintDescEjRNS_16PxcSolverContextEPNS_25PxcThresholdStreamElementEjPi
i7l:_EqualityComparer_1__ctor_m2283513024_gshared
VTk:_SimpleEnumerator__cctor_m2844299657
pTi:_LocalDataStoreSlot__ctor_m4104083971
dim:_Array_qsort_TisVector3_t3722313464_m4117329442_gshared
OIm:_ReadOnlyCollection_1_System_Collections_Generic_IListU3CTU3E_RemoveAt_m3849058645_gshared
QTn:_AudioSource_ReadExtensionName_m725112169
Een:_X509CertificateEnumerator_System_Collections_IEnumerator_Reset_m2039524926
S_e:__ZN5physx9PxTaskMgr17submitUnnamedTaskERNS_6PxTaskENS_10PxTaskType4EnumE
hsi:__Z128RuntimeInvoker_Void_t1185182177_RuntimeObject_BooleanU26_t4125257963_SByte_t1669577662_Int32U26_t1369213839_Int32U26_t1369213839PFvvEPK10MethodInfoPvPS4_
ZNa:__ZN7Texture21GetMasterTextureLimitEv
VBl:_Enumerator_Dispose_m3503748991_AdjustorThunk
g6a:__ZN13dynamic_arrayI9InputAxisLj0EE18resize_initializedEj12ResizePolicy
tdc:__Z12CanAddScriptR10GameObject17ScriptingClassPtrPS1_S2_
_Hn:_FieldWithTarget_get_paramName_m3501478659
Xzi:__Z103RuntimeInvoker_Boolean_t97287965_RuntimeObject_Vector2_t2156229523_RuntimeObject_Vector3U26_t3464235976PFvvEPK10MethodInfoPvPS4_
uMm:_Comparison_1_BeginInvoke_m3263247262_gshared
z6:__ZN9ShaderLabL25StaticInitializeShaderLabEPv
JOe:__ZNK5physx2Sq12BucketPruner5sweepERKNS0_9ShapeDataERKNS_6PxVec3ERfRNS0_14PrunerCallbackE
U:Math_max
X6m:_Collection_1_System_Collections_IList_get_Item_m3426129749_gshared
S8g:__ZL64HorizontalLayoutGroup_t2586782146_CustomAttributesCacheGeneratorP21CustomAttributesCache
uOn:__ZL24UnresolvedVirtualCall_92P12Il2CppObjectPK10MethodInfo
lGn:_UnityWebRequest_SerializeFormSections_m557418047
goo:_il2cpp_class_get_methods
DKi:__Z75RuntimeInvoker_Void_t1185182177_Int32_t2950945753_KeyValuePair_2_t625878672PFvvEPK10MethodInfoPvPS4_
ORn:__ZL25UnresolvedVirtualCall_274P12Il2CppObjectxxPK10MethodInfo
iIl:_Dictionary_2_make_pair_m891994456_gshared
m4c:__GLOBAL__sub_I_artifacts_WebGL_codegenerator_0_cpp_3493
twj:_HitInfo_SendMessage_m1343099429_AdjustorThunk
xyb:__Z18Transfer_BlittableI24GenerateTypeTreeTransferLb0EN4math12int2_storageEEvRK29SerializationCommandArgumentsR31RuntimeSerializationCommandInfo
fEn:_AesManaged_GenerateKey_m2004209814
cSf:__Z64Register_UnityEngine_Networking_UnityWebRequest_get_isModifiablev
A2j:_Single_CompareTo_m2785801815_AdjustorThunk
_Co:__ZN6il2cpp2os6Thread16GetCurrentThreadEv
oMf:__ZN11UnityEngine7Connect20RemoteConfigSettings10UnregisterEv
$Ol:_List_1_TrimExcess_m2202650502_gshared
Kfm:_Array_InternalArray__Insert_TisUILineInfo_t4195266810_m3191124053_gshared
wpc:__ZN10GameObject13ComponentPair15SetComponentPtrEPN5Unity9ComponentE
xZo:_glBlitFramebuffer__wrapper
tif:__ZN5physx6shdfnd8internal8HashBaseINS0_4PairIKPKNS0_14NamedAllocatorEPKcEES6_NS0_4HashIS6_EENS1_11HashMapBaseIS6_S9_SC_NS0_20NonTrackingAllocatorEE6GetKeyESE_Lb1EE15reserveInternalEj
D4g:__ZL75U3COnFinishSubmitU3Ec__Iterator0_t3413438900_CustomAttributesCacheGeneratorP21CustomAttributesCache
Gxa:__ZN10TagManager8TransferI19StreamedBinaryWriteILb0EEEEvRT_
Dcb:__ZN11PreloadData23VirtualRedirectTransferER18StreamedBinaryReadILb0EE
$_a:__ZN13sorted_vectorI4PPtrI11SpriteAtlasENSt3__24lessIS2_EE13stl_allocatorIS2_L18MemLabelIdentifier1ELi16EEE21sort_clear_duplicatesEv
wgi:_Enumerator_VerifyCurrent_m2516497577_AdjustorThunk
Fzg:__ZL58ManualResetEvent_t451242010_CustomAttributesCacheGeneratorP21CustomAttributesCache
q5g:__ZL60FontData_t746620069_CustomAttributesCacheGenerator_m_MinSizeP21CustomAttributesCache
ovl:_ShimEnumerator_Reset_m1479883403_gshared
fta:__ZN9Scripting11UnityEngine24AssemblyIsEditorAssembly12CleanupProxyEv
$Qk:_Char_System_IConvertible_ToDateTime_m3564102661
d7f:_TMP_Text_UpdateVertexData_m4153248617
fSn:__ZL25UnresolvedVirtualCall_293P12Il2CppObjectPK10MethodInfo
xM:__ZN13RuntimeStaticINSt3__26vectorI12WebCamDeviceNS0_9allocatorIS2_EEEELb0EE13StaticDestroyEPv
yZa:__ZN6Sprite17MainThreadCleanupEv
kih:__ZL145U3CSpawnBackgroundSpaceShipU3Ec__Iterator9_t1364907612_CustomAttributesCacheGenerator_U3CSpawnBackgroundSpaceShipU3Ec__Iterator9_Reset_m781205378P21CustomAttributesCache
KZo:_glBlendFuncSeparate__wrapper
HTg:__ZL116PlayerConnectionInternal_t3892293164_CustomAttributesCacheGenerator_PlayerConnectionInternal_SendMessage_m2378413408P21CustomAttributesCache
qR:__ZN10AudioMixer14UpdateMuteSoloEv
Jaa:__Z17GetMonoManagerPtrv
VCa:__ZN12BaseRenderer25FlattenSharedMaterialDataILb0EEEbRKS_R22PerThreadPageAllocatorR10RenderNode
Fme:__ZN5physx6shdfnd5ArrayINS_3Scb13MaterialEventENS0_19ReflectionAllocatorIS3_EEE15growAndPushBackERKS3_
Yya:__ZN9Transform35SetLocalPositionWithoutNotificationERKN4math7_float3Ey
ZZg:__ZL87GUIUtility_t1868551600_CustomAttributesCacheGenerator_U3CguiIsExitingU3Ek__BackingFieldP21CustomAttributesCache
XKg:__ZL101MonoBehaviour_t3962482529_CustomAttributesCacheGenerator_MonoBehaviour_StartCoroutine_Auto_m594129169P21CustomAttributesCache
Jj:_JS_Eval_ClearTimeout
uDg:__ZL64ThreadStaticAttribute_t3840787420_CustomAttributesCacheGeneratorP21CustomAttributesCache
_qb:__ZN7ApiGLES16SetPatchVerticesEi
_J:__ZZN26AnimatorOverrideController15InitializeClassEvEN30FunctorImpl_86kDidModifyMotion4CallEPviR11MessageData
Dwn:_CharacterClass_Compile_m3296067317
l9d:__ZN5physx2Sc5Scene11onBodySleepEPNS0_7BodySimE
CCo:__ZN6il2cpp2gc16GarbageCollector16InvokeFinalizersEv
S_n:_OnOverrideControllerDirtyCallback_EndInvoke_m2432606376
lQk:_Byte_System_IConvertible_ToInt64_m285584218_AdjustorThunk
Ltj:_Rect_get_size_m477575021_AdjustorThunk
Z2n:__ZN6il2cpp2vm5Class20FromGenericParameterEPK22Il2CppGenericParameter
BUj:_Array_IndexOf_TisVector3_t3722313464_m4284163268_gshared
HWd:__ZL28GeomMTDCallback_PlaneCapsuleRN5physx6PxVec3ERfRKNS_10PxGeometryERKNS_11PxTransformES5_S8_
QGl:_Dictionary_2_ContainsKeyValuePair_m2384174870_gshared
nha:__ZN15GlobalCallbacksC2Ev
wUh:_MethodCall_System_Runtime_Remoting_Messaging_IInternalMessage_set_Uri_m1919576807
Sud:__ZN7b2World10CreateBodyEPK9b2BodyDef
Vei:_Comparer_1_System_Collections_IComparer_Compare_m2016223770_gshared
p7j:_Encoding_GetBytes_m3823106599
Z9g:__ZL57BaseMeshEffect_t2440176439_CustomAttributesCacheGeneratorP21CustomAttributesCache
ufg:_JSONNode_get_AsInt_m1705691929
Vnf:_UNITY_FT_New_Memory_Face
NIl:_KeyValuePair_2__ctor_m727165395_AdjustorThunk
fme:__ZNK5physx10NpMaterial18getDynamicFrictionEv
PJf:__ZN22BaseUnityConnectClient18QueueAppStartEventERN11UnityEngine15CloudWebService26CloudServiceEventWithParamE
z7m:_Collection_1_System_Collections_IList_IndexOf_m3271188411_gshared
PEn:_DownloadHandler_GetText_m600283602
K5m:_Collection_1_GetEnumerator_m3580195637_gshared
Blf:__ZN20TextRenderingPrivate21TextMeshGeneratorImpl5FlushEv
kGk:_MonoIO_GetFileStat_m678141354
Urf:_UNITY_FT_Load_Sfnt_Table
NBm:_ReadOnlyCollection_1_System_Collections_Generic_ICollectionU3CTU3E_Remove_m1363008147_gshared
VUf:__Z15CastclassSealedP12Il2CppObjectP11Il2CppClass
Fwc:__ZN15ApplicationInfo14GetSandboxTypeEv
rmh:_FloatTween_set_startValue_m962630631_AdjustorThunk
ane:__ZN5physx9NpPhysics16createConvexMeshERNS_13PxInputStreamE
ywb:__Z18Transfer_BlittableI17RemapPPtrTransferLb1EhEvRK29SerializationCommandArgumentsR31RuntimeSerializationCommandInfo
_cl:_Decimal_IsZero_m4250358244_AdjustorThunk
$Si:_UnmanagedMemoryStream_get_CanRead_m3770815400
hcc:__ZN16ReflectionProbes40UpdateRealtimeReflectionProbesTimeslicedEv
OZa:__ZN14SafeBinaryRead21TransferSTLStyleArrayI13dynamic_arrayI8Vector2fLj0EEEEvRT_17TransferMetaFlags
xem:_Array_InternalArray__Insert_TisKeyValuePair_2_t1383673463_m1372785123_gshared
vxo:__ZNSt3__26__treeINS_12__value_typeIP24Il2CppReflectionAssemblyPvEENS_19__map_value_compareIS3_S5_NS_4lessIS3_EELb1EEENS_9allocatorIS5_EEE16__insert_node_atEPNS_16__tree_node_baseIS4_EERSF_SF_
h4k:_Decimal_u64_m3374804932
y8d:__ZN5physx2Sq17SceneQueryManager8addShapeERKNS_7NpShapeERKNS_12PxRigidActorEbPNS_9PxBounds3E
urm:_UInt16_System_IConvertible_ToInt32_m1950778303_AdjustorThunk
g8a:__ZNK30RuntimeInitializeOnLoadManager22GetTypeVirtualInternalEv
ITj:__ZN21InterfaceFuncInvoker2IiffE6InvokeEjP11Il2CppClassP12Il2CppObjectff
e8n:__ZN15dense_hashtableINSt3__24pairIK10KeyWrapperIN6il2cpp5utils13dynamic_arrayIPK10Il2CppTypeLj4EEEEPFvvEEESA_NS3_8metadata19Il2CppSignatureHashEN14dense_hash_mapISA_SD_SG_NSA_14EqualsComparerINSF_22Il2CppSignatureCompareEEENS0_9allocatorISE_EEE9SelectKeyESK_SM_E12resize_deltaEjj
YFc:__ZN16ReflectionProbes15InitializeClassEv
V_:__ZN13dynamic_arrayIN11UnityEngine15CloudWebService14DataErrorEvent15FileErrorDetailELj0EE18resize_initializedEj12ResizePolicy
Mmg:__ZL71Enum_t4135868527_CustomAttributesCacheGenerator_Enum_Format_m2588135982P21CustomAttributesCache
Vtd:__ZNK12b2WheelJoint17GetReactionTorqueEf
w9n:__ZNK15dense_hashtableINSt3__24pairIK10KeyWrapperIPK11Il2CppClassEPKcEES6_N6il2cpp5utils11PointerHashIS3_EEN14dense_hash_mapIS6_S9_SE_NS6_14EqualsComparerINS0_8equal_toIS5_EEEENS0_9allocatorISA_EEE9SelectKeyESJ_SL_E12test_deletedEj
yGm:_ReadOnlyCollection_1_System_Collections_ICollection_CopyTo_m2527663815_gshared
PKl:_Enumerator_VerifyState_m1375238439_AdjustorThunk
qwo:__ZN6il2cpp2vm5Image9GetCorlibEv
NLn:_Vector3_get_left_m2428419009
e$f:_U3CMouseDragOutsideRectU3Ec__Iterator1_Dispose_m2308839382
zAo:__ZN6il2cpp2vm11MethodStack17GetStackFramesRawEv
etg:__ZL50Pointer_t2088917139_CustomAttributesCacheGeneratorP21CustomAttributesCache
hqe:__ZNK5physx15NpActorTemplateINS_7PxClothEE14getOwnerClientEv
wbb:__ZN16LightmapSettings11UnshareDataEv
MSe:__ZNK5physx2Gu29EPASupportMapPairRelativeImplINS0_8CapsuleVES2_E9doSupportERKNS_6shdfnd3aos5Vec3VERS6_S9_S9_
eih:__ZL136U3CSpawnEnemyType3WaveU3Ec__Iterator8_t3891965442_CustomAttributesCacheGenerator_U3CSpawnEnemyType3WaveU3Ec__Iterator8_Reset_m4187344042P21CustomAttributesCache
Jda:__ZN13RuntimeStaticINSt3__23mapIN4core12basic_stringIcNS2_20StringStorageDefaultIcEEEES6_NS0_4lessIS6_EE13stl_allocatorINS0_4pairIKS6_S6_EEL18MemLabelIdentifier13ELi16EEEELb0EE13StaticDestroyEPv
_gj:_Coroutine_ReleaseCoroutine_m947702340
wcf:__ZN5physx10SubSortSAH5sort4EPjjRNS_6shdfnd5ArrayINS_11RTreeNodeNQENS2_19ReflectionAllocatorIS4_EEEERjjPS4_
ool:_Enumerator_System_Collections_IEnumerator_get_Current_m2979767597_AdjustorThunk
Iln:__ZN30GenericInterfaceActionInvoker1I17Color_t2555686324E6InvokeEPK10MethodInfoP12Il2CppObjectS0_
ddj:_MD5CryptoServiceProvider_ProcessFinalBlock_m2241588515
FJj:_ScrollRect_GetBounds_m449872505
Hk:_glIsVertexArray
Ugd:__Z25UpdateOrbitalAndRadialTplIL27ParticleSystemCurveEvalMode3ELS0_2ELS0_1EEvRK11MinMaxCurveS3_S3_S3_S3_S3_S3_R23ParticleSystemParticlesjjRKN4math8float3x3ERKNS6_7affineXERKNS6_7_float4E
Zzk:_Int16_Parse_m2276856944
a4h:_InternalEnumerator_1__ctor_m3443175323_AdjustorThunk
mBf:__ZL42__ManagedRegistrationHelperFunction_CanvasPv
Vua:__ZN5Unity9Component8TransferI18StreamedBinaryReadILb0EEEEvRT_
Jsg:__ZL131CustomAttributeData_t1084486650_CustomAttributesCacheGenerator_CustomAttributeData_t1084486650____ConstructorArguments_PropertyInfoP21CustomAttributesCache
ha:invoke_fff
zRo:_mbsinit
oQj:_Array_InternalArray__ICollection_Remove_TisContactPoint2D_t3390240644_m284878234_gshared
kYo:b14
nif:__ZN5physx2Sc7PhysicsC2ERKNS_17PxTolerancesScaleERKNS_14PxvOffsetTableE
UPc:__Z34RenderTexture_Get_Custom_PropWidthP12Il2CppObject
dff:__ZNSt3__26__sortIRNS_6__lessI24InterpolationDepthHandleS2_EEPS2_EEvT0_S6_T_
dCf:__ZN2UI6Canvas17MainThreadCleanupEv
Zka:__ZN6prcoreL12RemapGenericI17TexFormatARGB155517TexFormatRGBA8888EEvPKNS_9InnerInfoE
S4n:__ZN13Il2CppHashMapIPK19Il2CppGenericMethodPK26Il2CppGenericMethodIndicesN6il2cpp8metadata23Il2CppGenericMethodHashENS7_26Il2CppGenericMethodCompareENSt3__29allocatorINSA_4pairIK10KeyWrapperIS2_ES5_EEEEEC2EjRKS8_RKS9_
pdi:_Comparer_1__ctor_m2785105123_gshared
aIh:_TypeBuilder_HasElementTypeImpl_m1871001960
F1j:_SecurityFrame__ctor_m2140076703_AdjustorThunk
djm:_Array_Resize_TisVector2_t2156229523_m3382835435_gshared
i5l:_DefaultComparer_Equals_m2458578172_gshared
srb:__ZN7ApiGLES13CreateProgramEv
eKa:__ZN11HaloManager7AddHaloEv
QWj:__ZN23InterfaceActionInvoker1IP11Exception_tE6InvokeEjP11Il2CppClassP12Il2CppObjectS1_
OAj:_InputField_set_caretPositionInternal_m3823580651
npl:_Enumerator_VerifyState_m4003066746_gshared
CUa:__ZN4crnd12crn_unpackerD2Ev
NM:__ZN9Scripting11UnityEngine12Experimental5Audio19AudioSampleProvider9InitProxyEv
Yk:_emscripten_glTexImage2D
Ddi:_Comparer_1_System_Collections_IComparer_Compare_m2537217645_gshared
UEa:__ZN16MeshVertexFormat20GetVertexDeclarationER9GfxDevice16VertexInputMasksPKS_
u7:__ZN18ScriptingArguments9AddStringEPKc
PJo:_setup_header
_Rk:_Char_ToString_m3588025615
kRj:_SetPropertyUtility_SetStruct_TisAspectMode_t3417192999_m1565063249_gshared
P3m:_Collection_1_get_Count_m2853642267_gshared
LGm:_ReadOnlyCollection_1_System_Collections_IList_get_IsReadOnly_m375760151_gshared
LSe:__ZNK5physx2Gu29EPASupportMapPairRelativeImplINS0_8CapsuleVES2_E18doWarmStartSupportEiiRNS_6shdfnd3aos5Vec3VES7_S7_
gll:_CryptoConvert_ToCapiKeyBlob_m3371450375
VRa:__ZL23stbir__resize_arbitraryPvPKviiiS_iiiffffPfiij14stbir_datatype12stbir_filterS4_10stbir_edgeS5_16stbir_colorspace
Bjn:_TweenRunner_1_Init_m1558009626_gshared
wad:__ZN23ParticleSystemParticles13array_reserveEj
Hqc:__ZN19SpriteMeshGenerator4maskC2EP11ColorRGBA32iihj
Ryb:__Z18Transfer_BlittableI24GenerateTypeTreeTransferLb1E8Vector4fEvRK29SerializationCommandArgumentsR31RuntimeSerializationCommandInfo
oYo:b18
arn:_U3CAnimateVertexColorsU3Ec__Iterator0_System_Collections_Generic_IEnumeratorU3CobjectU3E_get_Current_m3219239971
hl:_pthread_detach
aco:__ZN6il2cpp2vm19SocketPollingThread7RunLoopEv
vDh:_FontUpdateTracker_UntrackText_m1981515690
RTm:_List_1_System_Collections_ICollection_get_SyncRoot_m1937857346_gshared
Lfh:__ZL64AnalyticsEventTracker_t2285229262_CustomAttributesCacheGeneratorP21CustomAttributesCache
SNe:__ZN5physx11EdgeManager6resizeEj
Bid:__Z16EmitterStoreDataRKN4math8float3x3ERKNS_7affineXER23ParticleSystemParticlesRK19ParticleSystemStatejRNS_8floatNx3ESC_RKNS_4pix4ER5RandNfffbb
OJc:__ZN15DirectorManager20ScheduleGraphDestroyERK14HPlayableGraph
UHb:__ZNSt3__213__stable_sortIRN10vector_mapI17ScriptingClassPtrPKN5Unity4TypeENS_4lessIS2_EENS_9allocatorINS_4pairIS2_S6_EEEEE13value_compareENS_11__wrap_iterIPSB_EEEEvT0_SJ_T_NS_15iterator_traitsISJ_E15difference_typeEPNSM_10value_typeEi
nPi:__Z92RuntimeInvoker_RuntimeObject_Int32_t2950945753_Int64_t3736567304_RuntimeObject_RuntimeObjectPFvvEPK10MethodInfoPvPS4_
XUm:_List_1_AddEnumerable_m1284696147_gshared
wak:_IPAddress_Equals_m1823478787
LBl:_Enumerator_MoveNext_m1673259783_AdjustorThunk
jSh:_Context_CreateNewContext_m3053563976
Ooh:_TextContainer_get_rectTransform_m3829128540
XNg:__ZL83RectOffset_t1369453676_CustomAttributesCacheGenerator_RectOffset_set_top_m713260669P21CustomAttributesCache
Qlc:__ZN9ShaderLab25SerializedTextureProperty8TransferI24GenerateTypeTreeTransferEEvRT_
OYk:_Array_swap_TisVector2_t2156229523_TisVector2_t2156229523_m345092822_gshared
Jvl:_ShimEnumerator_Reset_m227785477_gshared
OAm:_ReadOnlyCollection_1_System_Collections_IList_Contains_m2935297083_gshared
gko:__ZN6il2cpp2gc19AppendOnlyGCHashMapINSt3__24pairIPK14Il2CppAssemblyP11Il2CppClassEEP24Il2CppReflectionAssembly17ReflectionMapHashIS9_ENS2_8equal_toIS9_EEEC2Ev
kuf:_tt_cmap14_char_next
DBb:__Z18Transfer_BlittableI19StreamedBinaryWriteILb0EELb0EdEvRK29SerializationCommandArgumentsR31RuntimeSerializationCommandInfo
LAe:__ZN5physx2Sc5Scene12removeStaticERNS0_10StaticCoreERNS_6shdfnd11InlineArrayIPKNS0_9ShapeCoreELj64ENS4_19ReflectionAllocatorIS8_EEEEb
p2:__GLOBAL__sub_I_Runtime_Camera_RenderLoops_2_cpp
yWm:_List_1__ctor_m404557453_gshared
cwa:__ZN11NamedObject8TransferI18StreamedBinaryReadILb0EEEEvRT_
JXb:__ZNK17GPUSkinPoseBuffer12GetBoneCountEv
F6n:__ZNK15dense_hashtableINSt3__24pairIK10KeyWrapperIPK19Il2CppGenericMethodEPK26Il2CppGenericMethodIndicesEES6_N6il2cpp8metadata23Il2CppGenericMethodHashEN14dense_hash_mapIS6_SA_SE_NS6_14EqualsComparerINSD_26Il2CppGenericMethodCompareEEENS0_9allocatorISB_EEE9SelectKeyESI_SK_E5beginEv
Dij:_InvokableCall_remove_Delegate_m1376110510
uWk:_Hashtable_Clear_m3112193608
zlm:_UTF8Encoding_InternalGetByteCount_m771565606
Xvo:__ZNK15dense_hashtableINSt3__24pairIK10KeyWrapperIP14Il2CppIUnknownEjEES5_N6il2cpp5utils11PointerHashIS3_EEN14dense_hash_mapIS5_jSB_NS5_14EqualsComparerINS0_8equal_toIS4_EEEENS0_9allocatorIS7_EEE9SelectKeyESG_SI_E12test_deletedEj
Y1c:__Z18Transfer_BlittableI8JSONReadLb1EyEvRK29SerializationCommandArgumentsR31RuntimeSerializationCommandInfo
dXl:_List_1_System_Collections_IList_Remove_m3654336679_gshared
WSg:__ZL51GUILayer_t2783472903_CustomAttributesCacheGeneratorP21CustomAttributesCache
spg:__ZL56IDictionary_2_t3177279192_CustomAttributesCacheGeneratorP21CustomAttributesCache
WEa:__ZN9GfxDevice20GetVertexDeclarationERK18VertexChannelsInfoNS_30VertexDeclarationMRUCacheIndexE
wSj:_Array_InternalArray__IEnumerable_GetEnumerator_TisUInt64_t4134040092_m1382862496_gshared
El:_emscripten_glMatrixMode
$ii:__Z100RuntimeInvoker_Boolean_t97287965_RuntimeObject_Int32_t2950945753_RuntimeObject_DoubleU26_t1739162597PFvvEPK10MethodInfoPvPS4_
OFj:_MaskableGraphic_UnityEngine_UI_IClippable_get_gameObject_m1739855597
yxk:_NumberFormatInfo_get_RawPercentGroupSizes_m97703232
Gw:__ZN8Animator23VirtualRedirectTransferER18StreamedBinaryReadILb0EE
Myk:_Guid__ctor_m3562600567_AdjustorThunk
C1:__ZN19CloudServiceHandler19StopEventDispatcherEv
q8e:__ZN5physx13GuMeshFactory17createHeightFieldERNS_13PxInputStreamE
UDe:__ZN5physx2Sc10NPhaseCore25createShapeInstancePairLLERNS0_8ShapeSimES3_NS_7PxFlagsINS_10PxPairFlag4EnumEtEE
ONd:__ZN8Collider11PoseChangedEb
O0f:_TMP_Settings_get_enableKerning_m2305860424
Q9k:_DateTime_System_IConvertible_ToInt16_m3239820399
d_:__ZN11UnityEngine15CloudWebService14DataDispatcher16PrepareDataBlockERNS0_16SessionContainerE
iYb:__ZN18GfxFramebufferGLES5ClearE13GfxClearFlagsRK10ColorRGBAffib
ZEe:__ZThn8_N5physx2Sc19ShapeInstancePairLL12onDeactivateEj
pTj:_Array_compare_TisProgressHandler_t926933139_m465927472_gshared
LXl:_List_1_Sort_m2163953164_gshared
J7i:_ObjectManager_DoFixups_m3038765937
N1f:_TMP_SpriteAsset_SearchForSpriteByUnicodeInternal_m1359718671
tGb:__ZL26Transfer_SimpleNativeClassI18StreamedBinaryReadILb0EE10RectOffsetLb0EEvRK29SerializationCommandArgumentsR31RuntimeSerializationCommandInfo
Z2h:_InternalEnumerator_1_get_Current_m2316281569_gshared
r2b:__ZL12DepthPassJobPN21GfxDeviceAsyncCommand10ArgScratchEPKNS_3ArgE
hkc:__ZNSt3__26vectorIN9ShaderLab20SerializedSubProgram16TextureParameterENS_9allocatorIS3_EEE6assignINS_11__wrap_iterIPS3_EEEENS_9enable_ifIXaasr21__is_forward_iteratorIT_EE5valuesr16is_constructibleIS3_NS_15iterator_traitsISC_E9referenceEEE5valueEvE4typeESC_SC_
Qoj:_MonoBehaviour_IsInvoking_m3285132449
NAl:_Transform_1_EndInvoke_m1701794896_gshared
mZc:__ZN5Unity9rapidjson6WriterI16TempBufferWriterNS0_4UTF8IcEES4_13JSONAllocatorE11WriteDoubleEd
w0l:_Dictionary_2_TryGetValue_m3741534516_gshared
ALd:__ZN9Rigidbody16ApplyConstraintsEv
hnm:_Thread_SetCachedCurrentUICulture_m1729523031
Epb:__ZN14GfxDeviceStats16CopyAllDrawStatsERKS_
ECj:_InputField_get_minHeight_m2822964544
Qzl:__ZN23GenericVirtFuncInvoker1I27DictionaryEntry_t3123975638iE6InvokeEPK10MethodInfoP12Il2CppObjecti
jHi:__Z59RuntimeInvoker_Boolean_t97287965_TMP_FontWeights_t916301067PFvvEPK10MethodInfoPvPS4_
W5c:__ZN11MinMaxCurve5ResetE23ParticleSystemCurveModef
Mn:FUNCTION_TABLE_iiiiiiiiiiii
vad:__ZNK14ParticleSystem27CalculateMaxActiveParticlesEv
o9i:_SByte_System_IConvertible_ToDateTime_m1659899958
zul:_KeyCollection_System_Collections_Generic_IEnumerableU3CTKeyU3E_GetEnumerator_m1982109872_gshared
Bwe:__ZN5physx2Sc17ParticleSystemSim8setFlagsEj
$Ga:__ZN16GraphicsSettingsD0Ev
p4:__Z12FormatBufferPciPKcz
eMf:__ZNSt3__26__treeINS_12__value_typeIN4core12basic_stringIcNS2_20StringStorageDefaultIcEEEE14CallbackArray3IRKS6_R8JSONReadbEEENS_19__map_value_compareIS6_SD_NS_4lessIS6_EELb1EEE13stl_allocatorISD_L18MemLabelIdentifier6ELi16EEE7destroyEPNS_11__tree_nodeISD_PvEE
n:cttz_i8
kpf:_UNITY_FT_GlyphLoader_Add
pbf:__ZN5physx2Gu15EdgeListBuilder18CreateEdgesToFacesEjPKjPKt
QPn:__ZL25UnresolvedVirtualCall_168P12Il2CppObjectf19Vector2_t2156229523aPK10MethodInfo
RYd:__ZN5physx11PxMeshQuery5sweepERKNS_6PxVec3EfRKNS_10PxGeometryERKNS_11PxTransformEjPKNS_10PxTriangleERNS_10PxSweepHitENS_7PxFlagsINS_9PxHitFlag4EnumEtEEPKjfb
Sbi:_DefaultComparer_Compare_m1878901918_gshared
mPf:__ZN9Scripting11UnityEngine10Networking29UnityWebRequestAsyncOperation9InitProxyEv
$tl:_KeyCollection_System_Collections_IEnumerable_GetEnumerator_m2349004815_gshared
kUn:_AudioListener_INTERNAL_CALL_ReadExtensionPropertyName_m330480156
Gtg:__ZL62ActivationArguments_t4219999170_CustomAttributesCacheGeneratorP21CustomAttributesCache
eui:__Z53RuntimeInvoker_Interval_t1802865632_Int32_t2950945753PFvvEPK10MethodInfoPvPS4_
q8k:_Convert_ToUInt16_m867476252
Bm:_emscripten_glViewport
lHc:__Z21GenerateTilingAreaJobP22GenerateTilingAreaInfoj
rGo:__ZN6il2cpp6icalls8mscorlib6System15MonoCustomAttrs17IsDefinedInternalEP12Il2CppObjectP20Il2CppReflectionType
pQe:__ZN5physx6shdfnd5ArrayIPhNS0_19ReflectionAllocatorIS2_EEE8recreateEj
tMl:_Enumerator__ctor_m40451936_AdjustorThunk
pwi:__Z53RuntimeInvoker_Vector3_t3722313464_Single_t1397266774PFvvEPK10MethodInfoPvPS4_
Gkj:_Gradient_t3067099924_marshal_pinvoke_back
__n:_SkeletonBone_t4134054672_marshal_pinvoke_back
hvg:__ZL115SynchronizationAttribute_t3946661254_CustomAttributesCacheGenerator_SynchronizationAttribute_IsContextOK_m324067792P21CustomAttributesCache
Gsa:__ZN9Scripting11UnityEngine10CacheIndex9InitProxyEv
m_i:_CustomAttributeData_get_Constructor_m489601093
Luo:__Z18RegisterAllClassesv
Hqf:_cff_parse_font_bbox
pMd:__ZThn28_N14PhysicsManagerD0Ev
k$e:__ZN5physx2Sc27ConstraintProjectionManagerC2Ev
ZZd:__Z14raycast_sphereRKN5physx10PxGeometryERKNS_11PxTransformERKNS_6PxVec3ES8_fNS_7PxFlagsINS_9PxHitFlag4EnumEtEEjPNS_12PxRaycastHitEbPFbRSD_PvESG_
w6a:__ZN14PlayerSettings23VirtualRedirectTransferER18StreamedBinaryReadILb0EE
Tki:__Z85RuntimeInvoker_Void_t1185182177_Int32_t2950945753_Int32_t2950945753_Int32_t2950945753PFvvEPK10MethodInfoPvPS4_
Del:_Double_System_IConvertible_ToDateTime_m2414543049_AdjustorThunk
vKf:__ZN11UnityEngine15PlatformWrapper16GetVRFieldOfViewEv
Fpi:__Z235RuntimeInvoker_Int32_t2950945753_RuntimeObject_Int32_t2950945753_RuntimeObject_Int32_t2950945753_UInt32U26_t3735378166_UInt32U26_t3735378166_RuntimeObject_DecoderFallbackBufferU26_t3866396827_ByteU5BU5DU26_t4057885439_SByte_t1669577662PFvvEPK10MethodInfoPvPS4_
ZOo:__ZN6il2cpp2os5Event5ResetEv
BPl:__ZN23InterfaceActionInvoker2IP32ResolveHandlerU5BU5D_t4152721480iE6InvokeEjP11Il2CppClassP12Il2CppObjectS1_i
Wtf:_tt_name_ascii_from_other
GSi:_TextWriter_Write_m2252948084
qJn:_ToggleGroup__ctor_m3308114662
j0l:_Dictionary_2_CopyToCheck_m4199563090_gshared
tyo:__ZN6il2cpp8metadata15GenericMetadata17InflateParametersEPK13ParameterInfohPK20Il2CppGenericContextb
BYj:_RSAParameters_t1728406613_marshal_pinvoke_back
RXk:_Array_Sort_TisUILineInfo_t4195266810_m3737783007_gshared
R$f:_TMP_MaterialManager_GetFallbackMaterial_m1227931643
Ivj:_RenderTexture_get_width_m2160921386
Vz:__ZNK17AnimationPlayable27GetNextCompatibleDescendantEj
$pk:_Context_get_LastHandshakeMsg_m2730646725
e4e:__ZNK5physx2Cm12DelegateTaskINS_2Sc5SceneEXadL_ZNS3_23postIslandGenSecondPassEPNS_10PxBaseTaskEEEE7getNameEv
Wnf:__ZN13dynamic_arrayIN4core17string_with_labelILi35EEELj0EE6insertEPS2_jRKS2_
dwa:__ZN4PPtrI6SpriteE8TransferI18StreamedBinaryReadILb0EEEEvRT_
TZg:__ZL64GUIUtility_t1868551600_CustomAttributesCacheGenerator_s_SkinModeP21CustomAttributesCache
uAm:_ReadOnlyCollection_1_System_Collections_IList_set_Item_m4251477320_gshared
UAd:__ZN34b2SolveDiscreteIslandBodySleepTask7TaskJobEPS_j
dMm:_Comparison_1_BeginInvoke_m829878058_gshared
Ssf:_otv_LigatureSubst_validate
Nui:__Z50RuntimeInvoker_Ray_t3785851493_Vector3_t3722313464PFvvEPK10MethodInfoPvPS4_
bNn:__ZL24UnresolvedVirtualCall_19P12Il2CppObject25DSAParameters_t1885824122PK10MethodInfo
CLb:__Z25SetNeedToPerformRenderingb
h8c:__ZN12LightsModule8TransferI17RemapPPtrTransferEEvRT_
tTo:__ZN10__cxxabiv116__shim_type_infoD2Ev
Lxj:_Touch_get_phase_m214549210
zvn:_Alternation__ctor_m1629257642
JHf:__ZN8JSONRead12TransferPairINSt3__24pairIN4core12basic_stringIcNS3_20StringStorageDefaultIcEEEEN11UnityEngine9Analytics16LimitEventConfigEEEEEvRT_17TransferMetaFlagsPKN5Unity9rapidjson12GenericValueINSG_4UTF8IcEE13JSONAllocatorEE
gya:__ZN10GameObjectD2Ev
F2b:__ZN14qsort_internal30FindAndMovePivotToLastPositionIP15RODataDepthPassi17ROSorterDepthPassEEvT_S4_T0_T1_
tld:__ZN29InitialModulePropertyBindings13GetFloatValueERK14ParticleSystemi
cSc:__Z27Mesh_CUSTOM_MarkDynamicImplP12Il2CppObject
Arm:_UInt16_System_IConvertible_ToSingle_m2654722405_AdjustorThunk
VTi:_MethodAccessException__ctor_m3411913042
$yj:_Transform_TransformDirection_m3193513622
NRe:__ZN5physxL27PxcSweepAnyShapeHeightfieldERKNS_11PxsCCDShapeES2_PKNS_12PxsRigidBodyES5_RKNS_11PxTransformES8_fRNS_6PxVec3ESA_RNS_10PxcNpCacheERNS_18PxcNpThreadContextE
y8l:_EqualityComparer_1__ctor_m1767308726_gshared
zGi:__Z82RuntimeInvoker_Void_t1185182177_TMP_LinkInfoU5BU5DU26_t903268843_Int32_t2950945753PFvvEPK10MethodInfoPvPS4_
fbc:__ZN12CullingGroup10SendEventsEPK17CullingGroupEventj
jYi:_CustomInfo__ctor_m426096741
YDn:_Action_EndInvoke_m1690492879
Cxk:_NumberFormatInfo_get_PerMilleSymbol_m1360140831
Bmk:_EncryptedData_get_EncryptionAlgorithm_m905084934
Mtk:_EventHandler_EndInvoke_m269746120
Evh:_PointerInputModule__ctor_m3728889932
DXa:__ZThn32_NK8Renderer8GetLayerEv
xVj:_Array_InternalArray__IndexOf_TisUInt64_t4134040092_m1206929132_gshared
SMe:__ZN5physx3Scb5SceneD2Ev
SMl:_Enumerator_System_Collections_IEnumerator_Reset_m2915500989_gshared
Mqf:_cff_parse_vsindex
ZNh:_ResourceSet_System_Collections_IEnumerable_GetEnumerator_m2807499934
Vmo:__ZNSt3__26vectorIiNS_9allocatorIiEEEC2ERKS3_
Swo:__ZN30dense_hashtable_const_iteratorINSt3__24pairIK10KeyWrapperINS1_IPKcS4_EEEiEES6_24NamespaceAndNamePairHashN14dense_hash_mapIS6_iS9_NS6_14EqualsComparerI26NamespaceAndNamePairEqualsEENS0_9allocatorIS8_EEE9SelectKeyESD_SF_E30advance_past_empty_and_deletedEv
iAk:_Int32_ValidDigit_m1059003769
LEn:_DownloadHandler_Dispose_m2747726581
e2o:_emscripten_glTexParameterfv__wrapper
Ruj:_RectTransform_INTERNAL_get_sizeDelta_m2173368204
GDg:__ZL54MemberFilter_t426314064_CustomAttributesCacheGeneratorP21CustomAttributesCache
CDj:_LayoutGroup_get_rectTransform_m442863741
Zsb:__Z18Transfer_BlittableI14SafeBinaryReadLb1E9BoundsIntEvRK29SerializationCommandArgumentsR31RuntimeSerializationCommandInfo
vBc:__ZN2UI13RectTransform17GetLocalPositionZEv
uZo:b63
Zoo:_il2cpp_method_get_param_count
lda:__ZNK5Unity4Type21FindAllDerivedClassesER13dynamic_arrayIPKS0_Lj0EENS0_17TypeFilterOptionsE
Lwc:__ZN10systeminfo19ISOToSystemLanguageERN4core12basic_stringIcNS0_20StringStorageDefaultIcEEEE
$io:__ZNK15dense_hashtableINSt3__24pairIK10KeyWrapperINS1_IPK12PropertyInfoP11Il2CppClassEEEjEES9_17ReflectionMapHashIS8_EN14dense_hash_mapIS9_jSD_NS9_14EqualsComparerINS0_8equal_toIS8_EEEENS0_9allocatorISB_EEE9SelectKeyESI_SK_E3endEv
g_h:_InternalEnumerator_1_System_Collections_IEnumerator_get_Current_m16058121_gshared
xHd:__ZN11Rigidbody2D8TransferI19StreamedBinaryWriteILb0EEEEvRT_
tMm:__ZN28GenericInterfaceFuncInvoker2Ii39CustomAttributeNamedArgument_t287865710S0_E6InvokeEPK10MethodInfoP12Il2CppObjectS0_S0_
g$k:_LayoutGroup_SetProperty_TisAxis_t3613393006_m3591044743_gshared
tLd:__Z16GetDynamicsScenev
dEe:__ZThn8_N5physx2Sc18TriggerInteraction7destroyEv
R$g:__ZL94Physics_t2310948930_CustomAttributesCacheGenerator_Physics_Raycast_m3336206959____maxDistance2P21CustomAttributesCache
MRj:_Array_InternalArray__IEnumerable_GetEnumerator_TisKeyValuePair_2_t1383673463_m2665224490_gshared
ang:__ZL69RuntimeArray_CustomAttributesCacheGenerator_Array_SetValue_m282347242P21CustomAttributesCache
AOf:__ZN22BaseUnityConnectClient14AppRunningTickEj
Sxf:_ps_dimension_done
Qzf:__Z46Register_UnityEngine_TextGenerator_Dispose_cppv
Wni:__Z67RuntimeInvoker_GCHandle_t3351438187_RuntimeObject_Int32_t2950945753PFvvEPK10MethodInfoPvPS4_
zvc:__ZNSt3__26vectorIN4core12basic_stringIcNS1_20StringStorageDefaultIcEEEENS_9allocatorIS5_EEE6assignINS_11__wrap_iterIPKS5_EEEENS_9enable_ifIXaasr21__is_forward_iteratorIT_EE5valuesr16is_constructibleIS5_NS_15iterator_traitsISF_E9referenceEEE5valueEvE4typeESF_SF_
dxk:_GregorianCalendar_GetYear_m854131864
lhd:__Z25UpdateOrbitalAndRadialTplIL27ParticleSystemCurveEvalMode0ELS0_4ELS0_2EEvRK11MinMaxCurveS3_S3_S3_S3_S3_S3_R23ParticleSystemParticlesjjRKN4math8float3x3ERKNS6_7affineXERKNS6_7_float4E
LEg:__ZL59HybridDictionary_t4070033136_CustomAttributesCacheGeneratorP21CustomAttributesCache
CYa:__ZN16LightmapSettings8TransferI14SafeBinaryReadEEvRT_
wSb:__ZN17BufferManagerGLES13ReleaseBufferEP14DataBufferGLES
Jnk:_CipherSuite_Write_m1172814058
E5d:__ZN5physx6shdfnd5ArrayIPvNS0_19ReflectionAllocatorINS_16NpConnectorArrayEEEE15growAndPushBackERKS2_
_vi:__Z50RuntimeInvoker_Void_t1185182177_Bounds_t2266837910PFvvEPK10MethodInfoPvPS4_
jSi:_SynchronizedWriter_Write_m301917713
d5:__ZN9profiling6MarkerC2EPKc13ProfilerGroupNS0_5FlagsE
aDe:__ZN5physx2Sc5Scene15prepareSimulateEv
Oci:__ZN21InterfaceFuncInvoker1Ii22UILineInfo_t4195266810E6InvokeEjP11Il2CppClassP12Il2CppObjectS0_
V1c:__Z18Transfer_BlittableI8JSONReadLb1EjEvRK29SerializationCommandArgumentsR31RuntimeSerializationCommandInfo
i7d:__ZN5physx6shdfnd5ArrayIPNS_2Sc11InteractionENS0_19ReflectionAllocatorIS4_EEE8recreateEj
uOl:_List_1_System_Collections_ICollection_get_SyncRoot_m838625336_gshared
h$i:_ConstructorBuilder_get_IsCompilerContext_m3364441562
xfh:__ZL60TMP_Text_t2599618874_CustomAttributesCacheGenerator_m_marginP21CustomAttributesCache
Ehj:_Debug_LogWarning_m3752629331
DAc:__Z13RegisterClassIN2UI13RectTransformEEvPKc
msa:__ZN9Scripting11UnityEngine7Texture9InitProxyEv
_Km:_ReadOnlyCollection_1_System_Collections_Generic_IListU3CTU3E_RemoveAt_m4037795630_gshared
DVm:_List_1_System_Collections_Generic_IEnumerableU3CTU3E_GetEnumerator_m1273481299_gshared
qpi:__Z117RuntimeInvoker_Void_t1185182177_RuntimeObject_Int32_t2950945753_Int32_t2950945753_Int32_t2950945753_Int32_t2950945753PFvvEPK10MethodInfoPvPS4_
O$a:__ZNK13ScreenManager17GetFullscreenModeEv
SS:__Z30GetAudioSpatializerDefinitionsR13dynamic_arrayIP29AudioEffectInternalDefinitionLj0EE31UnityAudioEffectDefinitionFlags
F6g:__ZL81U3CMouseDragOutsideRectU3Ec__Iterator1_t3909241878_CustomAttributesCacheGeneratorP21CustomAttributesCache
pyh:_U3COnFinishSubmitU3Ec__Iterator0_Reset_m3632769946
Fq:stackSave
D0:__ZN5Unity9rapidjson15GenericDocumentINS0_4UTF8IcEE13JSONAllocatorNS0_12CrtAllocatorEE6StringEPKcjb
oAh:_ColorTween_get_targetColor_m1724075482_AdjustorThunk
lyf:_ps_dimension_end
dSc:__Z41Register_UnityEngine_Mesh_Internal_Createv
Vkb:__ZN16MemoryFileSystem5TouchER13FileEntryData
Q1a:__ZN14SpriteRenderer23VirtualRedirectTransferER24GenerateTypeTreeTransfer
$Dk:_Path_GetServerAndShare_m2640882202
vyd:__ZNSt3__27__sort3IRN18Overlap2DQueryBase29ColliderHitsByDepthComparitorEPP10Collider2DEEjT0_S7_S7_T_
xrn:_WarpTextExample_CopyAnimationCurve_m2588067094
ief:__Z63Register_UnityEngine_Physics_INTERNAL_CALL_Internal_RaycastTestv
tNl:_Enumerator_Dispose_m2498245804_AdjustorThunk
ryn:_Uri_get_Fragment_m575158891
C3k:_Console_Open_m3077673205
Fhn:_TMP_ObjectPool_1_Release_m423123894_gshared
nig:_U3CStartU3Ec__Iterator0_MoveNext_m1995155061
Occ:__ZN6Camera9SetAspectEf
P1j:_SecurityManager_get_SecurityEnabled_m3467182822
ZUj:_Array_InternalArray__IndexOf_TisDateTime_t3738529785_m2463359116_gshared
qRm:__ZN23GenericVirtFuncInvoker1IbDsE6InvokeEPK10MethodInfoP12Il2CppObjectDs
Da:invoke_viiffiii
w8c:__ZN8UVModule8TransferI18StreamedBinaryReadILb0EEEEvRT_
W1h:_InternalEnumerator_1_MoveNext_m4138204635_gshared
G3o:_emscripten_glBindVertexArray__wrapper
gLl:_Enumerator_VerifyState_m2933667029_gshared
TTl:_List_1_ToArray_m2453307698_gshared
Qim:_Array_Resize_TisTMP_WordInfo_t3331066303_m1200832340_gshared
UAo:__ZN6il2cpp6icalls8mscorlib6System4Enum19get_underlying_typeEP20Il2CppReflectionType
lxn:_Parser_IsECMAScript_m674158805
$M:__ZN10ObjectPoolIN4FMOD3DSPENS0_4DSPIEE7GetFreeEi
sok:_CipherSuiteCollection_get_Item_m3790183696
fza:__ZN9Transform37InitializeTransformHierarchyRecursiveER18TransformHierarchyRii
Drb:__ZN26SinglePassStereoSupportExt23SetupStereoMatrixParamsE21MonoOrStereoscopicEye24BuiltinShaderMatrixParamRK10Matrix4x4f
Hqh:_TextMeshProUGUI_RecalculateMasking_m2292306590
S3l:_DefaultComparer_Equals_m3770904334_gshared
lob:__ZN9GfxDevice23CreateAsyncReadbackDataEv
uqd:__ZN14ParticleSystem22UpdateAllTransformDataEv
uRo:_fscanf
APf:__ZNK25UnityWebRequestJavaScript16GetUploadedBytesEv
PV:__Z46AudioListener_CUSTOM_GetNumExtensionPropertiesP12Il2CppObject
ldo:__ZN6il2cpp6icalls8mscorlib6SystemL16CheckMemberMatchI9FieldInfoNS_5utils10functional6FilterINSt3__212basic_stringIcNS8_11char_traitsIcEENS8_9allocatorIcEEEENS5_13VmStringUtils23CaseInsensitiveComparerEEEEEbPKT_PK11Il2CppClassSN_iRKT0_
Ufo:__ZN30dense_hashtable_const_iteratorINSt3__24pairIK10KeyWrapperINS1_IPK14Il2CppAssemblyP11Il2CppClassEEEjEES9_17ReflectionMapHashIS8_EN14dense_hash_mapIS9_jSD_NS9_14EqualsComparerINS0_8equal_toIS8_EEEENS0_9allocatorISB_EEE9SelectKeyESI_SK_EppEv
Kkd:__ZN27ColorModulePropertyBindings13AddPropertiesER10vector_mapIi22ParticleModulePropertyNSt3__24lessIiEENS2_9allocatorINS2_4pairIiS1_EEEEE
vtk:_SslClientStream_Finalize_m1251363641
cCl:_Enumerator_System_Collections_IEnumerator_Reset_m2313871153_gshared
Sui:__Z84RuntimeInvoker_RuntimeObject_RayU26_t3515555043_Single_t1397266774_Int32_t2950945753PFvvEPK10MethodInfoPvPS4_
Zbd:__ZN13InitialModule18SetInheritedParamsERK23SubEmitterInheritValues
V7:__Z14GetMonoManagerv
kVj:_Array_InternalArray__IndexOf_TisMonoResource_t4103430009_m1351751258_gshared
Nx:__ZN17AnimationPlayable34CollectAnimatorControllerPlayablesER13dynamic_arrayIP26AnimatorControllerPlayableLj0EE
fCe:__ZN5physx2Sc9StaticSim21postActor2WorldChangeEv
auk:_FieldAccessException__ctor_m3583219052
Gnd:__ZL16ParticleGeomInitILb0EEvRK31ParticleSystemParticlesTempDatajRN4math8floatNx3ERK23ParticleSystemParticlesS5_S5_RKNS3_7_float4EPKfSB_SD_SB_RKNS3_5_int4EbSB_
xcl:_Decimal_System_IConvertible_ToDouble_m3125524987
dgn:__ZN28GenericInterfaceFuncInvoker1Ib19Color32_t2600501292E6InvokeEPK10MethodInfoP12Il2CppObjectS0_
ayc:__Z57Register_UnityEngine_Transform_INTERNAL_set_localPositionv
YUg:__ZL105RectTransform_t3704657025_CustomAttributesCacheGenerator_RectTransform_INTERNAL_get_anchorMax_m1239315619P21CustomAttributesCache
lRb:__ZN13GfxDeviceGLES26SetRandomWriteTargetBufferEi15ComputeBufferID
Es:__ZNK4PPtrI4MeshEptEv
OJo:_GC_split_block
Zim:_Array_Resize_TisUICharInfo_t75501106_m3903846016_gshared
IHm:_ReadOnlyCollection_1_System_Collections_Generic_ICollectionU3CTU3E_get_IsReadOnly_m3887826072_gshared
Sio:__ZNK15dense_hashtableINSt3__24pairIK10KeyWrapperINS1_IPK12PropertyInfoP11Il2CppClassEEEjEES9_17ReflectionMapHashIS8_EN14dense_hash_mapIS9_jSD_NS9_14EqualsComparerINS0_8equal_toIS8_EEEENS0_9allocatorISB_EEE9SelectKeyESI_SK_E8min_sizeEjj
WZb:__ZZ23InitPlayerLoopCallbacksvEN49EarlyUpdateResetFrameStatsAfterPresentRegistrator7ForwardEv
jie:__ZN5physx6shdfnd4sortIPvNS0_4LessIS2_EENS0_19ReflectionAllocatorINS_2Cm5BlockIhLj256EEEEEEEvPT_jRKT0_RKT1_j
WRo:_poll
KHm:_ReadOnlyCollection_1_System_Collections_IEnumerable_GetEnumerator_m1671097018_gshared
Ltm:_UInt64_ToString_m1529093114_AdjustorThunk
w_i:__ZN21InterfaceFuncInvoker1I39CustomAttributeNamedArgument_t287865710iE6InvokeEjP11Il2CppClassP12Il2CppObjecti
vPh:_TypeLibImportClassAttribute__ctor_m2302178978
Ren:_X509Store_LoadCertificate_m1587806288
xil:_Escape_t3294788190_marshal_pinvoke
Wlj:_Material__ctor_m1662457592
B5l:_EqualityComparer_1__cctor_m2335367819_gshared
YBj:_InputField_OnUpdateSelected_m1118869681
e9e:__ZN5physx20InternalTriangleMesh7releaseEv
sQe:__ZN5physx6shdfnd5ArrayINS_16PxsCCDBlockArrayINS_13PxsCCDOverlapELi128EE9BlockInfoENS0_19ReflectionAllocatorIS5_EEE15growAndPushBackERKS5_
x8d:__ZNK5physx7NpShape8getFlagsEv
p8i:_SerializationException__ctor_m3131447373
LUa:__ZN4crnd12crn_unpacker11unpack_dxt1EPPhjjj
rL:__ZL55__ManagedRegistrationHelperFunction_CoordinateFramePairPv
xoc:__ZNK11ICallString6ToUTF8Ev
YNi:__Z39RuntimeInvoker_MonoResource_t4103430009PFvvEPK10MethodInfoPvPS4_
d3n:__ZN15dense_hashtableINSt3__24pairIK10KeyWrapperIPK22Il2CppGenericParameterEP11Il2CppClassEES6_N6il2cpp5utils11PointerHashIS4_EEN14dense_hash_mapIS6_S9_SE_NS6_14EqualsComparerINS0_8equal_toIS5_EEEENS0_9allocatorISA_EEE9SelectKeyESJ_SL_E15insert_noresizeERKSA_
rzl:_Transform_1_Invoke_m2468053724_gshared
foi:__Z51RuntimeInvoker_Void_t1185182177_TimeSpan_t881159249PFvvEPK10MethodInfoPvPS4_
eZ:__ZL60__ManagedRegistrationHelperFunction_ClothSkinningCoefficientPv
G2b:__ZNSt3__211__sift_downIR17ROSorterDepthPassP15RODataDepthPassEEvT0_S5_T_NS_15iterator_traitsIS5_E15difference_typeES5_
Pze:__ZN5physx19NpRigidBodyTemplateINS_14PxRigidDynamicEE25setMassSpaceInertiaTensorERKNS_6PxVec3E
Ure:__ZNK5physx7NpCloth16getContactOffsetEv
hMk:_ArgumentException__ctor_m3200406061
bF:__ZN8Animator17ApplyOnAnimatorIKEiRNS_11AnimatorJobE
Zba:__ZN12FileAccessor4ReadEyyPvPy
AHb:__Z29Transfer_Blittable_ArrayFieldI18StreamedBinaryReadILb0EE11QuaternionfEvRT_R9ArrayInfoRK23StaticTransferFieldInfo
tWm:_List_1_set_Capacity_m2777925136_gshared
hNc:__Z21GetSceneHierarchyPathPK6Object
vzm:_ReadOnlyCollection_1_System_Collections_Generic_ICollectionU3CTU3E_Remove_m1581675040_gshared
qcc:__ZN13RenderTexture9SetHeightEi
_nh:_ShaderUtilities_GetFontExtent_m2484659839
Daa:__ZN17PersistentManager25PreallocateObjectThreadedEiNS_9LockFlagsE
gy:__ZN7mecanim9animation17ClearMotionOutputEPNS0_18AnimationNodeStateE
SJg:__ZL59LightmapBakeType_t1497855756_CustomAttributesCacheGeneratorP21CustomAttributesCache
vok:_CipherSuiteCollection_get_IsFixedSize_m3127823890
tkg:_TMP_TextSelector_A_OnPointerExit_m1409227044
SGa:__ZN16LevelGameManager8TransferI24GenerateTypeTreeTransferEEvRT_
obi:_InternalEnumerator_1_System_Collections_IEnumerator_get_Current_m3537550566_gshared
MHj:_Scrollbar_UpdateVisuals_m2492252165
Bdn:_PKCS12_get_Keys_m2165478388
Vso:__ZN6il2cpp6icalls8mscorlib6System2IO6MonoIO17GetFileAttributesEP12Il2CppStringPi
ucj:_HMACMD5__ctor_m3008609295
Swg:__ZL61X509KeyStorageFlags_t441861693_CustomAttributesCacheGeneratorP21CustomAttributesCache
ebl:_DateTime_ToString_m2992030064_AdjustorThunk
Ouf:_tt_cmap8_char_index
dqc:__Z14tessMeshDeleteP8TESSmeshP12TESShalfEdge
l$m:_Collection_1_System_Collections_ICollection_CopyTo_m388022681_gshared
T7:__Z24scripting_class_get_name17ScriptingClassPtr
EEi:__Z39RuntimeInvoker_JSONNodeType_t2191432521PFvvEPK10MethodInfoPvPS4_
Hbk:_Oid__ctor_m911618594
rqn:_U3CAnimateVertexColorsU3Ec__Iterator0_Dispose_m2414077547
fea:__ZN13RuntimeStaticI15GUIEventManagerLb0EE13StaticDestroyEPv
ZUi:_ShortComparer_Compare_m1881262465
Pub:__Z29Transfer_Blittable_ArrayFieldI14SafeBinaryReadjEvRT_R9ArrayInfoRK23StaticTransferFieldInfo
FEf:__ZN2UI14CanvasRenderer11GetMaterialEi
Ve:_emscripten_set_keydown_callback
V6j:_EncoderReplacementFallback__ctor_m1483565116
ihk:_Interpreter_IsWordChar_m2858055765
SLi:__Z77RuntimeInvoker_Void_t1185182177_SingleU5BU5DU26_t2684236517_Int32_t2950945753PFvvEPK10MethodInfoPvPS4_
O5c:__ZN18ColorBySpeedModule8TransferI14SafeBinaryReadEEvRT_
hsa:__ZN9Scripting11UnityEngine29CustomRenderTextureUpdateZone12CleanupProxyEv
fca:__ZN12FileAccessorC2Ev
ILi:__Z96RuntimeInvoker_Void_t1185182177_BooleanU5BU5DU26_t3454195888_Int32_t2950945753_Int32_t2950945753PFvvEPK10MethodInfoPvPS4_
Rui:__Z73RuntimeInvoker_Void_t1185182177_Vector2U26_t2376273893_RayU26_t3515555043PFvvEPK10MethodInfoPvPS4_
w8l:_EqualityComparer_1_System_Collections_IEqualityComparer_Equals_m3855544238_gshared
ade:__ZN5physx2Sc15ArticulationSim12applyImpulseERNS0_8BodyCoreERKNS_9PxcFsDataERKNS_6PxVec3ES9_
PXa:__ZNK8Renderer29FlattenPerMaterialCustomPropsER22PerThreadPageAllocatorR10RenderNode
Ndd:__Z15UpdateRandomTplIL27ParticleSystemCurveEvalMode0EEvRK11MinMaxCurveS3_S3_R5RandNR23ParticleSystemParticlesjjRKN4math8float3x3ERKNS8_7_float4E
Qxl:_Transform_1_Invoke_m1062341206_gshared
oC:__ZThn152_NK26AnimatorControllerPlayable25GetStateMachineBehavioursEv
Aon:_EventFunction_1_Invoke_m2429482587_gshared
_Vn:_U3CDefaultUnityWebRequestU3Ed__0_System_Collections_IEnumerator_get_Current_m332100748
Fth:_EventTrigger_OnDeselect_m1919608102
xqd:__ZN14ParticleSystem16AssignRayBudgetsEv
_Hd:__ZN23ColliderTilingExtensionC2Ev
lih:__ZL92HighscoreMenu_t988333087_CustomAttributesCacheGenerator_HighscoreMenu_Processjson_m644347857P21CustomAttributesCache
C4:__ZN14StackAllocator10ReallocateEPvji
V5a:__ZNK12InputManager22GetTypeVirtualInternalEv
OJn:_VerticalLayoutGroup__ctor_m321345421
KJ:__ZN4PPtrI13MonoBehaviourE8TransferI18StreamedBinaryReadILb0EEEEvRT_
ikd:__ZN16CustomDataModuleD2Ev
cyd:__ZNSt3__27__sort3IR22InverseDepthComparitorP8DepthHitEEjT0_S5_S5_T_
qMl:_Enumerator_MoveNext_m1177880931_AdjustorThunk
vce:__ZNK5physx14NpArticulation26getInternalDriveIterationsEv
zAd:__ZN14qsort_internal18QSortSingleJobDataIPN25b2SynchronizeFixturesTask14b2DeferredMoveEiPFbRKS2_S5_EE7SortJobEPS8_
iwj:_SendMouseEvents_SetMouseMoved_m2822596724
vYg:__ZL82Event_t2956885303_CustomAttributesCacheGenerator_Event_get_commandName_m4275147343P21CustomAttributesCache
YWj:_Array_InternalArray__ICollection_Add_TisResolveHandler_t4124874245_m584706233_gshared
fin:_TMP_XmlTagStack_1_Push_m1847519558_AdjustorThunk
BWj:_Enumerable_ThenBy_TisRuntimeObject_TisRuntimeObject_m2491979270_gshared
e0i:_DerivedType_get_FullName_m1025358827
Aaj:_CryptoConfig_MapNameToOID_m2044758263
doa:__ZL50__ManagedRegistrationHelperFunction_SetupCoroutinePv
ht:__ZN13ConstraintJob23ConstraintComponentDataC2ERKS0_
G5c:__ZN14VelocityModule8TransferI14SafeBinaryReadEEvRT_
l6g:__ZL70InputField_t3762917431_CustomAttributesCacheGenerator_m_OnValueChangedP21CustomAttributesCache
dKb:__Z39WriteQueueForTransferSignatureIntoCacheRK31TransferFunctionScriptingTraitsRK24TransferRequestSignature17ScriptingClassPtrR23CachedSerializationDataRb
iqe:__ZN5physx15NpActorTemplateINS_7PxClothEE22setClientBehaviorFlagsENS_7PxFlagsINS_25PxActorClientBehaviorFlag4EnumEhEE
A7j:_Encoding_get_UTF8UnmarkedUnsafe_m320312322
qnm:_Thread_Thread_free_internal_m333849022
I_c:__Z35Transfer_Blittable_FixedBufferFieldI9JSONWritexEvRK29SerializationCommandArgumentsR31RuntimeSerializationCommandInfo
wsn:_CostDelegate_BeginInvoke_m2828452701
LJf:__ZN22BaseUnityConnectClient30OnEnteringStatePausedOrStoppedEv
cEd:__ZN10ClipperLib7Clipper18SwapPositionsInAELEPNS_5TEdgeES2_
_Om:_U3CCreateWhereIteratorU3Ec__Iterator1D_1_MoveNext_m3448330397_gshared
yoh:_TextContainer_get_rect_m3292172739
VGn:_AnalyticsEventParam_get_value_m2837935290
BXk:_Array_Sort_TisSpriteData_t3048397587_m3876534650_gshared
Fvm:_Collection_1_ConvertItem_m1556170494_gshared
uy:__ZN7mecanim5human12HumanPoseAddERNS0_9HumanPoseERKS1_S4_
j5k:_DateTime_ToUniversalTime_m1945318289
Z_f:_U3CCaretBlinkU3Ec__Iterator0_System_Collections_Generic_IEnumeratorU3CobjectU3E_get_Current_m414319169
tel:_DllNotFoundException__ctor_m1156705135
USk:_ArrayList_ToArray_m3827492363
Aod:__Z20UpdateWholeSheet2TplIL27ParticleSystemCurveEvalMode2ELS0_2EEvfRK11MinMaxCurveS3_RK23ParticleSystemParticlesPf
YRn:__ZL25UnresolvedVirtualCall_284P12Il2CppObjectPK10MethodInfo
ELj:_Slider_get_stepSize_m1423227661
Gtm:_UInt64_Parse_m819899889
wyo:__ZN6il2cpp8metadata15GenericMetadata15GetGenericClassEiPK17Il2CppGenericInst
q_j:_SymmetricAlgorithm_set_IV_m3196220308
X5h:_InternalEnumerator_1_get_Current_m3433165672_gshared
I8k:_Convert_ToUInt32_m1453583008
gvk:_CompareInfo_Compare_m894311506
Mya:__Z24MergeTransformComponentsR9TransformS0_b
x7n:__ZNK15dense_hashtableI10KeyWrapperIPK19Il2CppGenericMethodES4_N6il2cpp8metadata23Il2CppGenericMethodHashEN14dense_hash_setIS4_S7_NS4_14EqualsComparerINS6_26Il2CppGenericMethodCompareEEENSt3__29allocatorIS4_EEE8IdentityESB_SE_E10test_emptyEj
Abi:_InternalEnumerator_1_System_Collections_IEnumerator_get_Current_m3982010935_AdjustorThunk
l8h:_InternalEnumerator_1_MoveNext_m683739489_AdjustorThunk
a8d:__ZThn24_N5physx2Sc20ArticulationJointSimD0Ev
qsh:_EventSystem_UpdateModules_m3643806022
zCo:__ZN6il2cpp2gc16GarbageCollector10StartWorldEv
mOd:__ZN14PhysicsManager32AddToTriggerStayStatesIfRequiredEPK9Rigidbody
Cxd:__ZN15b2CircleContactD0Ev
z_n:_AnimationOffsetPlayable__cctor_m1029460816
rkn:_InvokableCall_1__ctor_m2610016537_gshared
j$g:__ZL54Collision2D_t2842956331_CustomAttributesCacheGeneratorP21CustomAttributesCache
o0j:_Evidence_get_SyncRoot_m2835084965
h2d:__ZN5physx14PxsAABBManager12createBPElemEv
jRj:_SetPropertyUtility_SetStruct_TisTouchScreenKeyboardType_t1530597702_m2455393348_gshared
g4l:_DefaultComparer__ctor_m2280347240_gshared
Voe:__ZThn12_N5physx7NpShape14onRefCountZeroEv
sxg:__ZL59ICryptoTransform_t2733259762_CustomAttributesCacheGeneratorP21CustomAttributesCache
UWd:__ZL26GeomMTDCallback_ConvexMeshRN5physx6PxVec3ERfRKNS_10PxGeometryERKNS_11PxTransformES5_S8_
$Fo:__ZN6il2cpp2vm13ComObjectBase19GetRuntimeClassNameEPP15Il2CppHString__
DGb:__Z35Transfer_Blittable_FixedBufferFieldI18StreamedBinaryReadILb0EEyEvRK29SerializationCommandArgumentsR31RuntimeSerializationCommandInfo
WFa:__Z37GetBarycentricCoordinatesForOuterCellPPK8Vector3fRK13dynamic_arrayIS_Lj0EERS0_RK11TetrahedronR8Vector4f
jdg:_PowerUpSpeed__ctor_m2105052929
Fk:_emscripten_glVertexAttribPointer
TTo:__ZNSt11logic_errorD0Ev
SMb:__ZN14PreloadManager26UpdatePreloadingSingleStepENS_21UpdatePreloadingFlagsEi
kpn:_TweenRunner_1__ctor_m340723704_gshared
sKj:_ScrollRect_SetLayoutHorizontal_m3078869633
w4e:__ZN18ScBeforeSolverTask11runInternalEv
B3k:_Console_OpenStandardInput_m3262421490
mhl:_SimpleCollator__ctor_m1587210019
psc:__Z57Register_UnityEngine_RectTransform_INTERNAL_set_anchorMinv
J4d:__ZL33GeomOverlapCallback_CapsuleConvexRKN5physx10PxGeometryERKNS_11PxTransformES2_S5_PNS_2Gu12TriggerCacheE
z8k:_Convert_ToUInt16_m1480956416
tla:__ZN6prcoreL25inner_stretch_i8_bilinearEPKNS_9InnerInfoE
QXj:_Array_InternalArray__ICollection_Add_TisUriScheme_t722425697_m3142345403_gshared
uih:__ZL75U3CDelayLoadLevelU3Ec__Iterator0_t1718656173_CustomAttributesCacheGeneratorP21CustomAttributesCache
Qcb:__ZL30RegisterFilteredObjectCallbackPP12Il2CppObjectiPv
nUn:_AudioListenerExtension_get_audioListener_m3597041395
wKm:_ReadOnlyCollection_1_System_Collections_Generic_IListU3CTU3E_RemoveAt_m3317217538_gshared
VVg:__ZL54AudioSource_t3935305588_CustomAttributesCacheGeneratorP21CustomAttributesCache
ivd:__ZN16PhysicsManager2D19ApplyParticleForcesER13dynamic_arrayI21BatchedColliderResultLj0EE
i9b:__Z30GetScriptableCullingParametersR6CamerabR27ScriptableCullingParameters
A_:__ZN11UnityEngine15CloudWebService16SessionContainer24GetSessionHeaderJsonDataERKN4core12basic_stringIcNS2_20StringStorageDefaultIcEEEERNS2_13StringBuilderE
J$i:_DerivedType_GetEvent_m4157575360
xda:__ZN13RuntimeStaticI21AssetReferenceStorageLb0EE13StaticDestroyEPv
l9e:__ZN5physx20InternalTriangleMesh9loadRTreeERNS_13PxInputStreamEj
xug:__ZL56_MethodBuilder_t600455149_CustomAttributesCacheGeneratorP21CustomAttributesCache
_Ae:__ZN5physx19NpRigidBodyTemplateINS_14PxRigidDynamicEE25setCMassLocalPoseInternalERKNS_11PxTransformE
FVk:_Comparer__ctor_m2831654082
iMg:__ZL54PhysicsUpdate_t81124440_CustomAttributesCacheGeneratorP21CustomAttributesCache
OBe:__ZNK5physx15NpActorTemplateINS_13PxRigidStaticEE14getOwnerClientEv
ggm:_Array_InternalArray__set_Item_TisKeyValuePair_2_t2530217319_m258011711_gshared
LBi:__Z72RuntimeInvoker_Bounds_t2266837910_RuntimeObject_Matrix4x4U26_t3606180965PFvvEPK10MethodInfoPvPS4_
NOm:__ZN28GenericInterfaceFuncInvoker2IbiiE6InvokeEPK10MethodInfoP12Il2CppObjectii
GKl:_Enumerator_MoveNext_m2041610666_AdjustorThunk
JCo:__ZN6il2cpp6icalls8mscorlib6System9AppDomain22InternalGetProcessGuidEP12Il2CppString
vw:__ZNK25RuntimeAnimatorController30GetAnimationClipOverrideVectorEv
hxe:__ZN5physx2Sc18ParticleSystemCore16releaseParticlesEv
MRe:__ZNK5physx2Gu29EPASupportMapPairRelativeImplINS0_8CapsuleVENS0_4BoxVEE6getDirEv
RZd:__ZN5physx2Gu20intersectTriangleBoxERKNS_6shdfnd3aos5Vec3VES5_S5_S5_S5_
PBg:__ZL79Convert_t2465617642_CustomAttributesCacheGenerator_Convert_ToUInt32_m3188121845P21CustomAttributesCache
eji:__Z48RuntimeInvoker_RuntimeObject_Decimal_t2948259380PFvvEPK10MethodInfoPvPS4_
Gnm:_ThreadStart_EndInvoke_m3768045394
av:__ZN9Scripting11UnityEngine10Animations16ConstraintSource9InitProxyEv
gQc:__Z34Quaternion_CUSTOM_Inverse_InjectedRK11QuaternionfRS_
sdo:__ZNSt3__214__split_bufferIP9FieldInfoRNS_9allocatorIS2_EEEC2EjjS5_
E9k:_DateTime__cctor_m1880035693
I8i:_StreamingContext__ctor_m2604757771_AdjustorThunk
mzb:__Z18Transfer_BlittableI24GenerateTypeTreeTransferLb1EjEvRK29SerializationCommandArgumentsR31RuntimeSerializationCommandInfo
SWm:_List_1_AddCollection_m1469681717_gshared
wio:__ZNK15dense_hashtableINSt3__24pairIK10KeyWrapperINS1_IPK11Il2CppImageP11Il2CppClassEEEjEES9_17ReflectionMapHashIS8_EN14dense_hash_mapIS9_jSD_NS9_14EqualsComparerINS0_8equal_toIS8_EEEENS0_9allocatorISB_EEE9SelectKeyESI_SK_E10test_emptyERK30dense_hashtable_const_iteratorISB_S9_SD_SM_SI_SK_E
dcm:_KeyValuePair_2_ToString_m3013572783_gshared
Lzi:__Z103RuntimeInvoker_Boolean_t97287965_Ray_t3785851493_Single_t1397266774_Int32_t2950945753_Int32_t2950945753PFvvEPK10MethodInfoPvPS4_
msg:__ZL68AssemblyCopyrightAttribute_t836190902_CustomAttributesCacheGeneratorP21CustomAttributesCache
OAc:__ZNK28RectTransformPropertyBinding9BindValueER6ObjectRKN11UnityEngine9Animation14GenericBindingERNS3_10BoundCurveE
JIa:__ZN11ColorRGBA328TransferI14SafeBinaryReadEEvRT_
$Lm:_Comparison_1__ctor_m2070203645_gshared
l4m:_Collection_1_Add_m1736908447_gshared
_qf:_cff_vstore_done
fgf:__ZN5physx6shdfnd5ArrayIPvNS0_19ReflectionAllocatorINS_24NpPtrTableStorageManager8PtrBlockILi4EEEEEE15growAndPushBackERKS2_
emb:__ZN9GfxDevice33ScheduleComputeBufferJobsInternalEPFvP20ComputeBufferJobDataEPFvRK8JobFenceEPK27ComputeBufferJobInstructionj
sui:__Z68RuntimeInvoker_Void_t1185182177_UInt16_t2177724958_SByte_t1669577662PFvvEPK10MethodInfoPvPS4_
gum:__ZN25GenericVirtActionInvoker2IP12Il2CppObjectP39UnhandledExceptionEventArgs_t2886101344E6InvokeEPK10MethodInfoS1_S1_S3_
e0h:_InternalEnumerator_1_get_Current_m3008260692_AdjustorThunk
lof:__ZN20TextRenderingPrivate8TextMesh8TransferI14SafeBinaryReadEEvRT_
Tcj:_MACTripleDES_HashFinal_m3613553534
atm:_UInt64_System_IConvertible_ToChar_m2074245892
RRa:__Z11IsHDRFormat13TextureFormat
dt:__ZN4core8hash_setIPN5Unity9ComponentENS_4hashIS3_EENSt3__28equal_toIS3_EEE4growEi
Dlm:_UTF8Encoding_InternalGetBytes_m1965760031
yg:_emscripten_glClearDepth
KCc:__ZNK8GUILayer22GetTypeVirtualInternalEv
rWa:__ZN14SafeBinaryRead21TransferSTLStyleArrayINSt3__26vectorIN15QualitySettings14QualitySettingENS1_9allocatorIS4_EEEEEEvRT_17TransferMetaFlags
oln:_UnityAction_1__ctor_m3007623985_gshared
gul:_KeyCollection__ctor_m2388548663_gshared
JMm:_Comparison_1_Invoke_m3423206938_gshared
XGi:__Z56RuntimeInvoker_Boolean_t97287965_ILTokenInfo_t2325775114PFvvEPK10MethodInfoPvPS4_
sXg:__ZL92DownloadHandler_t2937767557_CustomAttributesCacheGenerator_DownloadHandler__ctor_m2126376377P21CustomAttributesCache
P7a:__ZNSt3__26vectorINS_4pairIPKN5Unity4TypeE7Hash128EENS_9allocatorIS7_EEE8__appendEj
Ct:__ZN4core8hash_setIPN5Unity9ComponentENS_4hashIS3_EENSt3__28equal_toIS3_EEE4growEv
AJl:_LinkedList_1_get_First_m1512309353_gshared
I2c:__ZN8JSONRead21TransferSTLStyleArrayI13dynamic_arrayIaLj0EEEEvRT_17TransferMetaFlags
rEl:_ValueCollection_get_Count_m241121908_gshared
brf:_cff_font_load
nDo:__GLOBAL__sub_I_LibraryLoader_cpp
YNc:__Z13IsPathCreatedRKN4core12basic_stringIcNS_20StringStorageDefaultIcEEEE
Z4g:__ZL99Dropdown_t2274391225_CustomAttributesCacheGenerator_Dropdown_DelayedDestroyDropdownList_m2082128994P21CustomAttributesCache
hUe:__ZN5physx35solveContactPreBlock_ConcludeStaticEPKNS_23PxcSolverConstraintDescEjRNS_16PxcSolverContextE
Ghj:_Debug_LogWarningFormat_m2535776735
$Ra:__ZL22stbir__encode_scanlineP11stbir__infoiPvPfiii
kNn:__ZL24UnresolvedVirtualCall_28P12Il2CppObjectS0_iiPK10MethodInfo
HOh:_ExternalException__ctor_m2877839282
Bjf:__ZN20QuadTreeNodeRenderer13StaticDestroyEPv
w$:__ZN11UnityEngine15CloudWebService20WebRequestRestClient5AbortEv
gwm:_Collection_1_InsertItem_m954500348_gshared
xvn:_Regex_Matches_m2080913806
JBc:__ZN9Transform12CleanupClassEv
E0f:_TMP_MeshInfo__cctor_m2816277573
m5g:__ZL57FontData_t746620069_CustomAttributesCacheGenerator_m_FontP21CustomAttributesCache
Y6d:__ZN5physx6shdfnd5ArrayIPvNS0_15InlineAllocatorILj256ENS0_19ReflectionAllocatorINS_2Cm5BlockIS2_Lj32EEEEEEEE15growAndPushBackERKS2_
w3e:__ZN5physx18PxsSolverStartTask13setupDescTaskEv
Ynf:_UNITY_FT_Set_Pixel_Sizes
xYi:_OperatingSystem_Clone_m1122165140
X0k:_GameObject_AddComponent_TisRuntimeObject_m3469369570_gshared
gwl:__ZN23GenericVirtFuncInvoker2IbibE6InvokeEPK10MethodInfoP12Il2CppObjectib
CE:__ZN11UnityEngine9Animation33SetGenericTransformPropertyValuesERKNS0_30AnimatorGenericBindingConstantERKN7mecanim10ValueArrayEP9Transformy
vAg:__ZL59AttributeTargets_t1784037988_CustomAttributesCacheGeneratorP21CustomAttributesCache
nNg:__ZL61ThreadedLoadingDebug_t53594427_CustomAttributesCacheGeneratorP21CustomAttributesCache
VXn:_Canvas_add_willRenderCanvases_m1234571137
oig:_U3CStartU3Ec__Iterator0_System_Collections_Generic_IEnumeratorU3CobjectU3E_get_Current_m2957603276
xVd:__ZN5physx3Cct13BoxController6resizeEf
tSm:_List_1_RemoveAll_m3165362277_gshared
$pm:_Type_type_is_subtype_of_m1406623598
hoa:__ZL54__ManagedRegistrationHelperFunction_SpriteAtlasManagerPv
cSl:_List_1__ctor_m3151640588_gshared
vjh:__ZL58JSONLazyCreator_t3621052039_CustomAttributesCacheGeneratorP21CustomAttributesCache
a5e:__ZN5physx6shdfnd5ArrayINS_2Cm12DelegateTaskINS_2Sc5SceneEXadL_ZNS5_19updateCCDSinglePassEPNS_10PxBaseTaskEEEEENS0_19ReflectionAllocatorIS8_EEE8recreateEj
cmm:_Thread_get_CurrentThread_m4142136012
iFa:__Z30ProcessDynamicBatchGeometryJobP25DynamicVBOGeometryJobDataj
h3b:__ZNSt3__27__sort4IRNS_6__lessI11CulledLightS2_EEPS2_EEjT0_S6_S6_S6_T_
zmo:__ZN6il2cpp2vm14TypeNameParser26ParseArrayModifierOptionalEv
l9:__Z26scripting_object_get_class18ScriptingObjectPtr
Yro:__ZN6il2cpp6icalls8mscorlib6System10Reflection8Assembly13get_code_baseEP24Il2CppReflectionAssemblyb
TAd:__ZN34b2SolveDiscreteIslandBodySleepTaskD0Ev
I8a:__ZNSt3__26vectorIN4core12basic_stringIcNS1_20StringStorageDefaultIcEEEE13stl_allocatorIS5_L18MemLabelIdentifier13ELi16EEE7reserveEj
ZNj:_Array_InternalArray__ICollection_Contains_TisInt16_t2552820387_m2915683400_gshared
Qfd:__Z25UpdateOrbitalAndRadialTplIL27ParticleSystemCurveEvalMode1ELS0_3ELS0_0EEvRK11MinMaxCurveS3_S3_S3_S3_S3_S3_R23ParticleSystemParticlesjjRKN4math8float3x3ERKNS6_7affineXERKNS6_7_float4E
Ibj:_DSASignatureDeformatter__ctor_m2889130126
Yek:_X509ChainElementCollection_Clear_m2271223414
IDc:__ZNK28MonoBehaviourPropertyBinding15GenerateBindingERKN4core12basic_stringIcNS0_20StringStorageDefaultIcEEEEbRN11UnityEngine9Animation14GenericBindingE
Xuj:_RectTransform_INTERNAL_set_pivot_m1160676233
uXm:_List_1_set_Item_m35836043_gshared
Ehn:_TMP_ObjectPool_1_Get_m49507659_gshared
E7g:__ZL70ScrollRect_t4137855814_CustomAttributesCacheGenerator_m_OnValueChangedP21CustomAttributesCache
Pek:_X509ChainElementCollection__ctor_m3424079155
Icj:_HMACSHA512__cctor_m4155933671
Esn:_LinkStack_Push_m3081279930
z_k:_TMP_TextInfo_Resize_TisTMP_WordInfo_t3331066303_m943255601_gshared
I0f:_TMP_ScrollbarEventHandler_OnDeselect_m2716618027
iid:__Z20StartSingleSidedEdgeILN11ShapeModule14MultiModeValueE0EEvRS0_R23ParticleSystemParticlesRK19ParticleSystemStateRK27ParticleSystemEmissionStateRKN4math8float3x3ERKNSB_7affineXEjbj
_Pm:_Nullable_1__ctor_m509459810_AdjustorThunk
yql:_Enumerator_MoveNext_m1107569389_gshared
bfh:__ZL72TMP_Text_t2599618874_CustomAttributesCacheGenerator_m_wordWrappingRatiosP21CustomAttributesCache
Qae:__ZNK5physx21PxsBodyTransformVault12getTransformERKNS_11PxsBodyCoreE
tdo:__ZNSt3__26vectorIP9FieldInfoNS_9allocatorIS2_EEE26__swap_out_circular_bufferERNS_14__split_bufferIS2_RS4_EE
ton:_UnityEvent_3_GetDelegate_m1156357290_gshared
eEo:__ZN6il2cpp6icalls8mscorlib6System11Environment15internalGetHomeEv
Yql:_Enumerator_System_Collections_IEnumerator_get_Current_m2223443336_AdjustorThunk
H3h:_InternalEnumerator_1__ctor_m4200721464_gshared
qnj:_Matrix4x4_GetHashCode_m4034747639_AdjustorThunk
JNh:_ResourceCacheItem_t51292791_marshal_pinvoke_cleanup
Zta:__ZNK5Unity9Component7GetNameEv
sIf:__ZN11UnityEngine9Analytics15UserCustomEvent15Internal_CreateE18ScriptingObjectPtrRKN4core12basic_stringIcNS3_20StringStorageDefaultIcEEEE
ndc:__Z23FindMonoScriptFromClass17ScriptingClassPtr
q6f:_TMP_Text_ReplaceClosingStyleTag_m761056113
t_j:_SymmetricAlgorithm_get_KeySize_m4185004893
AXl:_List_1_GetEnumerator_m232588170_gshared
jXd:__ZN44ConvexVsHeightfieldContactGenerationCallback7onEventEjPj
jrn:_VertexZoom_AnimateVertexColors_m3033224630
RDd:__ZNSt3__26vectorIPN10ClipperLib6OutRecENS_9allocatorIS3_EEE21__push_back_slow_pathIRKS3_EEvOT_
$pb:__ZN21ScalableBufferManager23UnregisterRenderSurfaceEP17RenderSurfaceBaseb
Ldo:__ZNSt3__214__split_bufferIPK10MethodInfoRNS_9allocatorIS3_EEED2Ev
KVm:_List_1_System_Collections_IList_Remove_m1070694895_gshared
HBn:_LayoutCache__ctor_m3885940174
r$a:__ZN13ScreenManagerD0Ev
r_n:_AnimationMotionXToDeltaPlayable_GetHandle_m1319190040_AdjustorThunk
rtd:__ZNK11b2RopeJoint16GetReactionForceEf
VF:__ZN7mecanim8skeleton26SkeletonPoseComputeGlobalQEPKNS0_8SkeletonEPKNS0_13SkeletonPoseTIN4math4trsXEEEPS7_ii
Dbn:_TlsServerSettings__ctor_m373357120
$sm:_UInt64_System_IConvertible_ToByte_m1501504925_AdjustorThunk
SWn:_TextGenerator_Invalidate_m1072346986
sXn:_TextMesh_set_anchor_m3559070145
Xmd:__ZN14ParticleSystem40OnTrailGeometryJobsScheduledRenderThreadERK8JobFence
frk:_TlsClientHello_ProcessAsTls1_m2549285167
mQi:__Z74RuntimeInvoker_Boolean_t97287965_UIVertex_t4057497605_UIVertex_t4057497605PFvvEPK10MethodInfoPvPS4_
FCm:_ReadOnlyCollection_1_System_Collections_IList_RemoveAt_m3006136027_gshared
nSe:__ZN5physx2Gu19_gjkRelativeRayCastINS0_9TriangleVENS0_8CapsuleVEEEbRT_RT0_RKNS_6shdfnd3aos15PsMatTransformVERKNS9_6FloatVERKNS9_5Vec3VESI_RSD_RSG_SK_f
$Ij:_ScrollRect_set_decelerationRate_m723367336
fqn:_TMP_UiFrameRateCounter_Update_m2632221777
r9c:__ZN13TriggerModule8TransferI19StreamedBinaryWriteILb0EEEEvRT_
vF:__ZN9BlobWrite8TransferI22OffsetPtrArrayTransferIiEEEvRT_PKc17TransferMetaFlags
K6j:_EncoderExceptionFallback_Equals_m2760188920
a9h:_InternalEnumerator_1__ctor_m43405049_AdjustorThunk
Axb:__Z18Transfer_BlittableI17RemapPPtrTransferLb1EjEvRK29SerializationCommandArgumentsR31RuntimeSerializationCommandInfo
pdj:_RC2CryptoServiceProvider_get_EffectiveKeySize_m3835262416
zbe:__ZN5physx6shdfnd5ArrayIPvNS0_15InlineAllocatorILj256ENS0_19ReflectionAllocatorINS_11NpAggregateEEEEEE15growAndPushBackERKS2_
Xac:__ZNK15LODGroupManager17CalculateLODMasksERK13LODParametersfPhPf
eQ:__ZN4FMOD6System7releaseEv
mOe:__ZN5physx6shdfnd8PoolBaseINS_2Sc18TriggerInteractionENS0_19ReflectionAllocatorIS3_EEE15disposeElementsEv
lBb:__Z18Transfer_BlittableI19StreamedBinaryWriteILb0EELb1E8BitFieldEvRK29SerializationCommandArgumentsR31RuntimeSerializationCommandInfo
DPk:_Boolean_CompareTo_m3665076258
B3j:_String_Split_m3580120853
Cml:_PrivateKeyInfo__ctor_m2811023496
Cba:__Z18PathToAbsolutePathRKN4core12basic_stringIcNS_20StringStorageDefaultIcEEEE
o$g:__ZL95Rigidbody2D_t939494601_CustomAttributesCacheGenerator_Rigidbody2D_AddForce_m1099013366____mode1P21CustomAttributesCache
DCn:_GUILayoutUtility_LayoutFromEditorWindow_m2914699782
vik:_BigInteger_SetBit_m1723423691
ura:__ZN9Scripting11UnityEngine12Experimental10PlayerLoop13PreLateUpdate9InitProxyEv
Eff:__ZN5physx28PxcContactCapsuleHeightFieldERKNS_2Gu13GeometryUnionES3_RKNS_11PxTransformES6_RKfRNS_10PxcNpCacheERNS0_13ContactBufferE
aFi:__Z78RuntimeInvoker_RuntimeObject_ObjectU26_t2146539884_RuntimeObject_RuntimeObjectPFvvEPK10MethodInfoPvPS4_
hJo:_GC_push_finalizer_structures
kpg:__ZL65X509ExtensionCollection_t609554708_CustomAttributesCacheGeneratorP21CustomAttributesCache
THf:__ZN21UnityAnalyticsManager15ThreadedCleanupEv
$hn:_TMP_XmlTagStack_1_SetDefault_m860177551_AdjustorThunk
oLo:__ZN6il2cpp6icalls8mscorlib6System10Reflection16MonoPropertyInfo16GetTypeModifiersEPvb
GFd:__ZThn160_N17PolygonCollider2D5ResetEv
fXd:__ZL31PointInConvexPolygon2D_OutCodesPKfjffffRh
Aye:__ZN5physx22NpParticleBaseTemplateINS_16PxParticleSystemENS_16NpParticleSystemEE18setDynamicFrictionEf
kon:_UnityEvent_3_RemoveListener_m3235168934_gshared
FRa:__ZL13BlitImageImplR14ImageReferenceiiRKS_NS_10ColorSpaceENS_8BlitModeEb
KJc:__ZN15DirectorManager17AcquireOutputNodeEv
Eed:__ZL15AccumulateNoiseILb1ELi1EEN4math8floatNx2ERKNS0_8floatNx3ERKfiS6_S6_
NZa:__Z14resize_trimmedINSt3__26vectorI13dynamic_arrayI8Vector2fLj0EENS0_9allocatorIS4_EEEEEvRT_j
$gm:_Array_InternalArray__set_Item_TisColor32_t2600501292_m1891325855_gshared
CIb:__ZN10MonoScript23VirtualRedirectTransferER17RemapPPtrTransfer
_0k:_GameObject_GetComponentInChildren_TisRuntimeObject_m1310240902_gshared
Mee:__ZN5physx2Sc21ArticulationJointCore21setInternalComplianceEf
Zlk:__ZN30GenericInterfaceActionInvoker2IP12Il2CppObjectP21EventArgs_t3591816995E6InvokeEPK10MethodInfoS1_S1_S3_
$df:__ZN9Rigidbody12MoveRotationERK11Quaternionf
Aih:__ZL80Scoreboard_t4002975821_CustomAttributesCacheGenerator_U3CScoreU3Ek__BackingFieldP21CustomAttributesCache
$cf:__ZNK5physx6shdfnd10Foundation13getErrorLevelEv
FPg:__ZL69PersistentCall_t3407714124_CustomAttributesCacheGenerator_m_ArgumentsP21CustomAttributesCache
RHa:__Z32TransferEnumWithNameForceIntSizeI14SafeBinaryReadN21BuiltinShaderSettings17BuiltinShaderModeEEvRT_RT0_PKc17TransferMetaFlags
trk:_TlsServerCertificateRequest_ProcessAsSsl3_m1084200341
kJa:__ZN16ReflectionProbes28GetMinBakedCubemapResolutionEv
k6e:__ZN5physx2Cm12DelegateTaskINS_2Sc5SceneEXadL_ZNS3_15postNarrowPhaseEPNS_10PxBaseTaskEEEE11runInternalEv
X$h:_InternalEnumerator_1__ctor_m1196506529_gshared
kjf:__Z20ConvertContactToMonoP9Collision
g0j:_PermissionSet__ctor_m2328457660
OBl:_Enumerator__ctor_m1849900510_gshared
yfi:_Enumerator__ctor_m3604398513_AdjustorThunk
a3n:__ZN15dense_hashtableINSt3__24pairIK10KeyWrapperIPK22Il2CppGenericParameterEP11Il2CppClassEES6_N6il2cpp5utils11PointerHashIS4_EEN14dense_hash_mapIS6_S9_SE_NS6_14EqualsComparerINS0_8equal_toIS5_EEEENS0_9allocatorISA_EEE9SelectKeyESJ_SL_E6insertERKSA_
zYf:_TMP_InputField_get_characterValidation_m293459329
s3f:_TMP_SubMeshUI_get_mesh_m1845552462
iVg:__ZL101SpriteAtlasManager_t3158462485_CustomAttributesCacheGenerator_SpriteAtlasManager_Register_m2413332465P21CustomAttributesCache
XVn:_RequestHelper_get_Method_m965173330
tdn:_X509CertificateEnumerator__ctor_m85694331
qSb:__ZN14DataBufferGLES16RecreateWithDataEjPKv
vua:__Z29GetGlobalAllowNameConversionsv
eXd:__ZL17transformVerticesRfS_S_S_PfjPKN5physx6PxVec3EPKhRKNS1_7PxMat33E
Jff:__ZNK5physx2Gu15HeightFieldUtil31getFaceIndexAtShapePointNoTest2Ejff
nem:_Array_InternalArray__Insert_TisTableRange_t3332867892_m558285859_gshared
xOd:__ZNK12PhysXRaycast20FindParticleOverlapsER13dynamic_arrayI15BatchedOverlapsLj0EEPP8Colliderj
dec:__ZN8Material8SetColorEN9ShaderLab16FastPropertyNameERK10ColorRGBAf
G2g:__ZL77ExecuteEvents_t3484638744_CustomAttributesCacheGenerator_U3CU3Ef__mgU24cacheFP21CustomAttributesCache
H$e:__ZN5physx6shdfnd5ArrayIPNS_14PxLightCpuTaskENS0_13TempAllocatorEE6resizeEjRKS3_
YNl:_Enumerator_System_Collections_IEnumerator_Reset_m3754523291_gshared
G5l:_EqualityComparer_1__cctor_m2645305258_gshared
sMf:__ZN11UnityEngine7Connect20RemoteConfigSettings19ConfigUpdatedStaticEPS1_bbi
GAg:__ZL77Convert_t2465617642_CustomAttributesCacheGenerator_Convert_ToByte_m2375887898P21CustomAttributesCache
$R:__ZN11AudioSource23VirtualRedirectTransferER18StreamedBinaryReadILb0EE
Fek:_X509CertificateEnumerator__ctor_m943731472
$Zj:_SHA512Managed_processLength_m2162821715
Xsj:_RangeInt_get_end_m4128831787
nPe:__ZNK5physx2Sq10AABBPruner5sweepERKNS0_9ShapeDataERKNS_6PxVec3ERfRNS0_14PrunerCallbackE
zdn:_PKCS12_get_IterationCount_m3005687235
SBb:__ZN10RectOffset8TransferI19StreamedBinaryWriteILb0EEEEvRT_
jVo:dynCall_iiifiii
cOf:__Z25GetUnityConnectModuleSpecv
bQl:_List_1_get_Count_m3994226496_gshared
AUm:_List_1_set_Item_m2082115010_gshared
fRi:__Z102RuntimeInvoker_RuntimeObject_UILineInfo_t4195266810_UILineInfo_t4195266810_RuntimeObject_RuntimeObjectPFvvEPK10MethodInfoPvPS4_
MCd:__ZN23ColliderTilingExtension5ResetEv
FNk:_Array_Initialize_m3004991267
HVb:__ZN14GfxContextGLES43AddRenderSurfaceToDeferredFBOInvalidateListEPK17RenderSurfaceGLES
TQe:__ZN5physx17PxsCCDAdvanceTask11runInternalEv
vwa:__ZN11NamedObject23VirtualRedirectTransferER14SafeBinaryRead
xWo:dynCall_vifiii
yMj:_Text_get_resizeTextMinSize_m1002355407
Mnf:__ZNSt3__26vectorIN20TextRenderingPrivate8FontImpl13CharacterInfoE13stl_allocatorIS3_L18MemLabelIdentifier1ELi16EEE6insertENS_11__wrap_iterIPKS3_EERS9_
lo:FUNCTION_TABLE_vifiiiiiiiiiiiii
rNk:_Array_CreateInstance_m1027597705
T6f:_TMP_Text_SetFaceColor_m1487954336
Eho:__ZNK15dense_hashtableINSt3__24pairIK10KeyWrapperINS1_IPK10MethodInfoP11Il2CppClassEEEjEES9_17ReflectionMapHashIS8_EN14dense_hash_mapIS9_jSD_NS9_14EqualsComparerINS0_8equal_toIS8_EEEENS0_9allocatorISB_EEE9SelectKeyESI_SK_E8min_sizeEjj
xIj:_Selectable_get_navigation_m3508916916
aJd:__ZN10Effector2D10EndContactEP9b2Contact
nFo:__ZN6il2cpp5utils11StringUtils11Utf16ToUtf8ERKNSt3__212basic_stringIDsNS2_11char_traitsIDsEENS2_9allocatorIDsEEEE
$kk:_MD4Managed_Decode_m4273685594
qbg:_U3CSpawnWormholesU3Ec__Iterator7_MoveNext_m2826318515
_1n:_UnityEngineModuleAssembly__ctor_m242195730
Q$d:__ZN5physx3Cct26CharacterControllerManagerD2Ev
Gvi:__Z57RuntimeInvoker_Quaternion_t2301928331_Vector3_t3722313464PFvvEPK10MethodInfoPvPS4_
HZl:_List_1_Sort_m955247884_gshared
IJi:__Z58RuntimeInvoker_Void_t1185182177_KeyValuePair_2_t2245450819PFvvEPK10MethodInfoPvPS4_
cmh:_Compute_DT_EventArgs__ctor_m1008311213
Wbb:__ZN21LightProbeProxyVolume18HasHardwareSupportEv
t6b:__ZN26LightProbeProxyVolumeCacheC2ER13BatchRendererR15RenderLoopStats
BCk:_IntPtr__ctor_m620280096
sla:__ZN6prcoreL31inner_stretch_argb8888_bilinearEPKNS_9InnerInfoE
rDb:__Z18Transfer_BlittableI18StreamedBinaryReadILb1EELb1E8BitFieldEvRK29SerializationCommandArgumentsR31RuntimeSerializationCommandInfo
svf:_UNITY_FT_Outline_Decompose
XIl:_Enumerator_System_Collections_IEnumerator_get_Current_m3484854280_gshared
ABk:_Int64_System_IConvertible_ToChar_m1509243576_AdjustorThunk
NWb:__ZNK12GraphicsCaps24GetFallbackSampledFormatE14GraphicsFormat
Fcn:_GeneralNames_get_IPAddresses_m4242915644
g6k:_Decimal_op_Implicit_m3873897383
ILl:_Enumerator_Dispose_m3500272053_AdjustorThunk
eKo:_GC_init_size_map
wVg:__ZL84AudioSampleProvider_t3950279772_CustomAttributesCacheGenerator_sampleFramesAvailableP21CustomAttributesCache
nAm:_ReadOnlyCollection_1_System_Collections_IList_RemoveAt_m1118392812_gshared
uQe:__ZN5physx6shdfnd8internal8HashBaseINS0_4PairIKNS3_IPKNS_12PxsRigidCoreEPKNS_12PxsShapeCoreEEEPNS_11PxsCCDShapeEEESA_NS0_4HashISA_EENS1_11HashMapBaseISA_SD_SG_NS0_9AllocatorEE6GetKeyESI_Lb1EE15reserveInternalEj
ZUf:_TMP_Dropdown_set_captionText_m4280879908
ABa:__Z20scripting_object_new17ScriptingClassPtr
CWo:dynCall_iiiiifi
wng:__ZL69RuntimeArray_CustomAttributesCacheGenerator_Array_Reverse_m3714848183P21CustomAttributesCache
tta:__ZN9Scripting5Unity11Collections39NativeMatchesParallelForLengthAttribute12CleanupProxyEv
Pml:_KeyGeneratedEventHandler_Invoke_m2527485594
DGh:_Image_get_layoutPriority_m1290204116
Vhd:__Z16RandomUnitVectorRKN4math7_float4ES2_
rYm:_List_1_get_Item_m200663048_gshared
Ggo:__ZN24dense_hashtable_iteratorINSt3__24pairIK10KeyWrapperINS1_IPK9FieldInfoP11Il2CppClassEEEjEES9_17ReflectionMapHashIS8_EN14dense_hash_mapIS9_jSD_NS9_14EqualsComparerINS0_8equal_toIS8_EEEENS0_9allocatorISB_EEE9SelectKeyESI_SK_E30advance_past_empty_and_deletedEv
wxn:_Repetition_get_Expression_m2673886232
aLe:__ZN5physx2Sc5Scene21setDominanceGroupPairEhhRKNS_20PxDominanceGroupPairE
hcl:_Decimal__ctor_m1925875020_AdjustorThunk
Zra:__ZN9Scripting11UnityEngine6Events14UnityEventBase12CleanupProxyEv
ZGa:__ZN18ShadowMapJobHeaderD0Ev
Gwg:__ZL59SerializationInfo_t950877179_CustomAttributesCacheGeneratorP21CustomAttributesCache
Sah:__ZL72TextMeshProUGUI_t529313277_CustomAttributesCacheGenerator_m_baseMaterialP21CustomAttributesCache
L8c:__ZN16CustomDataModule8TransferI18StreamedBinaryReadILb0EEEEvRT_
P:Math_exp
E$l:_Dictionary_2_ToTKey_m224697230_gshared
bq:FUNCTION_TABLE_iiifi
OAo:__ZN6il2cpp2os5posix13PosixAutoLockD2Ev
aId:__ZN13BoxCollider2D15InitializeClassEv
Nbn:_TlsServerSettings_set_CertificateTypes_m2047242411
hoo:_il2cpp_class_get_name
JDn:_SymmetricTransform_OFB_m3690147804
xai:_InternalEnumerator_1_MoveNext_m3713722659_AdjustorThunk
PDb:__Z30TransferField_LinearCollectionI18StreamedBinaryReadILb1EEEvRK29SerializationCommandArgumentsR31RuntimeSerializationCommandInfo
zJb:__ZN13MonoBehaviour9SetScriptERK4PPtrI10MonoScriptE18ScriptingObjectPtr
TZn:_RaycastHit2D_get_collider_m1549426026
Jwb:__Z18Transfer_BlittableI17RemapPPtrTransferLb0E8Vector2fEvRK29SerializationCommandArgumentsR31RuntimeSerializationCommandInfo
uZk:_Dictionary_2_Do_CopyTo_TisKeyValuePair_2_t727985506_TisKeyValuePair_2_t727985506_m1839692500_gshared
Ryj:_Transform_Translate_m1990195114
tGi:__Z77RuntimeInvoker_Void_t1185182177_Vector2U5BU5DU26_t476646542_Int32_t2950945753PFvvEPK10MethodInfoPvPS4_
BCe:__ZN5physx7NpScene12loadFromDescERKNS_11PxSceneDescE
uJk:_PKCS12_get_RNG_m2649456600
qhb:__ZNK10FileSystem16LastErrorMessageEv
Ofm:_Array_InternalArray__Insert_TisVector3_t3722313464_m3862657277_gshared
qIg:__ZL104NativeClassAttribute_t2601352714_CustomAttributesCacheGenerator_U3CQualifiedNativeNameU3Ek__BackingFieldP21CustomAttributesCache
lFm:_ReadOnlyCollection_1_System_Collections_Generic_IListU3CTU3E_get_Item_m1659090079_gshared
h_a:__ZN15SerializeTraitsI13dynamic_arrayI12SpriteVertexLj0EEE19ResizeSTLStyleArrayERS2_i
I0j:_SecurityException__ctor_m1631242336
Txj:_TouchScreenKeyboard_set_text_m107652927
b5n:__ZN15dense_hashtableINSt3__24pairIK10KeyWrapperIPK11Il2CppClassEPKcEES6_N6il2cpp5utils11PointerHashIS3_EEN14dense_hash_mapIS6_S9_SE_NS6_14EqualsComparerINS0_8equal_toIS5_EEEENS0_9allocatorISA_EEE9SelectKeyESJ_SL_E14squash_deletedEv
pth:_EventSystem_Update_m1662072334
rMc:__ZN11TimeManager16HasFixedTimeStepEv
vYf:_TMP_InputField_set_inputType_m3691041596
hRf:__ZN22UnityWebRequestManager10InitializeEv
jgl:_Enum_ToString_m2477889358
E9a:__ZNSt3__26__treeINS_12__value_typeIN4core12basic_stringIcNS2_20StringStorageDefaultIcEEEE4PPtrI6ObjectEEENS_19__map_value_compareIS6_SA_NS_4lessIS6_EELb1EEE13stl_allocatorISA_L18MemLabelIdentifier52ELi16EEE15__emplace_multiIJRNS_4pairIS6_S9_EEEEENS_15__tree_iteratorISA_PNS_11__tree_nodeISA_PvEEiEEDpOT_
arg:__ZL51FileMode_t1183438340_CustomAttributesCacheGeneratorP21CustomAttributesCache
txb:__ZL26Transfer_SimpleNativeClassI17RemapPPtrTransfer8GradientLb1EEvRK29SerializationCommandArgumentsR31RuntimeSerializationCommandInfo
Tsh:_RaycasterManager_RemoveRaycasters_m3057093063
Y5f:_TMP_Text_set_isVolumetricText_m2363419080
Voc:__ZN12CachedWriter9InitWriteER15CacheWriterBase
zJc:__Z21UnsignedInt64ToStringy
XGj:_GetRaycastNonAllocCallback_BeginInvoke_m3984885848
X1h:_InternalEnumerator_1_MoveNext_m4138204635_AdjustorThunk
Gtn:_PatternCompiler_BeginLink_m1295557963
Rqg:__ZL90BinaryReader_t2428077293_CustomAttributesCacheGenerator_BinaryReader_ReadUInt16_m267781130P21CustomAttributesCache
rFb:__ZN18StreamedBinaryReadILb1EE8TransferI13dynamic_arrayIiLj0EEEEvRT_PKc17TransferMetaFlags
_Ke:__ZN5physx14PxsAABBManager15createAggregateEPvb
Wwn:_Group_GetAnchorInfo_m3730312864
A5g:__ZL50Graphic_t1660335611_CustomAttributesCacheGeneratorP21CustomAttributesCache
gFh:_GridLayoutGroup_set_constraint_m3308895167
Jul:_KeyCollection_System_Collections_Generic_ICollectionU3CTKeyU3E_Add_m454648927_gshared
spm:_TimeSpan_op_LessThanOrEqual_m300470010
_Xg:__ZL139AnimatorOverrideController_t3582062219_CustomAttributesCacheGenerator_AnimatorOverrideController_OnInvalidateOverrideController_m3380737075P21CustomAttributesCache
z6e:__ZN5physx2Sc15ClothFabricCore4loadERKNS_17PxClothFabricDescE
pyc:__Z66Register_UnityEngine_Transform_INTERNAL_CALL_InverseTransformPointv
N6n:__ZNSt3__218uninitialized_fillIPNS_4pairIK10KeyWrapperIPK19Il2CppGenericMethodEPK26Il2CppGenericMethodIndicesEESB_EEvT_SD_RKT0_
iQm:_Nullable_1_GetHashCode_m1030690889_gshared
Tfa:__ZZN15DirectorManager15InitializeClassEvEN41FixedUpdateDirectorFixedUpdateRegistrator7ForwardEv
yGk:_MemoryStream_get_Position_m3733941202
Opn:_ListPool_1_Clear_m2587502754_gshared
ib:invoke_iiiiifiiiif
D1i:_GenericTypeParameterBuilder_InvokeMember_m1647304778
nTn:_AudioClipPlayable_Equals_m3705880618
EFh:_HorizontalOrVerticalLayoutGroup_set_childControlWidth_m3261460516
X1k:_Slot_t3975888750_marshal_pinvoke
p3o:_glLinkProgram__wrapper
Kfb:__ZN18ScriptingArguments8AddInt64Ex
Dka:__ZN6prcoreL12RemapGenericI17TexFormatARGB888815TexFormatBGR888EEvPKNS_9InnerInfoE
xrb:__ZN26SinglePassStereoSupportExt19SaveStereoConstantsEv
sha:__ZNSt3__26vectorIP10MemoryPool13stl_allocatorIS2_L18MemLabelIdentifier76ELi16EEE21__push_back_slow_pathIRKS2_EEvOT_
kyk:_TextInfo_get_ListSeparator_m1628160079
x2g:__ZL77ExecuteEvents_t3484638744_CustomAttributesCacheGenerator_U3CU3Ef__mgU24cache6P21CustomAttributesCache
bdd:__Z20UpdateCustomCurveTplIL27ParticleSystemCurveEvalMode1EEvRK11MinMaxCurveR23ParticleSystemParticlesiijjRKN4math5_int4E
TKj:_Selectable_OnCanvasGroupChanged_m472903475
lmm:_EventWaitHandle_Reset_m3348053200
kbd:__ZNK10SizeModule6UpdateER23ParticleSystemParticlesjj
Qoe:__ZN5physx7NpShape8requiresERNS_23PxProcessPxBaseCallbackE
hvo:__ZN6il2cpp6icalls8mscorlib6System13Globalization11CultureInfo35construct_internal_locale_from_nameEP17Il2CppCultureInfoP12Il2CppString
hSl:_List_1_System_Collections_IList_Add_m2656245659_gshared
Bzb:__ZL22Transfer_ManagedObjectI24GenerateTypeTreeTransferLb1EEvRK29SerializationCommandArgumentsR31RuntimeSerializationCommandInfo
aii:__Z100RuntimeInvoker_Boolean_t97287965_RuntimeObject_Int32_t2950945753_RuntimeObject_UInt16U26_t2814738322PFvvEPK10MethodInfoPvPS4_
RMi:__Z56RuntimeInvoker_ILTokenInfo_t2325775114_Int32_t2950945753PFvvEPK10MethodInfoPvPS4_
ccj:_HMAC_get_BlockSizeValue_m455678067
G0b:__ZN15RenderNodeQueueC2E10MemLabelId
o1m:_Collection_1_System_Collections_ICollection_CopyTo_m1597420376_gshared
FNh:_ResourceEnumerator_FillCache_m1661715061
zjg:_U3CRevealCharactersU3Ec__Iterator0_Dispose_m3637291311
tIm:_ReadOnlyCollection_1_System_Collections_IList_IndexOf_m3664838805_gshared
fBf:__ZL17CleanupModule_TLSv
Iyg:__ZL72SecuritySafeCriticalAttribute_t3505979402_CustomAttributesCacheGeneratorP21CustomAttributesCache
Qk:_emscripten_set_main_loop_timing
efj:_Bounds_get_min_m3755135869
SUj:_Array_InternalArray__IndexOf_TisKeyValuePair_2_t2245450819_m1517102824_gshared
s8k:_Convert_ToUInt16_m3523269149
Tej:_Bounds_get_center_m1418449258
Oaj:_CspParameters_get_Flags_m4238672607
GTb:__ZN14DataBufferGLES12RecordRenderEv
ouh:_ExecuteEvents_get_endDragHandler_m2879610446
qzn:_TMP_TextUtilities_FindIntersectingLink_m2257840797
rXe:__ZNK5physx20SingleAABBUpdateTask7getNameEv
Jdc:__ZN14ImageReference10FlipImageYEv
Ogk:_Interpreter_GetLastDefined_m4107643411
Y7c:__ZN21InheritVelocityModule8TransferI17RemapPPtrTransferEEvRT_
iFk:_FileStream_RefillBuffer_m4186945278
fAa:__ZN21ScalableBufferManager20GetHeightScaleFactorEv
skc:__ZNSt3__26vectorIN9ShaderLab20SerializedSubProgram15VectorParameterENS_9allocatorIS3_EEE8__appendEj
MRn:__ZL25UnresolvedVirtualCall_272P12Il2CppObjectS0_S0_PK10MethodInfo
B8f:_BossBullet_Update_m3668511664
ZM:__ZN4FMOD3DSP9setBypassEb
jhc:__Z19NormalizeWheelInputf
iEh:_Graphic_DoMeshGeneration_m3548487693
igc:__Z29StdTemplateConversionFunctionIsaEbPvR14SafeBinaryRead
sJ:__ZN11KeyframeTplIfE8TransferI14SafeBinaryReadEEvRT_
qC:__ZNK4PPtrI13MonoBehaviourEcvPS0_Ev
Tun:_Repetition__ctor_m1672362629
W3c:__Z29Transfer_Blittable_ArrayFieldI8JSONReadhEvRT_R9ArrayInfoRK23StaticTransferFieldInfo
M1j:_SecurityFrame_ToString_m339310712_AdjustorThunk
IHh:_TypeBuilder_create_runtime_class_m2581270900
noc:__ZN11MonoManager25GetImageFromAssemblyIndexEi
$$h:_InternalEnumerator_1_get_Current_m3008260692_gshared
ote:__ZN5physx2Sc9ClothCore17addCollisionPlaneERKNS_21PxClothCollisionPlaneE
hCa:__ZN22RenderingCommandBuffer20CleanupCommandBufferEv
zFl:_Dictionary_2_System_Collections_IDictionary_GetEnumerator_m1381304260_gshared
i6k:_Decimal_op_Implicit_m2299919277
VLl:_Enumerator_MoveNext_m3275886745_gshared
K_c:__Z18Transfer_BlittableI9JSONWriteLb1EtEvRK29SerializationCommandArgumentsR31RuntimeSerializationCommandInfo
nid:__Z10StartDonutILN11ShapeModule14MultiModeValueE0EEvRS0_R23ParticleSystemParticlesRK19ParticleSystemStateRK27ParticleSystemEmissionStateRKN4math8float3x3ERKNSB_7affineXEjbj
USi:_UnexceptionalStreamReader_ReadToEnd_m920589220
_9k:_DateTime_System_IConvertible_ToType_m1242864300
_3j:_String_IndexOf_m1298810678
jl:___syscall85
cFf:__ZN2UI14CanvasRenderer18UpdateTRSHierarchyEb
z8e:__ZNK5physx13PxHeightField8isKindOfEPKc
v1k:_Mesh_GetAllocArrayFromChannel_TisVector3_t3722313464_m2332439905_gshared
L0b:__ZNSt3__26__sortIRPFbP10GUIElementS2_EPS2_EEvT0_S7_T_
x$i:_ConstructorBuilder_GetILGenerator_m1750792206
p5j:_EncoderFallback_get_ReplacementFallback_m818398284
jDo:__ZN6il2cpp2os6Thread19DetachCurrentThreadEv
Kth:_EventTrigger_OnBeginDrag_m4203438710
w3n:__ZN6il2cpp2vmL21SetupInterfacesLockedEP11Il2CppClassRKNS_2os12FastAutoLockE
bsb:__ZN11MonoManager23VirtualRedirectTransferER24GenerateTypeTreeTransfer
c6e:__ZNK5physx2Sc18ParticleSystemCore16getInternalFlagsEv
IZk:_Dictionary_2_Do_CopyTo_TisRuntimeObject_TisRuntimeObject_m2344529027_gshared
tD:__ZN23AnimationPlayableOutput17SetSourcePlayableEP8Playable
cqd:__ZL24BuildParticleLineSegmentILb1EEvjRPhRKN4math8float4x4EPK15LineBuilderDataRKfSA_11ColorRGBA32
xCo:__ZN6il2cpp2gc16GarbageCollector22MakeDescriptorForArrayEv
Tom:_TimeSpan_CompareTo_m3633415627_AdjustorThunk
b7h:_InternalEnumerator_1_get_Current_m1900477722_gshared
tBk:_Int32_ToString_m2507389746_AdjustorThunk
ZYl:_List_1_System_Collections_IList_Contains_m3829146114_gshared
ehj:_CullingGroup_Dispose_m782801025
I2l:_Dictionary_2_System_Collections_IDictionary_GetEnumerator_m529247385_gshared
w_d:__ZN16ControllerFilter9preFilterERKN5physx12PxFilterDataEPKNS0_7PxShapeEPKNS0_12PxRigidActorERNS0_7PxFlagsINS0_9PxHitFlag4EnumEtEE
w_:__ZN11UnityEngine15CloudWebService14DataDispatcher15SetupWebRequestEv
_7m:_Collection_1_ConvertItem_m492501417_gshared
i8l:_EqualityComparer_1_get_Default_m1038871402_gshared
lLf:__ZN11UnityEngine15PlatformWrapper13GetShaderCapsEv
nWe:__ZN16MBPOS_TmpBuffers16allocateSleepingEjj
oXg:__ZL99CertificateHandler_t2739891000_CustomAttributesCacheGenerator_CertificateHandler_Release_m648790222P21CustomAttributesCache
J1i:_GenericTypeParameterBuilder_IsDefined_m98179866
I_g:__ZL82Physics2D_t1528932956_CustomAttributesCacheGenerator_Physics2D_Raycast_m1377762210P21CustomAttributesCache
Mll:_KeyPairPersistence_get_MachinePath_m3812267291
q3k:_Stack_Peek_m2216191248
N9k:_DateTime_System_IConvertible_ToDecimal_m1044850612_AdjustorThunk
aDc:__ZN21FixedBehaviourManager6UpdateEv
xxc:__ZN9Transform9SetParentEPS_NS_15SetParentOptionE
G8c:__ZN15CollisionModule8TransferI18StreamedBinaryReadILb0EEEEvRT_
E_n:_AnimatorControllerPlayable_SetHandle_m2260644454_AdjustorThunk
tEa:__ZN19ShaderPropertySheet8SetFloatEN9ShaderLab16FastPropertyNameEfNS_8SetFlagsE
w0n:_Physics_Raycast_m952690504
sab:__ZN19RuntimeSceneManager24BeginIntegrateMainThreadEP10UnityScene
wce:__ZN5physx14NpArticulation26setExternalDriveIterationsEj
lRd:__ZN16RayRTreeCallbackILi0ELb0EED0Ev
Wyn:_TMP_TextInfo__ctor_m1227556611
lrk:_TlsServerCertificate_ProcessAsSsl3_m1306583193
L$e:__ZN5physx20PxsParticleSystemSim23scheduleCollisionUpdateERNS_10PxBaseTaskE
XDo:__ZNSt3__2plIcNS_11char_traitsIcEENS_9allocatorIcEEEENS_12basic_stringIT_T0_T1_EERKS9_S6_
SRi:_StringReader_CheckObjectDisposedException_m3796163530
osm:_UInt32_System_IConvertible_ToInt16_m1659441601
wOl:_List_1_System_Collections_IList_get_IsReadOnly_m1922977905_gshared
Dkc:__ZN9ShaderLab20SerializedSubProgramaSERKS0_
$3n:__ZN6il2cpp2vm5Class12GetNamespaceEP11Il2CppClass
EUo:_roundf
pQk:_Byte_System_IConvertible_ToSingle_m324484566_AdjustorThunk
zEi:__Z42RuntimeInvoker_RequirementType_t3584265503PFvvEPK10MethodInfoPvPS4_
g4k:_Decimal_op_Explicit_m2848387298
Ybm:_KeyValuePair_2_ToString_m1238786018_gshared
d1d:__ZN5physx15PxBoxControllerD0Ev
Ow:__ZN8Animator15SetPrepareStageEv
OK:__ZN8AnimatorC2E10MemLabelId18ObjectCreationMode
x3n:__ZN6il2cpp2vmL24SetupTypeHierarchyLockedEP11Il2CppClassRKNS_2os12FastAutoLockE
u3j:_String_Clone_m3573869765
thc:__ZL11TextHandleriPK23EmscriptenKeyboardEventPv
c6b:__Z20CalculateLightMatrixRK15SharedLightDataP10Matrix4x4f
zZb:__ZNSt3__26vectorIP17FileSystemHandlerNS_9allocatorIS2_EEE21__push_back_slow_pathIRKS2_EEvOT_
_mf:_destroy_face
bLn:_Vector3__ctor_m1719387948
_Rc:__Z31Mesh_CUSTOM_get_bounds_InjectedP12Il2CppObjectR4AABB
ZLf:__ZNSt3__26vectorIPN11UnityEngine15CloudWebService14CloudEventInfoE13stl_allocatorIS4_L18MemLabelIdentifier88ELi16EEE21__push_back_slow_pathIS4_EEvOT_
uKd:__ZN5physx19PxAllocatorCallbackD2Ev
JLm:_Comparison_1__ctor_m1312243963_gshared
fhh:__ZL66U3CSpawnU3Ec__Iterator0_t2937824069_CustomAttributesCacheGeneratorP21CustomAttributesCache
DLo:__ZN6il2cpp6icalls8mscorlib6System8Security12Cryptography24RNGCryptoServiceProvider13RngInitializeEP11Il2CppArray
KGg:__ZL68UsedByNativeCodeAttribute_t1703770351_CustomAttributesCacheGeneratorP21CustomAttributesCache
Yjd:__ZN21RotationBySpeedModuleD0Ev
aye:__ZNK5physx15NpActorTemplateINS_16PxParticleSystemEE17getDominanceGroupEv
iS:__ZN20SoundChannelInstance7setMuteEb
jii:__Z81RuntimeInvoker_Void_t1185182177_RuntimeObject_Int32_t2950945753_Int32_t2950945753PFvvEPK10MethodInfoPvPS4_
zmh:_FloatTween_get_ignoreTimeScale_m1816752126
iJa:__ZN4PPtrI5LightE8TransferI19StreamedBinaryWriteILb0EEEEvRT_
J$d:__ZN5physx3Cct26CharacterControllerManager21createObstacleContextEv
aal:_DateTimeUtils_ToString_m1782212840
Jcm:_Array_InternalArray__ICollection_Add_TisVector2_t2156229523_m4029235359_gshared
TZl:_List_1__cctor_m972674764_gshared
eYi:_NumberFormatter_NumberToString_m3906556024
sEb:__Z19TransferField_ArrayI18StreamedBinaryReadILb1EE27Converter_SimpleNativeClassI17AnimationCurveTplIfEEEvRK23StaticTransferFieldInfoR31RuntimeSerializationCommandInfoRT0_
drh:_TextMeshProUGUI_SetSharedMaterial_m2699207012
BId:__ZN7b2World18SetContactListenerEP17b2ContactListener
Tod:__Z19UpdateSingleRow2TplIL27ParticleSystemCurveEvalMode1ELS0_1EEvfRK11MinMaxCurveS3_RK23ParticleSystemParticlesPfbiii
Ozm:_ReadOnlyCollection_1_System_Collections_IList_get_Item_m695218107_gshared
YTb:__ZN18GfxFramebufferGLES22MakeCurrentFramebufferENS_7BuiltinE
RGo:__ZN6il2cpp2vm12MarshalAlloc4FreeEPv
NEe:__ZN5physx6shdfnd5ArrayIPNS_2Sc19ShapeInstancePairLLENS0_19ReflectionAllocatorIS4_EEE15growAndPushBackERKS4_
gIa:__ZN12CachedReader4ReadEPvj
yVe:__ZN5physx21MBPPostUpdateWorkTaskD0Ev
abh:__ZL105TMPro_ExtensionMethods_t1453208966_CustomAttributesCacheGenerator_TMPro_ExtensionMethods_Tint_m3544070525P21CustomAttributesCache
aNh:_TypeFilter_EndInvoke_m998903841
epf:_cf2_blues_init
Kge:__ZN5physx2Sc8BodyCore24clearSpatialAccelerationEbb
x0g:__ZL49Canvas_t3310196443_CustomAttributesCacheGeneratorP21CustomAttributesCache
pLh:_MonoMethod_ShouldPrintFullName_m1607666412
nJn:_Toggle_OnPointerClick_m3526893169
Tcd:__ZNK14RotationModule6UpdateERK27ParticleSystemReadOnlyStateRK19ParticleSystemStateR23ParticleSystemParticlesRKN4math7_float4Ejj
b8:__ZN19RuntimeSceneManagerD2Ev
vpj:_PlayerConnectionInternal__ctor_m2406218802
NNj:_Array_InternalArray__ICollection_Contains_TisKeyValuePair_2_t727985506_m2528174741_gshared
Buk:_CCGregorianCalendar_GetMonth_m1547203696
nMl:_Enumerator_Dispose_m786980821_AdjustorThunk
M$:__ZN11UnityEngine15CloudWebService25WebRequestDownloadHandler17OnCompleteContentEv
mSa:__ZN6prcore17GetIntegerBlitterE13TextureFormatS0_N14ImageReference8BlitModeE
FJo:_GC_print_block_descr
GEe:__ZN5physx10PxsContext20createContactManagerERKNS_24PxvManagerDescRigidRigidEPNS_18PxsMaterialManagerE
Y0m:_Collection_1_IndexOf_m934463944_gshared
hGd:__ZN13BoxCollider2DD0Ev
Zna:__ZL51__ManagedRegistrationHelperFunction_ResourceRequestPv
TCe:__ZN5physx2Cm12DelegateTaskINS_7NpSceneEXadL_ZNS2_12executeSolveEPNS_10PxBaseTaskEEEED0Ev
jQd:__ZN5physx2GuL18gPCMHullPrefetchCBEjPKNS_6PxVec3E
F6d:__ZN5physx2Sc5Scene31removeActiveBreakableConstraintEPNS0_13ConstraintSimE
WFl:_Dictionary_2_ToTKey_m59443895_gshared
Lvj:_RequireComponent__ctor_m1154052627
Uqg:__ZL51Directory_t828876208_CustomAttributesCacheGeneratorP21CustomAttributesCache
hOk:_SimpleEnumerator_Reset_m2182001888
VBm:_ReadOnlyCollection_1_System_Collections_IList_Clear_m1160136535_gshared
WHi:__Z86RuntimeInvoker_Int32_t2950945753_Vector2_t2156229523_Vector2_t2156229523_RuntimeObjectPFvvEPK10MethodInfoPvPS4_
rPc:__ZN9BlobWrite14ReduceCopyImplERK14ReduceCopyDataj
fWj:_Array_LastIndexOf_TisRuntimeObject_m1677937501_gshared
cW:__ZN11AudioSource18IsPlayingScriptingEv
nZh:_InternalEnumerator_1_Dispose_m2018798800_AdjustorThunk
Ell:_KeyBuilder_IV_m2230195376
ZGn:_AnalyticsEventParamListContainer_get_parameters_m4180299006
Syl:_Transform_1_Invoke_m3983555223_gshared
Std:__ZNK12b2WheelJoint10GetAnchorAEv
bJe:__ZN5physx6shdfnd5ArrayINS_12PxActorShapeENS0_19ReflectionAllocatorIS2_EEE15growAndPushBackERKS2_
ejb:__ZN25MultiBlocksMemoryFileData17AdjustBlocksCountEj
iso:__ZNSt3__214__split_bufferIN6il2cpp2vm22EmbeddedResourceRecordERNS_9allocatorIS3_EEED2Ev
jln:_InvokableCall_3_Invoke_m1014600903_gshared
qPj:_Array_InternalArray__ICollection_Remove_TisKeyValuePair_2_t2245450819_m3064110492_gshared
flf:__ZN13TextRendering4Font8TransferI24GenerateTypeTreeTransferEEvRT_
Lnb:__ZN9GfxDevice15EndProfileEventEPN9profiling6MarkerE
YXf:_TMP_InputField_set_onValueChanged_m1887358354
Usc:__Z27CullingGroup_CUSTOM_DisposeP12Il2CppObject
eod:__Z18UpdateSingleRowTplIL27ParticleSystemCurveEvalMode0EEvfRK11MinMaxCurveS3_RK23ParticleSystemParticlesPfbiii
lYn:_CanvasRenderer_INTERNAL_CALL_GetColor_m597074473
Jdi:_Comparer_1__ctor_m319670016_gshared
ule:__ZN5physx2Sc14ConstraintCore8setFlagsENS_7PxFlagsINS_16PxConstraintFlag4EnumEtEE
sn:_glStencilMask
JDo:__ZN6il2cpp2os10ThreadImpl16GetCurrentThreadEv
v7e:__ZNK5physx2Sc15ClothFabricCore20getNbParticleIndicesEv
lhc:__ZN15GUIEventManager10QueueEventERK10InputEvent
yNh:_ResourceReader_ReadNonPredefinedValue_m2638853518
E3m:_Collection_1_Clear_m1300437781_gshared
pbo:_AnalyticsEvent_OnValidationFailed_m2609604624
Hgg:_LinqEnumerator_Reset_m1049794237
pOh:_DecimalConstantAttribute__ctor_m3583301917
w1f:_TMP_SpriteAnimator_DoSpriteAnimation_m4244961026
vvi:__Z116RuntimeInvoker_Vector3_t3722313464_Vector3_t3722313464_Vector3_t3722313464_Vector3U26_t3464235976_Single_t1397266774PFvvEPK10MethodInfoPvPS4_
C7m:_Collection_1_System_Collections_ICollection_get_IsSynchronized_m1640823718_gshared
fJo:_GC_push_conditional_with_exclusions
Kz:__ZN21AnimationPosePlayableD0Ev
wPe:__ZN5physx2Sq8AABBTree11shiftOriginERKNS_6PxVec3E
SAg:__ZL80Convert_t2465617642_CustomAttributesCacheGenerator_Convert_ToDecimal_m2858622624P21CustomAttributesCache
Yxo:__GLOBAL__sub_I_GenericMetadata_cpp
Wmn:__ZN30GenericInterfaceActionInvoker4IP12Il2CppObjectS1_S1_S1_E6InvokeEPK10MethodInfoS1_S1_S1_S1_S1_
F2a:__Z31DrawSpriteDeformedFromNodeQueueRK15RenderNodeQueuej16VertexInputMasksi
pRm:__ZN28GenericInterfaceFuncInvoker1IbDsE6InvokeEPK10MethodInfoP12Il2CppObjectDs
Qyn:_UriParser_InitializeAndValidate_m2008117311
LIo:_GC_make_disappearing_links_disappear
Tyi:__Z71RuntimeInvoker_Boolean_t97287965_AnimatorControllerPlayable_t1015767841PFvvEPK10MethodInfoPvPS4_
Nqg:__ZL58UnicodeCategory_t3356078642_CustomAttributesCacheGeneratorP21CustomAttributesCache
ROm:_Func_3__ctor_m1375075958_gshared
X5d:__ZN5physx2Sc7BodySim6wakeUpEv
OUl:_List_1_Reverse_m3551828919_gshared
O0l:_Dictionary_2_System_Collections_ICollection_get_SyncRoot_m2069913662_gshared
wxh:_UIBehaviour_IsDestroyed_m3033055982
dci:__ZN21InterfaceFuncInvoker1Ii6Guid_tE6InvokeEjP11Il2CppClassP12Il2CppObjectS0_
wEe:__ZN5physx6shdfnd8PoolBaseINS_2Gu30LargePersistentContactManifoldENS0_19ReflectionAllocatorIS3_EEE17releaseEmptySlabsEv
s6d:__ZN5physx2Sc21ConstraintInteraction7destroyEv
WJn:_Enumerator_Reset_m39541243
sUc:__Z33Register_UnityEngine_Random_Rangev
N_m:_Collection_1_System_Collections_IList_get_Item_m2924127876_gshared
GAj:_InputField_get_readOnly_m3111985574
VSe:__ZN5physx13PxsSolverCoreD2Ev
xJa:__ZN14RenderSettings27UpdateIndirectSpecularColorEv
ONg:__ZL59RectOffset_t1369453676_CustomAttributesCacheGenerator_m_PtrP21CustomAttributesCache
Ilj:_Logger_get_logHandler_m1335645353
Y6a:__ZN14PlayerSettings8TransferI18StreamedBinaryReadILb0EEEEvRT_
ywl:_Transform_1__ctor_m2467867069_gshared
Ddo:__ZN6il2cpp6icalls8mscorlib6System8MonoType16GetMethodsByNameEP20Il2CppReflectionTypeP12Il2CppStringibS5_
Bbg:_GameOverMenu_SendScore_m2393156162
Wvg:__ZL73ObjRef_t2141158884_CustomAttributesCacheGenerator_U3CU3Ef__switchU24map26P21CustomAttributesCache
v3g:__ZL102PointerEventData_t3807901092_CustomAttributesCacheGenerator_PointerEventData_set_pointerId_m1888344330P21CustomAttributesCache
MVg:__ZL88AudioClip_t3680889665_CustomAttributesCacheGenerator_AudioClip_get_ambisonic_m3815052287P21CustomAttributesCache
aGe:__ZNK5physx7NpScene16getNbConstraintsEv
WKc:__ZN8Renderer20SetShadowCastingModeE17ShadowCastingMode
aEj:_U3CDelayedSetDirtyU3Ec__Iterator0__ctor_m3936335621
Gqn:_VertexShakeA__ctor_m1957129449
rch:__ZL75TMP_InputField_t1099764886_CustomAttributesCacheGenerator_m_HideMobileInputP21CustomAttributesCache
Zre:__ZN5physx7NpCloth14setWakeCounterEf
dYa:__ZN4PPtrI10GameObjectE8TransferI14SafeBinaryReadEEvRT_
oTn:_AudioClipPlayable_Equals_m3705880618_AdjustorThunk
wQg:__ZL106PlayableAsset_t3219022681_CustomAttributesCacheGenerator_PlayableAsset_Internal_CreatePlayable_m2550417712P21CustomAttributesCache
rBg:__ZL78Convert_t2465617642_CustomAttributesCacheGenerator_Convert_ToSByte_m2486156346P21CustomAttributesCache
b9m:_RijndaelTransform__cctor_m2439033240
cOb:__ZNSt3__27__sort3IRNS_4lessIN22BuiltinResourceManager8ResourceEEEPS3_EEjT0_S7_S7_T_
Qt:__ZN13dynamic_arrayIPN11UnityEngine9Animation23CachedComponentBindingsELj0EE18resize_initializedEjRKS3_12ResizePolicy
Zng:__ZL175U3CGetEnumeratorU3Ec__Iterator0_t1202911786_CustomAttributesCacheGenerator_U3CGetEnumeratorU3Ec__Iterator0_System_Collections_Generic_IEnumeratorU3CTU3E_get_Current_m322251035P21CustomAttributesCache
_xf:_ps_hints_t2mask
j$k:_LayoutGroup_SetProperty_TisVector2_t2156229523_m2721164497_gshared
KPj:_Array_InternalArray__ICollection_Remove_TisMonoResource_t4103430009_m238733686_gshared
Rjh:__ZL109ShaderPropAnimator_t3617420994_CustomAttributesCacheGenerator_ShaderPropAnimator_AnimateProperties_m796027546P21CustomAttributesCache
OLj:_Slider_Set_m1476104429
hNh:__ZN28GenericInterfaceFuncInvoker1IP10Assembly_tP28ResolveEventArgs_t1779456501E6InvokeEPK10MethodInfoP12Il2CppObjectS3_
VFh:_Image_set_fillClockwise_m2210525152
s4a:__ZN10BlendShape8TransferI19StreamedBinaryWriteILb0EEEEvRT_
jEg:__ZL72PKCS12_t4101533061_CustomAttributesCacheGenerator_U3CU3Ef__switchU24mapCP21CustomAttributesCache
Bif:__ZN14PhysicsManagerC2E10MemLabelId18ObjectCreationMode
K8e:__ZNK5physx2Gu11HeightField17getReferenceCountEv
z$k:_Array_InternalArray__get_Item_TisKeyValuePair_2_t625878672_m751890403_gshared
mU:__Z32TransferEnumWithNameForceIntSizeI14SafeBinaryReadN10SampleClip8LoadTypeEEvRT_RT0_PKc17TransferMetaFlags
Qpj:_PlayerConnection_DisconnectedCallback_m1697017309
N5a:__Z19GetTimeSinceStartupv
tGh:_Image_AddQuad_m2161647989
zNa:__ZN7Texture23VirtualRedirectTransferER17RemapPPtrTransfer
Hsh:_BaseInputModule_DeactivateModule_m856719157
zDo:__ZN6il2cpp2os10ThreadImpl11SetPriorityENS0_14ThreadPriorityE
MNl:_Enumerator_System_Collections_IEnumerator_Reset_m2953002685_gshared
bki:__Z50RuntimeInvoker_Int64_t3736567304_Int32_t2950945753PFvvEPK10MethodInfoPvPS4_
uxf:_TT_Load_Composite_Glyph
T4a:__Z33MultiplyMatrixArrayWithBase4x4REFPK10Matrix4x4fS1_S1_PS_j
eLf:__ZN11UnityEngine15PlatformWrapper18GetWin8ScalingModeEv
Onb:__ZN9GfxDevice16DeleteTimerQueryEP13GfxTimerQuery
eYm:_List_1_Insert_m1695211546_gshared
du:__ZL51__ManagedRegistrationHelperFunction_ScaleConstraintPv
Wxi:__Z49RuntimeInvoker_Void_t1185182177_Color_t2555686324PFvvEPK10MethodInfoPvPS4_
Rim:_Array_Resize_TisTMP_WordInfo_t3331066303_m2364034418_gshared
wOa:__ZN9ShaderLab11shaderprops9GetTexEnvEPK19ShaderPropertySheetS3_NS_16FastPropertyNameE16TextureDimensionb
wSm:_List_1_Sort_m3232912161_gshared
f$g:__ZL67ContactFilter2D_t3805203441_CustomAttributesCacheGenerator_maxDepthP21CustomAttributesCache
zCn:_GUILayoutGroup_CalcHeight_m1669391299
B3b:__ZN29RenderNodeQueuePrepareContextC2Ev
Loo:_il2cpp_gc_disable
$Vh:_Promise_1_Reject_m617672045_gshared
Mlc:__ZN9ShaderLab20SerializedSubProgram16TextureParameter8TransferI24GenerateTypeTreeTransferEEvRT_
zta:__ZN9Scripting5Unity11Collections8LowLevel6Unsafe29NativeSetThreadIndexAttribute12CleanupProxyEv
Kbj:_DSASignatureDeformatter_SetKey_m2999549245
$2f:_TMP_SubMeshUI_get_mainTexture_m2995021644
bMo:__ZN6il2cpp2os11MutexHandle4WaitEb
Klb:__ZN9GfxDevice19SaveStereoConstantsEv
aMo:__ZN6il2cpp2os11MutexHandle4WaitEj
ftc:__ZL34GetComponentsImplementationRecurseILb1ELi1ELi1EEbR10GameObjectbRK17CompareParametersRK39GetComponentsImplementation_ReturnValue
lli:__Z114RuntimeInvoker_Boolean_t97287965_RuntimeObject_RuntimeObject_Int32_t2950945753_Int32_t2950945753_Int32_t2950945753PFvvEPK10MethodInfoPvPS4_
T_i:_AssemblyBuilder_GetTypes_m3415680380
Rja:__ZN6prcoreL17RemapGenericFloatI15TexFormatRGHalf18TexFormatARGBFloatEEvPKNS_9InnerInfoE
SGn:_AnalyticsEventParam_get_groupID_m569309506
eel:_StackFrame_GetMethod_m1395840764
AMa:__ZNK13RenderTexture13GetDataHeightEv
_Lb:__Z18SimulateMouseInputi
x$b:__ZN13RenderManager23AddRemoveCamerasDelayedEv
aM:__ZN23PreloadManagerOperation11GetPriorityEv
sDj:_LayoutElement_OnEnable_m1760066426
XHf:__ZN11UnityEngine9Analytics15AnalyticsConfigC2Ev
GYi:_OverflowException__ctor_m4029085969
ROk:_BitConverter__cctor_m3841343255
P3k:_Decimal_Compare_m3062820418
aik:_IntervalCollection_GetMetaCollection_m4029522214
Mdf:__ZNK5Unity5Joint16GetCurrentForcesER8Vector3fS2_
WNb:__ZNSt3__27__sort4IRN10vector_mapIiN17InstancingBatcher12PropertyTypeENS_4lessIiEE13stl_allocatorINS_4pairIiS3_EEL18MemLabelIdentifier1ELi16EEE13value_compareEPS8_EEjT0_SF_SF_SF_T_
lXn:_TextGenerator_get_characterCount_m864136654
$8f:_CollisionCheckerPowerUp_OnCollisionEnter2D_m1489399106
XSn:__ZL25UnresolvedVirtualCall_337P12Il2CppObject19Vector2_t2156229523PK10MethodInfo
uej:_AsyncOperation_t1445031843_marshal_pinvoke_cleanup
uom:_TimeSpan__ctor_m2047388489_AdjustorThunk
pcc:__ZN13RenderTexture8SetWidthEi
LAc:__ZNK28RectTransformPropertyBinding12SetPPtrValueERKN11UnityEngine9Animation10BoundCurveEi
rOb:__ZN18FrameTimingManager18GetVSyncsPerSecondEv
Ijd:__ZN11ColorModuleD0Ev
e2n:_ProgressHandler_t926933139_marshal_pinvoke_back
o1a:__ZN10MeshFilterD0Ev
Ada:__ZN22BuiltinResourceManager16StaticInitializeEPv
u$h:_InternalEnumerator_1__ctor_m1341209356_AdjustorThunk
J4m:_Collection_1_System_Collections_ICollection_CopyTo_m1516601228_gshared
kea:__ZN23DefaultMeshVertexFormatC2E18VertexChannelsInfo
ekh:__ZL66U3CStartU3Ec__Iterator0_t3341539328_CustomAttributesCacheGeneratorP21CustomAttributesCache
Nbm:_KeyValuePair_2_set_Key_m975493760_AdjustorThunk
b7m:_Collection_1_CopyTo_m4278237485_gshared
yzk:_Int16_System_IConvertible_ToDouble_m1661805412
EUh:_MethodCall_get_Uri_m1720935531
wOn:__ZL24UnresolvedVirtualCall_94P12Il2CppObjectS0_S0_iPK10MethodInfo
Zne:__ZNK5physx9NpFactory11getNbShapesEv
Qbm:_KeyValuePair_2_set_Value_m596466564_AdjustorThunk
I7h:_InternalEnumerator_1_MoveNext_m3404184455_gshared
PMn:__ZL23UnresolvedVirtualCall_5P12Il2CppObjectsPK10MethodInfo
ZH:__ZN4PPtrI6AvatarE8TransferI19StreamedBinaryWriteILb0EEEEvRT_
JUl:_List_1_Insert_m4050947056_gshared
$Xk:_Array_Sort_TisVector3_t3722313464_m1030213405_gshared
f3c:__ZN8JSONRead21TransferSTLStyleArrayI13dynamic_arrayI5RectTIiELj0EEEEvRT_17TransferMetaFlags
R5:__ZN9ShaderLab16FastPropertyName4InitEPKc
e3h:_InternalEnumerator_1__ctor_m39232262_AdjustorThunk
Fwi:__Z48RuntimeInvoker_OperatingSystemFamily_t1868066375PFvvEPK10MethodInfoPvPS4_
Ozg:__ZL61Thread_t2300836069_CustomAttributesCacheGenerator_local_slotsP21CustomAttributesCache
ENa:__ZN6ObjectC2E10MemLabelId18ObjectCreationMode
qo:FUNCTION_TABLE_iiiii
zQg:__ZL56PlayableGraph_t3515989261_CustomAttributesCacheGeneratorP21CustomAttributesCache
Q3h:_InternalEnumerator_1_get_Current_m3911557813_AdjustorThunk
QKf:__ZN11UnityEngine15PlatformWrapper19GetPhysicalMemoryMBEv
Dz:__ZN17AnimationPlayable17GetAnimationClipsER13dynamic_arrayIP13AnimationClipLj0EE
ZQk:_Char_System_IConvertible_ToByte_m2347554595_AdjustorThunk
Nio:__ZNK15dense_hashtableINSt3__24pairIK10KeyWrapperINS1_IPK12PropertyInfoP11Il2CppClassEEEjEES9_17ReflectionMapHashIS8_EN14dense_hash_mapIS9_jSD_NS9_14EqualsComparerINS0_8equal_toIS8_EEEENS0_9allocatorISB_EEE9SelectKeyESI_SK_E12test_deletedERK30dense_hashtable_const_iteratorISB_S9_SD_SM_SI_SK_E
yNg:__ZL59TooltipAttribute_t3957072629_CustomAttributesCacheGeneratorP21CustomAttributesCache
x_a:__ZN10VertexData8TransferI17RemapPPtrTransferEEvRT_
Jod:__Z20UpdateWholeSheet2TplIL27ParticleSystemCurveEvalMode0ELS0_2EEvfRK11MinMaxCurveS3_RK23ParticleSystemParticlesPf
s5n:__ZN15dense_hashtableINSt3__24pairIK10KeyWrapperIPK11Il2CppClassEPKcEES6_N6il2cpp5utils11PointerHashIS3_EEN14dense_hash_mapIS6_S9_SE_NS6_14EqualsComparerINS0_8equal_toIS5_EEEENS0_9allocatorISA_EEE9SelectKeyESJ_SL_E13set_empty_keyERKSA_
ysd:__ZN9Scripting11UnityEngine14ContactPoint2D9InitProxyEv
v5j:_String_CreateString_m860434552
sga:__Z18GetDirectorManagerv
mnb:__ZN9GfxDevice14InsertCPUFenceEv
Dtg:__ZL107CriticalFinalizerObject_t701527852_CustomAttributesCacheGenerator_CriticalFinalizerObject__ctor_m3245424448P21CustomAttributesCache
uai:_InternalEnumerator_1_System_Collections_IEnumerator_get_Current_m2649471526_AdjustorThunk
gBk:_Int32_Equals_m2976157357_AdjustorThunk
nxc:__Z38Transform_CUSTOM_INTERNAL_get_rotationP12Il2CppObjectP11Quaternionf
fUg:__ZL99SceneManager_t2787271929_CustomAttributesCacheGenerator_SceneManager_LoadScene_m2298600132____mode1P21CustomAttributesCache
Tqo:__ZNK15dense_hashtableINSt3__24pairIK10KeyWrapperIP11Il2CppClassES4_EES5_N6il2cpp8metadata16SZArrayClassHashEN14dense_hash_mapIS5_S4_SA_NS5_14EqualsComparerINS9_19SZArrayClassCompareEEENS0_9allocatorIS7_EEE9SelectKeyESE_SG_E3endEv
Pwi:__Z73RuntimeInvoker_Single_t1397266774_Vector2_t2156229523_Vector2_t2156229523PFvvEPK10MethodInfoPvPS4_
QVh:_SoapAttribute_get_XmlNamespace_m859394681
tFl:_Dictionary_2_System_Collections_Generic_ICollectionU3CSystem_Collections_Generic_KeyValuePairU3CTKeyU2CTValueU3EU3E_Contains_m2338231611_gshared
Mho:__ZNK15dense_hashtableINSt3__24pairIK10KeyWrapperINS1_IPK10MethodInfoP11Il2CppClassEEEjEES9_17ReflectionMapHashIS8_EN14dense_hash_mapIS9_jSD_NS9_14EqualsComparerINS0_8equal_toIS8_EEEENS0_9allocatorISB_EEE9SelectKeyESI_SK_E5beginEv
zfn:_X509ExtensionCollection_System_Collections_IEnumerable_GetEnumerator_m1475785462
rSb:__ZN7ApiGLES19UploadBufferSubDataEjN2gl12BufferTargetEllPKv
$_n:_SkeletonBone_t4134054672_marshal_pinvoke_cleanup
dQe:__ZN5physx2Sc5Scene17createClothSolverEv
Lia:__ZNSt3__216__rotate_forwardINS_11__wrap_iterIPN4core12basic_stringIcNS2_20StringStorageDefaultIcEEEEEEEET_S9_S9_S9_
cSm:__ZN21InterfaceFuncInvoker0I19Color32_t2600501292E6InvokeEjP11Il2CppClassP12Il2CppObject
iea:__ZdaPv
dwe:__ZNK5physx15PxsParticleData16getMaxParticlesVEv
vKk:_SmallXmlParserException__ctor_m1976648878
aWi:_MulticastDelegate_Equals_m2502840627
u_j:_SymmetricAlgorithm_set_KeySize_m3805756466
yrc:__Z40SpriteRenderer_CUSTOM_INTERNAL_get_colorP12Il2CppObjectP10ColorRGBAf
lgh:__ZL70ValueProperty_t1868393739_CustomAttributesCacheGenerator_m_CustomValueP21CustomAttributesCache
PDf:__Z44Register_UnityEngine_Canvas_get_pixelPerfectv
CVe:__ZN15MBP_PairManager17removeMarkedPairsEPK10MBP_ObjectPN5physx16PxsBroadPhaseMBPERK8BitArrayS8_
tQk:_Byte_System_IConvertible_ToUInt32_m1049546902_AdjustorThunk
ovo:__ZN6il2cpp6icalls8mscorlib6System10Reflection10MonoMethod19GetGenericArgumentsEP22Il2CppReflectionMethod
gui:__Z53RuntimeInvoker_Double_t594665363_Interval_t1802865632PFvvEPK10MethodInfoPvPS4_
mOb:__Z21InitializeBatchedJobsv
fYn:_CanvasGroup_get_blocksRaycasts_m1805542303
cZj:_SHA1Internal_ProcessBlock_m1991889327
tub:__Z19TransferField_ArrayI14SafeBinaryRead27Converter_SimpleNativeClassI8GUIStyleEEvRK23StaticTransferFieldInfoR31RuntimeSerializationCommandInfoRT0_
oIb:__ZN9TextAsset23VirtualRedirectTransferER19StreamedBinaryWriteILb0EE
uvo:__ZN15dense_hashtableINSt3__24pairIK10KeyWrapperIP14Il2CppIUnknownEjEES5_N6il2cpp5utils11PointerHashIS3_EEN14dense_hash_mapIS5_jSB_NS5_14EqualsComparerINS0_8equal_toIS4_EEEENS0_9allocatorIS7_EEE9SelectKeyESG_SI_ED2Ev
gXk:_Array_Sort_TisRuntimeObject_TisRuntimeObject_m1685639929_gshared
phd:__Z25UpdateOrbitalAndRadialTplIL27ParticleSystemCurveEvalMode0ELS0_1ELS0_3EEvRK11MinMaxCurveS3_S3_S3_S3_S3_S3_R23ParticleSystemParticlesjjRKN4math8float3x3ERKNS6_7affineXERKNS6_7_float4E
$nm:_TimerCallback_Invoke_m1938221087
SIa:__ZN14RenderSettings5ResetEv
Joc:__ZN6Sprite9BindAtlasERK4PPtrI11SpriteAtlasE
EZc:__ZN5Unity9rapidjson12GenericValueINS0_4UTF8IcEE13JSONAllocatorE10FindMemberIS4_EENS0_21GenericMemberIteratorILb0ES3_S4_EERKNS1_IS3_T_EE
hig:_U3CStartU3Ec__Iterator0_System_Collections_IEnumerator_get_Current_m3995609180
Ane:__ZN5physx9NpPhysics33unregisterDeletionListenerObjectsERNS_18PxDeletionListenerEPKPKNS_6PxBaseEj
M3h:_InternalEnumerator_1_System_Collections_IEnumerator_get_Current_m3892960115_AdjustorThunk
doc:__ZN9ShaderLabL18AddPropertyToArrayERK19ShaderPropertySheetR13dynamic_arrayIiLj0EERKNS_8FloatValE
Xte:__ZNK5physx2Sc9ClothCore22getAngularInertiaScaleEv
DDn:_SymmetricTransform_Finalize_m4129642865
WSk:_ArrayList_Clone_m2682741233
MQl:_List_1_IndexOf_m654529719_gshared
z5k:_Convert_ToDateTime_m1800003024
xKh:_MonoEventInfo_t346866618_marshal_pinvoke_cleanup
ocj:_HMAC_HashCore_m3684104066
dOf:__Z13RegisterClassI20UnityConnectSettingsEvPKc
uNm:__ZN28GenericInterfaceFuncInvoker2Ii20UIVertex_t4057497605S0_E6InvokeEPK10MethodInfoP12Il2CppObjectS0_S0_
RYc:__ZN5Unity9rapidjson13GenericReaderINS0_4UTF8IcEES3_13JSONAllocatorE11ParseNumberILj1ENS0_25GenericInsituStringStreamIS3_EENS0_15GenericDocumentIS3_S4_S4_EEEEvRT0_RT1_
hfe:__ZN5physx20NpRigidActorTemplateINS_18PxArticulationLinkEE12setActorFlagENS_11PxActorFlag4EnumEb
kKf:__ZN22BaseUnityConnectClient20StartEventDispatcherEv
U1a:__ZN14SpriteRenderer14OnChangeSpriteEv
D8m:_Collection_1_RemoveItem_m2911050674_gshared
_hi:__Z79RuntimeInvoker_UInt16_t2177724958_RuntimeObject_Int32_t2950945753_RuntimeObjectPFvvEPK10MethodInfoPvPS4_
tDo:__ZN6il2cpp2os10ThreadImplD2Ev
mNg:__ZL56ResetInputAxis_t866062302_CustomAttributesCacheGeneratorP21CustomAttributesCache
wqd:__ZN14ParticleSystem18MarkAllSubEmittersEPS_
TZc:__ZN8Gradient8TransferI9JSONWriteEEvRT_
mSh:_ContextCallbackObject__ctor_m3499682402
YCi:__Z90RuntimeInvoker_Boolean_t97287965_Vector3_t3722313464_Vector3_t3722313464_Int32_t2950945753PFvvEPK10MethodInfoPvPS4_
v_g:__ZL81TextEditor_t2759855366_CustomAttributesCacheGenerator_TextEditor__ctor_m242049450P21CustomAttributesCache
U3k:_Convert_ToBoolean_m2833621053
Dwa:__ZNK12TLSAllocatorI14StackAllocatorE22GetAllocatedMemorySizeEv
H$m:__ZN23InterfaceActionInvoker2Ii26ResolveHandler_t4124874245E6InvokeEjP11Il2CppClassP12Il2CppObjectiS0_
bFg:__ZL62WebHeaderCollection_t1942268960_CustomAttributesCacheGeneratorP21CustomAttributesCache
iNc:__Z32GetSceneHierarchyPathDescriptivePK6Object
z7l:_EqualityComparer_1_System_Collections_IEqualityComparer_GetHashCode_m2138064395_gshared
pT:__ZNK7WeakPtrI20SoundChannelInstanceE10SharedData9GetRawPtrEv
agb:__ZN12HandlerChain4NameEv
Tyc:__ZN17AnimationCurveTplIfE15SetPostInfinityE8WrapMode
Lzk:_Int16_System_IConvertible_ToType_m3672347013_AdjustorThunk
tEk:_EndOfStreamException__ctor_m1590165188
Fn:FUNCTION_TABLE_fiiiiiifiiiiiif
SAk:_Int32_System_IConvertible_ToType_m3009233912_AdjustorThunk
qAk:_Int16_ToString_m2013897809
R2e:__ZN5physx37setupFinalizeSolverConstraintsCoulombERNS_13PxcNpWorkUnitERKNS_2Gu13ContactBufferERKNS_27PxcCorrelationBufferCoulombERKNS_11PxTransformESB_bPhRKNS_13PxcSolverBodyESF_RKNS_17PxcSolverBodyDataESI_ffjffff
jgd:__Z25UpdateOrbitalAndRadialTplIL27ParticleSystemCurveEvalMode2ELS0_1ELS0_3EEvRK11MinMaxCurveS3_S3_S3_S3_S3_S3_R23ParticleSystemParticlesjjRKN4math8float3x3ERKNS6_7affineXERKNS6_7_float4E
vFf:__Z44Register_UnityEngine_CanvasRenderer_get_cullv
y2n:__ZN15dense_hashtableINSt3__24pairIK10KeyWrapperIPK22Il2CppGenericParameterEP11Il2CppClassEES6_N6il2cpp5utils11PointerHashIS4_EEN14dense_hash_mapIS6_S9_SE_NS6_14EqualsComparerINS0_8equal_toIS5_EEEENS0_9allocatorISA_EEE9SelectKeyESJ_SL_ED2Ev
e1k:_ScriptableObject_CreateInstance_TisRuntimeObject_m1552711675_gshared
s1j:_SecurityException_get_PermissionType_m2237538728
Kgc:__Z29StdTemplateConversionFunctionIbbEbPvR14SafeBinaryRead
kro:__ZNSt3__214__split_bufferIN6il2cpp8metadata18GenericArrayMethodERNS_9allocatorIS3_EEEC2EjjS6_
sKf:__ZN11UnityEngine7Connect17XRDeviceInfoEvent12XRDeviceInfoD2Ev
wsb:__Z44InitializeTransferFunctionScriptingTraitsForI17RemapPPtrTransferEvR31TransferFunctionScriptingTraits
uDj:_LayoutElement_OnDisable_m3869995817
wBc:__ZNSt3__26vectorI16MessageForwarder13stl_allocatorIS1_L18MemLabelIdentifier7ELi8EEE6resizeEj
kek:_X509Chain_SelectBestFromCollection_m1068759221
MDn:_SymmetricTransform_TransformBlock_m851059707
Sbd:__Z19UpdateProceduralTplIL27ParticleSystemCurveEvalMode4EEvRK20DualMinMaxPolyCurvesR23ParticleSystemParticlesPfRKN4math7_float4E
Sym:_Collection_1_System_Collections_IList_get_IsReadOnly_m2978442176_gshared
DZm:_Enumerator_System_Collections_IEnumerator_Reset_m2261065994_AdjustorThunk
EJj:_ScrollRect_get_verticalNormalizedPosition_m3693218937
DUe:__ZN5physx31ComputeCreatedDeletedPairsListsEPKjS1_jRPNS_17PxcBroadPhasePairERjS5_S4_S5_S5_RNS_14SapPairManagerE
rab:__ZN18LoadSceneOperation21MustCompleteNextFrameEv
QLj:_Slider_UpdateDrag_m1102107039
ALh:_MonoMethodInfo_get_method_info_m88651774
Awk:_DateTimeFormatInfo_get_PMDesignator_m1609519124
IV:__ZNK12AudioManager16GetAudioListenerEv
e4o:_pthread_mutex_lock__wrapper
CAk:_Int32_System_IConvertible_ToDateTime_m1824716955
U0l:_Dictionary_2_System_Collections_Generic_ICollectionU3CSystem_Collections_Generic_KeyValuePairU3CTKeyU2CTValueU3EU3E_CopyTo_m331407443_gshared
MDo:__ZN6il2cpp2osL23CleanupThreadIfCanceledEPv
ICm:_ReadOnlyCollection_1_System_Collections_IList_get_IsFixedSize_m26770954_gshared
d9i:_RuntimeTypeHandle__ctor_m3315980708_AdjustorThunk
lyg:__ZL69IIdentityPermissionFactory_t3268650966_CustomAttributesCacheGeneratorP21CustomAttributesCache
mIl:_Dictionary_2_Resize_m536405636_gshared
Ubc:__ZNSt3__26vectorI11CameraStackNS_9allocatorIS1_EEE8__appendEj
P4l:_DefaultComparer_Equals_m2585095694_gshared
EZe:__ZN5physx2Gu16pcmContactBoxBoxERKNS0_13GeometryUnionES3_RKNS_11PxTransformES6_RKfRNS0_5CacheERNS0_13ContactBufferE
Hlj:_Logger_set_filterLogType_m3622751173
x7i:__ZN25GenericVirtActionInvoker1I28StreamingContext_t3711869237E6InvokeEPK10MethodInfoP12Il2CppObjectS0_
znn:_UnityEvent_1_GetDelegate_m25714567_gshared
aXl:_List_1_System_Collections_IList_Contains_m776542980_gshared
my:__ZN7mecanim9animation12GetHumanPoseERKNS0_18ClipMuscleConstantEPKNS0_10ValueDeltaERNS_5human9HumanPoseE
uIf:__ZN11UnityEngine9Analytics15UserCustomEvent12CustomParams6InsertEPKcRNS1_11CustomValueE
gA:__ZN22AnimationMixerPlayable17ProcessRootMotionEP35AnimationPlayableEvaluationConstantP32AnimationPlayableEvaluationInputP33AnimationPlayableEvaluationOutput
p2l:_Dictionary_2__ctor_m518943619_gshared
XBb:__Z29Transfer_Blittable_ArrayFieldI19StreamedBinaryWriteILb0EEjEvRT_R9ArrayInfoRK23StaticTransferFieldInfo
Iba:__Z13GetFileSystemv
OEc:__ZZL23RegisterLightPropertiesR22GenericPropertyBindingEN29Wrapper_LightColorTemperature13SetFloatValueEPvf
SUn:_AudioSourceExtension_ExtensionUpdate_m2790353999
eea:__ZN13RuntimeStaticI15GUIEventManagerLb0EE16StaticInitializeEPv
Toj:_MonoBehaviour_IsObjectMonoBehaviour_m2134950949
yqh:_TextMeshProUGUI_Rebuild_m2217366760
JGb:__ZL12InvokeMethodI18StreamedBinaryReadILb0EEEvRK29SerializationCommandArgumentsR31RuntimeSerializationCommandInfo
IOd:__ZN15RaycastCallback14processTouchesEPKN5physx12PxRaycastHitEj
foa:__ZL45__ManagedRegistrationHelperFunction_Texture2DPv
udi:_Comparer_1__cctor_m2209434164_gshared
Jum:_Version_CompareTo_m3146217210
uvd:__ZN24RigidbodyMovementState2D21ResetAngularMoveStateEv
Y1a:__ZThn32_N14SpriteRenderer15AddAsRenderNodeER15RenderNodeQueueRK20DeprecatedSourceData
w6c:__Z32TransferEnumWithNameForceIntSizeI14SafeBinaryReadN15CollisionModule4ModeEEvRT_RT0_PKc17TransferMetaFlags
_cm:_Array_InternalArray__ICollection_CopyTo_TisKeyValuePair_2_t71524366_m1056941380_gshared
W9e:__ZN5physx2Gu5RTree15exportExtraDataERNS_22PxSerializationContextE
Opm:_Type_get_IsClass_m589177581
vHg:__ZL62NativeTypeAttribute_t2250406315_CustomAttributesCacheGeneratorP21CustomAttributesCache
x4j:_String_ReplaceUnchecked_m1381393810
IEb:__Z29Transfer_Blittable_ArrayFieldI18StreamedBinaryReadILb1EE5RectTIfEEvRT_R9ArrayInfoRK23StaticTransferFieldInfo
Jrb:__ZN19ShaderPropertySheet9SetMatrixEN9ShaderLab16FastPropertyNameERK10Matrix4x4fNS_8SetFlagsE
ghh:__ZL108U3CSpawnU3Ec__Iterator0_t2937824069_CustomAttributesCacheGenerator_U3CSpawnU3Ec__Iterator0__ctor_m3257505222P21CustomAttributesCache
YLi:__Z91RuntimeInvoker_Void_t1185182177_TextAlignmentOptionsU5BU5DU26_t1394617819_Int32_t2950945753PFvvEPK10MethodInfoPvPS4_
wUa:__Z29GetTextureSizeAllowedMultiple13TextureFormat
mPe:__ZNK5physx2Sq10AABBPruner7overlapERKNS0_9ShapeDataERNS0_14PrunerCallbackE
Scl:_Decimal_Subtract_m835601464
PZb:__ZZ23InitPlayerLoopCallbacksvEN52InitializationAsyncUploadTimeSlicedUpdateRegistrator7ForwardEv
UBc:__Z46CleanupSpriteRendererAnimationBindingInterfacev
_Wj:_Array_InternalArray__ICollection_Add_TisBoolean_t97287965_m1361760099_gshared
osj:_Quaternion_Internal_ToEulerRad_m1503250752
yfk:_X509ExtensionCollection_get_IsSynchronized_m2607599544
som:_TimeSpan__ctor_m3689759052_AdjustorThunk
xhd:__Z25UpdateOrbitalAndRadialTplIL27ParticleSystemCurveEvalMode0ELS0_2ELS0_4EEvRK11MinMaxCurveS3_S3_S3_S3_S3_S3_R23ParticleSystemParticlesjjRKN4math8float3x3ERKNS6_7affineXERKNS6_7_float4E
Wno:_il2cpp_array_element_size
xEe:__ZN5physx6shdfnd5ArrayIPvNS0_19ReflectionAllocatorINS_2Gu30LargePersistentContactManifoldEEEE4copyINS0_15InlineAllocatorILj256ES6_EEEEvRKNS1_IS2_T_EE
nOa:__ZN19ShaderPropertySheet22CopyVectorPropertyFromERKS_i
Tkg:__ZL62ComVisibleAttribute_t1362837655_CustomAttributesCacheGeneratorP21CustomAttributesCache
LSm:_List_1_System_Collections_IEnumerable_GetEnumerator_m1824431956_gshared
xxa:__ZNSt3__26__treeINS_12__value_typeIN4core12basic_stringIcNS2_20StringStorageDefaultIcEEEEjEENS_19__map_value_compareIS6_S7_NS_4lessIS6_EELb1EEE13stl_allocatorIS7_L18MemLabelIdentifier7ELi16EEE25__emplace_unique_key_argsIS6_JNS_4pairIS6_jEEEEENSH_INS_15__tree_iteratorIS7_PNS_11__tree_nodeIS7_PvEEiEEbEERKT_DpOT0_
Tuj:_RectTransform_INTERNAL_set_sizeDelta_m188783163
Lg:_glCheckFramebufferStatus
hLo:__ZN6il2cpp2os11EventHandle4WaitEv
aXh:_U3CGetEnumeratorU3Ec__Iterator0_System_Collections_Generic_IEnumeratorU3CTU3E_get_Current_m9057020_gshared
O7:__Z43scripting_class_get_method_from_name_filter17ScriptingClassPtrPKciN24ScriptingMethodFiltering18MethodSearchFilterEPK16ScriptingTypePtr
LFf:__Z13RegisterClassIN2UI6CanvasEEvPKc
s9:__ZN4core8hash_setINS_4pairIKi17ThreadedAwakeDataLb0EEENS_9hash_pairINS_4hashIiEES2_S3_EENS_10equal_pairINSt3__28equal_toIiEES2_S3_EEE4growEv
y1:__ZN19CloudServiceHandler20StartEventDispatcherERKN11UnityEngine15CloudWebService18CloudServiceConfigERNS1_23WebRequestRestHeaderMapE
IEh:_GraphicRaycaster__ctor_m646559428
p5e:__ZN5physx2Cm12DelegateTaskINS_2Sc5SceneEXadL_ZNS3_19updateCCDSinglePassEPNS_10PxBaseTaskEEEE11runInternalEv
unk:_CipherSuite_get_CipherAlgorithmType_m137858741
q1d:__ZN5physx6string9sprintf_sEPcjPKcz
Nud:__ZNK15b2DistanceJoint17GetReactionTorqueEf
Ocf:__ZThn8_N5physx19TriangleMeshBuilderD1Ev
RUk:_BitArrayEnumerator_get_Current_m4220391712
bKi:__Z54RuntimeInvoker_Void_t1185182177_SpriteData_t3048397587PFvvEPK10MethodInfoPvPS4_
qZi:__Z37il2cpp_codegen_get_executing_assemblyPK10MethodInfo
S9j:_HttpWebRequest_GetServicePoint_m2640244283
nvj:_Transform_get_parent_m835071599
t9:__ZN4core8hash_setINS_4pairIKi17ThreadedAwakeDataLb0EEENS_9hash_pairINS_4hashIiEES2_S3_EENS_10equal_pairINSt3__28equal_toIiEES2_S3_EEE4growEi
bSd:__ZN5physx2Gu16intersectRayAABBERKNS_6PxVec3ES3_S3_S3_RfS4_
$eb:__ZN9Transform23VirtualRedirectTransferER17RemapPPtrTransfer
qak:_IPAddress_get_ScopeId_m4237202723
tra:__ZN9Scripting11UnityEngine12Experimental10PlayerLoop9PreUpdate12CleanupProxyEv
yx:__ZN21AnimationClipPlayable7SetTimeEd
Xun:_ExpressionCollection_get_Item_m3510736379
s5g:__ZL62FontData_t746620069_CustomAttributesCacheGenerator_m_AlignmentP21CustomAttributesCache
vwh:_StandaloneInputModule_get_inputActionsPerSecond_m3946624274
Ilm:_UTF8Encoding_InternalGetCharCount_m82458470
$Kn:_Vector2__cctor_m2108982652
Ywi:__Z72RuntimeInvoker_Boolean_t97287965_Vector4_t3319028937_Vector4_t3319028937PFvvEPK10MethodInfoPvPS4_
zEc:__ZZL23RegisterLightPropertiesR22GenericPropertyBindingEN22Wrapper_LightIntensity13GetFloatValueEPv
kGi:__Z77RuntimeInvoker_Boolean_t97287965_ContentTypeU26_t1583467619_Int32_t2950945753PFvvEPK10MethodInfoPvPS4_
kpa:__ZN9Scripting11UnityEngine9Rendering20SphericalHarmonicsL29InitProxyEv
V9h:_InternalEnumerator_1_MoveNext_m2734554195_AdjustorThunk
Z2e:__ZN5physx30setupFinalizeSolverConstraintsERNS_13PxcNpWorkUnitERKNS_2Gu13ContactBufferERKNS_20PxcCorrelationBufferERKNS_11PxTransformESB_bPhRKNS_13PxcSolverBodyESF_RKNS_17PxcSolverBodyDataESI_ffffff
xvo:__ZN14dense_hash_mapI10KeyWrapperIP14Il2CppIUnknownEjN6il2cpp5utils11PointerHashIS1_EENS3_14EqualsComparerINSt3__28equal_toIS2_EEEENS9_9allocatorINS9_4pairIKS3_jEEEEE15set_deleted_keyERSF_
Yqc:__ZN19SpriteMeshGenerator12path_segment12max_distanceENSt3__26vectorINS_6vertexENS1_9allocatorIS3_EEEEii
pke:__ZN5physx7NpScene17releaseBatchQueryEPNS_12PxBatchQueryE
Epo:__ZN6il2cpp2gc9AllocatorIP12Il2CppThreadE10deallocateEPvj
VBe:__ZN5physx20NpRigidActorTemplateINS_13PxRigidStaticEE11attachShapeERNS_7PxShapeE
pko:__ZN13Il2CppHashMapIPK14Il2CppAssemblyPK22Il2CppMonoAssemblyNameN6il2cpp5utils11PointerHashIS1_EENSt3__28equal_toIS2_EENSA_9allocatorINSA_4pairIK10KeyWrapperIS2_ES5_EEEEEC2EjRKS9_RKSC_
Avc:__ZN9Scripting39GetScriptingArrayStringElementNoRefImplE17ScriptingArrayPtri
q2e:__ZN5physx26solveVBlockDefaultFrictionEPNS_13PxsSolverCoreEfjjPNS_13PxcSolverBodyEPNS_17PxcSolverBodyDataEjjPNS_25PxcArticulationSolverDescEjPNS_23PxcSolverConstraintDescEjS9_jRNS_6shdfnd5ArrayINS_24PxsConstraintBatchHeaderENSA_19ReflectionAllocatorISC_EEEESG_PNS_2Cm13SpatialVectorEPNS_25PxcThresholdStreamElementEjRj
RLk:_DelegatePInvokeWrapper_AppDomainInitializer_t682969308
ERg:__ZL141SupportedRenderingFeatures_t353898663_CustomAttributesCacheGenerator_SupportedRenderingFeatures_IsMixedLightingModeSupportedByRef_m2282093837P21CustomAttributesCache
Die:__ZN5physx15NpActorTemplateINS_18PxArticulationLinkEE17resolveReferencesERNS_24PxDeserializationContextE
Jfd:__Z25UpdateOrbitalAndRadialTplIL27ParticleSystemCurveEvalMode1ELS0_1ELS0_1EEvRK11MinMaxCurveS3_S3_S3_S3_S3_S3_R23ParticleSystemParticlesjjRKN4math8float3x3ERKNS6_7affineXERKNS6_7_float4E
Naa:__ZN8Remapper6RemoveEi
$mn:_UnityEvent_1__ctor_m3777630589_gshared
b2m:_Collection_1_System_Collections_IList_IndexOf_m3538466904_gshared
SLe:__ZN5physx19NpRigidBodyTemplateINS_18PxArticulationLinkEE9visualizeERNS_2Cm12RenderOutputEPNS_7NpSceneE
yTe:__ZN5physx11writeBack1DERKNS_23PxcSolverConstraintDescERNS_16PxcSolverContextERNS_17PxcSolverBodyDataES6_
ijn:_TMP_XmlTagStack_1_SetDefault_m3926551933_AdjustorThunk
q7j:_Encoding_GetBytes_m3148649984
rOc:__ZN9Scripting27CreateArgumentNullExceptionEPKc
Unf:__ZL36CleanupTextRenderingScriptingClassesv
qRd:__ZThn4_N16RayRTreeCallbackILi0ELb0EED0Ev
mcc:__ZN15ReflectionProbe17UseRendererResultEP13ProbeRenderer
WRc:__Z34Mesh_CUSTOM_SetArrayForChannelImplP12Il2CppObject30InternalScriptingShaderChannel34InternalScriptingVertexChannelTypeiP11Il2CppArrayi
S7:__Z32scripting_class_get_nested_types17ScriptingClassPtrRNSt3__26vectorIS_13stl_allocatorIS_L18MemLabelIdentifier1ELi16EEEE
nYn:_CanvasRenderer_INTERNAL_CALL_EnableRectClipping_m3318097918
ftm:_UInt64_System_IConvertible_ToDecimal_m806594027_AdjustorThunk
Lma:__ZL58__ManagedRegistrationHelperFunction_MaterialEffectPlayablePv
Kch:__ZL68TMP_InputField_t1099764886_CustomAttributesCacheGenerator_m_ReadOnlyP21CustomAttributesCache
rOf:__ZN11UnityEngine7Connect20RemoteConfigSettings18StaticCallOnUpdateEPS1_
Gnn:_UnityEvent_1_GetDelegate_m274387680_gshared
Ypl:_Enumerator_get_CurrentValue_m3103267885_gshared
WWl:_List_1__ctor_m3395838871_gshared
Mvk:_CultureInfo_get_Parent_m672689885
XTi:_MissingMemberException__ctor_m2571045846
xTg:__ZL93AnimationCurve_t3046754366_CustomAttributesCacheGenerator_AnimationCurve_Evaluate_m2125563588P21CustomAttributesCache
Vio:__ZN15dense_hashtableINSt3__24pairIK10KeyWrapperINS1_IPK12PropertyInfoP11Il2CppClassEEEjEES9_17ReflectionMapHashIS8_EN14dense_hash_mapIS9_jSD_NS9_14EqualsComparerINS0_8equal_toIS8_EEEENS0_9allocatorISB_EEE9SelectKeyESI_SK_ED2Ev
KKe:__ZNK5physx2Sc5Scene20getNbParticleSystemsEv
QL:__ZN9Scripting11UnityEngine18AssetBundleRequest9InitProxyEv
Vcn:_PKCS12__ctor_m1854440921
xim:_Array_Resize_TisCustomAttributeNamedArgument_t287865710_m885566878_gshared
Nca:__ZN17TransformInternal19FreeTransformThreadER18TransformHierarchyjj
vu:__ZN9Scripting11UnityEngine12SkeletonBone12CleanupProxyEv
v3l:_DefaultComparer__ctor_m2556554241_gshared
Lv:__ZN11UnityEngine9Animation28GenericAnimationBindingCache25RegisterIAnimationBindingEPKN5Unity4TypeEiP17IAnimationBinding
VSk:_ArrayList_ToArray_m3439706433
sOe:__ZN5physx2Gu17GetGeomSweepFuncsEv
k8d:__ZN5physx6shdfnd8PoolBaseINS_15PxsArticulationENS0_16AlignedAllocatorILj64ENS0_9AllocatorEEEE17releaseEmptySlabsEv
nEk:_DirectoryInfo__ctor_m481305441
mVo:dynCall_viiffiii
zfk:_X509ExtensionCollection_get_SyncRoot_m2667861032
o3n:__ZN6il2cpp2vm5Class15GetElementClassEP11Il2CppClass
Epc:__ZNK6Sprite15GenerateOutlineEfhbRNSt3__26vectorI13dynamic_arrayI8Vector2fLj0EENS0_9allocatorIS4_EEEEi
Q5:__ZN10MemoryPoolC2E10MemLabelIdbPKciii
Ave:__ZN5physx22NpParticleBaseTemplateINS_15PxParticleFluidENS_15NpParticleFluidEE23setParticleReadDataFlagENS_22PxParticleReadDataFlag4EnumEb
Dvm:_Collection_1_SetItem_m941095285_gshared
Zxm:__ZN21InterfaceFuncInvoker1Ib19Vector3_t3722313464E6InvokeEjP11Il2CppClassP12Il2CppObjectS0_
yHf:__ZN14UnityAnalytics25UnregisterGlobalCallbacksEv
VFi:__Z80RuntimeInvoker_Boolean_t97287965_ColorBlockU26_t337120346_ColorBlock_t2139031574PFvvEPK10MethodInfoPvPS4_
Eac:__Z40ProcessCameraIndexListIsNodeVisibleInOutRK22SceneCullingParametersPK9SceneNodePK4AABBR9IndexList
HCn:_GUIScrollGroup_SetHorizontal_m291416666
XHa:__ZN16GraphicsSettings8TransferI17RemapPPtrTransferEEvRT_
sGf:__ZN2UI6Canvas13UpdateBatchesEb
gck:_X509BasicConstraintsExtension_Decode_m120598446
qD:__ZNK23AnimationPlayableOutput11DerivesFromE17ScriptingClassPtr
USa:__ZN7Texture19SupportsAsyncUploadI19StreamedBinaryWriteILb0EEEEbRT_
uwi:__Z49RuntimeInvoker_Boolean_t97287965_Rect_t2360479859PFvvEPK10MethodInfoPvPS4_
TZo:_glGetShaderInfoLog__wrapper
C7i:_ObjectReader_ReadObjectGraph_m340866276
qUg:__ZL101Transform_t3600365921_CustomAttributesCacheGenerator_Transform_INTERNAL_get_localRotation_m1111330565P21CustomAttributesCache
dpe:__ZN5physx2Gu5Debug9visualizeERKNS_13PxBoxGeometryERNS_2Cm12RenderOutputERKNS5_8Matrix34ERKNS_9PxBounds3Eyfj
ztl:_KeyCollection_System_Collections_IEnumerable_GetEnumerator_m462018897_gshared
Z$m:_Collection_1_System_Collections_IList_Contains_m3515532313_gshared
Pqi:__Z51RuntimeInvoker_UInt32_t2560061978_Int16_t2552820387PFvvEPK10MethodInfoPvPS4_
DPb:__ZNK13GfxDeviceGLES12GetWireframeEv
UDn:_DelegatePInvokeWrapper_Action_t1264377477
oWd:__ZN5physx6shdfnd5ArrayIPKvNS0_19ReflectionAllocatorIS3_EEE6resizeEjRKS3_
pEl:_ValueCollection_CopyTo_m3747598240_gshared
iXj:_Array_InternalArray__ICollection_Add_TisKeyValuePair_2_t2245450819_m3591771797_gshared
KLf:__ZN11UnityEngine7Connect13ConfigHandler12GetListenersERKN4core12basic_stringIcNS2_20StringStorageDefaultIcEEEE
Kmb:__ZN9GfxDevice18AllocRenderSurfaceEb
SQk:_Char__cctor_m2787437263
d3e:__ZN5physx31setupFinalizeSolverConstraints4EPNS_21PxcSolverContact4DescERNS_18PxcNpThreadContextEPhffRKNS_6shdfnd3aos5Vec4VES9_S9_S9_
LGe:__ZN5physx7NpScene5flushEb
hHc:__ZN10TagManager32GetSortingLayerUniqueIDFromValueEi
VJf:__ZN11UnityEngine7Connect15DeviceInfoEvent7GFXInfoD2Ev
Kxh:_AspectRatioFitter_get_rectTransform_m2996235303
G7:__ZL27CleanupCoreScriptingClassesv
pwk:_DateTimeFormatInfo_get_IsReadOnly_m1173781646
dQj:_Array_InternalArray__ICollection_Remove_TisContentType_t1128941285_m2281326462_gshared
Yod:__Z19UpdateSingleRow2TplIL27ParticleSystemCurveEvalMode2ELS0_1EEvfRK11MinMaxCurveS3_RK23ParticleSystemParticlesPfbiii
lFe:__ZThn8_N5physx2Sc24ElementInteractionMarker10onActivateEj
t$d:__ZThn8_N5physx3Cct17CapsuleController15getPxControllerEv
Fei:_Comparer_1_System_Collections_IComparer_Compare_m1313384821_gshared
uEj:_LayoutRebuilder_GetHashCode_m1943075341
b2i:_GenericTypeParameterBuilder_MakeGenericType_m3048165991
Uyc:__Z26AnimationCurve_CUSTOM_InitP12Il2CppObjectP11Il2CppArray
M1o:_glUniform1uiv__wrapper
Bwd:__ZNK14b2PolygonShape5CloneEP16b2BlockAllocator
ako:__ZN6il2cpp2vm10Reflection7IsEventEP12Il2CppObject
wOo:__ZNSt3__26__treeINS_12__value_typeIPFvvEPK10MethodInfoEENS_19__map_value_compareIS3_S7_NS_4lessIS3_EELb1EEENS_9allocatorIS7_EEE16__insert_node_atEPNS_16__tree_node_baseIPvEERSI_SI_
Oaa:__ZN17PersistentManager26GetStreamNameSpaceInternalEi
iPl:_List_1__cctor_m2829153476_gshared
_S:__ZN4FMOD6System11createSoundEPKcjP22FMOD_CREATESOUNDEXINFOPPNS_5SoundE
kp:FUNCTION_TABLE_iiifiiii
Z9h:_InternalEnumerator_1_System_Collections_IEnumerator_Reset_m1451164462_AdjustorThunk
Jjf:__ZN13SpeedTreeWind20AdvanceWithoutUpdateEd
ybm:_KeyValuePair_2_ToString_m823870646_AdjustorThunk
Dvc:__Z48Register_UnityEngine_Material_get_shaderKeywordsv
M9k:_DateTime_System_IConvertible_ToDecimal_m1044850612
CWl:_List_1_IndexOf_m2206067159_gshared
Wdk:_X509Store_get_Factory_m3282910266
Chf:__ZThn128_N5physx7profile8ZoneImplINS_28PxProfileNameProviderForwardEED1Ev
M6:__ZN9ShaderLab19CommonPropertyNames13StaticCleanupEPv
baa:__Z31scripting_method_get_returntype18ScriptingMethodPtr
JPe:__ZN5physx2Sq17AABBTreeUpdateMap10invalidateEjjRNS0_8AABBTreeE
eOn:__ZL24UnresolvedVirtualCall_76P12Il2CppObjectPK10MethodInfo
_Ya:__ZN15SerializeTraitsI12LightmapDataE8TransferI24GenerateTypeTreeTransferEEvRS0_RT_
S$j:_SecurityElement_AddAttribute_m311510562
xta:__ZN9Scripting5Unity11Collections44NativeDisableParallelForRestrictionAttribute12CleanupProxyEv
v2e:__ZN5physx28solveParallelDefaultFrictionERNS_18PxsDynamicsContextEjjPNS_13PxcSolverBodyEPNS_17PxcSolverBodyDataEjjPNS_25PxcArticulationSolverDescEjPNS_23PxcSolverConstraintDescEjS9_jPiSA_SA_SA_SA_SA_PNS_25PxcThresholdStreamElementEjSA_PNS_2Cm13SpatialVectorEPKPNS_11PxsBodyCoreERNSD_10BitMapBaseINS_6shdfnd9AllocatorEEEPKPNS_15PxsArticulationEjPViRNSL_5ArrayINS_24PxsConstraintBatchHeaderENSL_19ReflectionAllocatorISW_EEEES10_RNSV_IjNSX_IjEEEES13_PPNS_12PxsRigidBodyEj
VRn:__ZL25UnresolvedVirtualCall_281P12Il2CppObject22Navigation_t3049316579PK10MethodInfo
ZZo:_glStencilOpSeparate__wrapper
LLc:__ZN4Mesh5SetUvEiPKfjj
KWa:__ZN7Texture13SetAnisoLimitENS_20AnisotropicFilteringE
yxa:__ZNSt3__26__treeINS_12__value_typeIjN4core12basic_stringIcNS2_20StringStorageDefaultIcEEEEEENS_19__map_value_compareIjS7_NS_4lessIjEELb1EEE13stl_allocatorIS7_L18MemLabelIdentifier7ELi16EEE25__emplace_unique_key_argsIjJNS_4pairIjS6_EEEEENSH_INS_15__tree_iteratorIS7_PNS_11__tree_nodeIS7_PvEEiEEbEERKT_DpOT0_
Mx:__ZN21AnimationClipPlayable22PrepareAnimationEventsEfR13dynamic_arrayI22AnimationClipEventInfoLj0EE
HOk:_Attribute_IsDefined_m4069052474
Fi:_emscripten_glCompressedTexSubImage2D
wVb:__ZN13GfxDeviceGLES22MemoryBarrierImmediateEyN2gl17MemoryBarrierTypeE
Im:_abort
NCj:_U3CCaretBlinkU3Ec__Iterator0_Dispose_m860898205
tka:__ZN6prcoreL26RemapGenericFloatToIntegerI18TexFormatARGBFloat17TexFormatARGB8888EEvPKNS_9InnerInfoE
cAd:__ZN14qsort_internal5QSortIPN35b2SynchronizeContinuousFixturesTask14b2DeferredMoveEiPFbRKS2_S5_EEEvT_S8_T0_T1_
pYm:_List_1_set_Capacity_m1977188119_gshared
avl:_ShimEnumerator_Reset_m4072444564_gshared
ENc:__Z46GetShaderModelNumericValueFromRequirementsMask18ShaderRequirements
glm:_UTF7Encoding_InternalGetBytes_m797138468
$Ic:__ZN6Object27GetOffsetOfInstanceIdMemberEv
Krf:_cff_ps_has_glyph_names
Tcf:__ZN5physx15writeWordBufferEPKtjbRNS_14PxOutputStreamE
T2l:_Dictionary_2_Resize_m3287623642_gshared
JHo:_GC_write
lxi:__Z98RuntimeInvoker_Boolean_t97287965_PlayableOutputHandle_t4208053793_PlayableOutputHandle_t4208053793PFvvEPK10MethodInfoPvPS4_
EBi:__Z68RuntimeInvoker_Void_t1185182177_Single_t1397266774_SByte_t1669577662PFvvEPK10MethodInfoPvPS4_
Mdh:__ZL75TMP_Settings_t2071156274_CustomAttributesCacheGenerator_m_linebreakingRulesP21CustomAttributesCache
yXg:__ZL57UploadHandlerRaw_t25761545_CustomAttributesCacheGeneratorP21CustomAttributesCache
Ys:__ZN17ConstraintManagerD2Ev
Hcj:_HMACSHA512_set_ProduceLegacyHmacValues_m3961135292
zNn:__ZL24UnresolvedVirtualCall_43P12Il2CppObjectS0_PK10MethodInfo
A$l:_Dictionary_2_Remove_m4193450060_gshared
Rpc:__Z13tessTesselateP14TESStesselatoriiiiPKf
T7c:__ZN10SizeModule8TransferI17RemapPPtrTransferEEvRT_
xkl:_ASN1_get_Tag_m1032367219
nIn:_StandardEventPayload_set_name_m549984672
mCk:_Int64_TryParse_m3606398488
q5i:_RemotingServices_IsTransparentProxy_m1535738947
Ggm:_Array_InternalArray__set_Item_TisMark_t3471605523_m1299772331_gshared
uXc:__Z44Register_UnityEngine_GUIStyle_SetDefaultFontv
Lpc:__ZN19SpriteMeshGenerator9MakeShapeEP11ColorRGBA32iifhbjfi
zCb:__Z18Transfer_BlittableI18StreamedBinaryReadILb1EELb1EiEvRK29SerializationCommandArgumentsR31RuntimeSerializationCommandInfo
tF:__ZN9BlobWrite8TransferI22OffsetPtrArrayTransferIKN4math7_float3EEEEvRT_PKc17TransferMetaFlags
J4a:__ZN16MeshSkinningData14GetBoneWeightsEi
rli:__Z173RuntimeInvoker_Int32_t2950945753_RuntimeObject_Int32_t2950945753_Int32_t2950945753_Int32_t2950945753_RuntimeObject_Int32_t2950945753_SByte_t1669577662_ContextU26_t3937453398PFvvEPK10MethodInfoPvPS4_
JRm:_List_1__ctor_m2576108087_gshared
Rio:__ZN15dense_hashtableINSt3__24pairIK10KeyWrapperINS1_IPK12PropertyInfoP11Il2CppClassEEEjEES9_17ReflectionMapHashIS8_EN14dense_hash_mapIS9_jSD_NS9_14EqualsComparerINS0_8equal_toIS8_EEEENS0_9allocatorISB_EEE9SelectKeyESI_SK_E12maybe_shrinkEv
Z5d:__ZN5physx2Sc7BodySim37checkSleepReadinessBesidesWakeCounterEv
yPn:__ZL25UnresolvedVirtualCall_150P12Il2CppObject19Vector2_t2156229523S1_fiPK10MethodInfo
qdn:_X509Certificate_get_DSA_m565099499
_Cb:__Z18Transfer_BlittableI18StreamedBinaryReadILb1EELb1EsEvRK29SerializationCommandArgumentsR31RuntimeSerializationCommandInfo
Sjm:_StringBuilder_Remove_m940064945
ebg:_U3CSpawnEnemyType3WaveU3Ec__Iterator8_Dispose_m2078918315
N6a:__ZN14SafeBinaryRead21TransferSTLStyleArrayI13dynamic_arrayI16SplashScreenLogoLj0EEEEvRT_17TransferMetaFlags
pqb:__ZN13dynamic_arrayIN16GeometryJobTasks15GeometryJobTaskELj0EE18resize_initializedEjRKS1_12ResizePolicy
zvl:_ShimEnumerator_get_Key_m2888790658_gshared
gMi:__Z81RuntimeInvoker_Void_t1185182177_OrderBlockU5BU5DU26_t2778271506_Int32_t2950945753PFvvEPK10MethodInfoPvPS4_
u9l:_GenericComparer_1__ctor_m1900257738_gshared
Sod:__Z19UpdateSingleRow2TplIL27ParticleSystemCurveEvalMode1ELS0_2EEvfRK11MinMaxCurveS3_RK23ParticleSystemParticlesPfbiii
QWa:__ZL21SetAnisoLimitEnumImplN7Texture20AnisotropicFilteringEb
FLf:__ZN22BaseUnityConnectClient17OnEnterStateReadyEv
Iye:__ZNK5physx22NpParticleBaseTemplateINS_16PxParticleSystemENS_16NpParticleSystemEE15getMaxParticlesEv
Eje:__ZN5physx2Sc16ArticulationCore14setWakeCounterEf
_Ne:__ZN5physx13PxsCCDContextD2Ev
GMj:_Text_get_fontSize_m1677872538
Srl:_Enumerator_System_Collections_IEnumerator_Reset_m3448033483_AdjustorThunk
nVl:_List_1_System_Collections_IList_get_Item_m995551621_gshared
ara:__ZN9Scripting11UnityEngine12Experimental9Rendering15ShadowSplitData9InitProxyEv
DPd:__ZN5physx2Gu9ContainerD2Ev
qzc:__Z29Input_CUSTOM_GetMouseButtonUpi
VXd:__ZN5physx2Gu12selectNormalEhff
beo:__ZN6il2cpp6icalls8mscorlib6System8MonoType16InternalGetEventEP20Il2CppReflectionTypeP12Il2CppStringi
nef:__Z13RegisterClassI9RigidbodyEvPKc
Uhh:__ZL135U3CSpawnEnemyType2WaveU3Ec__Iterator6_t3481562367_CustomAttributesCacheGenerator_U3CSpawnEnemyType2WaveU3Ec__Iterator6_Reset_m568262172P21CustomAttributesCache
Jyn:_UriScheme_t722425697_marshal_pinvoke_back
Ctf:_UNITY_tt_face_load_maxp
Gzc:__Z46Input_CUSTOM_INTERNAL_set_compositionCursorPosRK13Vector2fIcall
qx:__ZN7mecanim5human12FullBodyMaskEv
ixe:__ZN5physx3Scb14ParticleSystem16releaseParticlesEjRKNS_16PxStrideIteratorIKjEE
x2b:__ZN13BatchRenderer15ApplyShaderPassER17ShaderPassContextPK18SharedMaterialDataP6ShaderPN9ShaderLab4PassEi13BatchingFlagsbbPKNS7_10GrabPassesEPK22DeviceRenderStateBlock
C2a:__ZN19ShaderPropertySheet11ComputeHashEv
y7n:__ZN30dense_hashtable_const_iteratorI10KeyWrapperIPK19Il2CppGenericMethodES4_N6il2cpp8metadata23Il2CppGenericMethodHashEN14dense_hash_setIS4_S7_NS4_14EqualsComparerINS6_26Il2CppGenericMethodCompareEEENSt3__29allocatorIS4_EEE8IdentityESB_SE_EppEv
UJe:__ZN5physx2Sc5Scene21processLostTouchPairsEv
fxd:__ZN12b2EPCollider24ComputePolygonSeparationEv
WDb:__ZN4PPtrI6ObjectE8TransferI18StreamedBinaryReadILb1EEEEvRT_
wCm:_ReadOnlyCollection_1_System_Collections_ICollection_CopyTo_m95132623_gshared
v$:__ZN11UnityEngine15CloudWebService20WebRequestRestClient6IsDoneEv
a5f:_TMP_Text_get_firstOverflowCharacterIndex_m2980550079
swn:_Group__ctor_m2980794822
ran:_X509CertificateCollection_get_Item_m1033426577
Ijn:_CachedInvokableCall_1_Invoke_m502907382_gshared
_Fg:__ZL79Enumerable_t538148348_CustomAttributesCacheGenerator_Enumerable_Any_m1084009618P21CustomAttributesCache
Cj:_llvm_fabs_f32
__:__ZN11UnityEngine15CloudWebService16SessionContainer16GetJsonDataBlockEjRKN4core12basic_stringIcNS2_20StringStorageDefaultIcEEEERS6_PjSA_
L1f:_TMP_SpriteAsset_GetSpriteIndexFromName_m4129359537
lMd:__ZThn28_N14PhysicsManager7onSleepEPPN5physx7PxActorEj
tkl:_ASN1_Decode_m1695284166
eXg:__ZL100UnityWebRequest_t463507806_CustomAttributesCacheGenerator_UnityWebRequest_BeginWebRequest_m464964044P21CustomAttributesCache
QGa:__ZNK4PPtrI20OcclusionCullingDataEcvPS0_Ev
jnk:__ZN23GenericVirtFuncInvoker0IP28ValidationResult_t3834298736E6InvokeEPK10MethodInfoP12Il2CppObject
Nko:__ZN15dense_hashtableINSt3__24pairIK10KeyWrapperIPK14Il2CppAssemblyEPK22Il2CppMonoAssemblyNameEES6_N6il2cpp5utils11PointerHashIS4_EEN14dense_hash_mapIS6_SA_SF_NS6_14EqualsComparerINS0_8equal_toIS5_EEEENS0_9allocatorISB_EEE9SelectKeyESK_SM_E13set_empty_keyERKSB_
kYe:__ZN5physx22PxcContactConvexConvexERKNS_2Gu13GeometryUnionES3_RKNS_11PxTransformES6_RKfRNS_10PxcNpCacheERNS0_13ContactBufferE
Ifl:_Enum_ToString_m3248653065
nlf:__ZN18StreamedBinaryReadILb0EE21TransferSTLStyleArrayI13dynamic_arrayIcLj0EEEEvRT_17TransferMetaFlags
fQh:_ChannelServices__cctor_m2475086854
aQd:__ZNK5physx2Gu11ConvexHullV12HillClimbingERKNS_6shdfnd3aos5Vec3VE
ODe:__ZNK5physx2Sc17ParticleSystemSim7getCoreEv
f9:__ZN14SafeBinaryReadD2Ev
Qck:_X509BasicConstraintsExtension_CopyFrom_m1931463033
Ywe:__ZN5physx2Sc18ParticleSystemCore10setDampingEf
TNl:_Enumerator_MoveNext_m3859993671_gshared
Kkf:__ZN14SafeBinaryRead21TransferSTLStyleArrayI13dynamic_arrayIN20TextRenderingPrivate8FontImpl13CharacterInfoELj0EEEEvRT_17TransferMetaFlags
oEb:__ZN8Gradient8TransferI18StreamedBinaryReadILb1EEEEvRT_
Jjk:_SequentialSearchPrimeGeneratorBase_IsPrimeAcceptable_m1127740833
Tfk:_Capture__ctor_m3103117740
_Sg:__ZL74Input_t1431474628_CustomAttributesCacheGenerator_Input_GetAxis_m4009438427P21CustomAttributesCache
pki:__Z113RuntimeInvoker_Void_t1185182177_RuntimeObject_Int64_t3736567304_RuntimeObject_Int64_t3736567304_Int64_t3736567304PFvvEPK10MethodInfoPvPS4_
Ksm:_UInt32_CompareTo_m2218823230
I2d:__ZN5physx2Sc10NPhaseCore16deleteFilterPairEPNS0_10FilterPairE
bQj:_Array_InternalArray__ICollection_Remove_TisTMP_CharacterInfo_t3185626797_m1831411579_gshared
ujd:__ZN14ParticleSystem15ThreadedCleanupEv
Ysj:_RangeInt_get_end_m4128831787_AdjustorThunk
Vuo:__ZN6il2cpp6icalls8mscorlib6System4Type15MakeGenericTypeEP20Il2CppReflectionTypeP11Il2CppArray
Qef:_PxCreateBasePhysics
ywj:_Shader__ctor_m837260462
ck:_SDL_PauseAudio
oGi:__Z72RuntimeInvoker_Boolean_t97287965_Int64_t3736567304_ObjectU26_t2146539884PFvvEPK10MethodInfoPvPS4_
nqj:_Object_Internal_InstantiateSingle_m4074556765
roo:_il2cpp_class_from_type
bfo:__ZN6il2cpp2os4File11GetStdErrorEv
ukg:_TMP_TextSelector_B__ctor_m619334773
DRc:__Z48Register_UnityEngine_Camera_set_orthographicSizev
i_n:_AnimationLayerMixerPlayable__ctor_m860721801
J6d:__ZN5physx2Sc5Scene28addActiveBreakableConstraintEPNS0_13ConstraintSimE
L6:__ZN9ShaderLab19CommonPropertyNames16StaticInitializeEPv
Jle:__ZN5physx6shdfnd8PoolBaseINS_16NpParticleSystemENS0_19ReflectionAllocatorIS2_EEE15disposeElementsEv
Ucb:__ZN13MemoryManager31DisallowAllocationsOnThisThreadEv
Iyi:__Z74RuntimeInvoker_UnityWebRequestError_t359680823_RuntimeObject_RuntimeObjectPFvvEPK10MethodInfoPvPS4_
mdi:_Comparer_1__cctor_m2517796511_gshared
Xv:__ZN7mecanim9animation18CreateAvatarOutputEPKNS0_14AvatarConstantEbbRNS_6memory9AllocatorE
Yhf:__ZN5physx7profile11EventBufferINS_24PxDefaultContextProviderENS_6shdfnd6MutexTINS0_26WrapperReflectionAllocatorIhEEEENS0_14ScopedLockImplIS7_EENS_24PxProfileNullEventFilterEE10eventValueEtyx
srk:_TlsServerCertificateRequest_Update_m2763887540
Hed:__Z14UpdateSpeedTplIL27ParticleSystemCurveEvalMode1EEvRK11MinMaxCurveR23ParticleSystemParticlesjj
wLj:_Slider_set_maxValue_m2251404465
xGn:_UnityWebRequestAsyncOperation__ctor_m1252495487
fMj:_SpriteState_get_pressedSprite_m3868967445_AdjustorThunk
bS:__ZN11AudioSource23VirtualRedirectTransferER24GenerateTypeTreeTransfer
YRd:__ZN5physx2Gu11getBoxEdgesEv
Dmj:_Material_CopyPropertiesFromMaterial_m2896226580
IMf:__ZN22BaseUnityConnectClient13ResumeSessionEv
tRa:__ZN14Texture2DArray23VirtualRedirectTransferER14SafeBinaryRead
_Ti:_MissingMemberException__ctor_m1220732369
k5b:__ZNK6Camera21CalculateCanDoShadowsEv
tIe:__ZNK5physx2Sc5Scene17getBroadPhaseCapsERNS_16PxBroadPhaseCapsE
qBi:__Z52RuntimeInvoker_Void_t1185182177_Int32U26_t1369213839PFvvEPK10MethodInfoPvPS4_
vie:__ZN5physx9NpFactory14onActorReleaseEPNS_7PxActorE
Udj:_Application_InvokeOnBeforeRender_m2875673833
oIl:_Dictionary_2_Clear_m2536615998_gshared
L8d:__ZN5physx2Sc5Actor15onElementAttachERNS0_7ElementE
NFj:_MaskableGraphic_RecalculateMasking_m183336762
R$k:_Array_InternalArray__get_Item_TisRuntimeObject_m3347010206_gshared
Axi:__Z38RuntimeInvoker_LightmapsMode_t12202505PFvvEPK10MethodInfoPvPS4_
nIh:_TypeBuilder_IsSubclassOf_m3458909121
f_i:_Default_check_arguments_with_score_m3467814020
vVo:dynCall_viffii
Jwe:__ZN5physx2Sc18ParticleSystemCore23setSimulationFilterDataERKNS_12PxFilterDataE
xFb:__Z18Transfer_BlittableI18StreamedBinaryReadILb0EELb1EhEvRK29SerializationCommandArgumentsR31RuntimeSerializationCommandInfo
MJk:_X509Certificate__cctor_m198658613
mHc:__ZL24GenerateTilingJobCombineP22GenerateTilingAreaInfo
oJ:__ZN14SafeBinaryRead21TransferSTLStyleArrayI13dynamic_arrayI11KeyframeTplIfELj0EEEEvRT_17TransferMetaFlags
$qj:_PlayableHandle_Equals_m1666612586_AdjustorThunk
$ja:__ZN6prcoreL27StretchGenericFloatBilinearI15TexFormatRFloatEEvPKNS_9InnerInfoE
BVj:_Array_InternalArray__IndexOf_TisSpriteData_t3048397587_m1184765788_gshared
COe:__ZN5physx6shdfnd8internal8HashBaseINS0_4PairIKNS_2Sq13PrunerPayloadEjEES5_NS0_4HashIS5_EENS1_11HashMapBaseIS5_jS9_NS0_9AllocatorEE6GetKeyESB_Lb1EE15reserveInternalEj
aFg:__ZL139ServicePointManager_t170559685_CustomAttributesCacheGenerator_ServicePointManager_t170559685____CheckCertificateRevocationList_PropertyInfoP21CustomAttributesCache
KP:__ZNK11AudioSource19GetFilterComponentsERNSt3__26vectorIPN4FMOD3DSPENS0_9allocatorIS4_EEEEb
jA:__Z24ProcessAnimationMixBeginP35AnimationPlayableEvaluationConstantP32AnimationPlayableEvaluationInputP33AnimationPlayableEvaluationOutput
hIk:_StreamWriter_LowLevelWrite_m1081676583
M_a:__ZN19StreamedBinaryWriteILb0EE21TransferSTLStyleArrayI13dynamic_arrayI8Vector2fLj0EEEEvRT_17TransferMetaFlags
eVa:__Z14PadImageBorderR14ImageReferenceii
rho:__ZN15dense_hashtableINSt3__24pairIK10KeyWrapperINS1_IPK10MethodInfoP11Il2CppClassEEEjEES9_17ReflectionMapHashIS8_EN14dense_hash_mapIS9_jSD_NS9_14EqualsComparerINS0_8equal_toIS8_EEEENS0_9allocatorISB_EEE9SelectKeyESI_SK_E4findERSA_
Iao:__ZN6il2cpp2vm13MetadataCache28GetFieldDefaultValueForFieldEPK9FieldInfo
zUj:_Array_IndexOf_TisUIVertex_t4057497605_m3336763564_gshared
qRn:__ZL25UnresolvedVirtualCall_250P12Il2CppObjectiaPK10MethodInfo
NGm:__ZN21InterfaceFuncInvoker1I22OrderBlock_t1585977831iE6InvokeEjP11Il2CppClassP12Il2CppObjecti
w4f:_TMP_Text_set_outlineWidth_m3845803135
NA:__ZN27AnimationLayerMixerPlayableD2Ev
Szh:_ColorBlock_Equals_m518833916_AdjustorThunk
oSe:__ZN5physx2Gu22gjkRelativePenetrationINS0_9TriangleVENS0_8CapsuleVEEEjRKT_RKT0_RKNS_6shdfnd3aos15PsMatTransformVERKNSB_6FloatVERNSB_5Vec3VESJ_SJ_RSF_PhSL_Rh
FUl:_List_1_GetEnumerator_m2838255531_gshared
ANo:__ZN6il2cpp2os9FastMutexC2Ev
pLd:__ZN9Rigidbody14SetIsKinematicEb
a0h:_InternalEnumerator_1_System_Collections_IEnumerator_get_Current_m1514266661_AdjustorThunk
aO:__ZN12AudioManager39HandlePendingAudioConfigurationCallbackEv
moa:__ZL43__ManagedRegistrationHelperFunction_Vector3Pv
cl:_emscripten_glIsFramebuffer
Uml:_RSAManaged_EncryptValue_m799827583
ybc:__ZN12_GLOBAL__N_16qAtan2Eff
Chi:__Z61RuntimeInvoker_UInt32_t2560061978_RuntimeObject_RuntimeObjectPFvvEPK10MethodInfoPvPS4_
xnm:_ThreadAbortException__ctor_m1955533141
gl:_JS_Sound_SetLoopPoints
iWn:_RestClient_Post_m775137210
qMo:__ZN6il2cpp2vm26MetadataAllocGenericMethodEv
VPj:_Array_InternalArray__ICollection_Remove_TisUInt16_t2177724958_m1766181761_gshared
MXb:__ZN19ConstantBuffersGLES12RecordRenderEv
dOe:__ZN5physx13ActorAABBTaskD2Ev
Inn:_UnityEvent_1__ctor_m3675246889_gshared
J$c:__ZN9JSONWrite8TransferI10RectOffsetEEvRT_PKc17TransferMetaFlags
zXf:_TMP_InputField_get_textComponent_m3597517520
XUa:__ZN4crnd12symbol_codec11decode_bitsEj
OGi:__Z59RuntimeInvoker_Boolean_t97287965_KeyValuePair_2_t3842366416PFvvEPK10MethodInfoPvPS4_
Clk:_EncryptedPrivateKeyInfo__ctor_m3415744930
Bxd:__ZN15b2CircleContact8EvaluateEP10b2ManifoldRK11b2TransformS4_
Abk:_AsnEncodedData__ctor_m3792312694
eEn:_AesManaged_GenerateIV_m1368817386
$Cc:__ZN21FixedBehaviourManagerD0Ev
Y0f:_TMP_Settings_get_defaultTextMeshProUITextContainerSize_m3222036350
mN:__ZN4FMOD6System12createReverbEPPNS_6ReverbE
NFo:__ZN6il2cpp2vm6String21InitializeEmptyStringEP11Il2CppClass
end:__ZL17DrawMeshParticlesILb1EL25ParticleSystemRenderSpace1EEvRK26ParticleSystemTempMeshDataRK22ParticleSystemTempDataRK23ParticleSystemParticlesRK31ParticleSystemParticlesTempDataRK26ParticleSystemRendererDataRK21ParticleSystemModulesPfPv
Shh:__ZL173U3CSpawnEnemyType2WaveU3Ec__Iterator6_t3481562367_CustomAttributesCacheGenerator_U3CSpawnEnemyType2WaveU3Ec__Iterator6_System_Collections_IEnumerator_get_Current_m2756915713P21CustomAttributesCache
EA:__ZN7mecanim19ValueArrayBlendNodeILb1EEEvRKNS_10ValueArrayERKNS_14ValueArrayMaskERS1_RS4_RNS_16ValueArrayWeightEf
faj:_CodeAccessPermission_GetHashCode_m880096813
Wcb:__Z16MarkDependenciesR27GarbageCollectorThreadStatej
sZi:_AssemblyConfigurationAttribute__ctor_m3236176989
pTl:_List_1_System_Collections_IList_get_IsReadOnly_m1080071399_gshared
MOl:_List_1_FindIndex_m2077705310_gshared
gWh:_Action_1_EndInvoke_m1146224530_gshared
_pn:_ObjectPool_1_get_countInactive_m526975942_gshared
qNn:__ZL24UnresolvedVirtualCall_34P12Il2CppObjectPK10MethodInfo
s4i:_RemotingServices_DisposeIdentity_m2605848806
Yia:__ZNK9Transform11GetPositionEv
ole:__ZN5physx12NpConstraint8requiresERNS_23PxProcessPxBaseCallbackE
iCd:__ZNK29b2ClearContactIslandFlagsTask13GetRangeCountEv
Cyk:_GuidParser_Reset_m2640004655
Zlh:_ColorTween_AddOnChangedCallback_m2712346959_AdjustorThunk
FPl:_List_1_AsReadOnly_m289902294_gshared
trc:__ZN23SharedMeshRenderingData18UnloadVertexStreamEi
t0d:__ZN5physx3Cct13HandleManager3AddEPv
hJc:__ZN31CanvasBatchIntermediateRenderer11AddSubBatchERK16DrawBuffersRangePK19ShaderPropertySheet
TEc:__ZN19RenderEventsContextC2Ei
SY:__Z6simd4fRKf
bUg:__ZL67SceneManager_t2787271929_CustomAttributesCacheGenerator_sceneLoadedP21CustomAttributesCache
bxk:_GregorianCalendar_GetEra_m2369958449
Kl:_emscripten_glEnable
I1h:_InternalEnumerator_1_System_Collections_IEnumerator_get_Current_m2982675020_gshared
smd:__ZNK14ParticleSystem16GetParticleCountEv
mxa:__ZN10TagManager23VirtualRedirectTransferER14SafeBinaryRead
Y6g:__ZL51RawImage_t3182918964_CustomAttributesCacheGeneratorP21CustomAttributesCache
w7e:__ZNK5physx2Sc15ClothFabricCore9getNbSetsEv
Tym:_Collection_1_System_Collections_IList_get_Item_m2931804586_gshared
kKn:_UnityException__ctor_m1456865679
_3i:_ObjRef_get_EnvoyInfo_m1782007847
uga:__ZN14PlayableOutput26ClearInvalidSourcePlayableEv
g8b:__Z15InitLightMeshesv
wSf:__Z60Register_UnityEngine_Networking_DownloadHandlerBuffer_Createv
$0n:_RaycastHit_get_collider_m1464180279
AHe:__ZNK5physx7NpScene26getNbContactDataBlocksUsedEv
Do:FUNCTION_TABLE_iifiii
LTd:__ZN5physx2Gu29computeCapsule_HeightFieldMTDERKNS_21PxHeightFieldGeometryERKNS_11PxTransformERNS0_8CapsuleVEffbjRNS_10PxSweepHitE
O2n:__ZNK15dense_hashtableINSt3__24pairIK10KeyWrapperIPK22Il2CppGenericParameterEP11Il2CppClassEES6_N6il2cpp5utils11PointerHashIS4_EEN14dense_hash_mapIS6_S9_SE_NS6_14EqualsComparerINS0_8equal_toIS5_EEEENS0_9allocatorISA_EEE9SelectKeyESJ_SL_E10test_emptyEj
ZCe:__ZNK5physx2Cm12DelegateTaskINS_7NpSceneEXadL_ZNS2_14executeCollideEPNS_10PxBaseTaskEEEE7getNameEv
zhh:__ZL179U3CSpawnHazardsU3Ec__Iterator3_t3641860697_CustomAttributesCacheGenerator_U3CSpawnHazardsU3Ec__Iterator3_System_Collections_Generic_IEnumeratorU3CobjectU3E_get_Current_m1319665978P21CustomAttributesCache
N8e:__ZN5physx2Gu11HeightField15exportExtraDataERNS_22PxSerializationContextE
aKm:_ReadOnlyCollection_1_System_Collections_IList_Contains_m2904046095_gshared
FWa:__ZN15QualitySettings8TransferI19StreamedBinaryWriteILb0EEEEvRT_
hZg:__ZL56GUISkin_t1244372282_CustomAttributesCacheGenerator_m_boxP21CustomAttributesCache
fyk:_SortKey_GetHashCode_m3547067087
goh:_SpriteDataObject__ctor_m2091411677
WEj:_LayoutUtility_U3CGetFlexibleHeightU3Em__7_m2991026842
IAb:__Z18Transfer_BlittableI19StreamedBinaryWriteILb0EELb1E8Vector2fEvRK29SerializationCommandArgumentsR31RuntimeSerializationCommandInfo
mpf:_cf2_arrstack_init
_$k:_Array_InternalArray__get_Item_TisResourceCacheItem_t51292791_m1306056717_gshared
Zsh:_EventSystem_get_pixelDragThreshold_m1103650852
GHg:__ZL60StaticAccessorType_t186341701_CustomAttributesCacheGeneratorP21CustomAttributesCache
Pim:_Array_Resize_TisTMP_PageInfo_t2608430633_m3712126464_gshared
$3:__Z15CleanLogHandler7LogTypePKcz
lXi:_NumberFormatter_NumberToString_m2481532188
pmc:__ZN9ShaderLab19SerializedSubShader8TransferI19StreamedBinaryWriteILb0EEEEvRT_
Kne:__ZN5physx10NpMaterialC2ERKNS_2Sc12MaterialCoreE
ZUh:_DictionaryEnumerator_MoveNext_m1462973125
Asl:_Enumerator_MoveNext_m76191888_gshared
dV:__ZN14AudioBehaviour15ThreadedCleanupEv
g$e:__ZN5physx9PxTaskMgr10resolveRowEjb
$Pl:_List_1_get_Capacity_m2483689068_gshared
Qta:__ZN9Scripting5Unity11Collections8LowLevel6Unsafe41NativeContainerIsAtomicWriteOnlyAttribute9InitProxyEv
jJb:__ZN6Camera17RemoveImageFilterERK11ImageFilter
Vqb:__ZNSt3__218__insertion_sort_3IR25ValueParameterArraySorterPN20GpuProgramParameters14ValueParameterEEEvT0_S6_T_
NDd:__ZN10ClipperLib7Clipper27ProcessEdgesAtTopOfScanbeamEx
Vbd:__ZN14EmissionModule15AccumulateBurstER27ParticleSystemEmissionStateRK11MinMaxCurvef
HVk:_Comparer__cctor_m3311686689
EXf:_TMP_InputField_set_scrollSensitivity_m275207258
WFf:__ZZN2UI11CanvasGroup15InitializeClassEvEN38FunctorImpl_117kTransformParentChanged4CallEPviR11MessageData
txh:_UIBehaviour_OnDidApplyAnimationProperties_m2143584361
sjd:__ZN11ShapeModule17MainThreadCleanupEv
Yrk:_HttpsClientStream_U3CHttpsClientStreamU3Em__1_m1202173386
aad:__ZN9SubModule5ResetEv
VMd:__ZN8Collider12GetIsTriggerEv
byn:_Uri__ctor_m3040793867
Q9j:_HttpWebRequest_get_Address_m2672661563
upm:_TimeZone__ctor_m1831364098
E_f:_TMP_InputField_Rebuild_m919426078
ujo:__ZNK10KeyWrapperINSt3__24pairIPK9EventInfoP11Il2CppClassEEE14EqualsComparerINS0_8equal_toIS7_EEEclERKS8_SE_
k1h:_InternalEnumerator_1_get_Current_m3500427238_AdjustorThunk
eHf:__ZN2UI26InitializeDeviceForOverlayEi
S6e:__ZNK5physx13NpClothFabric13getRestvaluesEPfj
_ik:_Kernel_PlusEq_m136676638
v5:__Z27LogRepeatingStringWithFlagsRKN4core12basic_stringIcNS_20StringStorageDefaultIcEEEE15LogMessageFlagsi
vQd:__ZN5physx2Gu16_gjkLocalRayCastINS0_9TriangleVENS0_11ConvexHullVEEEbRT_RT0_RKNS_6shdfnd3aos6FloatVERKNS9_5Vec3VESF_RSA_RSD_SH_f
Vfl:_Enum_IsDefined_m1442314461
frh:_TextMeshProUGUI_SetSharedMaterials_m854082582
MTn:_AudioExtensionManager_RegisterBuiltinDefinitions_m2742744104
Sx:__ZN17AnimationPlayable28ComputeNeedsBindingRebuildedEv
Xw:__ZN17AnimationPlayable23RequestAllocateBindingsEv
U6d:__ZN5physx6shdfnd8PoolBaseINS_2Cm5BlockIPvLj32EEENS0_19ReflectionAllocatorIS5_EEE17releaseEmptySlabsEv
GRm:_Predicate_1_EndInvoke_m3884403745_gshared
tUe:__ZN5physx23PxsBroadPhaseContextSap21batchUpdateFewUpdatesEjRPNS_17PxcBroadPhasePairERjS4_
D6j:_DecoderReplacementFallbackBuffer_Fallback_m1261056214
VYd:__ZN5physx3Cct17getSceneTimestampEPKNS0_30InternalCBData_FindTouchedGeomE
O0b:__ZNSt3__227__insertion_sort_incompleteIRPFbP10GUIElementS2_EPS2_EEbT0_S7_T_
V1g:__ZL78g_UnityEngine_UnityWebRequestWWWModule_Assembly_CustomAttributesCacheGeneratorP21CustomAttributesCache
gVi:_Binder_get_DefaultBinder_m950908649
j4h:_InternalEnumerator_1__ctor_m31115849_gshared
pAg:__ZL59ArgumentException_t132251570_CustomAttributesCacheGeneratorP21CustomAttributesCache
CMf:__ZN18UnityConnectClient33OnPlayerSessionStateChangedStaticEPS_jyy
dzd:__ZN19ProcessContactsDataD2Ev
TJ:__ZN25RuntimeAnimatorController12CleanupClassEv
Bzi:__Z109RuntimeInvoker_Boolean_t97287965_Vector3_t3722313464_Vector3_t3722313464_Single_t1397266774_Int32_t2950945753PFvvEPK10MethodInfoPvPS4_
W8f:_CollisionCheckerHazard_HazardDestroyedByEnemy_m1188291889
f0:__ZNK11UnityEngine15CloudWebService23WebRequestUploadHandler11GetProgressEv
dTl:_List_1_System_Collections_Generic_IEnumerableU3CTU3E_GetEnumerator_m1803486764_gshared
avc:__Z25PlayerPrefs_CUSTOM_GetIntP12Il2CppStringi
bTb:__ZN7ApiGLES4LoadE16GfxDeviceLevelGL
vqm:_Type_GetMethod_m1479779718
Tme:__ZN5physx9NpPhysics15createAggregateEjb
TYg:__ZL61GUIContent_t3050628031_CustomAttributesCacheGenerator_m_ImageP21CustomAttributesCache
RUa:__ZN4crnd12crn_unpacker22decode_color_endpointsEv
Byo:__ZN15dense_hashtableI10KeyWrapperIP18Il2CppGenericClassES3_N6il2cpp8metadata22Il2CppGenericClassHashEN14dense_hash_setIS3_S6_NS3_14EqualsComparerINS5_25Il2CppGenericClassCompareEEENSt3__29allocatorIS3_EEE8IdentityESA_SD_E15insert_noresizeERKS3_
vGc:__ZZL31RegisterOtherRendererPropertiesR22GenericPropertyBindingEN30Wrapper_RendererReceiveShadows13GetFloatValueEPv
gwa:__ZN8Vector4f8TransferI18StreamedBinaryReadILb0EEEEvRT_
bOd:__ZN9Rigidbody5ResetEv
VNj:_Array_InternalArray__ICollection_Contains_TisSlot_t384495010_m688761886_gshared
XPj:_Array_InternalArray__ICollection_Remove_TisUInt64_t4134040092_m2664745791_gshared
uUa:__ZN17SharedTextureDataC2E10MemLabelIdii13TextureFormatjiibb
ZBi:__Z114RuntimeInvoker_RuntimeObject_RuntimeObject_Int32_t2950945753_Int32_t2950945753_Int32_t2950945753_Int32_t2950945753PFvvEPK10MethodInfoPvPS4_
mMb:__ZN8Material11SetPassFastEPN9ShaderLab4PassER17ShaderPassContextP6Shaderib
lMf:__ZN11UnityEngine7Connect20BasePersistentValues10SaveValuesER9JSONWrite
Evl:_ShimEnumerator_MoveNext_m2632237013_gshared
O9k:_DateTime_System_IConvertible_ToDouble_m2116720007
fkk:_BitConverterLE_GetUIntBytes_m795219058
Whj:_Display_GetSystemExtImpl_m2808197389
oli:__Z114RuntimeInvoker_Int32_t2950945753_RuntimeObject_RuntimeObject_Int32_t2950945753_Int32_t2950945753_Int32_t2950945753PFvvEPK10MethodInfoPvPS4_
U9i:_SByte_Parse_m2899090751
H9c:__ZN11ShapeModule18MultiModeParameterIN25IParticleSystemProperties8PropertyIfNS1_5ClampILi0ELi360EEEEEE8TransferI19StreamedBinaryWriteILb0EEEEvRT_
ywg:__ZL56ObjectManager_t1653064325_CustomAttributesCacheGeneratorP21CustomAttributesCache
PWj:_Promise_1_InvokeHandler_TisRuntimeObject_m339964354_gshared
rqa:__ZN9Scripting11UnityEngine20ManagedStreamHelpers12CleanupProxyEv
N2g:__ZL94AxisEventData_t2331243652_CustomAttributesCacheGenerator_AxisEventData_get_moveDir_m2423724085P21CustomAttributesCache
xdg:_Scoreboard_get_EntryName_m3488984001
BXh:_ArrayReadOnlyList_1_GetEnumerator_m1835926958_gshared
Z_e:__ZN5physx9PxTaskMgr12addReferenceEj
p0f:_TMP_MeshInfo_Clear_m2171221426_AdjustorThunk
VMc:__Z14ScaleCurveTimeR17AnimationCurveTplIfEf
Tda:__ZN20GlobalCachingManager7DisposeEv
R1b:__Z12SetupLODFadeR9GfxDeviceR17ShaderPassContextf
TQa:__ZNK14PlayableOutput7GetTypeEv
z0c:__ZN9JSONWrite8TransferI13dynamic_arrayI4AABBLj0EEEEvRT_PKc17TransferMetaFlags
kog:__ZL69Type_t_CustomAttributesCacheGenerator_Type_GetConstructors_m576905011P21CustomAttributesCache
V7b:__ZL24CollectForwardObjectsJobP27CollectForwardObjectsHeader
tXm:_List_1_get_Item_m1378751541_gshared
z2c:__ZN8JSONRead21TransferSTLStyleArrayI13dynamic_arrayIdLj0EEEEvRT_17TransferMetaFlags
pac:__Z13IsNodeVisibleRK9SceneNodeRK4AABBRK22SceneCullingParameters
Uxi:__Z54RuntimeInvoker_LayerMask_t3493934918_Int32_t2950945753PFvvEPK10MethodInfoPvPS4_
Cki:__Z44RuntimeInvoker_RuntimeTypeHandle_t3027515415PFvvEPK10MethodInfoPvPS4_
Qbi:__ZN21InterfaceFuncInvoker1IibE6InvokeEjP11Il2CppClassP12Il2CppObjectb
GIh:__ZN30GenericInterfaceActionInvoker1IP20Delegate_t1188392813E6InvokeEPK10MethodInfoP12Il2CppObjectS1_
Ohl:_SortKeyBuffer_AppendCJKExtension_m2591091991
Vqd:__ZN11ShapeModuleC2E10MemLabelId
Clm:_UTF8Encoding_GetByteCount_m4153686982
T3o:_emscripten_glStencilMask__wrapper
dji:__Z49RuntimeInvoker_Void_t1185182177_Double_t594665363PFvvEPK10MethodInfoPvPS4_
o7n:__ZN15dense_hashtableI10KeyWrapperIPK19Il2CppGenericMethodES4_N6il2cpp8metadata23Il2CppGenericMethodHashEN14dense_hash_setIS4_S7_NS4_14EqualsComparerINS6_26Il2CppGenericMethodCompareEEENSt3__29allocatorIS4_EEE8IdentityESB_SE_EC2ERKSH_j
Q8n:__ZN15dense_hashtableINSt3__24pairIK10KeyWrapperIN6il2cpp5utils13dynamic_arrayIPK10Il2CppTypeLj4EEEEPFvvEEESA_NS3_8metadata19Il2CppSignatureHashEN14dense_hash_mapISA_SD_SG_NSA_14EqualsComparerINSF_22Il2CppSignatureCompareEEENS0_9allocatorISE_EEE9SelectKeyESK_SM_EC2EjRKSG_RKSK_RKSO_
ZBa:__ZN15RenderNodeQueue7CleanupEv
xIg:__ZL66RuntimePlatform_t4159857903_CustomAttributesCacheGenerator_XBOX360P21CustomAttributesCache
Whb:__ZNK17ArchiveFileSystem8PositionERK13FileEntryData
wKd:__ZN16NovodexAllocator8allocateEjPKcS1_i
p7b:__Z17PrepareShadowMapsRK11CullResultsRK11ActiveLightRK10MinMaxAABB
hdn:_DeriveBytes_DeriveIV_m973925711
NAk:_Int32_System_IConvertible_ToSByte_m3133688512
uio:__ZN30dense_hashtable_const_iteratorINSt3__24pairIK10KeyWrapperINS1_IPK11Il2CppImageP11Il2CppClassEEEjEES9_17ReflectionMapHashIS8_EN14dense_hash_mapIS9_jSD_NS9_14EqualsComparerINS0_8equal_toIS8_EEEENS0_9allocatorISB_EEE9SelectKeyESI_SK_EppEv
WTf:__ZN9Scripting11UnityEngine12Experimental23SubsystemDescriptorBase9InitProxyEv
bKm:_ReadOnlyCollection_1_System_Collections_IList_IndexOf_m848971554_gshared
XUn:_AudioSampleProvider_get_id_m2692334523
R7b:__ZN9ShaderLab10GrabPassesD2Ev
QJj:_ScrollRect_CalculateOffset_m927043599
uSa:__ZN14Texture2DArray13UploadTextureEv
xFj:_MaskableGraphic_UpdateCull_m2805101913
iuf:_tt_cmap14_done
Wab:__ZN18AwakeFromLoadQueue25RegisterObjectInstanceIDsEv
odf:__ZN5physx21PxProfileNameProviderD2Ev
Fzj:_InputField_UpdateLabel_m1837760870
tAl:_Transform_1_EndInvoke_m332304766_gshared
p7f:_TMP_Text_AddFloatToCharArray_m3062272884
uwh:_StandaloneInputModule_set_forceModuleActive_m2237222402
SA:__ZNK27AnimationLayerMixerPlayable11DerivesFromE17ScriptingClassPtr
Rlf:__ZN20TextRenderingPrivate19NativeTextGenerator15InsertCharacterEiPj
lIe:__ZN5physx2Sc5Scene22removeBroadPhaseRegionEj
Rli:__Z77RuntimeInvoker_Void_t1185182177_RuntimeObject_SByte_t1669577662_RuntimeObjectPFvvEPK10MethodInfoPvPS4_
xmi:__Z81RuntimeInvoker_Void_t1185182177_RuntimeObject_SByte_t1669577662_SByte_t1669577662PFvvEPK10MethodInfoPvPS4_
L0d:__ZN5physx2Cm12RenderBuffer5clearEv
mgi:_Enumerator_get_CurrentValue_m3438280969_gshared
ikj:_SpriteBone_t303320096_marshal_pinvoke_back
Zte:__ZNK5physx2Sc9ClothCore21getStiffnessFrequencyEv
$ah:__ZL108TMPro_ExtensionMethods_t1453208966_CustomAttributesCacheGenerator_TMPro_ExtensionMethods_Multiply_m885351763P21CustomAttributesCache
vtd:__ZN11b2RopeJoint24SolveVelocityConstraintsERK12b2SolverData
aVi:_MonoType_get_attributes_m1332507727
WBn:_GUIContent_ClearStaticCache_m1205116045
s6g:__ZL66InputField_t3762917431_CustomAttributesCacheGenerator_m_CaretWidthP21CustomAttributesCache
uXg:__ZL107DownloadHandler_t2937767557_CustomAttributesCacheGenerator_DownloadHandler_InternalGetByteArray_m4277508027P21CustomAttributesCache
Z5c:__ZN24OptimizedPolynomialCurve19BuildOptimizedCurveERK17AnimationCurveTplIfEf
DQe:__ZN5physx13PxsCCDContext14postCCDAdvanceEPNS_10PxBaseTaskE
Z0j:_WindowsIdentity_Dispose_m3466258450
zz:__ZN17AnimationPlayableD0Ev
ABb:__Z18Transfer_BlittableI19StreamedBinaryWriteILb0EELb0EyEvRK29SerializationCommandArgumentsR31RuntimeSerializationCommandInfo
w6i:_BinaryCommon__cctor_m2978407547
h2:__GLOBAL__sub_I_Runtime_Burst_0_cpp
U5b:__Z19GetReflectionSampleRK23ReflectionProbesContextRK22ActiveReflectionProbesRK27PerObjectLightCullingOutputRK10RenderNodejP16ReflectionSample
eHl:_Dictionary_2_System_Collections_Generic_ICollectionU3CSystem_Collections_Generic_KeyValuePairU3CTKeyU2CTValueU3EU3E_Contains_m2599845875_gshared
gGc:__ZN28ReflectionProbeAnchorManager23HandleAnchorDestructionEPK15TransformAccessj
lpg:__ZL47ASN1_t2114160832_CustomAttributesCacheGeneratorP21CustomAttributesCache
fto:__ZN6il2cpp6icalls8mscorlib6System2IO6MonoIO20GetFileSystemEntriesEP12Il2CppStringS6_iiPi
iPf:__ZL65__ManagedRegistrationHelperFunction_UnityWebRequestAsyncOperationPv
Ion:_IndexedSet_1__ctor_m2250384602_gshared
g5l:_DefaultComparer__ctor_m1306123661_gshared
Trm:_UInt16_TryParse_m4139137016
EQc:__Z41MonoBehaviour_Set_Custom_PropUseGUILayoutP12Il2CppObjecth
TCo:__ZN6il2cpp5utils13dynamic_arrayIPNS_2os6ThreadELj4EE9push_backEv
hpa:__ZN9Scripting11UnityEngine15ResourceRequest12CleanupProxyEv
G3g:__ZL102PointerEventData_t3807901092_CustomAttributesCacheGenerator_PointerEventData_get_clickTime_m3061953952P21CustomAttributesCache
h7j:_Encoding__ctor_m2997749867
Ulj:_ManagedStreamHelpers_ManagedStreamSeek_m3158782053
Qwn:_ExpressionAssertion_Compile_m2166597834
Trb:__ZN16ScriptingManagerD0Ev
l2j:_Single_System_IConvertible_ToSByte_m1208276900_AdjustorThunk
Tqk:_TlsClientCertificate_ProcessAsSsl3_m3265529850
EGo:__ZN6il2cpp6icalls8mscorlib6System7Convert24InternalFromBase64StringEP12Il2CppStringb
UWe:__ZNK5physx10BPWorkTask7getNameEv
bje:__ZN5physx2Sc8ShapeSim16onResetFilteringEv
ohd:__Z25UpdateOrbitalAndRadialTplIL27ParticleSystemCurveEvalMode0ELS0_1ELS0_0EEvRK11MinMaxCurveS3_S3_S3_S3_S3_S3_R23ParticleSystemParticlesjjRKN4math8float3x3ERKNS6_7affineXERKNS6_7_float4E
Rwo:__ZN30dense_hashtable_const_iteratorINSt3__24pairIK10KeyWrapperINS1_IPKcS4_EEEiEES6_24NamespaceAndNamePairHashN14dense_hash_mapIS6_iS9_NS6_14EqualsComparerI26NamespaceAndNamePairEqualsEENS0_9allocatorIS8_EEE9SelectKeyESD_SF_EppEv
MTc:__Z44Register_UnityEngine_Component_get_transformv
VIg:__ZL81Camera_t4157153871_CustomAttributesCacheGenerator_Camera_GetAllCameras_m668492922P21CustomAttributesCache
Ltc:__Z39GameObject_CUSTOM_FindGameObjectWithTagP12Il2CppString
yG:__ZN12_GLOBAL__N_120ProcessPlayableGraphERN8Animator11AnimatorJobER35AnimationPlayableEvaluationConstantR32AnimationPlayableEvaluationInputR33AnimationPlayableEvaluationOutputPFvS4_R17AnimationPlayableEPFvS4_S6_S8_EPFvS8_S4_S6_S8_fESE_MS9_FvPS3_PS5_PS7_E
Olg:__ZL48Double_t594665363_CustomAttributesCacheGeneratorP21CustomAttributesCache
oyk:_TextInfo_ToLower_m2744057472
E6d:__ZN5physx2Sc16ActorInteractionD2Ev
eZb:__ZN17ArchiveFileSystem12MountArchiveEPKcS1_
X5n:__ZN14dense_hash_mapI10KeyWrapperIP9FieldInfoEiN6il2cpp5utils11PointerHashIS1_EENS3_14EqualsComparerINSt3__28equal_toIS2_EEEENS9_9allocatorINS9_4pairIKS3_iEEEEE15set_deleted_keyERSF_
V8l:_EqualityComparer_1_System_Collections_IEqualityComparer_Equals_m3977314386_gshared
N_c:__Z18Transfer_BlittableI9JSONWriteLb1E8Vector4fEvRK29SerializationCommandArgumentsR31RuntimeSerializationCommandInfo
J7:__Z11RequireTypePKcS0_S0_
uuk:_CCGregorianCalendar_year_from_fixed_m463929682
rBf:__ZN2UI13CanvasManagerD0Ev
Ark:_TlsServerHello_Update_m3935081401
Rdj:_Debug_get_unityLogger_m2239795986
Lje:__ZN5physx2Sc16ArticulationCore26setExternalDriveIterationsEj
pBm:_ReadOnlyCollection_1_System_Collections_IEnumerable_GetEnumerator_m2123446296_gshared
Qkk:_MD2Managed_Initialize_m2341076836
_Jm:_ReadOnlyCollection_1_System_Collections_IList_Add_m4240023232_gshared
rnb:__ZN9GfxDevice15ImmediateVertexEfff
Nhg:_U3CU3Ec__Iterator0_Reset_m4207183941
wYa:__ZNK16LightmapSettings22GetTypeVirtualInternalEv
aHa:__ZN16GraphicsSettings13AwakeFromLoadE17AwakeFromLoadMode
U1f:_TMP_Style_set_name_m734708838
TXk:_Array_Sort_TisUIVertex_t4057497605_TisUIVertex_t4057497605_m4243853890_gshared
Cr:__ZN6Object13AwakeFromLoadE17AwakeFromLoadMode
xPb:__ZN13GfxDeviceGLES15SetStencilStateEPK18DeviceStencilStatei
UFk:__ZN28GenericInterfaceFuncInvoker3IiP22ByteU5BU5D_t4116647657iiE6InvokeEPK10MethodInfoP12Il2CppObjectS1_ii
UPk:_Buffer_BlockCopyInternal_m418318694
KQo:_cycle
BRg:__ZL138SupportedRenderingFeatures_t353898663_CustomAttributesCacheGenerator_SupportedRenderingFeatures_get_supportedLightmapBakeTypes_m1596512019P21CustomAttributesCache
uGo:__ZN6il2cpp2vm8Profiler7GCEventE13Il2CppGCEvent
Rki:__Z76RuntimeInvoker_Void_t1185182177_RuntimeObject_RuntimeFieldHandle_t1871169219PFvvEPK10MethodInfoPvPS4_
qwm:_Collection_1_ConvertItem_m4023613763_gshared
xph:_TextMeshPro_GetTextInfo_m3192935234
O8m:_Rijndael_Create_m3053077028
se:_emscripten_glUniform1iv
bqb:__ZN13ComputeShader14SetBufferParamEjRKN9ShaderLab16FastPropertyNameE15ComputeBufferIDb
unm:_Thread_get_ManagedThreadId_m1068113671
Qvd:__ZN15b2DistanceProxy3SetEPK7b2Shapei
NUj:_Array_InternalArray__IndexOf_TisKeyValuePair_2_t1383673463_m3347832327_gshared
ikb:__ZN16MemoryFileSystemD2Ev
gli:__Z150RuntimeInvoker_Int32_t2950945753_RuntimeObject_Int32_t2950945753_Int32_t2950945753_RuntimeObject_Int32_t2950945753_Int32_t2950945753_Int32_t2950945753PFvvEPK10MethodInfoPvPS4_
J7f:_TMP_Text_GetPreferredValues_m2784517200
K4k:_DateTime_Parse_m3729096069
Rnh:_MaterialReferenceManager_TryGetMaterial_m183071449
ORm:_List_1_System_Collections_IList_Add_m1540114404_gshared
s1f:_TMP_SpriteAnimator_Awake_m377449737
nYh:_InternalEnumerator_1_System_Collections_IEnumerator_Reset_m81420524_AdjustorThunk
qHa:__ZN16GraphicsSettings27SetLightsUseLinearIntensityEb
ZBd:__ZN29b2InitializeContactSolverTask7TaskJobEPS_j
qYm:_List_1_get_Count_m576380744_gshared
qGc:__ZZN8Renderer15InitializeClassEvEN32FunctorImpl_146kCullSceneChanged4CallEPviR11MessageData
TRi:_StringReader_Read_m3322058819
uQh:_CrossAppDomainChannel_get_ChannelPriority_m3418073750
Z5l:_EqualityComparer_1__ctor_m1860346363_gshared
tCj:_Selectable_StartColorTween_m3618813981
$Ve:__ZNK5physx16PxsBroadPhaseMBP18getNumDeletedPairsEv
ysh:_BaseInputModule_HandlePointerExitAndEnter_m1705532066
xIh:_EventInfo__ctor_m3033129999
_gf:__ZN5physx7profile8ZoneImplINS_28PxProfileNameProviderForwardEE10startEventEty
pNn:__ZL24UnresolvedVirtualCall_33P12Il2CppObjectiS0_S0_PK10MethodInfo
XQe:__ZN5physx10PxsCCDPair17sweepAdvanceToToiEfb
Cwc:__ZN15ApplicationInfo16GetInstallerNameEv
Mgc:__Z23ConvertIntegerToTypePtrItEbPvR14SafeBinaryRead
Pdl:_Delegate_CombineImpl_m3572135514
NHc:__Z13RegisterClassI15EditorExtensionEvPKc
mXi:_NumberFormatter_IntegerToString_m1679294587
xZj:_SHA256Managed_AddLength_m1060552216
lHm:_ReadOnlyCollection_1_System_Collections_IList_RemoveAt_m422909114_gshared
kH:__ZN7mecanim5human29HumanGetGoalOrientationOffsetENS0_4GoalE
Je:_emscripten_glStencilFunc
die:__ZN5physx6shdfnd8PoolBaseINS_2Cm5BlockIhLj384EEENS0_19ReflectionAllocatorIS4_EEE17releaseEmptySlabsEv
Z4e:__ZN5physx16PxsIslandManager11freeBuffersEv
QMn:__ZL23UnresolvedVirtualCall_6P12Il2CppObjectiPK10MethodInfo
ACm:_ReadOnlyCollection_1_System_Collections_IList_Contains_m1942059508_gshared
njf:__ZN5Unity12PhysicsQuery21OverlapBoxUserCollectERK8Vector3fS3_RK11Quaternionfi23QueryTriggerInteractionRN8IPhysics12IUserCollectE
Enc:__ZN9ShaderLab20SerializedSubProgram14AddMatrixParamEPKcii15ShaderParamTypei
Qe:_glGetActiveUniformBlockName
W2g:__ZL90PointerEventData_t3807901092_CustomAttributesCacheGenerator_U3CpointerIdU3Ek__BackingFieldP21CustomAttributesCache
Xz:__ZN7mecanim13CopyValueMaskILb0EEEvPKNS_14ValueArrayMaskEPS1_
N0f:_TMP_Settings_get_enableWordWrapping_m1488159339
Lii:__Z67RuntimeInvoker_Int32_t2950945753_RuntimeObject_Int32U26_t1369213839PFvvEPK10MethodInfoPvPS4_
dQl:_List_1_set_Item_m1240329677_gshared
jxn:_Parser_IsIgnoreCase_m2210120858
Fkd:__ZN31CollisionModulePropertyBindings13GetFloatValueERK14ParticleSystemi
kNi:__Z57RuntimeInvoker_TMP_WordInfo_t3331066303_Int32_t2950945753PFvvEPK10MethodInfoPvPS4_
O$j:_SecurityPermission_IsSubsetOf_m545000671
kPj:_Array_InternalArray__ICollection_Remove_TisLink_t3209266973_m897088622_gshared
Kcb:__ZN27UnloadUnusedAssetsOperationD0Ev
ZO:__ZN4FMOD7Channel20set3DConeOrientationEP11FMOD_VECTOR
so:FUNCTION_TABLE_iiifii
S_i:_AssemblyBuilder_not_supported_m1735277432
iih:__ZL183U3CSpawnBackgroundSpaceShipU3Ec__Iterator9_t1364907612_CustomAttributesCacheGenerator_U3CSpawnBackgroundSpaceShipU3Ec__Iterator9_System_Collections_IEnumerator_get_Current_m3836126445P21CustomAttributesCache
rAo:__ZN6il2cpp2vm12GenericClass11SetupEventsEP11Il2CppClass
Kmf:_ft_open_face_internal
Guf:_tt_cmap12_get_info
lWk:_Hashtable_get_Keys_m625158339
$vo:__ZN6il2cpp2vm15ReboxIReferenceEP14Il2CppIUnknownP11Il2CppClass
zxm:_Collection_1_Contains_m1707523067_gshared
nNl:_Enumerator__ctor_m2029608698_AdjustorThunk
$kn:_InvokableCall_3_add_Delegate_m3928852530_gshared
k$n:__ZN6il2cpp6icalls8mscorlib6System7Decimal14decimalCompareEP19il2cpp_decimal_reprS5_
z$l:_Dictionary_2_OnDeserialization_m4209543208_gshared
Beh:__ZL66TMP_Text_t2599618874_CustomAttributesCacheGenerator_m_fontMaterialP21CustomAttributesCache
cHo:__ZThn4_N6il2cpp2vm13CachedCCWBaseINS0_13ManagedObjectEE7ReleaseEv
lde:__ZN5physx26PxcFsComputeJointLoadsSimdERKNS_9PxcFsDataEPKNS_12PxcFsInertiaEPNS_6shdfnd3aos6Mat33VEPKfjjNS_21PxcFsScratchAllocatorE
QCe:__ZN5physx6shdfnd8SyncImpl7getSizeEv
eYj:_RNGCryptoServiceProvider_GetNonZeroBytes_m1918423726
vui:__Z100RuntimeInvoker_Void_t1185182177_RuntimeObject_Int32_t2950945753_Int32_t2950945753_UInt16_t2177724958PFvvEPK10MethodInfoPvPS4_
ugd:__Z25UpdateOrbitalAndRadialTplIL27ParticleSystemCurveEvalMode2ELS0_3ELS0_2EEvRK11MinMaxCurveS3_S3_S3_S3_S3_S3_R23ParticleSystemParticlesjjRKN4math8float3x3ERKNS6_7affineXERKNS6_7_float4E
I0o:_glCopyTexImage2D__wrapper
GId:__ZN16PhysicsManager2D11CreateWorldERK8Vector2f
sAg:__ZL62ArithmeticException_t4283546778_CustomAttributesCacheGeneratorP21CustomAttributesCache
OSl:_List_1_Remove_m3569384130_gshared
QOd:__ZN5physx11PxHitBufferINS_12PxRaycastHitEED0Ev
UAh:_FloatTween_TweenValue_m52237061
K_f:_TMP_InputField_AdjustRectTransformRelativeToViewport_m2545853035
xMb:__Z18ClearByDrawingQuad13GfxClearFlagsRK10ColorRGBAffjR17ShaderPassContext
Gja:__ZN6prcoreL17RemapGenericFloatI14TexFormatRHalf15TexFormatRFloatEEvPKNS_9InnerInfoE
KXi:_NumberFormatter_FormatExponential_m2139559983
zoi:__Z155RuntimeInvoker_Void_t1185182177_RuntimeObject_SByte_t1669577662_SByte_t1669577662_Int64U26_t200113976_ObjectU26_t2146539884_SerializationInfoU26_t419328957PFvvEPK10MethodInfoPvPS4_
nga:__ZN15DirectorManager21RebuildStageCallbacksEv
PMb:__ZN19RuntimeSceneManager9LoadSceneERKN4core12basic_stringIcNS0_20StringStorageDefaultIcEEEES6_S6_RK9UnityGUIDiNS_11LoadingModeE
Sol:_Enumerator_Reset_m1756580451_gshared
Tdj:_Application_Internal_ApplicationQuit_m2936209313
fSb:__ZN7ApiGLES10DrawArraysE16GfxPrimitiveTypejjj
hYl:_List_1_System_Collections_IList_get_IsReadOnly_m2500128275_gshared
IVd:__ZN5physx3Cct13BoxController15getPxControllerEv
T$l:_Dictionary_2_System_Collections_ICollection_get_SyncRoot_m2718487944_gshared
TS:__ZN10SampleClip13LoadBaseSoundEv
zRd:__ZN5physx2Gu22gjkRelativePenetrationINS0_17ShrunkConvexHullVES2_EEjRKT_RKT0_RKNS_6shdfnd3aos15PsMatTransformVERKNSA_6FloatVERNSA_5Vec3VESI_SI_RSE_PhSK_Rh
DKk:_SmallXmlParser_SkipWhitespaces_m4243606597
x2m:_Collection_1_get_Count_m2512410151_gshared
TSk:_ArrayList_Sort_m4234055499
BBd:__ZN43b2SolveVelocityConstraintsContactSolverTaskD0Ev
Dvb:__ZN14SafeBinaryRead21TransferSTLStyleArrayI13dynamic_arrayI10Matrix4x4fLj0EEEEvRT_17TransferMetaFlags
CTh:_MethodCall__ctor_m3669645
wQk:_Byte_CompareTo_m4285128861
Pth:_TriggerEvent__ctor_m87299207
Msi:__Z48RuntimeInvoker_ExchangeAlgorithmType_t1320888206PFvvEPK10MethodInfoPvPS4_
$Tf:__ZN9Scripting11UnityEngine12Experimental27Internal_SubsystemInstances12CleanupProxyEv
Kmc:__ZNSt3__26__treeINS_12__value_typeIN4core12basic_stringIcNS2_20StringStorageDefaultIcEEEEiEENS_19__map_value_compareIS6_S7_NS_4lessIS6_EELb1EEENS_9allocatorIS7_EEE25__emplace_unique_key_argsIS6_JNS_4pairIS6_iEEEEENSG_INS_15__tree_iteratorIS7_PNS_11__tree_nodeIS7_PvEEiEEbEERKT_DpOT0_
pW:__Z57AudioSource_CUSTOM_INTERNAL_CALL_ClearExtensionPropertiesP12Il2CppObjectRK12PropertyName
kAo:__ZN15dense_hashtableINSt3__24pairIK10KeyWrapperIP12Il2CppObjectEN6il2cpp2gc9CachedCCWEEES5_NS7_5utils11PointerHashIS3_EEN14dense_hash_mapIS5_S9_SD_NS5_14EqualsComparerINS0_8equal_toIS4_EEEENS0_9allocatorISA_EEE9SelectKeyESI_SK_E15insert_noresizeERKSA_
lnd:__ZL17DrawMeshParticlesILb0EL25ParticleSystemRenderSpace3EEvRK26ParticleSystemTempMeshDataRK22ParticleSystemTempDataRK23ParticleSystemParticlesRK31ParticleSystemParticlesTempDataRK26ParticleSystemRendererDataRK21ParticleSystemModulesPfPv
Eyl:_Transform_1_Invoke_m2167534993_gshared
X5e:__ZN5physx2Sc19ParticlePacketShapeC2ERNS0_17ParticleSystemSimEjPNS_16PxvParticleShapeE
T4f:_TMP_Text_set_paragraphSpacing_m3392922741
OQa:__ZN22DeviceMVPMatricesStateC2ER9GfxDevice
s8f:_TMP_Text_PackUV_m2186616011
Vdd:__Z9UpdateTplIL27ParticleSystemCurveEvalMode1EEvRK11MinMaxCurveS3_S3_R23ParticleSystemParticlesjjRKN4math8float3x3ERKNS6_7_float4E
Vme:__ZN5physx9NpPhysics18createTriangleMeshERNS_13PxInputStreamE
Eo:FUNCTION_TABLE_iiiiifiiiif
_n:FUNCTION_TABLE_iifii
Glj:_Logger_set_logEnabled_m1180597166
_Uk:_Comparer_Compare_m3984347512
S1e:__ZN5physx2Cm12DelegateTaskINS_2Sc5SceneEXadL_ZNS3_14updateDynamicsEPNS_10PxBaseTaskEEEED0Ev
pmo:__ZN6il2cpp2vm10Reflection12HasAttributeEP9FieldInfoP11Il2CppClass
ira:__ZN9Scripting11UnityEngine12Experimental9Rendering11CullResults9InitProxyEv
Rc:invoke_viiifi
tAc:__Z13RegisterClassI6SpriteEvPKc
ULh:_MonoProperty_GetCustomAttributes_m3619796755
leo:__ZNSt3__214__split_bufferIP11Il2CppClassRNS_9allocatorIS2_EEEC2EjjS5_
faf:__ZN5physx6shdfnd5ArrayIPNS_7PxActorENS0_19ReflectionAllocatorIS3_EEE8recreateEj
HUh:_MethodDictionary_System_Collections_IEnumerable_GetEnumerator_m4169036899
IKk:__ZN23InterfaceActionInvoker2IP8String_tP12Il2CppObjectE6InvokeEjP11Il2CppClassS3_S1_S3_
Byl:_Transform_1_BeginInvoke_m1042516857_gshared
AKg:__ZL81Mathf_t3464937446_CustomAttributesCacheGenerator_Mathf_NextPowerOfTwo_m1637187628P21CustomAttributesCache
xKm:_ReadOnlyCollection_1_System_Collections_Generic_IListU3CTU3E_get_Item_m3666607533_gshared
x9m:_RIPEMD160Managed_JJJ_m4161373884
gQh:_CrossContextChannel__ctor_m3755842292
G3l:_DefaultComparer_Equals_m3257444875_gshared
_f:_JS_Sound_SetPosition
GLa:__ZN19RenderBufferManager13GetTempBufferEii17DepthBufferFormat19RenderTextureFormatj22RenderTextureReadWrite14VRTextureUsagei23RenderTextureMemoryless
z3m:_Collection_1_System_Collections_IList_get_IsFixedSize_m4038894826_gshared
jao:__ZL13GetSharedInstPK17Il2CppGenericInst
y3g:__ZL98PointerEventData_t3807901092_CustomAttributesCacheGenerator_PointerEventData_get_delta_m1062010255P21CustomAttributesCache
cGa:__Z27ConvertSubMeshesToTrianglesIjEvR13dynamic_arrayI7SubMeshLj0EERS0_IhLj0EE
J5n:__ZNK15dense_hashtableINSt3__24pairIK10KeyWrapperIPKcEP11Il2CppClassEES5_N6il2cpp5utils11StringUtils12StringHasherIS4_EEN14dense_hash_mapIS5_S8_SE_NS5_14EqualsComparerINSB_13VmStringUtils21CaseSensitiveComparerEEENS0_9allocatorIS9_EEE9SelectKeyESJ_SL_E3endEv
y1l:_Dictionary_2__ctor_m2253601317_gshared
$6h:_InternalEnumerator_1_System_Collections_IEnumerator_Reset_m1481388055_AdjustorThunk
gKf:__ZN22BaseUnityConnectClient17SaveSessionValuesEv
f5m:_Collection_1_RemoveAt_m1763805052_gshared
n$h:_InternalEnumerator_1_get_Current_m476140818_gshared
mqe:__ZNK5physx7NpCloth14getNbParticlesEv
Zei:_Enumerator_System_Collections_IEnumerator_get_Current_m1741827799_gshared
bSl:_List_1__ctor_m688098763_gshared
SJl:_Enumerator__ctor_m450133467_AdjustorThunk
O2d:__ZN5physx2Sc10NPhaseCore24releaseShapeInstancePairEPNS0_19ShapeInstancePairLLEjj
uTm:_List_1_Sort_m4240158523_gshared
zWg:__ZL83TextMesh_t1536577757_CustomAttributesCacheGenerator_TextMesh_set_anchor_m3559070145P21CustomAttributesCache
rMn:_WaitForEndOfFrame__ctor_m1381314187
Y7b:__Z24SetupActiveLightsContextR21ActiveLightingContextRK12ActiveLightsRK11CullResultsP14ShadowMapCacheRK10MinMaxAABB
Fxh:_AnimationTriggers_set_disabledTrigger_m933056574
mrc:__Z38Sprite_CUSTOM_INTERNAL_get_textureRectP12Il2CppObjectP5RectTIfE
Lni:__Z68RuntimeInvoker_Void_t1185182177_IntPtr_t_MonoMethodInfoU26_t91913876PFvvEPK10MethodInfoPvPS4_
prl:_Enumerator_get_Current_m2914575499_gshared
_tc:__ZN9TextAsset7SetTextERKN4core12basic_stringIcNS0_20StringStorageDefaultIcEEEE
LAa:__ZN6Camera8TransferI24GenerateTypeTreeTransferEEvRT_
Ua:invoke_iiiiiiif
Na:invoke_iiiiiiii
Wfm:_Array_InternalArray__set_Item_TisByte_t1134296376_m3104140039_gshared
Pad:__ZN14qsort_internal30FindAndMovePivotToLastPositionIPPKN9SubModule14SubEmitterDataEiPFbS4_S4_EEEvT_S8_T0_T1_
wUe:__ZN5physx21SapPostUpdateWorkTaskD0Ev
upi:__Z194RuntimeInvoker_Int32_t2950945753_RuntimeObject_Int32_t2950945753_Int32_t2950945753_RuntimeObject_Int32_t2950945753_SByte_t1669577662_Int32U26_t1369213839_BooleanU26_t4125257963_SByte_t1669577662PFvvEPK10MethodInfoPvPS4_
N_f:_TMP_InputField_GraphicUpdateComplete_m3115504076
Ldn:_PKCS12_GetBytes_m415958948
ppk:_Context_get_HandshakeState_m2425796590
M$b:__ZN8Renderer17PendingAddToSceneEv
Mie:__ZN5physx7NpActor18releaseConstraintsERNS_12PxRigidActorE
R0d:__ZN5physx6shdfnd5ArrayINS_11PxDebugLineENS0_19ReflectionAllocatorIS2_EEE8recreateEj
Z2o:b125
Y2o:b124
Y3o:b127
X3o:b126
u4o:b129
nsc:__Z52Register_UnityEngine_RectTransform_INTERNAL_get_rectv
BSc:__Z38Material_CUSTOM_SetMatrixImpl_InjectedP12Il2CppObjectiRK10Matrix4x4f
Jye:__ZNK5physx22NpParticleBaseTemplateINS_16PxParticleSystemENS_16NpParticleSystemEE20getMaxMotionDistanceEv
t7:__Z21PostprocessStacktracePKcRN4core12basic_stringIcNS1_20StringStorageDefaultIcEEEE
g$g:__ZL73ContactFilter2D_t3805203441_CustomAttributesCacheGenerator_minNormalAngleP21CustomAttributesCache
Vlj:_ManagedStreamHelpers_ManagedStreamLength_m2930872960
Zrc:__Z43RectTransform_CUSTOM_INTERNAL_get_anchorMinP12Il2CppObjectP13Vector2fIcall
BAe:__ZNK5physx14NpRigidDynamic25getContactReportThresholdEv
fGk:_FileStreamAsyncResult_CBWrapper_m1670848754
Pvc:__Z47Register_UnityEngine_Camera_get_allCamerasCountv
Uue:__ZN5physx22NpParticleBaseTemplateINS_15PxParticleFluidENS_15NpParticleFluidEE16releaseParticlesEv
vv:__ZN16MecanimAnimation25RegisterIAnimationBindingEPKN5Unity4TypeEiP17IAnimationBinding
RLc:__ZNSt3__26vectorIj13stl_allocatorIjL18MemLabelIdentifier1ELi16EEE6assignIPKtEENS_9enable_ifIXaasr21__is_forward_iteratorIT_EE5valuesr16is_constructibleIjNS_15iterator_traitsIS9_E9referenceEEE5valueEvE4typeES9_S9_
PF:__ZN7mecanim9animation16EvaluateAvatarIKEPKNS0_14AvatarConstantEPKNS0_11AvatarInputEPNS0_12AvatarOutputEPNS0_12AvatarMemoryEPNS0_15AvatarWorkspaceEb
cC:__ZN26AnimatorControllerPlayable10GetIntegerEiRi
dgc:__Z29StdTemplateConversionFunctionIsiEbPvR14SafeBinaryRead
z1e:__Z22updateIslandsToProcessRKN5physx2Cm10BitMapBaseINS_6shdfnd9AllocatorEEEPKjRKNS_11NodeManagerERS4_
Y_b:__ZN12InputManager13InputEndFrameEv
$lh:_ColorTween_GetDuration_m360696398_AdjustorThunk
ydo:__ZNSt3__26__treeIP11Il2CppClassNS_4lessIS2_EENS_9allocatorIS2_EEE25__emplace_unique_key_argsIS2_JRKS2_EEENS_4pairINS_15__tree_iteratorIS2_PNS_11__tree_nodeIS2_PvEEiEEbEERKT_DpOT0_
Cqh:_TextMeshProUGUI_UpdateMaterial_m902456839
noj:_Object_get_name_m4211327027
Hpo:__ZN6il2cpp2vm6Thread5SetupEP12Il2CppThread
BDo:__ZNSt3__26vectorIN6il2cpp2os10ThreadImpl10APCRequestENS_9allocatorIS4_EEE21__push_back_slow_pathIS4_EEvOT_
aNd:__ZN8Collider30GetRelativePositionAndRotationERK9TransformR10Matrix4x4f
bRe:__ZN5physx35PxcSweepEstimateAnyShapeHeightfieldERKNS_11PxsCCDShapeES2_PKNS_12PxsRigidBodyES5_RKNS_11PxTransformES8_f
QDm:_ReadOnlyCollection_1_System_Collections_IList_get_IsReadOnly_m1248651675_gshared
sql:_Enumerator_System_Collections_IDictionaryEnumerator_get_Key_m2500634048_gshared
c1d:__ZN5physx3Cct13BoxControllerC2ERKNS_16PxControllerDescERNS_9PxPhysicsEPNS_7PxSceneE
y1n:_NativeNameAttribute__ctor_m3296876808
JWn:_TextGenerator_t3211863866_marshal_pinvoke_back
PRo:___munmap
Rml:_RSAManaged_get_PublicOnly_m595121416
Rg:_localtime_r
l0b:__ZN22RenderingCommandBuffer13GetAndCheckRTE24BuiltinRenderTextureTypeRKN9ShaderLab16FastPropertyNameEPKcPP13RenderTexture
Qcd:__ZN14ParticleSystem13KillParticlesILb1EEEvRjbR24ParticleSystemUpdateDataR23ParticleSystemParticlesjPj
cXf:_TMP_FontWeights_t916301067_marshal_pinvoke_back
j2h:_InternalEnumerator_1_System_Collections_IEnumerator_Reset_m3619766341_AdjustorThunk
aod:__Z16UpdateSpritesTplIL27ParticleSystemCurveEvalMode3EEvfRK11MinMaxCurveS3_RK23ParticleSystemParticlesPf
Z2:__Z19free_alloc_internalPv10MemLabelId
Dvg:__ZL56ReturnMessage_t1376985608_CustomAttributesCacheGeneratorP21CustomAttributesCache
C3n:__ZNSt3__26vectorIjNS_9allocatorIjEEE6resizeEj
Yu:__ZN9Scripting11UnityEngine10Animations18PositionConstraint9InitProxyEv
Ug:_strftime
XLa:__ZN7Texture33SetStoredColorSpaceNoDirtyNoApplyE17TextureColorSpace
YNh:_ResourceSet__ctor_m3618395942
ycl:_Decimal_System_IConvertible_ToDouble_m3125524987_AdjustorThunk
gca:__ZN12FileAccessorD2Ev
OAa:__ZN10ColorRGBAf8TransferI18StreamedBinaryReadILb0EEEEvRT_
rGa:__ZN14VertexDataInfoC2Ev
lCo:__ZN6il2cpp2gc16GarbageCollector14CollectALittleEv
$Rg:__ZL87Sprite_t280657092_CustomAttributesCacheGenerator_Sprite_INTERNAL_get_border_m3728071101P21CustomAttributesCache
BJc:__ZNK9HPlayable15GetPlayableTypeEv
RLi:__Z117RuntimeInvoker_Void_t1185182177_CustomAttributeTypedArgumentU5BU5DU26_t2503877664_Int32_t2950945753_Int32_t2950945753PFvvEPK10MethodInfoPvPS4_
NDb:__ZL17Transfer_GUIStyleI18StreamedBinaryReadILb1EELb1EEvRK29SerializationCommandArgumentsR31RuntimeSerializationCommandInfo
Mcd:__ZNSt3__227__insertion_sort_incompleteIR31SortCollisionEventsByGameObjectP22ParticleCollisionEventEEbT0_S5_T_
KGj:_RectMask2D_IsRaycastLocationValid_m1652308696
w5:__ZNSt3__26__treeINS_12__value_typeIPKciEENS_19__map_value_compareIS3_S4_15compare_tstringIS3_ELb1EEENS_9allocatorIS4_EEE21__emplace_unique_implIJNS_4pairIPciEEEEENSD_INS_15__tree_iteratorIS4_PNS_11__tree_nodeIS4_PvEEiEEbEEDpOT_
Nfi:_Enumerator_System_Collections_IDictionaryEnumerator_get_Value_m1780001393_AdjustorThunk
Tdo:__ZN6il2cpp6icalls8mscorlib6SystemL9IsPrivateEPK12PropertyInfo
Udn:_X501_ToString_m1148552872
hRe:__ZNK5physx18PxcConvexTriangles16getPolygonNormalEj
Yuj:_RectTransform_add_reapplyDrivenProperties_m1374850920
H6:__ZN9shadertag10InitializeEv
bGi:__Z69RuntimeInvoker_Void_t1185182177_Int32_t2950945753_Color32_t2600501292PFvvEPK10MethodInfoPvPS4_
$ff:__ZN5physx24NpPtrTableStorageManager8canReuseEjj
vjf:__GLOBAL__sub_I_Modules_Terrain_Public_1_cpp
CWa:__ZN15QualitySettings14QualitySetting8TransferI24GenerateTypeTreeTransferEEvRT_
gNo:__ZN6il2cpp5utils6Memory11AlignedFreeEPv
YFn:_UnityWebRequest_get_isHttpError_m797082501
rFe:__ZN5physx2Sc27ConstraintProjectionManager33processConstraintForGroupBuildingEPNS0_13ConstraintSimERNS0_20ScratchAllocatorListIS3_Lj64EEE
Xnk:_Context_get_ClientWriteKey_m3174706656
y2g:__ZL77ExecuteEvents_t3484638744_CustomAttributesCacheGenerator_U3CU3Ef__mgU24cache7P21CustomAttributesCache
aAj:_InputField_get_textComponent_m948764648
mzf:__Z28Font_Get_Custom_PropMaterialP12Il2CppObject
ksd:__ZL34CleanupModule_PerformanceReportingv
a8k:_Convert_ToSingle_m835189399
jDi:__Z50RuntimeInvoker_RuntimeObject_Resources_t2155109485PFvvEPK10MethodInfoPvPS4_
bpc:__ZN22BlockMemoryCacheWriter14LockCacheBlockEjPPhS1_
MWc:__ZNSt3__218__insertion_sort_3IRPFbPKN5IMGUI9GUIWindowES4_EPPS2_EEvT0_SA_T_
UAf:__ZN9Scripting11UnityEngine8Tilemaps8TileData12CleanupProxyEv
Jaj:_CryptographicUnexpectedOperationException__ctor_m69881930
Hxe:__ZN5physx22NpParticleBaseTemplateINS_15PxParticleFluidENS_15NpParticleFluidEED2Ev
i3m:_Collection_1_SetItem_m1218178236_gshared
vDe:__ZN5physx2Cm29ConstraintImmediateVisualizer19visualizeDoubleConeERKNS_11PxTransformEfb
Otm:_UInt64_ToString_m2177233542
su:__ZN9Scripting11UnityEngine21StateMachineBehaviour9InitProxyEv
y2c:__Z22TransferField_NonArrayI8JSONRead27Converter_SimpleNativeClassI8GUIStyleEEvRK23StaticTransferFieldInfoR31RuntimeSerializationCommandInfoRT0_
rWd:__ZN5physx6shdfnd5ArrayINS_13PxExtendedBoxENS0_19ReflectionAllocatorIS2_EEE8recreateEj
Sra:__ZN9Scripting11UnityEngine26ExcludeFromPresetAttribute9InitProxyEv
Z6d:__ZN5physx6shdfnd5ArrayIPvNS0_19ReflectionAllocatorINS_2Cm5BlockIS2_Lj16EEEEEE4copyINS0_15InlineAllocatorILj256ES7_EEEEvRKNS1_IS2_T_EE
zh:_llvm_eh_typeid_for
tYg:__ZL79Event_t2956885303_CustomAttributesCacheGenerator_Event_get_modifiers_m995073384P21CustomAttributesCache
h1o:_glGetUniformLocation__wrapper
v5i:_RemotingServices_FindInterfaceMethod_m2125212568
pD:__ZNK23AnimationPlayableOutput7GetTypeEv
ZFe:__ZN5physx7NpScene19getActiveTransformsERjh
$Hk:_StreamWriter__cctor_m1229272693
nJc:__ZN13RendererScene38UpdatePreviousFrameDataForRendererTypeEii12RendererType
y3e:__ZN5physx6shdfnd5ArrayIPKNS_24PxsIndexedContactManagerENS0_19ReflectionAllocatorIS4_EEE8recreateEj
wCi:__Z109RuntimeInvoker_RuntimeObject_Ray_t3785851493_Single_t1397266774_Int32_t2950945753_RuntimeObject_RuntimeObjectPFvvEPK10MethodInfoPvPS4_
XPe:__ZN5physx6shdfnd8internal8HashBaseIjjNS0_4HashIjEENS1_11HashSetBaseIjS4_NS0_9AllocatorELb0EE6GetKeyES6_Lb0EE6createERKjRb
Y_h:_InternalEnumerator_1_MoveNext_m1543390728_gshared
vVf:_TMP_Dropdown_get_value_m2972109009
cGb:__Z18Transfer_BlittableI18StreamedBinaryReadILb0EELb1E8Vector4fEvRK29SerializationCommandArgumentsR31RuntimeSerializationCommandInfo
sub:__ZNSt3__26vectorI17ScriptingFieldPtr13stl_allocatorIS1_L18MemLabelIdentifier1ELi16EEE21__push_back_slow_pathIRKS1_EEvOT_
cyk:_SortKey_get_OriginalString_m1428586816
Ydh:__ZL72TMP_Style_t3479380764_CustomAttributesCacheGenerator_m_OpeningDefinitionP21CustomAttributesCache
OCi:__Z51RuntimeInvoker_Void_t1185182177_Vector4_t3319028937PFvvEPK10MethodInfoPvPS4_
Okf:__ZN14SafeBinaryRead21TransferSTLStyleArrayI13dynamic_arrayIN4core17string_with_labelILi35EEELj0EEEEvRT_17TransferMetaFlags
qPn:__ZL25UnresolvedVirtualCall_142P12Il2CppObject17Color_t2555686324faaaPK10MethodInfo
Vki:__Z67RuntimeInvoker_Void_t1185182177_SByte_t1669577662_SByte_t1669577662PFvvEPK10MethodInfoPvPS4_
c$m:_Collection_1_set_Item_m894620366_gshared
f3l:_Dictionary_2_U3CCopyToU3Em__0_m2023886030_gshared
ZGi:__Z64RuntimeInvoker_Boolean_t97287965_RefEmitPermissionSet_t484390987PFvvEPK10MethodInfoPvPS4_
cvl:_ShimEnumerator_MoveNext_m1353453605_gshared
t3o:_glBindVertexArray__wrapper
Ccf:__ZN5physx6shdfnd5ArrayINS_11RTreeNodeNQENS0_19ReflectionAllocatorIS2_EEE19resizeUninitializedEj
K3d:__ZNK5physx2Sc16InteractionScene18getLLIslandManagerEv
r7i:_SerializationInfo__ctor_m2923079689
ePa:__ZN8Material8TransferI14SafeBinaryReadEEvRT_
GQe:__ZN5physx17PxcNpMemBlockPool34acquireExceptionalConstraintMemoryEj
wTa:__ZN12CubemapArray17UploadToGfxDeviceEv
uOm:_Func_2__ctor_m1150804732_gshared
fAk:_Int32_JumpOverWhite_m208298144
a6n:__ZN15dense_hashtableINSt3__24pairIK10KeyWrapperIP9FieldInfoEiEES5_N6il2cpp5utils11PointerHashIS3_EEN14dense_hash_mapIS5_iSB_NS5_14EqualsComparerINS0_8equal_toIS4_EEEENS0_9allocatorIS7_EEE9SelectKeyESG_SI_E4swapERSL_
UHl:_Dictionary_2_System_Collections_ICollection_get_SyncRoot_m2353575981_gshared
SRe:__ZN5physxL23PxcSweepConvexTrianglesERKNS_11PxsCCDShapeES2_RKNS_11PxTransformES5_S5_S5_fRNS_6PxVec3ES7_RNS_10PxcNpCacheERNS_18PxcNpThreadContextERKNS_2Cm23FastVertex2ShapeScalingERNS_2Gu9TriangleVEf
roe:__ZNK5physx7NpShape16getPlaneGeometryERNS_15PxPlaneGeometryE
uJi:__Z53RuntimeInvoker_Int32_t2950945753_UIVertex_t4057497605PFvvEPK10MethodInfoPvPS4_
j2o:_emscripten_glGetUniformiv__wrapper
XGo:__ZN6il2cpp2vm13ManagedObject14QueryInterfaceERK10Il2CppGuidPPv
Mcf:__ZN5physx27InternalTriangleMeshBuilder14fillRemapTableEv
GP:__ZN11AudioSource4StopEb
kbe:__ZN5physx6shdfnd8PoolBaseINS_13NpRigidStaticENS0_19ReflectionAllocatorIS2_EEE17releaseEmptySlabsEv
zLk:_AppDomain_LoadAssembly_m1557889794
GLo:__ZN6il2cpp2os14WindowsRuntime13DeleteHStringEP15Il2CppHString__
trb:__ZN18GlslGpuProgramGLESD2Ev
mec:__ZN13RenderTexture14SetVolumeDepthEi
jhf:__ZThn116_NK5physx7profile8ZoneImplINS_28PxProfileNameProviderForwardEE10hasClientsEv
$Ze:__ZN5physx2Gu20pcmContactCapsuleBoxERKNS0_13GeometryUnionES3_RKNS_11PxTransformES6_RKfRNS0_5CacheERNS0_13ContactBufferE
Nti:__Z86RuntimeInvoker_Void_t1185182177_UInt16_t2177724958_SByte_t1669577662_SByte_t1669577662PFvvEPK10MethodInfoPvPS4_
xgn:_Predicate_1_EndInvoke_m2572100896_gshared
rnc:__Z22LoadGpuProgramFromDataPKhS0_Rj
c3c:__ZN10Matrix4x4f8TransferI8JSONReadEEvRT_
CFb:__Z15Transfer_StringI18StreamedBinaryReadILb0EELb0EEvRK29SerializationCommandArgumentsR31RuntimeSerializationCommandInfo
Zeh:__ZL68TMP_Text_t2599618874_CustomAttributesCacheGenerator_m_lineSpacingMaxP21CustomAttributesCache
tGj:_PositionAsUV1_ModifyMesh_m4231919476
aWk:_Hashtable__ctor_m1941859523
q5b:__Z26FindForwardLightsForObjectR13dynamic_arrayIhLj0EEPK11CulledLightjRK12ActiveLightsRK10RenderNodePK19ShaderPropertySheetbRK23FindForwardLightsParamsf
Una:__ZL44__ManagedRegistrationHelperFunction_GPUFencePv
pJj:_ScrollRect_set_horizontalScrollbarSpacing_m2209919081
hWb:__ZN25TransformFeedbackSkinning31CleanupTransformFeedbackShadersEv
lqm:_Type_GetTypeCodeInternal_m1968182887
sBa:__Z22scripting_object_unbox18ScriptingObjectPtr
BOh:_CriticalFinalizerObject__ctor_m3245424448
rTh:_AsyncResult_get_NextSink_m1844209137
Tlf:__ZNK20TextRenderingPrivate8FontImpl19GetCharacterAdvanceEjijfPj
sNo:__ZN6il2cpp6icalls8mscorlib4Mono8Security12Cryptography18KeyPairPersistence16_IsUserProtectedEP12Il2CppString
kRn:__ZL25UnresolvedVirtualCall_244P12Il2CppObject26DateTimeOffset_t3229287507S1_PK10MethodInfo
P0f:_TMP_Settings_get_enableExtraPadding_m167438525
lQo:_fmt_u
DZk:_Dictionary_2_Do_CopyTo_TisDictionaryEntry_t3123975638_TisDictionaryEntry_t3123975638_m1126292988_gshared
E_a:__ZN10VertexData8TransferI18StreamedBinaryReadILb0EEEEvRT_
_ae:__ZN5physx2Sc5Scene9addStaticERNS0_10StaticCoreEPKPvjj
nPo:__ZN6il2cpp8metadata25Il2CppGenericClassCompare7CompareEPK18Il2CppGenericClassS4_
CFh:_HorizontalOrVerticalLayoutGroup_set_childForceExpandHeight_m1754245348
bGf:__ZN2UI29ResetVRScreenSpaceWarningFlagEv
IVi:_MonoType_get_Assembly_m4290914179
aoc:__ZN9ShaderLab7ProgramC2E10MemLabelIdi10ShaderType
xec:__ZN14PreloadManager16UpdatePreloadingEv
tza:__ZN12BaseRendererD2Ev
Ztc:__ZNSt3__26vectorI4PPtrI10MonoScriptE13stl_allocatorIS3_L18MemLabelIdentifier79ELi16EEE6insertENS_11__wrap_iterIPKS3_EERS9_
xXf:_TMP_InputField_set_caretWidth_m141005399
FMe:__ZN5physx2Sc5Scene9addShapesEPKPvjjRNS0_8RigidSimEPNS_12PxsRigidBodyERPNS0_8ShapeSimEPNS_9PxBounds3E
lhm:_Array_InternalArray__set_Item_TisUILineInfo_t4195266810_m2313892078_gshared
ZVn:_U3CDefaultUnityWebRequestU3Ed__0_System_Collections_IEnumerator_Reset_m2946020892
X7h:_InternalEnumerator_1_System_Collections_IEnumerator_Reset_m3355902602_AdjustorThunk
Yih:__ZL168U3CU3Ec__Iterator1_t2360382562_CustomAttributesCacheGenerator_U3CU3Ec__Iterator1_System_Collections_Generic_IEnumeratorU3CSimpleJSON_JSONNodeU3E_get_Current_m3925466472P21CustomAttributesCache
Oqj:_PlayableAsset__ctor_m2395156306
Y3g:__ZL79StandaloneInputModule_t2760469101_CustomAttributesCacheGenerator_m_SubmitButtonP21CustomAttributesCache
Ezj:_InputField_SendOnValueChanged_m2560301445
RYe:__ZN5physx23PxcPCMContactConvexMeshERKNS_2Gu13GeometryUnionES3_RKNS_11PxTransformES6_RKfRNS_10PxcNpCacheERNS0_13ContactBufferE
j5:__ZN13RuntimeStaticI13dynamic_arrayI22RenderingExtPluginDescLj0EELb0EE13StaticDestroyEPv
Jhc:__ZNK21UnityDefaultAllocatorI17LowLevelAllocatorE8ContainsEPKv
ico:__ZNSt3__213__vector_baseI6pollfdNS_9allocatorIS1_EEED2Ev
f9i:_RuntimeTypeHandle_Equals_m2857439487
Ji:_emscripten_get_main_loop_timing
BGn:_UploadHandler__ctor_m1351468229
uPh:_SafeHandle_Finalize_m3866180675
BWa:__ZN24GenerateTypeTreeTransfer21TransferSTLStyleArrayINSt3__26vectorIN15QualitySettings14QualitySettingENS1_9allocatorIS4_EEEEEEvRT_17TransferMetaFlags
IGk:_MemoryStream_ToArray_m3911744835
FIi:__Z59RuntimeInvoker_Int32_t2950945753_KeyValuePair_2_t2530217319PFvvEPK10MethodInfoPvPS4_
tCi:__Z72RuntimeInvoker_Boolean_t97287965_RaycastHitU26_t2429360258_RuntimeObjectPFvvEPK10MethodInfoPvPS4_
Adc:__ZN23ManagedAttributeManager52CallManagedGetParentTypeDisallowingMultipleInclusionE17ScriptingClassPtr
b6a:__Z10AddGUIAxesR13dynamic_arrayI9InputAxisLj0EE
$Oo:__ZN6il2cpp2os5Event4WaitEjb
sqm:_Type_GetHashCode_m1947148725
Xoi:__Z91RuntimeInvoker_Void_t1185182177_RuntimeObject_RuntimeObject_RuntimeObject_SByte_t1669577662PFvvEPK10MethodInfoPvPS4_
eeb:__ZNK2UI13RectTransform22GetTypeVirtualInternalEv
p5c:__ZNK15PolynomialCurve18EvaluateIntegratedERKN4math7_float4E
Czl:__ZN28GenericInterfaceFuncInvoker2IP12Il2CppObjectS1_bE6InvokeEPK10MethodInfoS1_S1_b
Kq:getTempRet0
BMi:__Z59RuntimeInvoker_KeyValuePair_2_t1383673463_Int32_t2950945753PFvvEPK10MethodInfoPvPS4_
WQm:__ZN23GenericVirtFuncInvoker1Ib26ResolveHandler_t4124874245E6InvokeEPK10MethodInfoP12Il2CppObjectS0_
Eyi:__Z64RuntimeInvoker_UnityWebRequestError_t359680823_Int32_t2950945753PFvvEPK10MethodInfoPvPS4_
Q0j:_StrongName_get_Version_m4243032012
MMm:_Comparison_1_EndInvoke_m3369321931_gshared
y2h:_InternalEnumerator_1_MoveNext_m2234422530_gshared
wkd:__ZN26SizeModulePropertyBindings13GetFloatValueERK14ParticleSystemi
LKl:_Enumerator_System_Collections_IEnumerator_Reset_m2394182378_AdjustorThunk
zfo:__ZN6il2cpp2gc19AppendOnlyGCHashMapINSt3__24pairIPK14Il2CppAssemblyP11Il2CppClassEEP24Il2CppReflectionAssembly17ReflectionMapHashIS9_ENS2_8equal_toIS9_EEE10CopyValuesEPv
Qsh:_BaseRaycaster_OnEnable_m2678466030
qDl:_ValueCollection__ctor_m825399723_gshared
djj:_UnityEventBase__ctor_m1851535676
cYk:_Array_Sort_TisVector4_t3319028937_m2797285308_gshared
Cag:_U3CDelayLoadLevelU3Ec__Iterator1_Dispose_m1730294111
Oqk:_HandshakeMessage_Update_m2417837686
rNg:__ZL58ProfilerEndFrame_t852348665_CustomAttributesCacheGeneratorP21CustomAttributesCache
Q0n:_Physics_RaycastAll_m3796226007
Dso:__ZN6il2cpp6icalls8mscorlib6System9ThreadingL21lookup_cached_cultureEP12Il2CppThreadi
EMn:_NetFxCoreExtensions_CreateDelegate_m751211712
V8b:__ZN18DeferredRenderLoopD2Ev
n_n:_AnimationLayerMixerPlayable__cctor_m4086299972
rua:__ZNK16TypeTreeIterator4NameEv
JYk:_Array_swap_TisUICharInfo_t75501106_m3934244159_gshared
tmg:__ZL40UIntPtr_t_CustomAttributesCacheGeneratorP21CustomAttributesCache
Gba:__ZN15FileSystemEntry3SetEPKc
V3e:__ZN5physx6shdfnd5ArrayIPNS_13PxcNpMemBlockENS0_19ReflectionAllocatorIS3_EEE6resizeEjRKS3_
Hxh:_AspectRatioFitter_get_aspectMode_m3735191157
Qwc:__Z52Register_UnityEngine_Application_set_targetFrameRatev
FAe:__ZN5physx14NpRigidDynamic8requiresERNS_23PxProcessPxBaseCallbackE
WCm:_ReadOnlyCollection_1_System_Collections_Generic_IListU3CTU3E_Insert_m568455025_gshared
ieg:_JSONBool_get_Value_m1129555109
GO:__ZN20SoundChannelInstance15ParameterBuffer5ApplyEPN4FMOD7ChannelE
D2m:_Collection_1_CheckWritable_m2727304722_gshared
jak:_IPv6Address__ctor_m4117281080
gXf:_SelectionEvent__ctor_m3977662582
w7k:_Convert_ToInt64_m2075293963
Qlf:__ZN20TextRenderingPrivate19NativeTextGenerator9InsertTabEv
GUo:_sbrk
Hdd:__Z13DragUpdateTplIL27ParticleSystemCurveEvalMode2EEvRK11MinMaxCurvebbR23ParticleSystemParticlesjjRKN4math7_float4E
vtg:__ZL92ResourceSet_t2827911187_CustomAttributesCacheGenerator_ResourceSet_GetEnumerator_m3459697719P21CustomAttributesCache
L6m:_Collection_1_System_Collections_Generic_ICollectionU3CTU3E_get_IsReadOnly_m1032650589_gshared
IM:__ZL49__ManagedRegistrationHelperFunction_AudioSettingsPv
Rgf:__ZN5physx7profile8ZoneImplINS_28PxProfileNameProviderForwardEE21setProfileZoneManagerEPNS_20PxProfileZoneManagerE
GLf:__ZN11UnityEngine15PlatformWrapper24GetRuntimePlatformStringEv
tj:_glIsEnabled
udb:__ZN15CacheWriterBaseD2Ev
M_d:__ZN5physx3Cct17CapsuleController15setFootPositionERKNS_14PxExtendedVec3E
QTd:__ZN5physx2Gu33PCMCapsuleVsMeshContactGeneration13generateEEMTDERKNS_6shdfnd3aos5Vec3VES6_RKNS3_6FloatVES6_jS6_S6_PNS0_21MeshPersistentContactERj
X_i:_DerivedType__ctor_m1853298054
pub:__Z25scripting_class_get_image17ScriptingClassPtr
Ike:__ZN18MultiQueryCallbackIN5physx10PxSweepHitEED0Ev
q_a:__ZN10SpriteBone8TransferI24GenerateTypeTreeTransferEEvRT_
KVl:_List_1_RemoveAt_m2730968292_gshared
L8a:__ZNSt3__26vectorIN4core12basic_stringIcNS1_20StringStorageDefaultIcEEEE13stl_allocatorIS5_L18MemLabelIdentifier13ELi16EEEC2INS_11__wrap_iterIPS5_EEEET_SE_RKS8_PNS_9enable_ifIXaasr21__is_forward_iteratorISE_EE5valuesr16is_constructibleIS5_NS_15iterator_traitsISE_E9referenceEEE5valueEvE4typeE
xj:_emscripten_glDrawElementsInstanced
_B:__ZN26AnimatorControllerPlayable27SetupStateMachineBehavioursEv
WRj:_Array_InternalArray__IEnumerable_GetEnumerator_TisSlot_t3975888750_m1869932007_gshared
xkk:_KeyBuilder_get_Rng_m983065666
zKg:__ZL48Mathf_t3464937446_CustomAttributesCacheGeneratorP21CustomAttributesCache
NIg:__ZL79Camera_t4157153871_CustomAttributesCacheGenerator_Camera_RaycastTry_m3913529496P21CustomAttributesCache
HDj:_LayoutGroup_get_preferredWidth_m3816902260
Iqh:_TextMeshProUGUI_Cull_m2430697619
x$m:_Collection_1_System_Collections_IList_set_Item_m478492625_gshared
bKa:__ZN18JobBatchDispatcherD2Ev
$db:__ZN9Transform17MainThreadCleanupEv
u4l:_DefaultComparer_Equals_m1870794912_gshared
LJo:_GC_clear_hdr_marks
rpd:__Z17UpdateSprites2TplIL27ParticleSystemCurveEvalMode1ELS0_4EEvfRK11MinMaxCurveS3_RK23ParticleSystemParticlesPf
N5f:_TMP_Text_get_pageToDisplay_m1088040628
Lof:_cff_fd_select_get
xMj:_Text_set_resizeTextForBestFit_m4095249125
sck:_OidEnumerator_MoveNext_m3138911739
xHi:__Z53RuntimeInvoker_Boolean_t97287965_Keyframe_t4206410242PFvvEPK10MethodInfoPvPS4_
Ij:_emscripten_glGetShaderiv
ZP:__ZN4FMOD6System10getVersionEPj
Q4e:__ZN5physx2Sc7BodySim10sleepCheckEffb
kCf:__ZN2UI6Canvas23VirtualRedirectTransferER24GenerateTypeTreeTransfer
GKj:_Selectable_set_animationTriggers_m2970345687
Feg:_JSONLazyCreator_get_AsFloat_m3551746937
G0c:__ZN9JSONWrite8TransferIN4math12int2_storageEEEvRT_PKc17TransferMetaFlags
Akf:__ZN13TextRendering4Font13AwakeFromLoadE17AwakeFromLoadMode
uvk:_CompareInfo_LastIndexOf_m2688553706
CBi:__Z55RuntimeInvoker_Boolean_t97287965_Navigation_t3049316579PFvvEPK10MethodInfoPvPS4_
P3o:_emscripten_glCullFace__wrapper
FGi:__Z58RuntimeInvoker_Boolean_t97287965_RejectHandler_t1435172309PFvvEPK10MethodInfoPvPS4_
nmb:__ZN9GfxDevice21ReleaseSharedMeshDataEP14SharedMeshData
v$m:_Collection_1_System_Collections_IList_get_IsReadOnly_m3072577387_gshared
Fvh:_MouseState__ctor_m1467839005
$xn:_Uri_IsDomainAddress_m2867513594
M7a:__ZNSt3__27__sort5IRNS_6__lessINS_4pairIPKN5Unity4TypeE7Hash128EES8_EEPS8_EEjT0_SC_SC_SC_SC_T_
TAg:__ZL79Convert_t2465617642_CustomAttributesCacheGenerator_Convert_ToDouble_m2949593046P21CustomAttributesCache
ACh:_Dropdown_CreateItem_m2954407740
SIo:_GC_unreachable_finalize_mark_proc
xrj:_PlayerConnectionInternal_PollInternal_m3759016321
Pdk:_X509Chain_ProcessCrlExtensions_m236234529
Pg:___syscall192
u4k:_Convert_ToByte_m2375887898
Gdh:__ZL80TMP_Settings_t2071156274_CustomAttributesCacheGenerator_m_defaultSpriteAssetPathP21CustomAttributesCache
RZl:_List_1__ctor_m369633558_gshared
N4n:__ZN6il2cpp2vm5Class40GetInterfaceInvokeDataFromVTableSlowPathEPK12Il2CppObjectPK11Il2CppClassj
A7g:__ZL85ScrollRect_t4137855814_CustomAttributesCacheGenerator_m_HorizontalScrollbarVisibilityP21CustomAttributesCache
M7c:__ZN11ShapeModule18MultiModeParameterIN25IParticleSystemProperties8PropertyIfNS1_5ClampILi0ELi360EEEEEE8TransferI24GenerateTypeTreeTransferEEvRT_
asc:__Z43RectTransform_CUSTOM_INTERNAL_get_anchorMaxP12Il2CppObjectP13Vector2fIcall
wje:__ZN5physx14NpShapeManagerC2Ev
H4i:_RealProxy_get_ObjectIdentity_m2790771985
eni:__Z49RuntimeInvoker_Void_t1185182177_Int16_t2552820387PFvvEPK10MethodInfoPvPS4_
O5k:_Decimal_Parse_m942471224
aEa:__ZN8Material28UpdateHashesOnPropertyChangeEN9ShaderLab16FastPropertyNameE
j4m:_Collection_1_System_Collections_IList_get_Item_m1368877441_gshared
hik:_Locale_GetText_m3520169047
ivc:__Z53Register_UnityEngine_SortingLayer_GetLayerValueFromIDv
cqn:_TMP_UiFrameRateCounter_Awake_m2736519745
$jk:_ASN1_GetBytes_m1968380955
VNg:__ZL85RectOffset_t1369453676_CustomAttributesCacheGenerator_RectOffset_set_right_m807318764P21CustomAttributesCache
itb:__Z18Transfer_BlittableI14SafeBinaryReadLb1E8Vector4fEvRK29SerializationCommandArgumentsR31RuntimeSerializationCommandInfo
XSf:__ZN13RuntimeStaticINSt3__26vectorI23UnityVRDeviceDefinition13stl_allocatorIS2_L18MemLabelIdentifier90ELi16EEEELb0EE13StaticDestroyEPv
fS:__ZN11AudioSource12AddToManagerEv
Fw:__ZN8Animator23VirtualRedirectTransferER19StreamedBinaryWriteILb0EE
LD:__ZN11UnityEngine9Animation32CreateAnimatorGenericBindingsOptERKNS0_20AnimationSetBindingsER9TransformPKN7mecanim9animation14AvatarConstantEPKNS0_21AvatarBindingConstantEbRNS6_6memory9AllocatorER8Animator
vLm:_ReadOnlyCollection_1_get_Count_m3746330764_gshared
Wwo:__ZN6il2cpp2vm5Image13ClassFromNameEPK11Il2CppImagePKcS6_
zVo:dynCall_vdddddd
zlc:__ZN24GenerateTypeTreeTransfer21TransferSTLStyleArrayINSt3__26vectorIN9ShaderLab14SerializedPassENS1_9allocatorIS4_EEEEEEvRT_17TransferMetaFlags
q7d:__ZN5physx6shdfnd8internal8HashBaseIPNS_2Sc13ConstraintSimES5_NS0_4HashIS5_EENS1_11HashSetBaseIS5_S7_NS0_9AllocatorELb1EE6GetKeyES9_Lb1EE6createERKS5_Rb
h7:__ZL32MarkLevelGameManagerDependenciesR27GarbageCollectorThreadState
SVh:_U3CU3Ec__DisplayClass24_0__ctor_m1023270447_gshared
nRb:__ZNK13GfxDeviceGLES26HasActiveRandomWriteTargetEv
NSk:_ArrayList_CopyTo_m3962521159
X$l:_KeyValuePair_2_get_Value_m392474074_gshared
ROn:__ZL25UnresolvedVirtualCall_115P12Il2CppObjectsaaaPK10MethodInfo
OQn:__ZL25UnresolvedVirtualCall_220P12Il2CppObject25RejectHandler_t1435172309S1_PK10MethodInfo
ffe:__ZNK5physx15NpActorTemplateINS_18PxArticulationLinkEE7getNameEv
eQc:__Z29Matrix4x4_CUSTOM_TRS_InjectedRK8Vector3fRK11QuaternionfS1_R10Matrix4x4f
O_o:_glGetActiveUniformsiv__wrapper
sPa:__ZN14SafeBinaryRead8TransferINSt3__24pairIN9ShaderLab16FastPropertyNameE10ColorRGBAfEEEEvRT_PKc17TransferMetaFlags
VVd:__ZNK5physx3Cct10Controller16getInternalStateERNS_17PxControllerStateE
voj:_Mesh_GetIndices_m2873123901
xef:__ZZN8Collider15InitializeClassEvEN37FunctorImpl_822kForceRecreateCollider4CallEPviR11MessageData
C9:__ZN13MonoBehaviour19SetupScriptingCacheE17ScriptingClassPtrP10MonoScript
e$n:__ZL9rshift128PyS_
Bco:__ZNSt3__214__split_bufferIP12Il2CppThreadRNS_9allocatorIS2_EEED2Ev
UG:__Z20AnimationEventToMonoRK14AnimationEventR18MonoAnimationEvent
pGc:__ZZN8Renderer15InitializeClassEvEN28FunctorImpl_145kLayerChanged4CallEPviR11MessageData
NAh:_FloatTween_set_targetValue_m3604919944_AdjustorThunk
xSk:_ArrayList_get_IsReadOnly_m913775115
tvh:_PointerEventData_get_dragging_m746831934
cqm:_Type_get_TypeHandle_m160082026
FLe:__ZN5physx10PxsContext15setScratchBlockEPvj
ZJm:_ReadOnlyCollection_1_System_Collections_IEnumerable_GetEnumerator_m2781605075_gshared
tin:_TMP_XmlTagStack_1_Remove_m1417473052_AdjustorThunk
bra:__ZN9Scripting11UnityEngine12Experimental9Rendering15ShadowSplitData12CleanupProxyEv
Zfa:__ZZN15DirectorManager15InitializeClassEvEN52PreLateUpdateDirectorUpdateAnimationBeginRegistrator7ForwardEv
fMi:__Z101RuntimeInvoker_Void_t1185182177_TMP_WordInfoU5BU5DU26_t1030603914_Int32_t2950945753_Int32_t2950945753PFvvEPK10MethodInfoPvPS4_
EEh:_Graphic_RegisterDirtyMaterialCallback_m106898453
$Bn:_GUILayoutEntry_get_margin_m3174861737
Vva:__ZN4PPtrI6SpriteE8TransferI14SafeBinaryReadEEvRT_
p6l:_EqualityComparer_1_System_Collections_IEqualityComparer_Equals_m1672604045_gshared
Rcg:_Mover__ctor_m198178838
Nqo:__ZN15dense_hashtableINSt3__24pairIK10KeyWrapperIP11Il2CppClassES4_EES5_N6il2cpp8metadata16SZArrayClassHashEN14dense_hash_mapIS5_S4_SA_NS5_14EqualsComparerINS9_19SZArrayClassCompareEEENS0_9allocatorIS7_EEE9SelectKeyESE_SG_E16reset_thresholdsEv
gVm:_List_1_GetEnumerator_m2095602005_gshared
o2d:__ZN5physx2Cm27getDynamicGlobalPoseAlignedERKNS_11PxTransformES3_S3_RS1_
Pcm:_Array_InternalArray__ICollection_CopyTo_TisResolveHandler_t4124874245_m1101829896_gshared
ywo:__ZNK15dense_hashtableINSt3__24pairIK10KeyWrapperINS1_IPKcS4_EEEiEES6_24NamespaceAndNamePairHashN14dense_hash_mapIS6_iS9_NS6_14EqualsComparerI26NamespaceAndNamePairEqualsEENS0_9allocatorIS8_EEE9SelectKeyESD_SF_E13find_positionERS7_
Qkc:__ZNSt3__26vectorIN9ShaderLab14SerializedPassENS_9allocatorIS2_EEE8__appendEj
uaf:__ZN5physx6shdfnd5ArrayIPvNS0_19ReflectionAllocatorIN17PxcPoolMallocData10PoolData32EEEE15growAndPushBackERKS2_
dkc:__ZNSt3__26vectorIN9ShaderLab20SerializedSubProgram13BufferBindingENS_9allocatorIS3_EEEC2INS_11__wrap_iterIPS3_EEEET_SB_RKS5_PNS_9enable_ifIXaasr21__is_forward_iteratorISB_EE5valuesr16is_constructibleIS3_NS_15iterator_traitsISB_E9referenceEEE5valueEvE4typeE
JQi:__Z37RuntimeInvoker_Enumerator_t3436819725PFvvEPK10MethodInfoPvPS4_
lrj:_PlayableOutputHandle_op_Equality_m388301694
k5j:_Encoding_get_ISOLatin1_m2107621369
nvd:__ZNK16PhysicsManager2D21GetAutoSyncTransformsEv
rEc:__ZZL23RegisterLightPropertiesR22GenericPropertyBindingEN20Wrapper_LightColorb213GetFloatValueEPv
Dkh:__ZL194U3CDisplayTextMeshProFloatingTextU3Ec__Iterator0_t2967292235_CustomAttributesCacheGenerator_U3CDisplayTextMeshProFloatingTextU3Ec__Iterator0_System_Collections_IEnumerator_get_Current_m520746775P21CustomAttributesCache
BKg:__ZL89Mathf_t3464937446_CustomAttributesCacheGenerator_Mathf_SmoothDamp_m394423605____maxSpeed4P21CustomAttributesCache
Ytd:__ZN12b2WheelJoint24SolveVelocityConstraintsERK12b2SolverData
tsj:_Quaternion_LookRotation_Injected_m3680180073
nmg:__ZL72IntPtr_t_CustomAttributesCacheGenerator_IntPtr_op_Inequality_m3063970704P21CustomAttributesCache
CKb:__ZNK25PathNamePersistentManager30PathIDToFileIdentifierInternalEi
HVa:__ZN9Texture2D23VirtualRedirectTransferER18StreamedBinaryReadILb0EE
HEd:__ZN10Collider2D8TransferI24GenerateTypeTreeTransferEEvRT_
XRf:__Z53Register_UnityEngine_Networking_UnityWebRequest_Abortv
ofg:_JSONNode_get_Linq_m3913908471
j3f:_TMP_SubMeshUI_set_fallbackMaterial_m2367683490
pMl:_Enumerator_MoveNext_m1177880931_gshared
_bi:_DefaultComparer__ctor_m3288720761_gshared
oIi:__Z102RuntimeInvoker_Int32_t2950945753_RuntimeObject_Vector2_t2156229523_Int32_t2950945753_Int32_t2950945753PFvvEPK10MethodInfoPvPS4_
N5n:__ZN30dense_hashtable_const_iteratorINSt3__24pairIK10KeyWrapperIPKcEP11Il2CppClassEES5_N6il2cpp5utils11StringUtils12StringHasherIS4_EEN14dense_hash_mapIS5_S8_SE_NS5_14EqualsComparerINSB_13VmStringUtils21CaseSensitiveComparerEEENS0_9allocatorIS9_EEE9SelectKeyESJ_SL_E30advance_past_empty_and_deletedEv
iWg:__ZL73g_UnityEngine_TextRenderingModule_Assembly_CustomAttributesCacheGeneratorP21CustomAttributesCache
haa:__ZN16ScriptingManager27NativeTypeForScriptingClassE17ScriptingClassPtr
ctm:_UInt64_System_IConvertible_ToDateTime_m3434604642
Zpm:_Type_get_IsSerializable_m1040556850
Ioh:_TextContainer_get_isAutoFitting_m1107908275
stf:_get_sfnt_table
ajm:_Array_Resize_TisUIVertex_t4057497605_m1219201596_gshared
M_m:_Collection_1_System_Collections_IList_get_IsReadOnly_m3152651585_gshared
org:__ZL55StreamWriter_t1266378904_CustomAttributesCacheGeneratorP21CustomAttributesCache
zun:_Parser_ResolveReferences_m1518052352
rAb:__Z29Transfer_Blittable_ArrayFieldI24GenerateTypeTreeTransferiEvRT_R9ArrayInfoRK23StaticTransferFieldInfo
$Rb:__ZThn10632_N13GfxDeviceGLES25SetStereoConstantPlatformEijRK8Vector4f
rXa:__ZN8Renderer20RendererAddedToSceneEv
L0l:_Dictionary_2_System_Collections_IDictionary_Add_m439212047_gshared
xac:__ZL22ScheduleSceneNodesJobsP25ScheduleSceneNodesJobDataj
kUe:__ZN5physx22concludeContactCoulombERKNS_23PxcSolverConstraintDescERNS_16PxcSolverContextE
Bl:_emscripten_set_canvas_size
IDh:_Graphic_SetVerticesDirty_m2124914069
Dve:__ZNK5physx15NpParticleFluid12getStiffnessEv
xvk:_CultureInfo__ctor_m3285927757
wFj:_MaskableGraphic_get_rootCanvasRect_m3492154629
D0c:__ZN9JSONWrite8TransferI13dynamic_arrayI11QuaternionfLj0EEEEvRT_PKc17TransferMetaFlags
wsd:__ZN9Scripting11UnityEngine9Physics2D9InitProxyEv
Xim:_Array_Resize_TisRaycastResult_t3360306849_m1811054291_gshared
XDc:__ZN12MeshRenderer27PrepareSingleRendererUpdateER13RendererSceneRS_10MemLabelId
Phm:_Array_qsort_TisOrderBlock_t1585977831_TisOrderBlock_t1585977831_m1675918557_gshared
DDm:_ReadOnlyCollection_1_System_Collections_Generic_ICollectionU3CTU3E_get_IsReadOnly_m3152485890_gshared
wkc:__ZNSt3__26vectorIN9ShaderLab20SerializedSubProgramENS_9allocatorIS2_EEE8__appendEj
k3:__ZN20DynamicHeapAllocatorI17LowLevelAllocatorE8AllocateEji
_Hf:__ZN11UnityEngine9Analytics15UserCustomEvent12ToJsonStringER9JSONWrite
xDn:_Locale_GetText_m2427493201
A2b:__ZN20DynamicPropertySheet15SetVectorQueuedERKN9ShaderLab16FastPropertyNameERK8Vector4fN19ShaderPropertySheet8SetFlagsE
_E:__ZN7mecanim9animation22EvaluateAvatarRetargetEPKNS0_14AvatarConstantEPKNS0_11AvatarInputEPNS0_12AvatarOutputEPNS0_12AvatarMemoryEPNS0_15AvatarWorkspaceEb
p8h:_InternalEnumerator_1_System_Collections_IEnumerator_Reset_m996811230_AdjustorThunk
UIa:__ZN14RenderSettings23VirtualRedirectTransferER19StreamedBinaryWriteILb0EE
nZg:__ZL59GUISkin_t1244372282_CustomAttributesCacheGenerator_m_windowP21CustomAttributesCache
c$c:__ZL26Transfer_SimpleNativeClassI9JSONWrite10RectOffsetLb0EEvRK29SerializationCommandArgumentsR31RuntimeSerializationCommandInfo
kJo:_GC_push_conditional
RHf:__ZN21UnityAnalyticsManager23VirtualRedirectTransferER24GenerateTypeTreeTransfer
i1a:__ZN17GenericDynamicVBO10AllocateVBEjR21DynamicVBOChunkHandle
Jok:_ClientContext_get_SslStream_m1583577309
kDl:_ValueCollection_System_Collections_Generic_ICollectionU3CTValueU3E_get_IsReadOnly_m3423371260_gshared
pYe:__ZL27PxcTestFacesSepAxesBackfaceRKN5physx2Gu13PolygonalDataES3_RKNS_2Cm8Matrix34ES7_RKNS4_23FastVertex2ShapeScalingESA_S7_RKNS_6PxVec3ERfRSB_RjPjSG_fSD_
acl:_DBNull_ToString_m3638608738
oyo:__ZN30dense_hashtable_const_iteratorI10KeyWrapperIP18Il2CppGenericClassES3_N6il2cpp8metadata22Il2CppGenericClassHashEN14dense_hash_setIS3_S6_NS3_14EqualsComparerINS5_25Il2CppGenericClassCompareEEENSt3__29allocatorIS3_EEE8IdentityESA_SD_EppEv
MUk:_BitArray_Clone_m3537018332
V6i:_ObjectRecord_UnchainFixup_m3191243952
Sbn:_TlsStream_get_CanWrite_m16389328
KFf:__Z15GetUIModuleSpecv
Lxi:__Z65RuntimeInvoker_RuntimeObject_RuntimeObject_Vector3U26_t3464235976PFvvEPK10MethodInfoPvPS4_
mkf:__ZN9Scripting11UnityEngine8UIVertex9InitProxyEv
_l:_glMapBufferRange
zVa:__ZN9Texture2D8TransferI18StreamedBinaryReadILb0EEEEvRT_
pzc:__Z31Input_CUSTOM_GetMouseButtonDowni
E2f:_TMP_SubMesh_get_isDefaultMaterial_m4218956554
QJc:__ZN13PlayableGraph4PlayEv
Qqe:__ZNK5physx7NpCloth23getExternalAccelerationEv
Meb:__ZNK9Transform16GetLocalPositionEv
N6j:_EncoderExceptionFallbackBuffer_get_Remaining_m1573636148
LVi:_MonoType_get_BaseType_m1098640416
T9a:__ZN13LoadOperation19IntegrateTimeSlicedEi
jcn:_TlsStream_Read_m3392972801
Zxj:_TouchScreenKeyboard_get_status_m3936201565
KVe:__ZN5physx16PxsBroadPhaseMBP9updatePPUEPNS_10PxBaseTaskE
xRb:__ZN13GfxDeviceGLES22DispatchComputeProgramE12ObjectHandleI18ComputeProgram_TagPvE15ComputeBufferIDj
n0g:__ZL95BoxCollider_t1640800422_CustomAttributesCacheGenerator_BoxCollider_INTERNAL_set_size_m404545260P21CustomAttributesCache
fvj:_Transform_get_localToWorldMatrix_m4155710351
SYb:__ZN20DefaultGfxDeviceImpl32InitStereoGlobalsBuffersPlatformEiijPKv
Ajm:_Latin1Encoding_GetString_m254210343
ilk:_MD4Managed_GG_m1845276249
Vbb:__Z17TransformAABBSlowRK4AABBRK10Matrix4x4fRS_
ONk:_Array_combsort_m4052486289
pRk:_Char_System_IConvertible_ToUInt16_m2449138174
WQ:__ZN24AudioScriptBufferManager27InitialCompleteDomainReloadEv
hWl:_List_1_System_Collections_ICollection_get_SyncRoot_m314215814_gshared
Wic:__ZN9ShaderLab21SerializedShaderState8TransferI14SafeBinaryReadEEvRT_
ugl:_Environment_GetWindowsFolderPath_m1738399646
$Zm:_Queue_1_System_Collections_Generic_IEnumerableU3CTU3E_GetEnumerator_m2263220760_gshared
nXm:_List_1_Sort_m378918663_gshared
s9e:__ZN5physx2Gu13RTreeMidphaseC2Ev
h5l:_DefaultComparer_GetHashCode_m77036565_gshared
Lpf:_cf2_stack_pushInt
fI:__ZN7mecanim9animation20DestroyLayerConstantEPNS0_13LayerConstantERNS_6memory9AllocatorE
SE:__ZN8Animator19FireAnimationEventsERNS_11AnimatorJobE
Mxe:__ZN5physx6shdfnd8PoolBaseINS_16NpParticleSystemENS0_19ReflectionAllocatorIS2_EEE12allocateSlabEv
JJh:_Module_GetCustomAttributes_m76573271
tph:_TextMeshPro_UpdateMaterial_m854395998
tYl:_List_1_CopyTo_m2321906348_gshared
VPa:__ZN15SerializeTraitsINSt3__24pairIN4core12basic_stringIcNS2_20StringStorageDefaultIcEEEES6_EEE8TransferI24GenerateTypeTreeTransferEEvRS7_RT_
r0o:b89
q0o:b88
$_o:b81
Y_o:b80
JWb:__ZN7ApiGLES19CreateSparseTextureEjj14GraphicsFormatiiiiRiS1_S1_
Xaa:__ZN18ResourceImageGroup7CleanupEv
n0o:b85
b5d:__ZN5physx2Gu36closestPtPointTetrahedronTesselationEPNS_6shdfnd3aos5Vec3VES4_S4_RjRS3_S6_
p0o:b87
DUg:__ZL96Transform_t3600365921_CustomAttributesCacheGenerator_Transform_Rotate_m1660364534____relativeTo3P21CustomAttributesCache
$r:__ZN11Quaternionf8TransferI24GenerateTypeTreeTransferEEvRT_
EYe:__ZN5physx25PxcPCMContactSphereConvexERKNS_2Gu13GeometryUnionES3_RKNS_11PxTransformES6_RKfRNS_10PxcNpCacheERNS0_13ContactBufferE
wVh:_RemotingSurrogateSelector_GetSurrogate_m3900875713
nrk:_TlsServerCertificate_validateCertificates_m4242999387
g6e:__ZN5physx2Cm18DelegateFanoutTaskINS_2Sc5SceneEXadL_ZNS3_20particlePostShapeGenEPNS_10PxBaseTaskEEEED0Ev
pHm:_ReadOnlyCollection_1_System_Collections_IList_get_IsReadOnly_m3626439112_gshared
Wmk:_CertificateValidationCallback_Invoke_m1014111289
tLa:__ZN8Playable19SetOutputConnectionEPS_i
Gxm:__ZN23InterfaceActionInvoker2Ii19Vector2_t2156229523E6InvokeEjP11Il2CppClassP12Il2CppObjectiS0_
LEa:__Z20RenderMultipleMeshesRK15RenderNodeQueueRK18RenderMultipleData16VertexInputMasks
Om:_glDeleteShader
aXk:_Array_Sort_TisChar_t3634460470_TisChar_t3634460470_m992244203_gshared
Oja:__ZN6prcoreL17RemapGenericFloatI15TexFormatRGHalf16TexFormatRGFloatEEvPKNS_9InnerInfoE
PXk:_Array_Sort_TisUICharInfo_t75501106_m128665067_gshared
Yrf:_otv_GSUB_validate
OYj:_RSAPKCS1SignatureDeformatter_SetHashAlgorithm_m1602190713
wfl:_Enum_System_IConvertible_ToByte_m1219166845
Nle:__ZN5physx6shdfnd8PoolBaseINS_10NpMaterialENS0_19ReflectionAllocatorIS2_EEE15disposeElementsEv
o$l:_Dictionary_2_CopyToCheck_m45332585_gshared
f6m:_Collection_1_System_Collections_IList_IndexOf_m2831626011_gshared
Rdm:_Array_InternalArray__ICollection_CopyTo_TisTMP_MeshInfo_t2771747634_m3871978652_gshared
OUm:_List_1_System_Collections_ICollection_get_IsSynchronized_m3630704857_gshared
i_i:_ConstructorInfo__cctor_m1016079270
r0f:_TMP_MeshInfo_ClearUnusedVertices_m888817622_AdjustorThunk
v$h:_InternalEnumerator_1_System_Collections_IEnumerator_Reset_m4239728915_AdjustorThunk
wLf:__ZN11UnityEngine15PlatformWrapper20IsRootedOrJailbrokenEv
hoc:__Z27scripting_add_internal_callPKcPKv
Awm:__ZN21InterfaceFuncInvoker1Ib20UIVertex_t4057497605E6InvokeEjP11Il2CppClassP12Il2CppObjectS0_
ALk:_AppDomain_Load_m4174353770
yUg:__ZL106Transform_t3600365921_CustomAttributesCacheGenerator_Transform_INTERNAL_get_localToWorldMatrix_m1917635696P21CustomAttributesCache
pEa:__Z17GetPlayerSettingsv
Ikc:__ZNSt3__26vectorIN9ShaderLab20SerializedSubProgram16SamplerParameterENS_9allocatorIS3_EEE6assignIPS3_EENS_9enable_ifIXaasr21__is_forward_iteratorIT_EE5valuesr16is_constructibleIS3_NS_15iterator_traitsISA_E9referenceEEE5valueEvE4typeESA_SA_
yF:__ZN34BlobWriteTransferSTLStyleArrayImplI22OffsetPtrArrayTransferIiEEclERS1_17TransferMetaFlagsR9BlobWrite
BFn:_UnityWebRequest_get_disposeCertificateHandlerOnDispose_m4051074453
Ahm:_Array_qsort_TisByte_t1134296376_m726517433_gshared
BKh:_MonoField_get_FieldHandle_m3729647377
sVc:__ZN9Scripting11UnityEngine3GUI9InitProxyEv
lmh:_FastAction_Call_m217488180
OIj:_ScrollRect_get_content_m2477524320
N$l:_Dictionary_2__ctor_m2709410819_gshared
$pl:_Enumerator_MoveNext_m1556953412_AdjustorThunk
$w:__ZN26AnimatorControllerPlayable18SetLayerAutoWeightEv
gc:invoke_vffff
_wn:_Literal_GetAnchorInfo_m810577400
hIo:_GC_alloc_large
k9c:__ZN20ExternalForcesModule8TransferI19StreamedBinaryWriteILb0EEEEvRT_
ZGf:__ZN2UI14CanvasRenderer12SyncMaterialENS0_8SyncFlagE
vnh:_MaterialReference_AddMaterialReference_m1459790169
kIk:_StreamWriter_Write_m1660535366
BKi:__Z66RuntimeInvoker_Void_t1185182177_Int32_t2950945753_Link_t3209266973PFvvEPK10MethodInfoPvPS4_
Duh:_PhysicsRaycaster_get_finalEventMask_m5197086
kNo:__ZN6il2cpp2vm9Parameter30GetDefaultParameterValueObjectEPK10MethodInfoPK13ParameterInfoPb
Blm:_UTF8Encoding_GetByteCount_m4152118078
PJi:__Z71RuntimeInvoker_Void_t1185182177_CustomAttributeNamedArgument_t287865710PFvvEPK10MethodInfoPvPS4_
aml:_KeyPairPersistence__CanSecure_m3516574278
$cj:_MD5CryptoServiceProvider_Dispose_m3502499818
F6l:_EqualityComparer_1_get_Default_m2359341649_gshared
Sfe:__ZN5physx19NpRigidBodyTemplateINS_18PxArticulationLinkEE16setRigidBodyFlagENS_15PxRigidBodyFlag4EnumEb
a$m:_Collection_1_get_Count_m2196797808_gshared
G7m:_Collection_1_System_Collections_IList_get_Item_m2422562729_gshared
Ewi:__Z87RuntimeInvoker_Void_t1185182177_RuntimeObject_StringU26_t181565287_StringU26_t181565287PFvvEPK10MethodInfoPvPS4_
IJa:__ZN12LightManager28IsLightTransformDataUpToDateEPK5Light
jng:__ZL74RuntimeArray_CustomAttributesCacheGenerator_Array_BinarySearch_m3171087170P21CustomAttributesCache
Kmg:__ZL72Enum_t4135868527_CustomAttributesCacheGenerator_Enum_ToObject_m122225012P21CustomAttributesCache
euf:_UNITY_tt_face_done_kern
aok:_SecurityParameters_get_ServerWriteMAC_m3430427271
OZg:__ZL90GUIStyle_t3956901511_CustomAttributesCacheGenerator_GUIStyle_get_stretchHeight_m4172805773P21CustomAttributesCache
Jfh:__ZL68g_UnityEngine_StandardEvents_Assembly_CustomAttributesCacheGeneratorP21CustomAttributesCache
FXh:_ArrayReadOnlyList_1_RemoveAt_m2104218585_gshared
Pfd:__Z25UpdateOrbitalAndRadialTplIL27ParticleSystemCurveEvalMode1ELS0_2ELS0_4EEvRK11MinMaxCurveS3_S3_S3_S3_S3_S3_R23ParticleSystemParticlesjjRKN4math8float3x3ERKNS6_7affineXERKNS6_7_float4E
u_a:__ZN12BoneWeights48TransferI24GenerateTypeTreeTransferEEvRT_
lSj:_Array_InternalArray__IEnumerable_GetEnumerator_TisParameterModifier_t1461694466_m3675077728_gshared
SBd:__ZN35b2InitializeVelocityConstraintsTaskD2Ev
Sma:__ZL49__ManagedRegistrationHelperFunction_PreLateUpdatePv
_6g:__ZL60RawImage_t3182918964_CustomAttributesCacheGenerator_m_UVRectP21CustomAttributesCache
gym:__ZN21InterfaceFuncInvoker1I19Vector3_t3722313464iE6InvokeEjP11Il2CppClassP12Il2CppObjecti
sLb:__Z19scripting_gc_enablev
n9h:_InternalEnumerator_1_get_Current_m2907722321_gshared
QZb:__ZZ23InitPlayerLoopCallbacksvEN41InitializationPlayerUpdateTimeRegistrator7ForwardEv
$Nc:__ZN11UTF16StringC2ERKS_10MemLabelId
_hf:__ZN5physx7profile11EventBufferINS_24PxDefaultContextProviderENS_6shdfnd6MutexTINS0_26WrapperReflectionAllocatorIhEEEENS0_14ScopedLockImplIS7_EENS_24PxProfileNullEventFilterEE9stopEventEty
Ifc:__Z29StdTemplateConversionFunctionIihEbPvR14SafeBinaryRead
yai:_InternalEnumerator_1_get_Current_m3792939945_AdjustorThunk
gFf:__Z55Register_UnityEngine_CanvasRenderer_DisableRectClippingv
bv:__ZN9Scripting11UnityEngine10Animations16ConstraintSource12CleanupProxyEv
jpm:_TimeSpan_Subtract_m1264203589_AdjustorThunk
Eyd:__ZN19OverlapPointQuery2D14InitializeAABBER6b2AABB
isj:_Quaternion_SlerpUnclamped_m3270925602
hJh:_MethodBase__ctor_m1907868998
E6g:__ZL118U3CCaretBlinkU3Ec__Iterator0_t2589889038_CustomAttributesCacheGenerator_U3CCaretBlinkU3Ec__Iterator0_Reset_m1547565867P21CustomAttributesCache
$mb:__ZN9GfxDevice22UploadTextureCubeArrayE9TextureIDPKhjii14GraphicsFormati18TextureUploadFlags
W0h:_InternalEnumerator_1_System_Collections_IEnumerator_get_Current_m888718134_gshared
Bli:__Z175RuntimeInvoker_Void_t1185182177_SByte_t1669577662_SByte_t1669577662_SByte_t1669577662_SByte_t1669577662_SByte_t1669577662_SByte_t1669577662_SByte_t1669577662_SByte_t1669577662PFvvEPK10MethodInfoPvPS4_
OTj:_Array_compare_TisRaycastResult_t3360306849_m822404090_gshared
$no:_il2cpp_class_is_inflated
pqj:_Object_Destroy_m3118546832
mBm:_ReadOnlyCollection_1_System_Collections_Generic_IListU3CTU3E_set_Item_m519295790_gshared
lal:_DateTime_FromTicks_m4059645178_AdjustorThunk
sWj:_Enumerable_OrderBy_TisRuntimeObject_TisInt32_t2950945753_m3230323636_gshared
k7h:_InternalEnumerator_1_System_Collections_IEnumerator_get_Current_m1470676642_gshared
p$k:_Array_InternalArray__get_Item_TisClientCertificateType_t1004704908_m2297379651_gshared
kRh:_ConfigHandler_ParseTime_m1787834288
jnc:__ZN9ShaderLab7Program27CreateFromSerializedProgramERKNS_17SerializedProgramE10ShaderTypeiP16PropertyNamesSetPK6Shader
oZi:_Assembly_Load_m3487507613
kM:__ZNSt3__27__sort4IRNS_6__lessIN4core12basic_stringIcNS2_20StringStorageDefaultIcEEEES6_EEPS6_EEjT0_SA_SA_SA_T_
aWo:dynCall_viiiifii
lko:__ZN6il2cpp2gc19AppendOnlyGCHashMapINSt3__24pairIPK11Il2CppImageP11Il2CppClassEEP22Il2CppReflectionModule17ReflectionMapHashIS9_ENS2_8equal_toIS9_EEEC2Ev
n8:__Z20GetPersistentManagerv
oxf:_UNITY_TT_Set_Var_Design
hLi:__Z79RuntimeInvoker_Void_t1185182177_Int32_t2950945753_TMP_CharacterInfo_t3185626797PFvvEPK10MethodInfoPvPS4_
I4:__ZN21SystemInfoStringCache16StaticInitializeEPv
Ybg:_JSONNode_ParseElement_m214103003
RAg:__ZL80Convert_t2465617642_CustomAttributesCacheGenerator_Convert_ToDecimal_m1695757674P21CustomAttributesCache
HKj:_Selectable_get_targetGraphic_m559777690
Y3m:_Collection_1__ctor_m3380123530_gshared
H3d:__ZN5physx2Sc7BodySim18internalWakeUpBaseEf
XCm:_ReadOnlyCollection_1_System_Collections_Generic_ICollectionU3CTU3E_Remove_m1100818788_gshared
Bzo:__ZNK10KeyWrapperIP12Il2CppObjectE14EqualsComparerINSt3__28equal_toIS1_EEEclERKS2_S9_
Zjc:__ZNSt3__26vectorIN9ShaderLab20SerializedSubProgram15StructParameterENS_9allocatorIS3_EEE6assignIPS3_EENS_9enable_ifIXaasr21__is_forward_iteratorIT_EE5valuesr16is_constructibleIS3_NS_15iterator_traitsISA_E9referenceEEE5valueEvE4typeESA_SA_
Dym:_Collection_1_IsSynchronized_m2291009199_gshared
pJf:__ZN9Scripting11UnityEngine9Analytics21AnalyticsSessionState12CleanupProxyEv
TIb:__ZNK13MonoBehaviour7GetNameEv
Fxf:_ft_var_load_item_variation_store
adb:__ZN19ScriptingInvocation28AdjustArgumentsToMatchMethodEv
Pih:__ZL98U3CU3Ec__Iterator0_t2360448098_CustomAttributesCacheGenerator_U3CU3Ec__Iterator0__ctor_m2716562709P21CustomAttributesCache
oFl:_Dictionary_2_System_Collections_IDictionary_Remove_m2463639949_gshared
gO:__Z15_CheckFMODError11FMOD_RESULTPKciS1_
uto:__ZN6il2cpp6icalls8mscorlib6SystemL16ThrowInvalidCastEPK11Il2CppClassS5_
Tkn:_InvokableCall_3__ctor_m3589126527_gshared
V7l:_EqualityComparer_1_get_Default_m79107703_gshared
w_k:_TMP_TextInfo_Resize_TisTMP_LinkInfo_t1092083476_m1050620713_gshared
lcj:_HMAC_KeySetup_m661741544
wCg:__ZL61MonoEnumInfo_t3694469084_CustomAttributesCacheGenerator_cacheP21CustomAttributesCache
Kxo:__ZN6il2cpp2vm5Field11SetValueRawEPK10Il2CppTypePvS5_b
ojm:_Latin1Encoding__ctor_m498920120
BBf:__ZN2UI11CanvasGroup23VirtualRedirectTransferER17RemapPPtrTransfer
d$f:_U3CMouseDragOutsideRectU3Ec__Iterator1_System_Collections_IEnumerator_get_Current_m3219171155
NHk:_StreamReader_Peek_m2272511193
L9c:__ZN11ShapeModule5ResetEv
nEf:__Z51Register_UnityEngine_CanvasGroup_get_blocksRaycastsv
$Be:__ZN5physx20NpRigidActorTemplateINS_13PxRigidStaticEE15exportExtraDataERNS_22PxSerializationContextE
$Wi:_NumberFormatter_get_IsFloatingSource_m3714711779
G2o:b119
uvc:__Z38Material_Set_Custom_PropShaderKeywordsP12Il2CppObjectP11Il2CppArray
avm:_Collection_1_System_Collections_IList_Add_m1403891193_gshared
uPm:_OrderedSequence_2__ctor_m143831006_gshared
O7e:__ZN5physx13BigConvexData5VLoadERNS_13PxInputStreamE
B0h:_InternalEnumerator_1_System_Collections_IEnumerator_Reset_m169899350_AdjustorThunk
gAm:_ReadOnlyCollection_1_System_Collections_IList_Add_m3258677755_gshared
Iqm:_Type_GetConstructor_m1195697116
ge:_glBeginQuery
hKj:_ScrollRect_SetNormalizedPosition_m3260907438
VTj:__ZN21InterfaceFuncInvoker2Ii19Vector2_t2156229523S0_E6InvokeEjP11Il2CppClassP12Il2CppObjectS0_S0_
cna:__ZL48__ManagedRegistrationHelperFunction_VisibleLightPv
PNe:__ZN5physx11NodeManager6resizeEj
RId:__ZN10Effector2D25CheckEffectorColliderMaskEP10Collider2DS1_
F$b:__ZN6Camera12RenderStereoENS_10RenderFlagE8CullFlagPNS_24PerformEyeRenderFunctionE
WQn:__ZL25UnresolvedVirtualCall_228P12Il2CppObject20UICharInfo_t75501106S1_PK10MethodInfo
Lgb:__ZN20LocalFileSystemPosix10ToAbsoluteEPKc
mIa:__ZN20TierGraphicsSettings8TransferI19StreamedBinaryWriteILb0EEEEvRT_
p1o:b111
$bb:__Z23CollectSceneGameObjectsR13dynamic_arrayIiLj0EE
hGo:__ZN6il2cpp2vm13ComObjectBase16DisconnectObjectEj
nHe:__ZNK5physx7NpScene28getSceneQueryStaticTimestampEv
C9l:_GenericComparer_1__ctor_m3652072706_gshared
un:f0
mr:__ZN6Object17MainThreadCleanupEv
HHa:__Z32TransferEnumWithNameForceIntSizeI14SafeBinaryRead7HDRModeEvRT_RT0_PKc17TransferMetaFlags
lRo:_getcwd
hwd:__ZN16b2CapsuleContact6CreateEP9b2FixtureiS1_iP16b2BlockAllocator
Kwa:__ZN25ThreadsafeLinearAllocatorD2Ev
LNc:__ZL50GetAndClearChangedTransformsForMultilpleSystemsJobP45GetChangedTransformsForMultipleSystemsJobDatajPK23TransformAccessReadOnlyPKyj
pPe:__ZN5physx2Sq10AABBPruner11preallocateEj
$ab:__Z21SendMessageToEveryoneRK17MessageIdentifier11MessageData
Bea:__ZN21BillboardBatchManager16StaticInitializeEPv
r5k:_DateTime_AbsoluteDays_m4235097773
d6:__ZN12_GLOBAL__N_138ArchiveRedirectFileSystemStaticDestroyEPv
$ng:__ZL126U3CGetEnumeratorU3Ec__Iterator0_t1202911786_CustomAttributesCacheGenerator_U3CGetEnumeratorU3Ec__Iterator0_Dispose_m2078994225P21CustomAttributesCache
Jgi:__Z74RuntimeInvoker_RuntimeObject_RuntimeObject_RuntimeObject_SByte_t1669577662PFvvEPK10MethodInfoPvPS4_
jog:__ZL69Type_t_CustomAttributesCacheGenerator_Type_GetConstructor_m1195697116P21CustomAttributesCache
ABh:_DefaultControls_CreateScrollView_m3842770629
qsd:__ZL55__ManagedRegistrationHelperFunction_PhysicsJobOptions2DPv
tTa:__ZN12CubemapArray34UpdateFileTextureUploadInstructionEP26FileAssetUploadInstructionj
OEe:__ZN5physx2Sc19ShapeInstancePairLLC2ERNS0_8ShapeSimES3_RNS0_9ActorPairENS_7PxFlagsINS_10PxPairFlag4EnumEtEE
zrg:__ZL94EnumBuilder_t2400448213_CustomAttributesCacheGenerator_EnumBuilder_GetConstructors_m3294436155P21CustomAttributesCache
uMi:__Z55RuntimeInvoker_TableRange_t3332867892_Int32_t2950945753PFvvEPK10MethodInfoPvPS4_
O3h:_InternalEnumerator_1_MoveNext_m1020308708_gshared
IWb:__Z23CreateSparseTextureGLES9TextureIDii14GraphicsFormati
Esf:_otv_Anchor_validate
A5m:_Collection_1_System_Collections_ICollection_get_SyncRoot_m4096301159_gshared
Lef:__ZN5physx19PxVisualDebuggerExt16createConnectionEPNS_8debugger4comm20PvdConnectionManagerEPKcNS_7PxFlagsINS_30PxVisualDebuggerConnectionFlag4EnumEjEE
gzd:__Z18AddCollisionReportP11Collision2DR13dynamic_arrayINS_15CollisionReportELj0EE
era:__ZN9Scripting11UnityEngine12Experimental9Rendering21RenderPipelineManager9InitProxyEv
hpm:_TimeSpan_Negate_m1889505500_AdjustorThunk
JHm:_ReadOnlyCollection_1_System_Collections_ICollection_CopyTo_m2715087453_gshared
D0g:__ZL84Canvas_t3310196443_CustomAttributesCacheGenerator_Canvas_get_scaleFactor_m3314757802P21CustomAttributesCache
byl:_Transform_1__ctor_m2810088858_gshared
jkb:__ZN16MemoryFileSystemD0Ev
Yfe:__ZN5physx19NpRigidBodyTemplateINS_18PxArticulationLinkEE27setMaxDepenetrationVelocityEf
zte:__ZN5physx2Sc9ClothCore16setStretchConfigENS_22PxClothFabricPhaseType4EnumERKNS_20PxClothStretchConfigE
Ood:__Z19UpdateSingleRow2TplIL27ParticleSystemCurveEvalMode4ELS0_1EEvfRK11MinMaxCurveS3_RK23ParticleSystemParticlesPfbiii
zMf:__ZN11UnityEngine7Connect20RemoteConfigSettings7SetJSONER8JSONReadb
s9c:__ZN9SubModule8TransferI19StreamedBinaryWriteILb0EEEEvRT_
oHn:_AnalyticsEventTracker_Awake_m2780522130
Pef:_PxCreateFoundation
htd:__ZNK12b2MotorJoint16GetReactionForceEf
Kao:__ZN6il2cpp2vm13MetadataCache37GetParameterDefaultValueDataFromIndexEi
woo:_il2cpp_class_get_assemblyname
wqi:__Z50RuntimeInvoker_SByte_t1669577662_SByte_t1669577662PFvvEPK10MethodInfoPvPS4_
nEh:_Graphic_OnFillVBO_m1026749972
p3n:__ZN6il2cpp2vm5Class15GetEnumBaseTypeEP11Il2CppClass
hqk:_Context_set_WriteSequenceNumber_m942577065
Me:_glVertexAttrib4fv
Mek:_X509CertificateEnumerator_Reset_m4026698923
S3f:_TMP_Text_get_text_m540743374
DGo:__ZNK6il2cpp5utils13VmStringUtils23CaseInsensitiveComparerclERKNSt3__212basic_stringIcNS3_11char_traitsIcEENS3_9allocatorIcEEEEPKc
Nyh:_CanvasScaler_SetScaleFactor_m3006968999
hQi:__Z78RuntimeInvoker_Boolean_t97287965_Navigation_t3049316579_Navigation_t3049316579PFvvEPK10MethodInfoPvPS4_
UTa:__ZNK9Texture2D16GetNpotTexelSizeEv
XYk:_Dictionary_2_Do_CopyTo_TisKeyValuePair_2_t1383673463_TisKeyValuePair_2_t1383673463_m2270113118_gshared
PWi:_NumberFormatter_Init_m3576155222
Jhb:__ZL33FileEntryInfoListToFolderContentsRKN4core12basic_stringIcNS_20StringStorageDefaultIcEEEERK19dynamic_block_arrayI13FileEntryInfoLj32EERNSt3__23setIS3_NSB_4lessIS3_EENSB_9allocatorIS3_EEEE
HEj:_LayoutUtility_GetLayoutProperty_m714717302
GVn:_RequestHelper_get_Body_m3873896318
wJl:_LinkedList_1_Remove_m776321970_gshared
kum:__ZN23InterfaceActionInvoker1IP39UnhandledExceptionEventArgs_t2886101344E6InvokeEjP11Il2CppClassP12Il2CppObjectS1_
Ysh:_EventSystem_set_sendNavigationEvents_m983981895
ped:__Z20EvaluateSlowThreadedRK11MinMaxCurveRNS_5CacheERKN4math7_float4ES7_
Cfi:_Enumerator_System_Collections_IEnumerator_get_Current_m2678986219_AdjustorThunk
F6m:_Collection_1_IsValidItem_m3076520886_gshared
C8k:__ZN21InterfaceFuncInvoker1ItP12Il2CppObjectE6InvokeEjP11Il2CppClassS1_S1_
amb:__ZN9GfxDevice22GetDefaultVertexBufferE26GfxDefaultVertexBufferTypej
$Nj:_Array_InternalArray__ICollection_Contains_TisInt64_t3736567304_m2911357929_gshared
zMb:__Z17BeginSplashScreenb
S7m:_Collection_1_Remove_m3022471627_gshared
DRo:___fseeko_unlocked
Fra:__ZN9Scripting11UnityEngine12Experimental9Playables21TexturePlayableOutput12CleanupProxyEv
oYi:_Object_ToString_m1740002499
vRo:_sscanf
jGl:_Dictionary_2_System_Collections_ICollection_get_SyncRoot_m3239327917_gshared
V0d:__ZN5physx3Cct17CapsuleControllerC2ERKNS_16PxControllerDescERNS_9PxPhysicsEPNS_7PxSceneE
F3a:__ZN14SafeBinaryRead21TransferSTLStyleArrayINSt3__26vectorI17BlendShapeChannelNS1_9allocatorIS3_EEEEEEvRT_17TransferMetaFlags
WJl:_Enumerator_System_Collections_IEnumerator_get_Current_m4138390031_gshared
$im:_Array_Resize_TisUILineInfo_t4195266810_m3763058392_gshared
X9i:_SByte_ToString_m3584531119_AdjustorThunk
mmc:__ZN9ShaderLab16SerializedShader8TransferI19StreamedBinaryWriteILb0EEEEvRT_
_yd:__ZNK4PPtrI7Joint2DEcvPS0_Ev
Uv:__ZN7mecanim9animation18CreateAvatarMemoryEPKNS0_14AvatarConstantERNS_6memory9AllocatorE
a7k:_Convert_ToInt32_m1876369743
Oik:_ModulusRing__ctor_m2420310199
iWf:_TMP_Dropdown_OnSelectItem_m1536972123
w5k:_Convert_ToDateTime_m626620011
H4l:_DefaultComparer__ctor_m3289136477_gshared
uql:_Enumerator_System_Collections_IDictionaryEnumerator_get_Key_m2500634048_AdjustorThunk
wpd:__Z17UpdateSprites2TplIL27ParticleSystemCurveEvalMode2ELS0_4EEvfRK11MinMaxCurveS3_RK23ParticleSystemParticlesPf
iG:__ZN7mecanim8skeleton16SkeletonPoseCopyIN4math4trsXENS2_7affineXEEEvPKNS0_13SkeletonPoseTIT_EEPNS5_IT0_EE
uBb:__Z18Transfer_BlittableI19StreamedBinaryWriteILb0EELb0EaEvRK29SerializationCommandArgumentsR31RuntimeSerializationCommandInfo
LUl:_List_1_Remove_m3037048099_gshared
kUb:__ZN18GfxFramebufferGLES18GetFramebufferNameERK20GfxRenderTargetSetup
wpa:__ZN9Scripting11UnityEngine9Transform9InitProxyEv
VFl:_Dictionary_2_get_Values_m4208642984_gshared
W1m:_Collection_1_IsFixedSize_m1766078928_gshared
EJo:_GC_print_block_list
_9j:_IPAddress__ctor_m921977496
yUo:_saveSetjmp
VBj:_InputField_MoveDown_m1455948167
uyc:__Z45Register_UnityEngine_Transform_get_hasChangedv
NVc:__Z30Event_Get_Custom_PropCharacterP12Il2CppObject
jga:__ZN13PlayableGraph27SchedulePlayableDestructionERK9HPlayable
Prf:_cff_get_mm_var
pZd:__ZN5physx6shdfnd5ArrayINS_12PxDebugPointENS0_19ReflectionAllocatorIS2_EEE15growAndPushBackERKS2_
QZo:_glGetFramebufferAttachmentParameteriv__wrapper
dQh:_ChannelServices_GetCurrentChannelInfo_m3041604116
O9h:_InternalEnumerator_1__ctor_m2635640285_AdjustorThunk
mub:__Z22scripting_array_length17ScriptingArrayPtr
ZRi:_SynchronizedReader_Peek_m148942882
_Jn:__ZN25GenericVirtActionInvoker2IP8String_tP19Action_1_t819399007E6InvokeEPK10MethodInfoP12Il2CppObjectS1_S3_
CNd:__ZN8Collider13AwakeFromLoadE17AwakeFromLoadMode
uRm:_Predicate_1_Invoke_m2308795536_gshared
Ayd:__ZNK13b2DynamicTree5QueryI19b2WorldQueryWrapperEEvPT_RK6b2AABB
V1a:__ZN14SpriteRenderer18UpdateCachedSpriteEb
fCo:__ZN15dense_hashtableINSt3__24pairIK10KeyWrapperIPcES3_EES4_N6il2cpp5utils15PassThroughHashIS3_EEN14dense_hash_mapIS4_S3_SA_NS4_14EqualsComparerINS0_8equal_toIS3_EEEENS0_9allocatorIS6_EEE9SelectKeyESF_SH_E3endEv
Gyf:_Horizontal_Sweep_Init
U_m:_Collection_1_GetEnumerator_m1675075812_gshared
eEa:__Z19GetActiveColorSpacev
D8c:__ZN17SizeBySpeedModule8TransferI18StreamedBinaryReadILb0EEEEvRT_
i0n:_BoxCollider_INTERNAL_set_center_m471190135
Htf:_UNITY_tt_face_load_kern
dKh:_MonoMethodInfo_GetDeclaringType_m2924452727
yHl:_Dictionary_2_ContainsKey_m3601783571_gshared
tVh:_RemotingSurrogate_SetObjectData_m2713731796
u5:__Z6StrCmpPKcS0_
EIj:_Scrollbar_OnInitializePotentialDrag_m3588541308
Xfi:_Enumerator_Dispose_m3543342379_gshared
Akh:__ZL91U3CDisplayTextMeshProFloatingTextU3Ec__Iterator0_t2967292235_CustomAttributesCacheGeneratorP21CustomAttributesCache
$nc:__Z21CheckGpuProgramUsable20ShaderGpuProgramType
hDc:__ZN13ProduceHelperI14Texture2DArrayLb0EE7ProduceE10MemLabelId18ObjectCreationMode
UDo:__ZN6il2cpp2os9Directory20GetFileSystemEntriesERKNSt3__212basic_stringIcNS2_11char_traitsIcEENS2_9allocatorIcEEEESA_iiPi
AMk:_Array_System_Collections_IList_Add_m1063688101
kie:__ZN5physx6shdfnd5ArrayIPvNS0_19ReflectionAllocatorINS_2Cm5BlockIhLj128EEEEEE4copyINS0_15InlineAllocatorILj256ES7_EEEEvRKNS1_IS2_T_EE
Hlf:__ZN20TextRenderingPrivate19NativeTextGenerator5SetupEv
t7b:__ZNK15SharedLightData24GetFinalShadowResolutionEv
aun:_PatternCompiler_EmitAlternationEnd_m2444359097
FSg:__ZL91GameObject_t1113636619_CustomAttributesCacheGenerator_GameObject_get_activeSelf_m1767405923P21CustomAttributesCache
Tle:__ZN5physx6shdfnd8PoolBaseINS_16NpConnectorArrayENS0_19ReflectionAllocatorIS2_EEE15disposeElementsEv
$6a:__ZN12AspectRatios8TransferI18StreamedBinaryReadILb0EEEEvRT_
Kef:__ZN14PhysicsManager19CreatePvdConnectionEv
uhg:_JSONObject_GetEnumerator_m3251166103
RWf:_TMP_Settings_get_fallbackFontAssets_m4226204732
vpc:__ZN10GameObject14CopyPropertiesERS_
pXc:__Z44Register_UnityEngine_GUIStyle_get_fixedWidthv
uPj:_Array_InternalArray__ICollection_Remove_TisLink_t544317964_m1280781374_gshared
CDo:__ZNSt3__214__split_bufferIN6il2cpp2os10ThreadImpl10APCRequestERNS_9allocatorIS4_EEEC2EjjS7_
SOk:_BitConverter_DoubleWordsAreSwapped_m1474345095
HAm:_ReadOnlyCollection_1_System_Collections_Generic_IListU3CTU3E_get_Item_m2815941486_gshared
izi:__Z114RuntimeInvoker_Int32_t2950945753_Vector2_t2156229523_Vector2_t2156229523_ContactFilter2D_t3805203441_RuntimeObjectPFvvEPK10MethodInfoPvPS4_
GTk:_FixedSizeArrayListWrapper_set_Capacity_m4221053039
YRo:_rand
s_o:_emscripten_glFramebufferRenderbuffer__wrapper
fMc:__ZN13MeshScripting10CreateMeshE21ScriptingObjectOfTypeI4MeshE
Npn:_ListPool_1__cctor_m3480273184_gshared
ale:__ZNK5physx12NpConstraint9getActorsERPNS_12PxRigidActorES3_
mwi:__Z56RuntimeInvoker_Void_t1185182177_PropertyName_t3749835189PFvvEPK10MethodInfoPvPS4_
Ez:__ZN17AnimationPlayable22PrepareAnimationEventsEfR13dynamic_arrayI22AnimationClipEventInfoLj0EE
Seg:_JSONNode_get_Item_m186825768
buh:__ZN23InterfaceActionInvoker1IP25BaseEventData_t3903027533E6InvokeEjP11Il2CppClassP12Il2CppObjectS1_
lvb:__ZN14SafeBinaryRead21TransferSTLStyleArrayINSt3__26vectorI17AnimationCurveTplIfE13stl_allocatorIS4_L18MemLabelIdentifier1ELi16EEEEEEvRT_17TransferMetaFlags
jUk:_SynchronizedArrayListWrapper_Contains_m3809499313
yrk:_HandshakeMessage_Compare_m2214647946
oaf:__ZN5physx6shdfnd8PoolBaseIN17PxcPoolMallocData10PoolData16ENS0_19ReflectionAllocatorIS3_EEE15disposeElementsEv
uLd:__ZN9Rigidbody23UpdateInterpolationNodeEv
rio:__ZN15dense_hashtableINSt3__24pairIK10KeyWrapperINS1_IPK11Il2CppImageP11Il2CppClassEEEjEES9_17ReflectionMapHashIS8_EN14dense_hash_mapIS9_jSD_NS9_14EqualsComparerINS0_8equal_toIS8_EEEENS0_9allocatorISB_EEE9SelectKeyESI_SK_E12expand_arrayEjN21dense_hash_map_traits17integral_constantIbLb0EEE
vob:__ZN9GfxDevice30ResolveComputeProgramResourcesE12ObjectHandleI18ComputeProgram_TagPvER19ComputeShaderKernelR13dynamic_arrayI15ComputeShaderCBLj0EERS6_I18ComputeShaderParamLj0EEb
zcj:_HMACSHA256__ctor_m346174875
ngj:_Color_op_Multiply_m2887457390
eZm:_List_1_Remove_m2092443302_gshared
S9b:__Z22PrepareOptimizedPlanesPK5PlaneiPKN4math7_float4E
J0h:_InternalEnumerator_1__ctor_m1559487635_gshared
mJl:_LinkedList_1_System_Collections_ICollection_get_IsSynchronized_m345853585_gshared
V1:__ZN11UnityEngine15CloudWebService17WebFileDownloaderINS0_20WebRequestRestClientENS0_23WebRequestRestHeaderMapEE10InitializeERKN4core12basic_stringIcNS5_20StringStorageDefaultIcEEEE
zea:__ZN17UniqueIDGenerator15CreatePureIndexEv
$Wo:dynCall_fiifi
YAc:__Z48InitializeRectTransformAnimationBindingInterfacev
L0a:__ZN16BlitStereoHelper16PrepareEyeRenderEiRK19ShaderPropertySheetRS0_bRK8Vector2fS6_14VRTextureUsage
QFe:__ZN5physx7NpScene8addActorERNS_7PxActorE
y9a:__ZNSt3__26vectorIN15ResourceManager10DependencyE13stl_allocatorIS2_L18MemLabelIdentifier52ELi16EEE6assignINS_11__wrap_iterIPS2_EEEENS_9enable_ifIXaasr21__is_forward_iteratorIT_EE5valuesr16is_constructibleIS2_NS_15iterator_traitsISC_E9referenceEEE5valueEvE4typeESC_SC_
E2n:__ZN15dense_hashtableINSt3__24pairIK10KeyWrapperIPK22Il2CppGenericParameterEP11Il2CppClassEES6_N6il2cpp5utils11PointerHashIS4_EEN14dense_hash_mapIS6_S9_SE_NS6_14EqualsComparerINS0_8equal_toIS5_EEEENS0_9allocatorISA_EEE9SelectKeyESJ_SL_E14squash_deletedEv
hOa:__ZN9ShaderLabL27GetDesiredRenderTextureDescEPK6Camera
Fxg:__ZL131RSACryptoServiceProvider_t2683512874_CustomAttributesCacheGenerator_RSACryptoServiceProvider_t2683512874____PublicOnly_PropertyInfoP21CustomAttributesCache
Dud:__ZNK12b2MouseJoint17GetReactionTorqueEf
dfm:_Array_InternalArray__Insert_TisMark_t3471605523_m2854535880_gshared
_Um:_List_1_AsReadOnly_m1038777102_gshared
GLc:__ZN4Mesh24UpdateSubMeshVertexRangeEi
CEc:__ZZL23RegisterLightPropertiesR22GenericPropertyBindingEN18Wrapper_LightRange13SetFloatValueEPvf
gYg:__ZL52HumanBone_t2465339518_CustomAttributesCacheGeneratorP21CustomAttributesCache
$Ii:__Z59RuntimeInvoker_Int32_t2950945753_TMP_FontWeights_t916301067PFvvEPK10MethodInfoPvPS4_
Jfg:_JSONNode_op_Implicit_m3237263780
dVh:_MethodReturnDictionary__cctor_m278392388
Iwg:__ZL98SerializationInfo_t950877179_CustomAttributesCacheGenerator_SerializationInfo_GetUInt32_m776835457P21CustomAttributesCache
p1b:__ZNK9Transform18TransformDirectionERK8Vector3f
l6e:__ZN5physx21PxsBodyTransformVault6updateEv
tib:__ZNK17ArchiveFileSystem12GetAssetGUIDERK13FileEntryData
z8g:__ZL80CanvasScaler_t2767979955_CustomAttributesCacheGenerator_m_ReferencePixelsPerUnitP21CustomAttributesCache
psf:_otv_MarkLigPos_validate
Ijl:_PrimalityTests_RabinMillerTest_m1471415870
Feh:__ZL74TMP_Text_t2599618874_CustomAttributesCacheGenerator_m_enableVertexGradientP21CustomAttributesCache
MWd:__ZL29GeomMTDCallback_CapsuleConvexRN5physx6PxVec3ERfRKNS_10PxGeometryERKNS_11PxTransformES5_S8_
L1i:_GenericTypeParameterBuilder_GetCustomAttributes_m580748276
Rrn:_TMP_TextEventHandler_set_onSpriteSelection_m4271763567
LHn:_AnalyticsTracker_get_TP_m2800669040
t9n:__ZN15dense_hashtableINSt3__24pairIK10KeyWrapperIPK11Il2CppClassEPKcEES6_N6il2cpp5utils11PointerHashIS3_EEN14dense_hash_mapIS6_S9_SE_NS6_14EqualsComparerINS0_8equal_toIS5_EEEENS0_9allocatorISA_EEE9SelectKeyESJ_SL_E12resize_deltaEjj
U_f:_TMP_InputField_DoStateTransition_m1946589647
Tik:_Kernel_LeftShift_m4140742987
bZi:_Assembly_GetManifestResourceInternal_m1224391897
TEa:__Z30AddDefaultStreamsToMeshBuffersR9GfxDeviceR11MeshBuffersj17ShaderChannelMaskS3_
G5:__ZL16GetInterfaceImpl18UnityInterfaceGUID
uUf:_TMP_DefaultControls_SetLayerRecursively_m3201739960
qGo:__ZN6il2cpp6icalls8mscorlib6System15MonoCustomAttrs27GetCustomAttributesInternalEP12Il2CppObjectP20Il2CppReflectionTypeb
wc:invoke_viifi
rQc:__Z55Register_UnityEngine_Quaternion_FromToRotation_Injectedv
Lxf:_UNITY_TT_Set_MM_Blend
gta:__ZN9Scripting11UnityEngine11Application9InitProxyEv
cAn:_TMPro_EventManager_ON_FONT_PROPERTY_CHANGED_m1466790487
Y9m:_InternalAsyncResult_get_FromWrite_m4228047810
Kni:__Z53RuntimeInvoker_MonoEventInfo_t346866618_RuntimeObjectPFvvEPK10MethodInfoPvPS4_
Owm:_Collection_1_CopyTo_m955200729_gshared
dVd:__ZNK5physx3Cct13BoxController11getPositionEv
RMb:__ZN14PreloadManager35WaitForAllAsyncOperationsToCompleteEv
T4n:__ZN13Il2CppHashMapIP9FieldInfoiN6il2cpp5utils11PointerHashIS0_EENSt3__28equal_toIS1_EENS6_9allocatorINS6_4pairIK10KeyWrapperIS1_EiEEEEEC2EjRKS5_RKS8_
E6:__ZNSt3__26__treeINS_12__value_typeIPKc11ShaderTagIDEENS_19__map_value_compareIS3_S5_27compare_tstring_insensitiveIS3_ELb1EEENS_9allocatorIS5_EEE7destroyEPNS_11__tree_nodeIS5_PvEE
Y0g:__ZL103UISystemProfilerApi_t2230074258_CustomAttributesCacheGenerator_UISystemProfilerApi_AddMarker_m495483138P21CustomAttributesCache
kPd:__Z27sweepCCTBox_HeightFieldGeomRKN5physx10PxGeometryERKNS_11PxTransformERKNS_2Gu3BoxERKNS_6PxVec3EfRNS_10PxSweepHitENS_7PxFlagsINS_9PxHitFlag4EnumEtEEf
x7:__ZNK18ScriptingObjectPtr17ToScriptingStringEv
cO:__ZL31InitializeAudioScriptingClassesv
K0b:__Z14SortGUIByDepthP10GUIElementS0_
m4l:_DefaultComparer__ctor_m2540671372_gshared
m6j:_DecoderExceptionFallback_GetHashCode_m1820789965
Pbd:__Z19UpdateProceduralTplIL27ParticleSystemCurveEvalMode0EEvRK20DualMinMaxPolyCurvesR23ParticleSystemParticlesPfRKN4math7_float4E
pFb:__ZN18StreamedBinaryReadILb1EE21TransferSTLStyleArrayI13dynamic_arrayIhLj0EEEEvRT_17TransferMetaFlags
upj:_PlayerConnection_OnEnable_m4286555589
BWf:_TMP_Settings_get_warningsDisabled_m4194286636
Bsi:__Z69RuntimeInvoker_UInt32_t2560061978_Int32_t2950945753_SByte_t1669577662PFvvEPK10MethodInfoPvPS4_
aH:__ZN12_GLOBAL__N_120ProcessRootMotionMixER33AnimationPlayableEvaluationOutputR35AnimationPlayableEvaluationConstantR32AnimationPlayableEvaluationInputS1_f
Pyn:_UriParser__cctor_m3655686731
uWd:__ZN5physx3Cct9SweepTest18updateTouchedGeomsEPKNS0_30InternalCBData_FindTouchedGeomERKNS0_13UserObstaclesERKNS_17PxExtendedBounds3ERKNS_19PxControllerFiltersERKNS_6PxVec3E
AQi:__Z36RuntimeInvoker_Enumerator_t463618097PFvvEPK10MethodInfoPvPS4_
umj:_Material_SetColor_m355160541
xEj:_LayoutRebuilder_U3Cs_RebuildersU3Em__0_m589488547
Aif:_PxCloseExtensions
uPi:__Z53RuntimeInvoker_KeyValuePair_2_t71524366_RuntimeObjectPFvvEPK10MethodInfoPvPS4_
lhb:__ZNK20LocalFileSystemPosix21GetAvailableDiskSpaceEPKcRy
gM:__ZNSt3__26__treeIiNS_4lessIiEENS_9allocatorIiEEE7destroyEPNS_11__tree_nodeIiPvEE
bcm:_KeyValuePair_2_get_Value_m392474074_AdjustorThunk
Nlb:__ZNK9GfxDevice14GetWorldMatrixEv
Ikn:_InvokableCall_2_Invoke_m3594767000_gshared
Mbo:_RemoteConfigSettings_t1247263429_marshal_pinvoke
Kyj:_Transform_set_parent_m786917804
WUn:_AudioSampleProvider_InternalSetScriptingPtr_m3742743270
zLj:_Slider_get_value_m739683640
Jfb:__Z19scripting_array_new17ScriptingClassPtrjj
oNi:__Z60RuntimeInvoker_PlayerLoopSystem_t105772105_Int32_t2950945753PFvvEPK10MethodInfoPvPS4_
wT:__ZN11SoundHandle13CreateChannelEb
nam:_GenericEqualityComparer_1_Equals_m1942949784_gshared
Bnm:_WaitCallback_BeginInvoke_m3012509827
Ekc:__ZNSt3__26vectorIN9ShaderLab20SerializedSubProgram16TextureParameterENS_9allocatorIS3_EEE6assignIPS3_EENS_9enable_ifIXaasr21__is_forward_iteratorIT_EE5valuesr16is_constructibleIS3_NS_15iterator_traitsISA_E9referenceEEE5valueEvE4typeESA_SA_
W7n:__ZN13Il2CppHashMapIN6il2cpp5utils13dynamic_arrayIPK10Il2CppTypeLj4EEEPFvvENS0_8metadata19Il2CppSignatureHashENS9_22Il2CppSignatureCompareENSt3__29allocatorINSC_4pairIK10KeyWrapperIS6_ES8_EEEEEC2EjRKSA_RKSB_
W_g:__ZL104Physics2D_t1528932956_CustomAttributesCacheGenerator_Physics2D_GetRayIntersectionAll_Internal_m643548862P21CustomAttributesCache
YUm:__ZN21InterfaceFuncInvoker0I22UILineInfo_t4195266810E6InvokeEjP11Il2CppClassP12Il2CppObject
Wki:__Z122RuntimeInvoker_Void_t1185182177_RuntimeObject_RuntimeObject_ContractionU5BU5DU26_t2277527001_Level2MapU5BU5DU26_t359320357PFvvEPK10MethodInfoPvPS4_
Tko:__ZN15dense_hashtableINSt3__24pairIK10KeyWrapperIPK22Il2CppGenericParameterEPK24MonoGenericParameterInfoEES6_N6il2cpp5utils11PointerHashIS4_EEN14dense_hash_mapIS6_SA_SF_NS6_14EqualsComparerINS0_8equal_toIS5_EEEENS0_9allocatorISB_EEE9SelectKeyESK_SM_E15set_deleted_keyERKSB_
V9i:_SByte_TryParse_m2431806379
e6n:__ZNK15dense_hashtableINSt3__24pairIK10KeyWrapperIP9FieldInfoEiEES5_N6il2cpp5utils11PointerHashIS3_EEN14dense_hash_mapIS5_iSB_NS5_14EqualsComparerINS0_8equal_toIS4_EEEENS0_9allocatorIS7_EEE9SelectKeyESG_SI_E8min_sizeEjj
eDg:__ZL64ObjectDisposedException_t21392786_CustomAttributesCacheGeneratorP21CustomAttributesCache
sKa:__ZN6prcoreL11inner_clearILj2EEEvPhjjj
MZk:_Dictionary_2_Do_CopyTo_TisDictionaryEntry_t3123975638_TisDictionaryEntry_t3123975638_m2909244099_gshared
Sta:__ZN9Scripting5Unity11Collections8LowLevel6Unsafe24NativeContainerAttribute9InitProxyEv
bSn:__ZL25UnresolvedVirtualCall_289P12Il2CppObjectPK10MethodInfo
xbj:_DSACryptoServiceProvider_get_KeySize_m786836990
Ztd:__ZN12b2WheelJoint24SolvePositionConstraintsERK12b2SolverData
lte:__ZNK5physx2Sc9ClothCore20getNbCollisionPlanesEv
xh:_emscripten_exit_fullscreen
ABf:__ZN2UI11CanvasGroup23VirtualRedirectTransferER18StreamedBinaryReadILb0EE
bVe:__ZNK5physx23PxsBroadPhaseContextSap7getTypeEv
p8e:__ZNK5physx13GuMeshFactory17getNbHeightFieldsEv
xhm:_Array_qsort_TisBoolean_t97287965_TisBoolean_t97287965_m214793583_gshared
bkg:_TMP_FrameRateCounter__ctor_m4136266118
nKl:_Enumerator_System_Collections_IEnumerator_Reset_m1564381721_gshared
Uef:__ZN14PhysicsManager19CreateDynamicsSceneEbb14BroadphaseType16ContactPairsModeRK4AABBi
cBc:__ZZL31RegisterRectTransformPropertiesR22GenericPropertyBindingEN39Wrapper_RectTransformAnchoredPositiony113GetFloatValueEPv
iYi:_Object_MemberwiseClone_m1474068832
NCo:__ZN6il2cpp6icalls8mscorlib6System6String19InternalAllocateStrEi
E3c:__Z29Transfer_Blittable_ArrayFieldI8JSONRead11QuaternionfEvRT_R9ArrayInfoRK23StaticTransferFieldInfo
iNk:_Array_SetValue_m282347242
DPe:__ZNK5physx2Gu12OBBAABBTestsILb1EEclENS_6shdfnd3aos5Vec3VES5_
Ovc:__Z45Register_UnityEngine_Camera_get_targetDisplayv
PGc:__ZNK24RendererAnimationBinding15GenerateBindingERKN4core12basic_stringIcNS0_20StringStorageDefaultIcEEEEbRN11UnityEngine9Animation14GenericBindingE
Hza:__ZN33RendererCullingCallbackPropertiesC2ERK6CameraRK10Matrix4x4f
zak:_IPv6Address__ctor_m3704187391
GJa:__Z15GetFlareManagerv
Dwc:__ZN15ApplicationInfo24GetApplicationIdentifierEv
rLc:__ZN4Mesh15AppendTrianglesERNSt3__26vectorIj13stl_allocatorIjL18MemLabelIdentifier1ELi16EEEEjRK13dynamic_arrayI7SubMeshLj0EEPK14SharedMeshDatab
QVd:__ZN5physx3Cct9SweepTestD2Ev
Sua:__ZN9Behaviour8TransferI18StreamedBinaryReadILb0EEEEvRT_
Yv:__ZN8Animator13GetAvatarRootEv
yZd:__ZN26IntersectAnyVsMeshCallbackILi0ELb0EED2Ev
YPo:___toread
GKb:__ZNSt3__26vectorI10vector_mapIiiNS_4lessIiEE13stl_allocatorINS_4pairIiiEEL18MemLabelIdentifier38ELi16EEES4_IS9_LS7_38ELi16EEE26__swap_out_circular_bufferERNS_14__split_bufferIS9_RSA_EE
M0f:_TMP_Settings_get_version_m3911328366
pik:_BigInteger_get_Rng_m3283260184
iUo:___cxa_is_pointer_type
YK:__ZN8Animator22ScriptingStringToCRC32ERK11ICallString
PDg:__ZL55EventHandler_t1348719766_CustomAttributesCacheGeneratorP21CustomAttributesCache
cH:__ZN7mecanim9animation16EvaluateAvatarDXEPKNS0_14AvatarConstantEPKNS0_11AvatarInputEPNS0_12AvatarMemoryEPNS0_15AvatarWorkspaceEPNS0_12AvatarOutputE
JVb:__ZN4gles20DestroyRenderSurfaceEP7ApiGLESP17RenderSurfaceGLES
G$k:_Array_InternalArray__get_Item_TisKeyValuePair_2_t2530217319_m2886833132_gshared
hFb:__ZN18StreamedBinaryReadILb1EE21TransferSTLStyleArrayI13dynamic_arrayIN4math12int3_storageELj0EEEEvRT_17TransferMetaFlags
Dma:__ZL50__ManagedRegistrationHelperFunction_UnityEventBasePv
Nxc:__Z34Transform_CUSTOM_SetAsFirstSiblingP12Il2CppObject
grl:_Enumerator__ctor_m1280792063_AdjustorThunk
xYd:__ZN12_GLOBAL__N_141SphereMeshContactGenerationCallback_ScaleD0Ev
o9c:__ZN21RotationBySpeedModule8TransferI19StreamedBinaryWriteILb0EEEEvRT_
U_d:__ZN5physx3Cct17CapsuleController16setContactOffsetEf
vrn:_WarpTextExample_Start_m647679331
Pki:__Z63RuntimeInvoker_Void_t1185182177_RuntimeObject_SByte_t1669577662PFvvEPK10MethodInfoPvPS4_
lJg:__ZL57SetupCoroutine_t2062820429_CustomAttributesCacheGeneratorP21CustomAttributesCache
KBj:_InputField_Delete_m3471899192
fCg:__ZL79Convert_t2465617642_CustomAttributesCacheGenerator_Convert_ToUInt64_m1627266664P21CustomAttributesCache
Lug:__ZL91UrlAttribute_t221584584_CustomAttributesCacheGenerator_UrlAttribute_IsContextOK_m1228378186P21CustomAttributesCache
Q4i:_RemotingConfiguration_get_ProcessId_m2180277012
r_:__ZN11UnityEngine15CloudWebService17SessionEventQueue14ParseEventDataERKN4core12basic_stringIcNS2_20StringStorageDefaultIcEEEE
K5h:_InternalEnumerator_1__ctor_m3114520374_AdjustorThunk
j2f:_TMP_SubMesh_get_fontAsset_m1687591748
Cke:__ZN12GeomQueryAnyIN5physx10PxSweepHitEE7geomHitERKNS0_2Sq17SceneQueryManagerERKNS0_15MultiQueryInputERKNS3_9ShapeDataERKNS0_10PxGeometryERKNS0_11PxTransformENS0_7PxFlagsINS0_9PxHitFlag4EnumEtEEjPS1_fbPNS0_9PxBounds3E
hxl:_Transform_1_BeginInvoke_m4058251461_gshared
PRl:_List_1_Remove_m2605758101_gshared
dTb:__ZN13TranslateGLES4InitERK12GraphicsCaps16GfxDeviceLevelGL
yHb:__Z29Transfer_Blittable_ArrayFieldI18StreamedBinaryReadILb0EE10ColorRGBAfEvRT_R9ArrayInfoRK23StaticTransferFieldInfo
TXd:__ZN43CapsuleHeightfieldContactGenerationCallback7onEventEjPj
lAm:_ReadOnlyCollection_1_System_Collections_IList_Insert_m4244537418_gshared
VNd:__ZThn4_N12MemoryStream4readEPvj
E1n:_NativeTypeAttribute_set_CodegenOptions_m3839252515
A6l:_EqualityComparer_1_get_Default_m180770000_gshared
UBk:_Int64_System_IConvertible_ToUInt16_m848637338_AdjustorThunk
SIf:__Z32CustomEventData_CUSTOM_AddUInt32P12Il2CppObjectP12Il2CppStringj
vyn:_Uri_get_PathAndQuery_m2396197970
dHl:_Dictionary_2_System_Collections_Generic_ICollectionU3CSystem_Collections_Generic_KeyValuePairU3CTKeyU2CTValueU3EU3E_Add_m2414635523_gshared
WUj:_Array_InternalArray__IndexOf_TisLink_t544317964_m455584088_gshared
KZm:_Enumerator_get_Current_m2282646120_AdjustorThunk
xHm:_ReadOnlyCollection_1_IndexOf_m2539022912_gshared
xhi:__Z66RuntimeInvoker_Boolean_t97287965_RuntimeObject_Int64U26_t200113976PFvvEPK10MethodInfoPvPS4_
PCe:__ZN5physx6shdfnd8internal8HashBaseIPNS_13NpVolumeCacheES4_NS0_4HashIS4_EENS1_11HashSetBaseIS4_S6_NS0_9AllocatorELb0EE6GetKeyES8_Lb0EE15reserveInternalEj
H7g:__ZL66Selectable_t3250028441_CustomAttributesCacheGenerator_m_TransitionP21CustomAttributesCache
QNo:__ZN6il2cpp2os6Memory12AlignedAllocEjj
qYl:_List_1_AsReadOnly_m3745969689_gshared
Ene:__ZN5physx6shdfnd8internal8HashBaseIPKNS_6PxBaseES5_NS0_4HashIS5_EENS1_11HashSetBaseIS5_S7_NS0_9AllocatorELb0EE6GetKeyES9_Lb0EE6createERKS5_Rb
wKl:_Enumerator_get_Current_m2305210644_AdjustorThunk
I0c:__ZN9JSONWrite8TransferI13dynamic_arrayIN4math12int3_storageELj0EEEEvRT_PKc17TransferMetaFlags
ITe:__ZN5physx28solveFrictionCoulombPreBlockEPKNS_23PxcSolverConstraintDescEjRNS_16PxcSolverContextE
FMj:_Text_set_alignByGeometry_m3828822280
dXj:_Array_InternalArray__ICollection_Add_TisKeyValuePair_2_t1383673463_m1385069916_gshared
pHo:__ZN6il2cpp8metadataL7CompareEPK10Il2CppTypeS3_
kxb:__Z18Transfer_BlittableI17RemapPPtrTransferLb0E11ColorRGBA32EvRK29SerializationCommandArgumentsR31RuntimeSerializationCommandInfo
G7j:_HybridDictionary__ctor_m1681134385
dAa:__ZN21ScalableBufferManager11GetInstanceEv
PFb:__Z18Transfer_BlittableI18StreamedBinaryReadILb0EELb1E10ColorRGBAfEvRK29SerializationCommandArgumentsR31RuntimeSerializationCommandInfo
lTa:__ZN12CubemapArray23VirtualRedirectTransferER17RemapPPtrTransfer
rpm:_TimeSpan_op_LessThan_m1594498345
jtc:__ZL27GetComponentsImplementationILb0ELi0EEbR10GameObjectbRK17CompareParametersRK39GetComponentsImplementation_ReturnValue
Cvm:_Collection_1_set_Item_m2355850893_gshared
FJb:__ZN9Scripting36IsSystemCollectionsGenericDictionaryE17ScriptingClassPtr
qnn:_UnityEvent_1_FindMethod_Impl_m322741469_gshared
nvg:__ZL92ConstructionCallDictionary_t686578562_CustomAttributesCacheGenerator_U3CU3Ef__switchU24map24P21CustomAttributesCache
mje:__ZN5physx12NpConstraint12actorDeletedEPNS_12PxRigidActorE
URf:__Z54Register_UnityEngine_Networking_UnityWebRequest_Createv
b8g:__ZL64Slider_t3903728902_CustomAttributesCacheGenerator_m_WholeNumbersP21CustomAttributesCache
UJn:_Enumerator_get_Current_m2591725252
Aba:__ZL16ReadTypeTreeImplILb0EEbR8TypeTreeRK16TypeTreeIteratorRPKhS6_i
Rhk:_Interval_Contains_m110351300_AdjustorThunk
b7k:_Convert_ToInt32_m3048308591
mw:__ZN25RuntimeAnimatorControllerD2Ev
H9g:__ZL77LayoutUtility_t2745813735_CustomAttributesCacheGenerator_U3CU3Ef__amU24cache6P21CustomAttributesCache
OGj:_RectMask2D_OnCanvasHierarchyChanged_m3195492255
rdh:__ZL78TMP_Settings_t2071156274_CustomAttributesCacheGenerator_m_enableTintAllSpritesP21CustomAttributesCache
ybl:_DateTimeOffset_Equals_m3030958070
Y1d:__ZN5physx2Sc8ShapeSim18reinsertBroadPhaseEv
jJa:__ZNK22BuiltinResourceManager21GetResourceInstanceIDEPKN5Unity4TypeERKN4core12basic_stringIcNS4_20StringStorageDefaultIcEEEE
zHb:__ZN18StreamedBinaryReadILb0EE21TransferSTLStyleArrayI13dynamic_arrayI10ColorRGBAfLj0EEEEvRT_17TransferMetaFlags
Quc:__Z42Register_UnityEngine_RectOffset_set_bottomv
PHn:_AnalyticsTracker_BuildParameters_m43920649
Bhe:__ZN5physx2Sc5Scene11removeShapeERNS0_8ShapeSimEb
uwk:_DateTimeFormatInfo_GetMonthName_m2034512315
P2b:__ZN28LightProbeProxyVolumeContext8CopyFromERKS_
iIm:_ReadOnlyCollection_1_System_Collections_Generic_IListU3CTU3E_Insert_m2489506856_gshared
jza:__ZN23TransformChangeDispatch32QueueTransformChangeIfHasChangedER18TransformHierarchy
Nnl:_Enumerator_System_Collections_IEnumerator_get_Current_m1145487420_gshared
PXf:_TMP_InputField_get_onSelect_m1664894426
unj:_Matrix4x4_MultiplyPoint_m1575665487
KVb:__ZN7ApiGLES18DeleteRenderbufferERj
G5d:__ZN5physx6shdfnd5ArrayIPvNS0_15InlineAllocatorILj256ENS0_19ReflectionAllocatorINS_16NpConnectorArrayEEEEEE15growAndPushBackERKS2_
WUb:__ZL23ProgramUniformMatrix4fvPK7ApiGLESjiihPKv
XOb:__ZN7ApiGLES13CreateTextureEjj14GraphicsFormatiiiii
TNk:_Array_new_gap_m262136975
Exd:__Z10b2DistanceP16b2DistanceOutputP14b2SimplexCachePK15b2DistanceInput
pXe:__ZN5physx14SingleAABBTaskC2Ev
kkc:__ZN9ShaderLab20SerializedSubProgram15MatrixParameter8TransferI14SafeBinaryReadEEvRT_
B7f:_TMP_Text_SetCharArray_m3635885420
UXa:__ZN4core8hash_mapIiN28ReflectionProbeAnchorManager16CachedAnchorDataENS_4hashIiEENSt3__28equal_toIiEEEixERKi
XDf:__Z46Register_UnityEngine_Canvas_set_sortingLayerIDv
T7f:_TMP_Text_HexCharsToColor_m2075419509
MKl:_Enumerator_System_Collections_IEnumerator_get_Current_m1846615603_gshared
ltc:__ZL27GetComponentsImplementationILb0ELi1EEbR10GameObjectbRK17CompareParametersRK39GetComponentsImplementation_ReturnValue
Udk:_X509Store__ctor_m275383717
myj:_Transform_INTERNAL_get_position_m1310184257
xgc:__Z29StdTemplateConversionFunctionIatEbPvR14SafeBinaryRead
Pao:__ZN6il2cpp2vm13MetadataCache40AddThreadLocalStaticOffsetForFieldLockedEP9FieldInfoiRKNS_2os12FastAutoLockE
Vcf:__ZN5physx12storeIndicesEjjPKjRNS_14PxOutputStreamEb
DBa:__ZN13RenderTexture7ReleaseEv
b1c:__Z18Transfer_BlittableI8JSONReadLb1EN4math12int3_storageEEvRK29SerializationCommandArgumentsR31RuntimeSerializationCommandInfo
v1a:__ZN10MeshFilter23VirtualRedirectTransferER14SafeBinaryRead
X6e:__ZNK5physx13NpClothFabric17getReferenceCountEv
Ibk:_AsnEncodedData_get_Oid_m402887164
k5a:__ZN12MeshRenderer17MainThreadCleanupEv
t3n:__ZN6il2cpp2vmL10InitLockedEP11Il2CppClassRKNS_2os12FastAutoLockE
wqb:__ZN22CreateGpuProgramOutput12CreateParamsEv
kP:__ZN10ObjectPoolIN4FMOD7ChannelENS0_8ChannelIEE7GetFreeEi
ju:__ZL62__ManagedRegistrationHelperFunction_AnimatorOverrideControllerPv
sRi:__Z96RuntimeInvoker_RuntimeObject_CustomAttributeNamedArgument_t287865710_RuntimeObject_RuntimeObjectPFvvEPK10MethodInfoPvPS4_
VCh:_FontData_get_font_m2720086288
bge:__ZNK5physx18NpArticulationLink11getChildrenEPPNS_18PxArticulationLinkEj
y1h:_InternalEnumerator_1_System_Collections_IEnumerator_get_Current_m548105685_gshared
WSb:__ZNK14GfxContextGLES13GetDefaultFBOEv
oMi:__Z99RuntimeInvoker_Void_t1185182177_UILineInfoU5BU5DU26_t2468919161_Int32_t2950945753_Int32_t2950945753PFvvEPK10MethodInfoPvPS4_
VPk:_Byte_System_IConvertible_ToType_m2251112646
aRc:__Z55Register_UnityEngine_MonoBehaviour_StopCoroutineManagedv
xBi:__Z81RuntimeInvoker_Char_t3634460470_RuntimeObject_Int32_t2950945753_Int16_t2552820387PFvvEPK10MethodInfoPvPS4_
K3e:__Z15atomIntegrationfPKPN5physx11PxsBodyCoreEPKPNS_12PxsRigidBodyEjPKNS_2Cm13SpatialVectorEPNS_13PxcSolverBodyEPNS_17PxcSolverBodyDataEPS9_RjSH_
qal:_DateTime_get_Hour_m4153505178_AdjustorThunk
dMb:__ZN14GraphicsHelper5ClearE13GfxClearFlagsRK10ColorRGBAffjR17ShaderPassContext
cEm:_ReadOnlyCollection_1_System_Collections_Generic_IListU3CTU3E_RemoveAt_m2659121554_gshared
s0j:_Evidence_Equals_m1478353107
rsn:_CostDelegate__ctor_m4027655829
UBe:__ZN5physx13NpRigidStatic11createShapeERKNS_10PxGeometryEPKPNS_10PxMaterialEtNS_7PxFlagsINS_11PxShapeFlag4EnumEhEE
IKc:__Z13GetImagePixelI10ColorRGBAfET_PKhii13TextureFormat15TextureWrapModeS5_ii
XSm:_List_1_System_Collections_IList_set_Item_m1842844683_gshared
Wpn:_ObjectPool_1__ctor_m2535233435_gshared
zon:_EventFunction_1__ctor_m4292798223_gshared
Npo:__ZN6il2cpp2vm6Thread49CheckCurrentThreadForInterruptAndThrowIfNecessaryEv
H4k:_Convert_ToChar_m3757390865
yEa:__ZNSt3__23mapIN9ShaderLab16FastPropertyNameEN18UnityPropertySheet11UnityTexEnvENS_4lessIS2_EENS_9allocatorINS_4pairIKS2_S4_EEEEEixERS9_
YOb:__ZNK13TranslateGLES25GetTextureTargetDimensionEj
RYi:_RankException__ctor_m3453633632
I9d:__ZN5physx11NpAggregate22removeActorAndReinsertERNS_7PxActorEb
sMi:__Z96RuntimeInvoker_Void_t1185182177_Vector3U5BU5DU26_t3038522815_Int32_t2950945753_Int32_t2950945753PFvvEPK10MethodInfoPvPS4_
Wqn:_VertexShakeB_OnDisable_m1594553736
oEm:_ReadOnlyCollection_1_System_Collections_IList_Remove_m1842121503_gshared
gbf:__ZZL19ExtractHullPolygonsRjRN5physx2Gu9ContainerERKNS0_17ConvexHullBuilderEPS2_S3_EN5Local9FloodFillES3_PKNS0_11AdjTriangleEjPb
CEk:_File_OpenRead_m2936789020
yKg:__ZL110Quaternion_t2301928331_CustomAttributesCacheGenerator_Quaternion_LookRotation_Injected_m3680180073____upwards1P21CustomAttributesCache
o7:__ZN9Scripting12LogExceptionE21ScriptingExceptionPtriPKcb
gxi:__Z94RuntimeInvoker_Void_t1185182177_RuntimeObject_PlayableGraph_t3515989261_RuntimeObject_IntPtr_tPFvvEPK10MethodInfoPvPS4_
yj:_emscripten_glVertexAttrib4f
jwb:__ZN14SafeBinaryRead21TransferSTLStyleArrayI13dynamic_arrayIN4math12int3_storageELj0EEEEvRT_17TransferMetaFlags
Qph:_TextMeshPro_GetSharedMaterials_m3782928491
Lai:_InternalEnumerator_1_System_Collections_IEnumerator_Reset_m4072625129_AdjustorThunk
ync:__ZNSt3__26vectorIN20GpuProgramParameters14ConstantBufferENS_9allocatorIS2_EEE8__appendEj
Cek:_X509CertificateCollection_AddRange_m3683116910
tdh:__ZL79TMP_Settings_t2071156274_CustomAttributesCacheGenerator_m_missingGlyphCharacterP21CustomAttributesCache
z4h:_InternalEnumerator_1_Dispose_m1837758743_AdjustorThunk
X$n:_CustomEventData_t317522481_marshal_pinvoke_cleanup
CRm:_Predicate_1_Invoke_m2315049893_gshared
dp:FUNCTION_TABLE_vf
Tpc:__Z15tessGetElementsP14TESStesselator
i4b:__ZN11HaloManager21ReleaseGeometryJobMemEP25DynamicVBOGeometryJobData
rEk:_DirectoryNotFoundException__ctor_m1689636868
hRi:__Z96RuntimeInvoker_RuntimeObject_Vector2_t2156229523_Vector2_t2156229523_RuntimeObject_RuntimeObjectPFvvEPK10MethodInfoPvPS4_
qce:__ZN5physx14NpArticulation26setMaxProjectionIterationsEj
k0d:__ZN5physx3Cct15ObstacleContext14removeObstacleEj
IEm:_ReadOnlyCollection_1_System_Collections_Generic_IListU3CTU3E_get_Item_m978644313_gshared
Zwm:_Collection_1_get_Item_m2253972692_gshared
gHh:_RefEmitPermissionSet_t484390987_marshal_pinvoke_cleanup
z_i:_CustomAttributeTypedArgument_Equals_m2261980307
EB:__ZN7mecanim12statemachine24CreateStateMachineMemoryEPKNS0_20StateMachineConstantERNS_6memory9AllocatorE
Inb:__ZN9GfxDevice18SetGlobalDepthBiasEff
Sco:__ZN6il2cpp6icalls8mscorlib6System8MonoType12get_AssemblyEP20Il2CppReflectionType
pGk:_IsolatedStorageException__ctor_m3386787868
W6c:__ZN4PPtrI12MeshRendererE8TransferI14SafeBinaryReadEEvRT_
iIh:_TypeBuilder_MakeGenericType_m2799607032
qXe:__ZN5physx20SingleAABBUpdateTaskD0Ev
ahk:_RepeatContext_get_Start_m1076992038
SKm:_ReadOnlyCollection_1_IndexOf_m3669095250_gshared
Mj:_emscripten_glGetPointerv
wXk:_Array_Sort_TisSingle_t1397266774_TisSingle_t1397266774_m1233431437_gshared
tze:__ZNK5physx15NpActorTemplateINS_14PxRigidDynamicEE13getActorFlagsEv
$dh:__ZL70TMP_Style_t3479380764_CustomAttributesCacheGenerator_m_ClosingTagArrayP21CustomAttributesCache
ZZk:_Dictionary_2_Do_CopyTo_TisKeyValuePair_2_t3842366416_TisRuntimeObject_m1564656153_gshared
LG:__ZN8Animator22ApplyBuiltinRootMotionEv
Hyc:__Z14BezierExtractUfff
nMb:__Z26ApplyMaterialPassWithCacheRK18SharedMaterialDataR17ShaderPassContextP6ShaderPN9ShaderLab4PassEibPKNS6_10GrabPassesEPNS6_11SubProgramsEPK22DeviceRenderStateBlock
Mgf:__ZN5physx7profile8ZoneImplINS_28PxProfileNameProviderForwardEE17handleBufferFlushEPKhj
bri:__Z55RuntimeInvoker_DateTime_t3738529785_TimeSpan_t881159249PFvvEPK10MethodInfoPvPS4_
OIg:__ZL81Camera_t4157153871_CustomAttributesCacheGenerator_Camera_RaycastTry2D_m2460696262P21CustomAttributesCache
F9d:__ZN5physx2Sc5ActorC2ERNS0_16InteractionSceneEhNS0_14IslandNodeInfo4TypeE
r$f:_TMP_LinkInfo_SetLinkID_m3158822466_AdjustorThunk
e5h:_InternalEnumerator_1_get_Current_m1897120917_AdjustorThunk
EVi:_MonoType_ReorderParamArrayArguments_m2458683451
r6i:_FormatterConverter_ToInt16_m4282804414
y3f:_TMP_SubMeshUI_OnTransformParentChanged_m2009301060
Uwh:_StandaloneInputModule_ProcessTouchPress_m4019232747
yEk:_FileStream__ctor_m3151488352
SNk:_Array_swap_m547389985
kue:__ZN5physx15NpActorTemplateINS_7PxClothEED2Ev
Vsm:_UInt32_ToString_m2420423038
$Wl:_List_1_System_Collections_IList_Add_m634558835_gshared
LKm:_ReadOnlyCollection_1_System_Collections_IList_get_IsFixedSize_m1923250479_gshared
n1g:__ZL105CanvasRenderer_t2598313366_CustomAttributesCacheGenerator_CanvasRenderer_set_popMaterialCount_m1224846275P21CustomAttributesCache
aFk:_FileStream_get_Length_m426703983
qeo:_WWW_get_text_m898164367
XIc:__Z13RegisterClassI10TagManagerEvPKc
Pse:__ZN5physx2Sc9ClothCore16setRestPositionsEPKNS_6PxVec4E
kCl:_Enumerator__ctor_m1558933899_AdjustorThunk
$Dg:__ZL88BigInteger_t2902905090_CustomAttributesCacheGenerator_BigInteger_op_Implicit_m3414367033P21CustomAttributesCache
j$f:_OnValidateInput_EndInvoke_m2757910316
b9e:__ZN5physx2Gu12TriangleMesh4loadERNS_13PxInputStreamE
knd:__ZL17DrawMeshParticlesILb0EL25ParticleSystemRenderSpace2EEvRK26ParticleSystemTempMeshDataRK22ParticleSystemTempDataRK23ParticleSystemParticlesRK31ParticleSystemParticlesTempDataRK26ParticleSystemRendererDataRK21ParticleSystemModulesPfPv
iXm:_List_1_Remove_m2092085040_gshared
hhc:__ZL13MotionHandleriPK27EmscriptenDeviceMotionEventPv
JN:__ZN12AudioManager5ResetEv
Shi:__Z67RuntimeInvoker_Boolean_t97287965_RuntimeObject_SByteU26_t3619038962PFvvEPK10MethodInfoPvPS4_
jIg:__ZL68DisallowMultipleComponent_t1422053217_CustomAttributesCacheGeneratorP21CustomAttributesCache
AEm:_ReadOnlyCollection_1_get_Count_m1336304542_gshared
P9g:__ZL111LayoutUtility_t2745813735_CustomAttributesCacheGenerator_LayoutUtility_U3CGetPreferredHeightU3Em__6_m3049688934P21CustomAttributesCache
_ja:__ZN6prcoreL17RemapGenericFloatI17TexFormatRGBAHalf15TexFormatRGHalfEEvPKNS_9InnerInfoE
Snl:_Enumerator_Reset_m576306132_gshared
$sl:_KeyCollection_System_Collections_ICollection_get_IsSynchronized_m1704597852_gshared
dEo:__ZN6il2cpp6icalls8mscorlib6System11Environment20GetWindowsFolderPathEi
SFm:_ReadOnlyCollection_1_System_Collections_Generic_IListU3CTU3E_set_Item_m2921615109_gshared
W3k:_Convert_ToBoolean_m2833752130
rrf:_UNITY_FT_Stream_ReadFields
sA:__ZN7mecanim5human18HumanPoseBlendNodeERNS0_9HumanPoseEPS1_f
Pqf:_UNITY_FT_RoundFix
imh:_FastAction__ctor_m80680614
yZ:__ZN23CloudWebServicesManager23VirtualRedirectTransferER17RemapPPtrTransfer
vsd:__ZN9Scripting11UnityEngine19PhysicsJobOptions2D12CleanupProxyEv
LKo:_GC_is_heap_ptr
uPd:__ZNK5physx2Gu15HeightFieldUtil12traceSegmentI24ConvexVsHeightfieldSweepLb0ELb0ELb1EEEvRKNS_6PxVec3ES6_PT_PS5_
ukl:_ASN1_DecodeTLV_m1200977460
kjj:_UnityEventBase_PrepareInvoke_m1785382128
U7e:__ZNK5physx12PxConvexMesh19getConcreteTypeNameEv
FIh:__ZN23InterfaceActionInvoker2IP12Il2CppObjectP20Delegate_t1188392813E6InvokeEjP11Il2CppClassS1_S1_S3_
m5a:__ZNK12MeshRenderer22GetTypeVirtualInternalEv
rRk:_Char_System_IConvertible_ToUInt32_m3901815580
eLi:__Z72RuntimeInvoker_Void_t1185182177_Int32_t2950945753_VertexAnim_t2231884842PFvvEPK10MethodInfoPvPS4_
ZHj:_Scrollbar_set_onValueChanged_m346467699
$Hd:__ZN13ProduceHelperI13BoxCollider2DLb0EE7ProduceE10MemLabelId18ObjectCreationMode
Izh:_ColorBlock_set_disabledColor_m2996580094
wQd:__ZN5physx2Gu19gjkLocalPenetrationINS0_9TriangleVENS0_17ShrunkConvexHullVEEEjRKT_RKT0_RKNS_6shdfnd3aos6FloatVERNSB_5Vec3VESG_SG_RSC_PhSI_Rhb
jri:__Z157RuntimeInvoker_Int32_t2950945753_RuntimeObject_Int32_t2950945753_Int32_t2950945753_Int32_t2950945753_SByte_t1669577662_SByte_t1669577662_Int32U26_t1369213839PFvvEPK10MethodInfoPvPS4_
Apn:_ListPool_1_Release_m957266927_gshared
$vg:__ZL105ConfigHandler_t4192437216_CustomAttributesCacheGenerator_ConfigHandler_ValidatePath_m3895556516____paths1P21CustomAttributesCache
HQ:__ZN4FMOD6System17setSoftwareFormatEi17FMOD_SOUND_FORMATii18FMOD_DSP_RESAMPLER
Nue:__ZN5physx15NpActorTemplateINS_15PxParticleFluidEE22setClientBehaviorFlagsENS_7PxFlagsINS_25PxActorClientBehaviorFlag4EnumEhEE
sbf:__ZN5physx18AdjacenciesBuilderC2Ev
Pln:__ZN30GenericInterfaceActionInvoker1I17Scene_t2348375561E6InvokeEPK10MethodInfoP12Il2CppObjectS0_
W1d:__ZN5physx2Sc13ShapeIterator4initERKNS0_8ActorSimE
fPa:__ZN14SafeBinaryRead19TransferSTLStyleMapINSt3__23mapIN4core12basic_stringIcNS3_20StringStorageDefaultIcEEEES7_NS1_4lessIS7_EE13stl_allocatorINS1_4pairIKS7_S7_EEL18MemLabelIdentifier1ELi16EEEEEEvRT_17TransferMetaFlags
Tt:__ZL49__ManagedRegistrationHelperFunction_AimConstraintPv
bHf:__ZN2UI6Canvas27UpdateEventIndexesRecursiveERi
Zy:__ZN7mecanim9animation18EvaluateRootMotionERKNS0_18ClipMuscleConstantERKNS0_15ClipMuscleInputEPKfS8_RNS0_12MotionOutputEb
y_:__ZN11UnityEngine15CloudWebService16SessionContainer21PrepareDataErrorEventERN4core12basic_stringIcNS2_20StringStorageDefaultIcEEEE
juh:_ExecuteEvents_get_pointerUpHandler_m3515704212
sSk:_ArrayList_set_Item_m2003485935
OEo:__ZNSt3__218uninitialized_copyIPNS_4pairIK10KeyWrapperIPK19Il2CppGenericMethodEP10MethodInfoEESB_EET0_T_SD_SC_
lOh:_SatelliteContractVersionAttribute__ctor_m3630863995
cCg:__ZL79Convert_t2465617642_CustomAttributesCacheGenerator_Convert_ToUInt64_m3102114524P21CustomAttributesCache
bwh:_MouseButtonEventData_PressedThisFrame_m1060658845
ZQf:__ZN16UploadHandlerRaw13TransmitBytesEPvjj
QBb:__Z19TransferField_ArrayI19StreamedBinaryWriteILb0EE27Converter_SimpleNativeClassI8GUIStyleEEvRK23StaticTransferFieldInfoR31RuntimeSerializationCommandInfoRT0_
iUc:__Z43Register_UnityEngine_Renderer_get_isVisiblev
gGi:__Z100RuntimeInvoker_Void_t1185182177_TMP_MeshInfoU5BU5DU26_t469924305_Int32_t2950945753_SByte_t1669577662PFvvEPK10MethodInfoPvPS4_
HEm:_ReadOnlyCollection_1_System_Collections_Generic_IListU3CTU3E_RemoveAt_m3969985996_gshared
YVg:__ZL83AudioSource_t3935305588_CustomAttributesCacheGenerator_AudioSource_Play_m3389845180P21CustomAttributesCache
nRn:__ZL25UnresolvedVirtualCall_247P12Il2CppObjectjjPK10MethodInfo
hof:__ZN20TextRenderingPrivate8TextMesh23VirtualRedirectTransferER18StreamedBinaryReadILb0EE
Qne:__ZN5physx14NpArticulationC2Ev
zFn:_UnityWebRequest_SetUploadHandler_m2465141380
MGa:__Z28BuildSingleStreamChannelInfoP11ChannelInfo17ShaderChannelMaskS1_
M0o:_emscripten_glCopyTexSubImage2D__wrapper
G$a:__ZNK13ScreenManager12GetIsFocusedEv
xjg:_U3CRevealCharactersU3Ec__Iterator0_System_Collections_Generic_IEnumeratorU3CobjectU3E_get_Current_m144739728
spj:_PlayerConnection_get_isConnected_m911966057
REh:_GraphicRegistry_GetGraphicsForCanvas_m4219276355
bGk:__ZN23InterfaceActionInvoker3IP22ByteU5BU5D_t4116647657iiE6InvokeEjP11Il2CppClassP12Il2CppObjectS1_ii
zWi:_NumberFormatter_FastToDecHex_m699829267
wtn:_PatternCompiler_MakeFlags_m1977119795
R0c:__Z35Transfer_Blittable_FixedBufferFieldI8JSONReadiEvRK29SerializationCommandArgumentsR31RuntimeSerializationCommandInfo
pmd:__ZN22ParticleSystemRenderer16UpdateCachedMeshEv
Kwg:__ZL59StreamingContext_t3711869237_CustomAttributesCacheGeneratorP21CustomAttributesCache
ybo:__ZNSt3__213__vector_baseIN6il2cpp2os19SocketHandleWrapperENS_9allocatorIS3_EEED2Ev
cjg:_U3CWarpTextU3Ec__Iterator0_Reset_m493227373
qog:__ZL48_Type_t3588564251_CustomAttributesCacheGeneratorP21CustomAttributesCache
C7c:__ZN12LightsModule8TransferI24GenerateTypeTreeTransferEEvRT_
y5g:__ZL81FontUpdateTracker_t1839077620_CustomAttributesCacheGenerator_U3CU3Ef__mgU24cache0P21CustomAttributesCache
SXa:__ZN28ReflectionProbeAnchorManager18RemoveCachedAnchorERK4PPtrI9TransformE
Lc:invoke_viiffi
Hqg:__ZL103RegionInfo_t1090270226_CustomAttributesCacheGenerator_RegionInfo_t1090270226____NativeName_PropertyInfoP21CustomAttributesCache
Tec:__ZN13sorted_vectorINSt3__24pairIN4core12basic_stringIcNS2_20StringStorageDefaultIcEEEEPK17MessageIdentifierEEN10vector_mapIS6_S9_NS0_4lessIS6_EENS0_9allocatorISA_EEE13value_compareESF_E10insert_oneERKSA_
JG:__ZNSt3__227__insertion_sort_incompleteIRPFbPKN8Animator11AnimatorJobES4_EPS4_EEbT0_S9_T_
i_:__ZNSt3__26__treeINS_12__value_typeIN4core12basic_stringIcNS2_20StringStorageDefaultIcEEEEjEENS_19__map_value_compareIS6_S7_NS_4lessIS6_EELb1EEE13stl_allocatorIS7_L18MemLabelIdentifier88ELi16EEE4findIS6_EENS_15__tree_iteratorIS7_PNS_11__tree_nodeIS7_PvEEiEERKT_
eOh:_ResourceSet_ReadResources_m3663669011
ZEa:__ZL13MeshExtractorPv16VertexInputMasksiR11MeshBuffersR16DrawBuffersRangeRiS5_
iTa:__ZNK12CubemapArray20GetRuntimeMemorySizeEv
E2g:__ZL77ExecuteEvents_t3484638744_CustomAttributesCacheGenerator_U3CU3Ef__mgU24cacheDP21CustomAttributesCache
Uwe:__ZN5physx2Sc18ParticleSystemCore18setProjectionPlaneERKNS_7PxPlaneE
glc:__Z14resize_trimmedINSt3__26vectorIN9ShaderLab18SerializedPropertyENS0_9allocatorIS3_EEEEEvRT_j
Hwb:__Z18Transfer_BlittableI17RemapPPtrTransferLb0EN4math12int3_storageEEvRK29SerializationCommandArgumentsR31RuntimeSerializationCommandInfo
IHg:__ZL92StaticAccessorAttribute_t2432663902_CustomAttributesCacheGenerator_U3CNameU3Ek__BackingFieldP21CustomAttributesCache
Eod:__Z20UpdateWholeSheet2TplIL27ParticleSystemCurveEvalMode3ELS0_3EEvfRK11MinMaxCurveS3_RK23ParticleSystemParticlesPf
bFe:__ZN5physx6shdfnd8PoolBaseINS_2Sc9ActorPairENS0_19ReflectionAllocatorIS3_EEE12allocateSlabEv
a9n:__ZN6il2cpp2vm13MetadataCache38GetMethodInfoFromMethodDefinitionIndexEi
Wsh:_EventSystem_set_current_m38955169
PQc:__Z39MonoBehaviour_CUSTOM_GetScriptClassNameP12Il2CppObject
_6h:_InternalEnumerator_1__ctor_m826178271_AdjustorThunk
F7g:__ZL53Selectable_t3250028441_CustomAttributesCacheGeneratorP21CustomAttributesCache
XZf:_TMP_InputField_Backspace_m3815535005
xsn:_CostDelegate_EndInvoke_m2797921932
s_a:__ZN10VertexData8TransferI24GenerateTypeTreeTransferEEvRT_
amn:_UnityAction_2_Invoke_m3803176137_gshared
k4k:_Double_IsInfinity_m820013146
m6k:__ZN21InterfaceFuncInvoker1I19Decimal_t2948259380P12Il2CppObjectE6InvokeEjP11Il2CppClassS2_S2_
oaj:_CryptographicException__ctor_m503735289
OWl:_List_1_TrimExcess_m440552561_gshared
bwj:_Screen_get_dpi_m495672463
Alm:_UTF8Encoding_InternalGetByteCount_m2120178851
AHg:__ZL130NativeTypeAttribute_t2250406315_CustomAttributesCacheGenerator_NativeTypeAttribute_set_IntermediateScriptingStructName_m3613994509P21CustomAttributesCache
q9b:__ZL10CullLightsRK22SceneCullingParametersR11CullResults
g9k:_Convert_ToUInt64_m3170916409
zB:__ZN7mecanim12statemachine20GetBlendTreeConstantERKNS0_13StateConstantEi
eGe:__ZN5physx7NpScene21setDominanceGroupPairEhhRKNS_20PxDominanceGroupPairE
IBk:_Int64_System_IConvertible_ToInt16_m4062196970_AdjustorThunk
$Vi:_MonoType_GetGenericTypeDefinition_m3201894896
xwc:__Z40GetTemporaryCachePathApplicationSpecificv
imb:__ZN9GfxDevice16EndAsyncJobFrameEv
qzi:__Z99RuntimeInvoker_Int32_t2950945753_Ray_t3785851493_RuntimeObject_Single_t1397266774_Int32_t2950945753PFvvEPK10MethodInfoPvPS4_
cjo:__ZNK15dense_hashtableINSt3__24pairIK10KeyWrapperINS1_IPK12PropertyInfoP11Il2CppClassEEEjEES9_17ReflectionMapHashIS8_EN14dense_hash_mapIS9_jSD_NS9_14EqualsComparerINS0_8equal_toIS8_EEEENS0_9allocatorISB_EEE9SelectKeyESI_SK_E10test_emptyERK30dense_hashtable_const_iteratorISB_S9_SD_SM_SI_SK_E
Atf:_UNITY_tt_face_load_hhea
VQ:__ZN12AudioManager27InitialCompleteDomainReloadEv
MBo:__ZN15dense_hashtableINSt3__24pairIK10KeyWrapperIPcES3_EES4_N6il2cpp5utils15PassThroughHashIS3_EEN14dense_hash_mapIS4_S3_SA_NS4_14EqualsComparerINS0_8equal_toIS3_EEEENS0_9allocatorIS6_EEE9SelectKeyESF_SH_E16reset_thresholdsEv
Ll:___syscall3
Wxe:__ZNK5physx15NpActorTemplateINS_16PxParticleSystemEE7getNameEv
$Kg:__ZL95MonoBehaviour_t3962482529_CustomAttributesCacheGenerator_MonoBehaviour_CancelInvoke_m3252264575P21CustomAttributesCache
gzi:__Z135RuntimeInvoker_RaycastHit2D_t2279581989_Vector2_t2156229523_Vector2_t2156229523_Single_t1397266774_Int32_t2950945753_Single_t1397266774PFvvEPK10MethodInfoPvPS4_
Ol:___syscall6
nnb:__ZN9GfxDevice15GetNextCPUFenceEv
Ql:___syscall4
x$:__ZN11UnityEngine15CloudWebService20WebRequestRestClient17GetResponseStatusEv
yVh:_ReturnMessage__ctor_m2352989078
z7d:__ZN5physx6shdfnd4sortIPvNS0_4LessIS2_EENS0_19ReflectionAllocatorINS_2Sc19ConstraintGroupNodeEEEEEvPT_jRKT0_RKT1_j
dfl:_Double_GetHashCode_m2295714610
Feo:__ZN6il2cpp2vm7Runtime9SetConfigEPKc
elb:__ZNSt3__26__treeINS_12__value_typeIN4core12basic_stringIcNS2_20StringStorageDefaultIcEEEEPN16MemoryFileSystem4NodeEEENS_19__map_value_compareIS6_SA_NS_4lessIS6_EELb1EEE13stl_allocatorISA_L18MemLabelIdentifier55ELi16EEE7destroyEPNS_11__tree_nodeISA_PvEE
vyi:__Z67RuntimeInvoker_Boolean_t97287965_TextGenerationSettings_t1351628751PFvvEPK10MethodInfoPvPS4_
nTk:_ArrayListWrapper_IndexOf_m3692065720
tpk:_TlsServerCertificateRequest__ctor_m1334974076
ird:__ZN27PerformanceReportingManager23VirtualRedirectTransferER14SafeBinaryRead
V3f:_TMP_Text_get_fontSharedMaterial_m1617809530
Bkh:__ZL158U3CDisplayTextMeshProFloatingTextU3Ec__Iterator0_t2967292235_CustomAttributesCacheGenerator_U3CDisplayTextMeshProFloatingTextU3Ec__Iterator0__ctor_m4042895486P21CustomAttributesCache
e7k:_Convert_ToInt32_m1613163543
_Mi:__Z52RuntimeInvoker_TimeSpan_t881159249_Int32_t2950945753PFvvEPK10MethodInfoPvPS4_
fqa:__ZN9Scripting11UnityEngine9Playables8Playable12CleanupProxyEv
gEm:_ReadOnlyCollection_1_System_Collections_ICollection_CopyTo_m3127175806_gshared
dm:_emscripten_glShaderBinary
S0j:_String_op_Inequality_m215368492
L$:__ZN15DownloadHandler19OnFinishReceiveDataEv
$rm:_UInt16_ToString_m760649087
dhb:__ZNK20LocalFileSystemPosix6ExistsERK13FileEntryData
iim:_Array_Resize_TisResolveHandler_t4124874245_m3988737896_gshared
Mri:__Z21RuntimeInvoker_Guid_tPFvvEPK10MethodInfoPvPS4_
Ksi:__Z46RuntimeInvoker_CipherAlgorithmType_t1174400495PFvvEPK10MethodInfoPvPS4_
L7d:__ZN5physx35NpArticulationJointGetBodiesFromScbERNS_3Scb17ArticulationJointERPNS0_4BodyES5_
o7e:__ZNK5physx2Sc15ClothFabricCore16getTetherLengthsEPfj
Yfj:_Camera_GetAllCameras_m668492922
Fbh:__ZL72TMP_Dropdown_t3024694699_CustomAttributesCacheGenerator_m_OnValueChangedP21CustomAttributesCache
a0g:__ZL109Physics_t2310948930_CustomAttributesCacheGenerator_Physics_RaycastAll_m3084184534____queryTriggerInteraction4P21CustomAttributesCache
Vvf:_UNITY_TT_Get_HMetrics
qpm:_TimeSpan_op_Inequality_m2467851530
tEb:__ZN17AnimationCurveTplIfE8TransferI18StreamedBinaryReadILb1EEEEvRT_
gUh:__ZN28GenericInterfaceFuncInvoker1IP12Il2CppObjectP23HeaderU5BU5D_t204812840E6InvokeEPK10MethodInfoS1_S3_
UXk:_Array_Sort_TisUIVertex_t4057497605_m3996333845_gshared
aqk:_Context_get_ReceivedConnectionEnd_m4011125537
F_j:_ToBase64Transform_get_CanReuseTransform_m702204640
h$g:__ZL73ContactFilter2D_t3805203441_CustomAttributesCacheGenerator_maxNormalAngleP21CustomAttributesCache
U_o:_emscripten_glShaderBinary__wrapper
kwi:__Z53RuntimeInvoker_PropertyName_t3749835189_RuntimeObjectPFvvEPK10MethodInfoPvPS4_
s9i:_SByte_System_IConvertible_ToDouble_m2381680501
kOk:_Swapper_BeginInvoke_m1688449973
Shj:_Display_get_renderingWidth_m1970428952
VKe:__ZN5physx2Sc13ConstraintSim8getForceERNS_6PxVec3ES3_
avj:__ZN30GenericInterfaceActionInvoker1IP25RectTransform_t3704657025E6InvokeEPK10MethodInfoP12Il2CppObjectS1_
C$g:__ZL78Physics_t2310948930_CustomAttributesCacheGenerator_Physics_Raycast_m4145022031P21CustomAttributesCache
bya:__ZN16LevelGameManager23VirtualRedirectTransferER19StreamedBinaryWriteILb0EE
Osi:__Z81RuntimeInvoker_Void_t1185182177_RuntimeObject_Int32_t2950945753_Int64_t3736567304PFvvEPK10MethodInfoPvPS4_
l_a:__Z32TransferEnumWithNameForceIntSizeI14SafeBinaryRead16GfxPrimitiveTypeEvRT_RT0_PKc17TransferMetaFlags
Min:_TMP_XmlTagStack_1_Pop_m1336251350_AdjustorThunk
UK:__ZNSt3__26vectorIN4core12basic_stringIcNS1_20StringStorageDefaultIcEEEE13stl_allocatorIS5_L18MemLabelIdentifier1ELi16EEE21__push_back_slow_pathIS5_EEvOT_
TKg:__ZL92Mesh_t3648964284_CustomAttributesCacheGenerator_Mesh_SetTriangles_m2205169959____baseVertex3P21CustomAttributesCache
rJi:__Z52RuntimeInvoker_Int32_t2950945753_HitInfo_t3229609740PFvvEPK10MethodInfoPvPS4_
ofd:__Z25UpdateOrbitalAndRadialTplIL27ParticleSystemCurveEvalMode4ELS0_3ELS0_2EEvRK11MinMaxCurveS3_S3_S3_S3_S3_S3_R23ParticleSystemParticlesjjRKN4math8float3x3ERKNS6_7affineXERKNS6_7_float4E
AAg:__ZL80Convert_t2465617642_CustomAttributesCacheGenerator_Convert_ToBoolean_m2807110707P21CustomAttributesCache
wWd:__ZN5physx15PxGeometryQuery18computePenetrationERNS_6PxVec3ERfRKNS_10PxGeometryERKNS_11PxTransformES6_S9_
Ton:_IndexedSet_1_IndexOf_m241693686_gshared
eZh:_InternalEnumerator_1_MoveNext_m3033431667_gshared
kLf:__ZN11UnityEngine15PlatformWrapper30GetGraphicsDriverLibraryStringEv
$8i:_RuntimeMethodHandle_Equals_m3301340296_AdjustorThunk
rtm:_UInt64_System_IConvertible_ToSingle_m925613075_AdjustorThunk
Dif:__ZN5Unity12PhysicsQueryC2Ev
wNn:__ZL24UnresolvedVirtualCall_40P12Il2CppObjectS0_PK10MethodInfo
Vpn:_ListPool_1__cctor_m704263611_gshared
QFb:__Z18Transfer_BlittableI18StreamedBinaryReadILb0EELb0E4AABBEvRK29SerializationCommandArgumentsR31RuntimeSerializationCommandInfo
F9a:__ZN24GenerateTypeTreeTransfer19TransferSTLStyleMapINSt3__28multimapIN4core12basic_stringIcNS3_20StringStorageDefaultIcEEEE4PPtrI6ObjectENS1_4lessIS7_EE13stl_allocatorINS1_4pairIKS7_SA_EEL18MemLabelIdentifier52ELi16EEEEEEvRT_17TransferMetaFlags
yv:__ZN16MecanimAnimation24DeleteAnimatedPropertiesERP26IAnimatedPropertyEvaluator
SZk:_Dictionary_2_Do_ICollectionCopyTo_TisKeyValuePair_2_t2245450819_m216493345_gshared
Toh:_TextContainer__cctor_m389829303
sYn:_CanvasRenderer_SetMaterial_m824577244
Wcg:_Music_Start_m75845250
o7c:__ZN11ColorModule8TransferI24GenerateTypeTreeTransferEEvRT_
l$b:__Z14DrawGUITextureRK5RectTIfEP7Texture11ColorRGBA32P8Materiali
Mhg:_U3CU3Ec__Iterator0_Dispose_m4156704853
wKg:__ZL101Quaternion_t2301928331_CustomAttributesCacheGenerator_Quaternion_LookRotation_m3197602968____upwards1P21CustomAttributesCache
wjh:__ZL84Benchmark01_t1571072624_CustomAttributesCacheGenerator_Benchmark01_Start_m4262200517P21CustomAttributesCache
RNg:__ZL84RectOffset_t1369453676_CustomAttributesCacheGenerator_RectOffset_Cleanup_m2552807639P21CustomAttributesCache
XNa:__ZNK15PlayableMethods18InvokeProcessFrameER18ScriptingObjectPtrRK9HPlayableP18ScriptingFrameDataRK9FrameData
uF:__ZN9BlobWrite8TransferI22OffsetPtrArrayTransferIKN4math7_float4EEEEvRT_PKc17TransferMetaFlags
izj:_Transform_IsChildOf_m224006092
ZMa:__ZN15TextureSettings8TransferI24GenerateTypeTreeTransferEEvRT_
A0c:__ZN9JSONWrite8TransferI4AABBEEvRT_PKc17TransferMetaFlags
lDj:_LayoutElement_set_preferredHeight_m1999633022
jjc:__ZN15dense_hashtableINSt3__24pairIKiN4core17string_with_labelILi1EEEEEi18SInt32HashFunctionN14dense_hash_mapIiS5_S7_NS0_8equal_toIiEE13stl_allocatorIS6_L18MemLabelIdentifier1ELi16EEE9SelectKeyESA_SD_E12expand_arrayEjN21dense_hash_map_traits17integral_constantIbLb0EEE
mKi:__Z58RuntimeInvoker_Void_t1185182177_ContactPoint2D_t3390240644PFvvEPK10MethodInfoPvPS4_
yUl:_List_1_Clear_m2154023298_gshared
cAc:__Z13RegisterClassI15QualitySettingsEvPKc
PNn:__ZL24UnresolvedVirtualCall_59P12Il2CppObjectiPK10MethodInfo
Frh:_AbstractEventData_get_used_m2991176710
G3h:_InternalEnumerator_1_get_Current_m3191242573_AdjustorThunk
QEi:__Z94RuntimeInvoker_Void_t1185182177_ObjectU5BU5DU26_t712384779_Int32_t2950945753_Int32_t2950945753PFvvEPK10MethodInfoPvPS4_
v4e:__ZNK18ScBeforeSolverTask7getNameEv
it:__ZN13ConstraintJob17ConstraintJobDataD2Ev
kgd:__Z25UpdateOrbitalAndRadialTplIL27ParticleSystemCurveEvalMode2ELS0_1ELS0_2EEvRK11MinMaxCurveS3_S3_S3_S3_S3_S3_R23ParticleSystemParticlesjjRKN4math8float3x3ERKNS6_7affineXERKNS6_7_float4E
bXn:_TextGenerator_PopulateAlways_m1922695746
cEn:_Aes__ctor_m178909601
KTa:__ZNK9Texture2D20GetRuntimeMemorySizeEv
hL:__ZN11Marshalling39CreateNullExceptionForUnityEngineObjectE18ScriptingObjectPtr
FTe:__ZN5physx14solve1D4_BlockEPKNS_23PxcSolverConstraintDescEjRNS_16PxcSolverContextE
b4c:__ZN5Unity9rapidjson13GenericReaderINS0_4UTF8IcEES3_13JSONAllocatorE9ParseTrueILj0ENS0_19GenericStringStreamIS3_EENS0_15GenericDocumentIS3_S4_S4_EEEEvRT0_RT1_
$Um:_List_1_Clear_m2003943277_gshared
nn:_emscripten_glUniform2iv
Hnk:_CipherSuite_get_Context_m1621551997
sWf:_DropdownItem_OnCancel_m3947700413
VWd:__ZL33GeomMTDCallback_ConvexHeightFieldRN5physx6PxVec3ERfRKNS_10PxGeometryERKNS_11PxTransformES5_S8_
qma:__ZL46__ManagedRegistrationHelperFunction_ColorGamutPv
d8h:_InternalEnumerator_1__ctor_m2503697330_gshared
Fam:_Enumerator_Dispose_m1204547613_AdjustorThunk
tmf:_UNITY_FT_Outline_Transform
Trc:__Z60Register_UnityEngine_Sprites_DataUtility_Internal_GetMinSizev
sHg:__ZL118NativeMethodAttribute_t4187428193_CustomAttributesCacheGenerator_NativeMethodAttribute_set_HasExplicitThis_m2961870915P21CustomAttributesCache
W3n:__ZN6il2cpp2vm5Class10GetMethodsEP11Il2CppClassPPv
i9l:_EqualityComparer_1_System_Collections_IEqualityComparer_Equals_m477570191_gshared
mSc:__Z45Register_UnityEngine_Mesh_get_bounds_Injectedv
zPf:__ZNK25UnityWebRequestJavaScript17GetUploadProgressEv
X4b:__Z30AddDefaultStreamsToMeshBuffersR9GfxDeviceR11MeshBuffersRK16DrawBuffersRange17ShaderChannelMaskS6_
w_l:_List_1_GetEnumerator_m1430071802_gshared
mVb:__ZN7ApiGLES17DeleteFramebufferERN2gl6HandleILNS0_10ObjectTypeE9EEES3_
cof:__ZN20TextRenderingPrivate8TextMesh17MainThreadCleanupEv
EXb:__ZN15UniformTFMethod13MapBoneBufferEj
KBf:__ZN2UI14CanvasRendererD2Ev
Z$k:_Array_InternalArray__get_Item_TisParameterModifier_t1461694466_m29553316_gshared
vQm:_Nullable_1_GetHashCode_m1123196047_gshared
_Bk:_Int64_CompareTo_m1928360444_AdjustorThunk
LYe:__ZN5physx26PxcPCMContactCapsuleConvexERKNS_2Gu13GeometryUnionES3_RKNS_11PxTransformES6_RKfRNS_10PxcNpCacheERNS0_13ContactBufferE
Ioe:__ZNK5physx7NpShape16getContactOffsetEv
dLb:__Z9SetupArgviPPKc
z7k:_Convert_ToInt64_m2075031821
bOg:__ZL111ScriptableObject_t2528358522_CustomAttributesCacheGenerator_ScriptableObject_CreateScriptableObject_m3504774547P21CustomAttributesCache
Aid:__Z15GetPositionMeshIL20MeshDistributionMode0ELb0E11ColorRGBA32EvRN4math8floatNx3ES4_RNS2_4pix4ERK13dynamic_arrayIS1_Lj0EERK14StrideIteratorI8Vector3fESF_RKSB_I8Vector2fERKSB_IT1_ERKS7_I16MeshTriangleDataLj0EERKS7_I11MeshAreaLUTLj0EERKfRKiSX_RK16ShapeTextureDataR5RandNP12SkinMeshInfo
V2h:_InternalEnumerator_1__ctor_m236665673_gshared
j5i:_RemotingException__ctor_m1015537352
_jo:__ZN6il2cpp2vm10Reflection7IsFieldEP12Il2CppObject
B0m:_Collection_1_IsSynchronized_m1300921416_gshared
uHn:_AnalyticsEventTracker_OnDisable_m1553012800
I1o:_glTexParameteri__wrapper
Jae:__ZN5physx10PxsContext17addParticleSystemEPNS_15PxsParticleDataERKNS_26PxvParticleSystemParameterEb
F8d:__ZN5physx3Scb5Scene13addRigidNoSimINS0_4BodyELb1ELb1EEEvRT_RNS0_13ObjectTrackerE
cva:__ZN12ImmediatePtrI10GameObjectE8TransferI19StreamedBinaryWriteILb0EEEEvRT_
mTa:__ZN12CubemapArray23VirtualRedirectTransferER24GenerateTypeTreeTransfer
wma:__ZL49__ManagedRegistrationHelperFunction_RenderTexturePv
QHa:__ZNSt3__26vectorI4PPtrI6ShaderE13stl_allocatorIS3_L18MemLabelIdentifier53ELi16EEE8__appendEj
ftl:_KeyCollection_System_Collections_Generic_ICollectionU3CTKeyU3E_Add_m220590786_gshared
TVn:_U3CDefaultUnityWebRequestU3Ed__0_U3CU3Em__Finally1_m3779297382
TDo:__ZN6il2cpp2os9Directory6CreateERKNSt3__212basic_stringIcNS2_11char_traitsIcEENS2_9allocatorIcEEEEPi
$Ha:__ZN4PPtrI6ShaderE8TransferI18StreamedBinaryReadILb0EEEEvRT_
RRd:__ZL19sweepBoxVsTrianglesjPKN5physx10PxTriangleERKNS_2Gu3BoxERKNS_6PxVec3EfRNS_10PxSweepHitENS_7PxFlagsINS_9PxHitFlag4EnumEtEEbPKj
gza:__ZN23TransformChangeDispatch32QueueTransformChangeIfHasChangedERK15TransformAccess
Tef:_PxCreateCooking
pUd:__ZN9Rigidbody18AddForceAtPositionERK8Vector3fS2_i
Mib:__ZN15ArchiveReadFile5WriteEyPKvPy
oDo:__ZN6il2cpp2os26LibraryNamePrefixAndSuffixC2EPKcS3_
xHl:_Dictionary_2_Clear_m2183488975_gshared
ZYi:_Assembly_get_FullName_m293988418
XId:__ZN22WorldContactListener2D8PreSolveEP9b2ContactPK10b2Manifold
fMf:__ZN22BaseUnityConnectClientD0Ev
zfj:_Camera_get_pixelRect_Injected_m2326986893
Knf:__ZNSt3__26__treeINS_12__value_typeIN20TextRenderingPrivate7FontRefENS2_6OSFontEEENS_19__map_value_compareIS3_S5_NS_4lessIS3_EELb1EEENS_9allocatorIS5_EEE12__find_equalIS3_EERPNS_16__tree_node_baseIPvEESI_RKT_
ydg:_Scoreboard_SaveToString_m4162145868
Erd:__ZN27PerformanceReportingManager18ActiveSceneChangedEPS_P10UnitySceneS2_
$Qm:__ZN28GenericInterfaceFuncInvoker1Ib25RejectHandler_t1435172309E6InvokeEPK10MethodInfoP12Il2CppObjectS0_
B:tempValue
LEb:__ZN18StreamedBinaryReadILb1EE21TransferSTLStyleArrayI13dynamic_arrayI8Vector4fLj0EEEEvRT_17TransferMetaFlags
vgc:__Z29StdTemplateConversionFunctionIaiEbPvR14SafeBinaryRead
AOo:__ZN6il2cpp8metadata24Il2CppGenericContextHash4HashEPK20Il2CppGenericContext
m3h:_InternalEnumerator_1_get_Current_m356936020_AdjustorThunk
V$b:__ZN6Camera21RenderODSWorldTextureERK11CullResultsRK19SharedRendererSceneR17ShaderPassContextNS_10RenderFlagE
m2m:_Collection_1_ClearItems_m3135289993_gshared
Qgd:__Z25UpdateOrbitalAndRadialTplIL27ParticleSystemCurveEvalMode3ELS0_1ELS0_4EEvRK11MinMaxCurveS3_S3_S3_S3_S3_S3_R23ParticleSystemParticlesjjRKN4math8float3x3ERKNS6_7affineXERKNS6_7_float4E
R7:__Z29scripting_class_from_fullnamePKcS0_S0_
XDk:_Directory_GetCurrentDirectory_m219218555
CLi:__Z104RuntimeInvoker_Void_t1185182177_ProgressHandlerU5BU5DU26_t3533448590_Int32_t2950945753_Int32_t2950945753PFvvEPK10MethodInfoPvPS4_
Tyj:_Transform_TransformDirection_m3784028109
GKk:_SmallXmlParser_UnexpectedEndError_m1914362401
YB:__ZN26AnimatorControllerPlayable18DeallocateBindingsEv
nwg:__ZL61FormatterTypeStyle_t3400733584_CustomAttributesCacheGeneratorP21CustomAttributesCache
$Wd:__ZN5physx2Gu29ConvexVsMeshContactGeneration20generateLastContactsEv
ejd:__ZNK4PPtrI12MeshRendererEptEv
Ykh:__ZL137U3CAnimateVertexColorsU3Ec__Iterator0_t897284962_CustomAttributesCacheGenerator_U3CAnimateVertexColorsU3Ec__Iterator0_Dispose_m2414077547P21CustomAttributesCache
Izi:__Z85RuntimeInvoker_Boolean_t97287965_Ray_t3785851493_Single_t1397266774_Int32_t2950945753PFvvEPK10MethodInfoPvPS4_
r5d:__ZNK5physx2Gu22SupportMapRelativeImplINS0_4BoxVEE14doSupportSweepERKNS_6shdfnd3aos5Vec3VE
Ypb:__ZN14DelayedDeletorI15dense_hashtableINSt3__24pairIK9TextureIDiEES3_14GfxGenericHashIS3_EN14GfxDoubleCacheIS3_iS7_NS1_8equal_toIS3_EEN31GfxDoubleCacheConcurrencyPolicy11LocklessGetE42GfxDoubleCacheDefaultEmptyDeletedGeneratorIS3_EE9SelectKeyESA_13stl_allocatorIS5_L18MemLabelIdentifier24ELi16EEEEclEv
hIl:_Dictionary_2_CopyToCheck_m3475736769_gshared
IT:__ZN11AudioSource19CreateOpenALRolloffEfff
utf:_UNITY_FT_Stream_ReadAt
Qve:__ZN5physx2Sc17ParticleSystemSim16getParticleStateEv
VUn:_AudioSampleProvider_Dispose_m1993565764
J0n:_Physics_Raycast_m3336206959
B3e:__ZN5physx6shdfnd5ArrayINS_25PxsCompoundContactManagerENS0_19ReflectionAllocatorIS2_EEE8recreateEj
KBl:_Enumerator_MoveNext_m1673259783_gshared
q7l:_EqualityComparer_1_System_Collections_IEqualityComparer_Equals_m1907027006_gshared
dRn:__ZL25UnresolvedVirtualCall_237P12Il2CppObjectaS0_PK10MethodInfo
V0h:_InternalEnumerator_1_System_Collections_IEnumerator_Reset_m521819017_AdjustorThunk
T6h:_InternalEnumerator_1_get_Current_m1711665164_gshared
bpd:__Z19UpdateSingleRow2TplIL27ParticleSystemCurveEvalMode3ELS0_1EEvfRK11MinMaxCurveS3_RK23ParticleSystemParticlesPfbiii
o0c:__ZN9JSONWrite8TransferI13dynamic_arrayI5RectTIfELj0EEEEvRT_PKc17TransferMetaFlags
NSm:_List_1_System_Collections_IList_Contains_m3860993176_gshared
xWe:__ZN5physx14PxsAABBManagerC2ERNS_2Cm13EventProfilerERNS_19PxcScratchAllocatorE
rX:__ZN11AudioModule22CreateAudioClipFromWWWEP10IWWWStreamPKcbbi
kDc:__ZN9Texture2DC2E10MemLabelId18ObjectCreationMode
wOb:__Z17DebugStringToFileIA59_cEvRKT_iPKci15LogMessageFlagsiiPFvRK11CppLogEntryE
M7i:_ObjectRecord_get_IsUnsolvedObjectReference_m1163921033
dsm:_UInt32_System_IConvertible_ToBoolean_m1763673183_AdjustorThunk
Ldm:_Array_InternalArray__ICollection_CopyTo_TisTextAlignmentOptions_t4036791236_m3453113315_gshared
ejj:_UnityEvent_AddListener_m2276267359
Rs:__Z9SetLocalR15TransformAccessRKN4math7_float4Ey
kvi:__Z35RuntimeInvoker_RangeInt_t2094684618PFvvEPK10MethodInfoPvPS4_
uKa:__ZN6prcoreL11inner_clearILj4EEEvPhjjj
yUh:_MethodCall_get_Args_m148309537
aVh:_DictionaryEnumerator_get_Value_m2166220004
I1n:_NativeTypeAttribute__ctor_m1677513894
DTn:_PCMReaderCallback_BeginInvoke_m3391809637
H2:__GLOBAL__sub_I_Runtime_SceneManager_0_cpp
Nji:__Z74RuntimeInvoker_Void_t1185182177_RuntimeObject_StreamingContext_t3711869237PFvvEPK10MethodInfoPvPS4_
Gsj:_Quaternion_Euler_m3049309462
iga:__ZNK8Playable6HandleEv
hAj:_SetPropertyUtility_SetColor_m2229203028
fUo:___cxa_guard_abort
Apl:_Enumerator_MoveNext_m481679286_gshared
o8f:_TMP_Text_ClearSubMeshObjects_m653221805
eaa:__ZN14MessageHandler28MessageIDToMessageIdentifierEi
wyn:_Uri_get_Query_m2772518875
aTn:__ZL25UnresolvedVirtualCall_342P12Il2CppObjecti19Vector4_t3319028937PK10MethodInfo
X_a:__ZNK11SpriteAtlas20GetRuntimeRenderDataEPK6Sprite
NDk:_FileSystemInfo__ctor_m3035148496
Ipk:_Context_get_SessionId_m1086671147
SHd:__Z13RegisterClassI17CapsuleCollider2DEvPKc
FAk:_Int32_System_IConvertible_ToDecimal_m2190376994_AdjustorThunk
Vbm:_KeyValuePair_2_set_Key_m2121548577_AdjustorThunk
Ebm:_KeyValuePair_2_get_Value_m3536231958_gshared
epn:_U3CStartU3Ec__Iterator0__ctor_m2366347741_gshared
ozg:__ZL88UTF7Encoding_t2644108479_CustomAttributesCacheGenerator_UTF7Encoding_GetBytes_m521917477P21CustomAttributesCache
ooa:__ZL43__ManagedRegistrationHelperFunction_Vector4Pv
Wz:__ZN7mecanim14ValueArrayCopyILb0EEEvPKNS_10ValueArrayEPS1_
Obi:_DefaultComparer__ctor_m516312884_gshared
nL:__Z51Register_UnityEngine_Animator_get_hasBoundPlayablesv
_4m:_Collection_1_CopyTo_m3142835220_gshared
te:emscriptenWebGLGetUniform
Op:FUNCTION_TABLE_iiiiiiiiiii
nBn:_GUI_CallWindowDelegate_m3309453386
eKl:_Enumerator_System_Collections_IEnumerator_Reset_m1475773051_AdjustorThunk
Nrf:_cff_set_mm_blend
hUd:__ZN5physx2Gu19sweepCapsuleCapsuleERKNS0_7CapsuleES3_RKNS_6PxVec3EfRfRS4_S8_jRt
YRe:__ZN5physx2Gu29EPASupportMapPairRelativeImplINS0_9TriangleVENS0_11ConvexHullVEED0Ev
WMa:__Z32TransferEnumWithNameForceIntSizeI14SafeBinaryRead13TextureFormatEvRT_RT0_PKc17TransferMetaFlags
ibc:__ZL10CleanUpJobP20CullingGroupsJobData
plh:__ZL192U3CAnimateVertexColorsU3Ec__Iterator0_t168300594_CustomAttributesCacheGenerator_U3CAnimateVertexColorsU3Ec__Iterator0_System_Collections_Generic_IEnumeratorU3CobjectU3E_get_Current_m3219239971P21CustomAttributesCache
V4b:__Z20IsRunningNativeTestsv
JDk:_DirectoryInfo_get_Exists_m3142069876
u1a:__ZN10MeshFilter23VirtualRedirectTransferER24GenerateTypeTreeTransfer
dAc:__Z13RegisterClassI16LightmapSettingsEvPKc
c$b:__ZN13RenderManager15BatchModeUpdateEv
oAj:_InputField_get_onValueChanged_m2983709332
vgi:_Enumerator_VerifyState_m1545185457_AdjustorThunk
Rdk:_X509Chain_get_CertificateAuthorities_m804805415
SPk:_Boolean_ToString_m663098404_AdjustorThunk
Drg:__ZL123GenericTypeParameterBuilder_t1988827940_CustomAttributesCacheGenerator_GenericTypeParameterBuilder_IsSubclassOf_m2266644074P21CustomAttributesCache
__g:__ZL71ContactFilter2D_t3805203441_CustomAttributesCacheGenerator_useLayerMaskP21CustomAttributesCache
YKn:_Vector2_get_one_m738793577
qEd:__ZN10ClipperLib7Clipper15SetWindingCountERNS_5TEdgeE
NKc:__ZNK4Mesh14GetIndexFormatEv
oJf:__ZN9Scripting11UnityEngine9Analytics21AnalyticsSessionState9InitProxyEv
rjg:_TextConsoleSimulator_OnDisable_m2939709510
KKn:_Vector2_get_magnitude_m2752892833_AdjustorThunk
ram:_GenericEqualityComparer_1__ctor_m4072188982_gshared
Ohe:__ZN5physx2Sc8ActorSim24postDominanceGroupChangeEv
qWj:_OrderedEnumerable_1_CreateOrderedEnumerable_TisUInt32_t2560061978_m2809766266_gshared
Tyn:_UriParser_set_DefaultPort_m4007715058
Wqh:_TextMeshProUGUI_GetCanvas_m3181528364
yzo:__ZN14dense_hash_mapI10KeyWrapperIP12Il2CppObjectEN6il2cpp2gc9CachedCCWENS4_5utils11PointerHashIS1_EENS3_14EqualsComparerINSt3__28equal_toIS2_EEEENSB_9allocatorINSB_4pairIKS3_S6_EEEEE13set_empty_keyERSH_
yIn:_FieldWithTarget__ctor_m583221563
Le:_glVertexAttribIPointer
Qjm:_StringBuilder_ToString_m3317489284
F4f:_TMP_Text_set_fontSizeMin_m3526936629
Frc:__ZNK6Sprite10GetPaddingE20SpriteRenderDataMode
Gie:__ZN5physx2Cm8PtrTable5clearERNS0_22PtrTableStorageManagerE
$Sj:_Array_InternalArray__IEnumerable_GetEnumerator_TisWorkRequest_t1354518612_m2622205355_gshared
kPi:__Z77RuntimeInvoker_KeyValuePair_2_t4237331251_Int32_t2950945753_Int32_t2950945753PFvvEPK10MethodInfoPvPS4_
WPj:_Array_InternalArray__ICollection_Remove_TisUInt32_t2560061978_m733727733_gshared
mlh:__ZL100VertexShakeB_t1533164784_CustomAttributesCacheGenerator_VertexShakeB_AnimateVertexColors_m3313523349P21CustomAttributesCache
Gch:__ZL74TMP_InputField_t1099764886_CustomAttributesCacheGenerator_m_SelectionColorP21CustomAttributesCache
Xhh:__ZL183U3CSpawnWormholesU3Ec__Iterator7_t1215292760_CustomAttributesCacheGenerator_U3CSpawnWormholesU3Ec__Iterator7_System_Collections_Generic_IEnumeratorU3CobjectU3E_get_Current_m4131280961P21CustomAttributesCache
h0d:__ZN5physx3Cct15ObstacleContext7releaseEv
LTh:_ConstructionCall_get_CallSiteActivationAttributes_m3498917408
jTe:__ZN5physx27solveFrictionBlockWriteBackEPKNS_23PxcSolverConstraintDescEjRNS_16PxcSolverContextEPNS_25PxcThresholdStreamElementEjPi
uFk:_Stream_EndRead_m1896469262
bhi:__Z93RuntimeInvoker_Boolean_t97287965_Int32_t2950945753_SByte_t1669577662_ExceptionU26_t3600731591PFvvEPK10MethodInfoPvPS4_
q2k:_SortedList__ctor_m1261191695
E2b:__ZN14qsort_internal5QSortIP15RODataDepthPassi17ROSorterDepthPassEEvT_S4_T0_T1_
Pyk:_Guid_CompareTo_m243656946
QXn:_Canvas_get_additionalShaderChannels_m2758569541
duf:_UNITY_ft_glyphslot_alloc_bitmap
Ojh:__ZL145U3CStartU3Ec__Iterator0_t1520811813_CustomAttributesCacheGenerator_U3CStartU3Ec__Iterator0_System_Collections_IEnumerator_get_Current_m1242096622P21CustomAttributesCache
jjf:__ZN13PhysicsModule21SetAutoSyncTransformsEbb
qBm:_ReadOnlyCollection_1_System_Collections_IList_Add_m3642938800_gshared
Tsk:_RSASslSignatureDeformatter_SetHashAlgorithm_m895570787
o6:__ZL36TransformAccessArray_InitializeClassPv
xzo:__ZN14dense_hash_mapI10KeyWrapperIP12Il2CppObjectEN6il2cpp2gc9CachedCCWENS4_5utils11PointerHashIS1_EENS3_14EqualsComparerINSt3__28equal_toIS2_EEEENSB_9allocatorINSB_4pairIKS3_S6_EEEEEC2EjRKS9_RKSE_
Kfi:_Enumerator_System_Collections_IDictionaryEnumerator_get_Key_m554883757_AdjustorThunk
Tbg:_JSON_Parse_m3730951315
yFm:_ReadOnlyCollection_1_System_Collections_ICollection_get_IsSynchronized_m2037898659_gshared
IQj:_Enumerable_Contains_TisRuntimeObject_m553751294_gshared
lhh:__ZL75U3CDelayLoadLevelU3Ec__Iterator1_t4151457203_CustomAttributesCacheGeneratorP21CustomAttributesCache
yZh:_InternalEnumerator_1_MoveNext_m123458112_gshared
jdf:__ZN5physx6shdfnd10Foundation19AlignCheckAllocator8allocateEjPKcS4_i
HYl:_List_1_Reverse_m576882157_gshared
eym:_Collection_1_System_Collections_IList_get_IsReadOnly_m2288996004_gshared
pSc:__Z47Register_UnityEngine_Mesh_RecalculateBoundsImplv
vmb:__ZN9GfxDevice27UpdateComputeSkinPoseBufferEP9GfxBufferP12SkinMeshInfo
lNl:_Enumerator_get_Current_m3382684163_AdjustorThunk
XZh:_InternalEnumerator_1_System_Collections_IEnumerator_Reset_m3677481164_AdjustorThunk
l4j:_String_LastIndexOf_m3451222878
RSo:__ZNKSt3__221__basic_string_commonILb1EE20__throw_length_errorEv
l7l:_EqualityComparer_1_System_Collections_IEqualityComparer_Equals_m245992594_gshared
Yj:_JS_SystemInfo_GetMemory
mVj:_Array_InternalArray__IndexOf_TisParameterModifier_t1461694466_m1227120810_gshared
WVb:__ZN18GfxFramebufferGLES13ReadbackImageER14ImageReferenceiiiiii
dZc:__ZN5Unity9rapidjson6WriterI16TempBufferWriterNS0_4UTF8IcEES4_13JSONAllocatorE11WriteStringEPKcj
mXg:__ZL95WebRequestUtils_t3541624225_CustomAttributesCacheGenerator_WebRequestUtils_RedirectTo_m55747000P21CustomAttributesCache
zka:__ZN6prcoreL12RemapGenericI17TexFormatARGB888815TexFormatRGB565EEvPKNS_9InnerInfoE
VO:__ZN4FMOD7Channel19setReverbPropertiesEPK29FMOD_REVERB_CHANNELPROPERTIES
rIn:_StandardEventPayload_GetParameters_m2672427676
KHk:_StreamReader_Dispose_m156389394
F9:__ZN13MonoBehaviour22GetScriptFullClassNameEv
bpo:_il2cpp_object_get_class
y_j:_SymmetricAlgorithm_get_Padding_m1011382560
iIc:__ZN13ProduceHelperI11MonoManagerLb0EE7ProduceE10MemLabelId18ObjectCreationMode
Cqn:_U3CAnimateVertexColorsU3Ec__Iterator0_System_Collections_Generic_IEnumeratorU3CobjectU3E_get_Current_m147625527
Xcm:_Array_InternalArray__ICollection_CopyTo_TisKeyValuePair_2_t625878672_m4058206802_gshared
I3e:__ZN5physx6shdfnd4sortIPNS_15PxsContactPatchENS_27SortBoundsPredicateManifoldENS0_19ReflectionAllocatorIS3_EEEEvPT_jRKT0_RKT1_j
Q1b:__ZN13BatchRendererC2ER15RenderLoopStatsRK15RenderNodeQueuebb
rei:_Comparer_1__ctor_m191896560_gshared
Bil:_PreviousInfo_t2148130204_marshal_pinvoke_back
Ukb:__ZNK16MemoryFileSystem9EnumerateEPKcP19dynamic_block_arrayI13FileEntryInfoLj32EEbPPv19FileEnumerationFlag
nJb:__ZN13MonoBehaviour9CallAwakeEv
aHh:_PropertyBuilder_SetValue_m3164486317
iKa:__ZN20SphericalHarmonicsL211AddWeightedERKS_f
gFe:__ZN5physx2Sc24ElementInteractionMarker12onDeactivateEj
gki:__Z82RuntimeInvoker_RuntimeObject_Int64_t3736567304_Int64_t3736567304_Int64_t3736567304PFvvEPK10MethodInfoPvPS4_
OHj:__Z14bankers_roundff
Uxb:__Z19TransferField_ArrayI17RemapPPtrTransfer27Converter_SimpleNativeClassI8GUIStyleEEvRK23StaticTransferFieldInfoR31RuntimeSerializationCommandInfoRT0_
D4:__ZL22StaticInitializeShaderPv
oTm:_List_1_Insert_m2426986470_gshared
a6h:_InternalEnumerator_1_get_Current_m3433165672_AdjustorThunk
UZc:__ZN9JSONWrite8TransferI10ColorRGBAfEEvRT_PKc17TransferMetaFlags
V1k:_KeyMarker__ctor_m2295185526
Nvo:__ZNK15dense_hashtableINSt3__24pairIK10KeyWrapperIP14Il2CppIUnknownEjEES5_N6il2cpp5utils11PointerHashIS3_EEN14dense_hash_mapIS5_jSB_NS5_14EqualsComparerINS0_8equal_toIS4_EEEENS0_9allocatorIS7_EEE9SelectKeyESG_SI_E10test_emptyERK30dense_hashtable_const_iteratorIS7_S5_SB_SK_SG_SI_E
C$d:__ZN5physx3Cct26CharacterControllerManager16createControllerERKNS_16PxControllerDescE
GOf:__ZN11UnityEngine9Analytics22EventLimitResumedEventC2EjRKN4core12basic_stringIcNS2_20StringStorageDefaultIcEEEEb
pQh:_ChannelServices_CreateProvider_m2537021726
Y9h:_InternalEnumerator_1__ctor_m3913006324_AdjustorThunk
_9:__Z25scripting_method_get_name18ScriptingMethodPtr
exc:__Z35Register_UnityEngine_Resources_Loadv
ctk:_SslCipherSuite_ComputeKeys_m661027754
lwb:__Z19TransferField_ArrayI14SafeBinaryRead16Converter_StringEvRK23StaticTransferFieldInfoR31RuntimeSerializationCommandInfoRT0_
jqj:_Object_set_name_m291480324
LMg:__ZL68UpdateCanvasRectTransform_t1832875547_CustomAttributesCacheGeneratorP21CustomAttributesCache
_3k:_Convert_ToBoolean_m481380807
acd:__ZN14ParticleSystem17SimulateParticlesER24ParticleSystemUpdateDataR23ParticleSystemParticlesjRKfPj
kdl:_Decimal_Equals_m2486655999
tpn:_TweenRunner_1_StopTween_m3457627707_gshared
fKo:_GC_exit_check
LZi:_AssemblyName_SetPublicKeyToken_m582470133
oRn:__ZL25UnresolvedVirtualCall_248P12Il2CppObjectiaPK10MethodInfo
ond:__ZL24GenerateParticleGeometryIL24ParticleSystemRenderMode0ELb1ELb1EL25ParticleSystemRenderSpace4EEvPfRK22ParticleSystemTempDataRK26ParticleSystemRendererDataRK21ParticleSystemModulesRK23ParticleSystemParticlesRK31ParticleSystemParticlesTempData
Kkn:_InvokableCall_2_Find_m4196023330_gshared
gYl:_List_1_System_Collections_IList_get_IsFixedSize_m4102534819_gshared
hwi:__Z52RuntimeInvoker_Boolean_t97287965_HitInfo_t3229609740PFvvEPK10MethodInfoPvPS4_
kS:__ZNK4PPtrI9AudioClipEcvPS0_Ev
kzm:_Collection_1_set_Item_m11553568_gshared
y8:__Z20UnlockObjectCreationv
XMm:__ZN16VirtFuncInvoker2Ii19Color32_t2600501292S0_E6InvokeEjP12Il2CppObjectS0_S0_
X5b:__Z34SetupObjectBakedOcclusionInForwardbRK15SharedLightDataRK26SharedLightmapSettingsDataRK15LightmapIndicesR17ShaderPassContext
pll:_DSAManaged_get_Random_m923751780
s6:__ZL29TransformAccessChangeCallbackPK15TransformAccessj
Uqd:__ZN10SizeModuleC2E10MemLabelId
vLn:_Vector3_set_Item_m1772472431_AdjustorThunk
Wag:_U3CSpawnEnemyType1WaveU3Ec__Iterator4_Dispose_m3904000508
iTn:__ZL25UnresolvedVirtualCall_350P12Il2CppObject17Scene_t2348375561iPK10MethodInfo
Kgk:_Interpreter_PopulateGroup_m4042796257
GDl:_ValueCollection_System_Collections_Generic_ICollectionU3CTValueU3E_Clear_m541602619_gshared
qPf:__ZN9Scripting11UnityEngine10Networking18CertificateHandler9InitProxyEv
MTf:__ZN9Scripting11UnityEngine12Experimental2XR13TrackableType9InitProxyEv
yqm:_Type_GetProperty_m3414567179
Auo:__ZN6il2cpp2vm13LivenessState25FieldCanContainReferencesEP9FieldInfo
lfc:__ZNSt3__26vectorINS_4pairIN4core12basic_stringIcNS2_20StringStorageDefaultIcEEEES6_EE13stl_allocatorIS7_L18MemLabelIdentifier38ELi16EEE6insertENS_11__wrap_iterIPKS7_EERSD_
Sjj:_RenderPipelineManager_DoRenderLoop_Internal_m3799666479
_Rg:__ZL78Sprite_t280657092_CustomAttributesCacheGenerator_Sprite_get_packed_m1179604684P21CustomAttributesCache
lF:__ZN9BlobWrite8TransferI22OffsetPtrArrayTransferI9OffsetPtrIN7mecanim12statemachine18StateMachineMemoryEEEEEvRT_PKc17TransferMetaFlags
RVn:_U3CDefaultUnityWebRequestU3Ed__0__ctor_m662023811
SMo:__ZN6il2cpp2os12Cryptography23GetCryptographyProviderEv
jNn:__ZL24UnresolvedVirtualCall_27P12Il2CppObjectS0_aPK10MethodInfo
VHc:__Z13RegisterClassI14PlayerSettingsEvPKc
lbh:__ZL107KerningTable_t2322366871_CustomAttributesCacheGenerator_KerningTable_U3CSortKerningPairsU3Em__0_m2779948081P21CustomAttributesCache
Wf:_emscripten_glStencilOpSeparate
i8m:_Collection_1_System_Collections_IList_IndexOf_m3894953546_gshared
zYj:_RSACryptoServiceProvider_OnKeyGenerated_m863837376
fPi:__Z78RuntimeInvoker_DictionaryEntry_t3123975638_Int32_t2950945753_Int16_t2552820387PFvvEPK10MethodInfoPvPS4_
ndn:_PKCS12_get_Certificates_m26161562
s8j:_NameObjectCollectionBase_Init_m2525481323
W4b:__ZN15SkyboxGenerator28GetCubemapSkyboxVertexFormatEv
gpb:__ZN19ShaderPropertySheet24SetTextureWithExplicitIDERK23FastTexturePropertyNameP7Texture9TextureID
NRl:_List_1_Insert_m1582252370_gshared
RFo:__ZN6il2cpp2vm6String8NewUtf16EPKDsi
l9i:_SByte_System_IConvertible_ToByte_m2268214252_AdjustorThunk
ADo:__ZN6il2cpp2os10ThreadImpl12QueueUserAPCEPFvPvES2_
yTm:_List_1_get_Capacity_m3047075120_gshared
nU:__Z32TransferEnumWithNameForceIntSizeI14SafeBinaryReadN10SampleClip17CompressionFormatEEvRT_RT0_PKc17TransferMetaFlags
dxn:_RegularExpression__ctor_m119502265
VOf:__ZN22BaseUnityConnectClient10QueueEventERN11UnityEngine15CloudWebService17CloudServiceEventEPKcjb
a1d:__ZN5physx12PxControllerD2Ev
Chg:_JSONObject_Remove_m3544892468
EEm:_ReadOnlyCollection_1_System_Collections_Generic_ICollectionU3CTU3E_Clear_m522482168_gshared
wHi:__Z60RuntimeInvoker_Boolean_t97287965_PlayerLoopSystem_t105772105PFvvEPK10MethodInfoPvPS4_
T$i:_DerivedType_IsByRefImpl_m2585680005
NTh:_ConstructionCall_InitMethodProperty_m2021094586
NPc:__Z27Texture_CUSTOM_GetDataWidthP12Il2CppObject
KTd:__ZNK5physx2Gu15HeightFieldUtil12traceSegmentI25CapsuleTraceSegmentReportLb0ELb0ELb1EEEvRKNS_6PxVec3ES6_PT_PS5_
bXk:_Array_Sort_TisChar_t3634460470_m2306966989_gshared
mzd:__ZN7b2World19ContactsCollideTaskEv
P_d:__ZN5physx3Cct17CapsuleController13setStepOffsetEf
fEl:_ValueCollection_System_Collections_Generic_ICollectionU3CTValueU3E_Add_m3595439229_gshared
ubd:__Z9UpdateTplIL27ParticleSystemCurveEvalMode1EEvRK11MinMaxCurveR23ParticleSystemParticlesjjbjRK8Vector2f
KXe:__ZN5physx10PxsContext23prepareCMDiscreteUpdateEPNS_10PxBaseTaskE
sWg:__ZL95TextGenerator_t3211863866_CustomAttributesCacheGenerator_TextGenerator_get_lineCount_m916872812P21CustomAttributesCache
G8g:__ZL74CanvasScaler_t2767979955_CustomAttributesCacheGenerator_m_DefaultSpriteDPIP21CustomAttributesCache
hie:__ZN5physx6shdfnd5ArrayIPvNS0_19ReflectionAllocatorINS_2Cm5BlockIhLj256EEEEEE4copyINS0_15InlineAllocatorILj256ES7_EEEEvRKNS1_IS2_T_EE
ng:_emscripten_glGetError
wko:__ZN15dense_hashtableINSt3__24pairIK10KeyWrapperIPK14Il2CppAssemblyEPK22Il2CppMonoAssemblyNameEES6_N6il2cpp5utils11PointerHashIS4_EEN14dense_hash_mapIS6_SA_SF_NS6_14EqualsComparerINS0_8equal_toIS5_EEEENS0_9allocatorISB_EEE9SelectKeyESK_SM_E14squash_deletedEv
_Vf:_TMP_Dropdown_CreateBlocker_m1312254317
lKk:_SmallXmlParser__ctor_m202236734
XP:__Z14FMOD_FILE_SeekPvjS_
Rdh:__ZL204U3CDoSpriteAnimationInternalU3Ec__Iterator0_t827549206_CustomAttributesCacheGenerator_U3CDoSpriteAnimationInternalU3Ec__Iterator0_System_Collections_Generic_IEnumeratorU3CobjectU3E_get_Current_m2925267283P21CustomAttributesCache
Ple:__ZN5physx6shdfnd8PoolBaseINS_11NpAggregateENS0_19ReflectionAllocatorIS2_EEE15disposeElementsEv
Vyh:_CanvasUpdateRegistry__ctor_m2005397069
eMa:__ZN7TextureC2E10MemLabelId18ObjectCreationMode
xDj:_LayoutGroup__ctor_m2162961217
YSd:__ZThn4_N16RayRTreeCallbackILi1ELb1EE14processResultsEjPj
gGf:__ZZN2UI6Canvas15InitializeClassEvEN39FunctorImpl_1449kCanvasHierarchyChanged4CallEPviR11MessageData
pum:_ValueType_t3640485471_marshal_pinvoke_cleanup
tcc:__ZNK13RenderTexture32CalculateNeedsInvertedProjectionEv
X$d:__ZN5physx2Gu17RadixSortBuffered4SortEPKfj
vg:emscriptenWebGLGet
tca:__Z19CanReplaceComponentRN5Unity9ComponentEPKNS_4TypeEPN4core12basic_stringIcNS5_20StringStorageDefaultIcEEEE
lTi:_UnmanagedMemoryStream_Flush_m1540584491
c7m:_Collection_1_GetEnumerator_m3986802482_gshared
Dyk:_GuidParser_ParseGuid2_m1914838819
KFc:__ZN12CubemapArray11InitTextureEiii13TextureFormatb
oSa:__ZN6prcoreL18BlitIntegerToFloatERK14ImageReferenceRS0_
e8j:_ListDictionary_get_SyncRoot_m4242825143
ZOi:__Z36RuntimeInvoker_Enumerator_t185561725PFvvEPK10MethodInfoPvPS4_
ukd:__ZN32CustomDataModulePropertyBindings13SetFloatValueER14ParticleSystemif
Urc:__Z17GetSceneBuildInfoRKN4core12basic_stringIcNS_20StringStorageDefaultIcEEEEiR14SceneBuildInfo
jXl:_List_1_System_Collections_IList_get_Item_m1112579679_gshared
aKh:_MonoMethodInfo_GetCallingConvention_m3156036493
yYh:_InternalEnumerator_1_System_Collections_IEnumerator_get_Current_m55999184_gshared
e0f:_TMP_MeshInfo__ctor_m2732078488
sNi:__Z57RuntimeInvoker_RaycastHit2D_t2279581989_Int32_t2950945753PFvvEPK10MethodInfoPvPS4_
lho:__ZN24dense_hashtable_iteratorINSt3__24pairIK10KeyWrapperIPK10Il2CppTypeEjEES6_N6il2cpp8metadata14Il2CppTypeHashEN14dense_hash_mapIS6_jSB_NS6_14EqualsComparerINSA_26Il2CppTypeEqualityComparerEEENS0_9allocatorIS8_EEE9SelectKeyESF_SH_E30advance_past_empty_and_deletedEv
ZEn:_DownloadHandlerBuffer_GetData_m752341367
Rrm:_UInt32_Parse_m3755665066
TDh:_Graphic_get_depth_m815589653
R4d:__ZN27ConvexVsMeshOverlapCallbackC2ERKN5physx2Gu10ConvexMeshERKNS0_11PxMeshScaleERKNS0_2Cm23FastVertex2ShapeScalingERKNS0_11PxTransformESE_bRKNS1_3BoxE
zMc:__Z18SetIParticleSystemP15IParticleSystem
Zzh:_ContentSizeFitter_get_horizontalFit_m2773126143
WDj:_LayoutGroup_SetLayoutInputForAxis_m2458344630
UF:__ZN7mecanim5human13HumanFixTwistEPKNS0_5HumanEPNS_8skeleton13SkeletonPoseTIN4math4trsXEEES9_iiRKf
cLf:__ZN11UnityEngine15PlatformWrapper12GetBuildTagsEv
K5b:__ZL24AssignProjectorQueuesJobP30AssignProjectorQueuesJobHeader
EIl:_KeyValuePair_2_get_Key_m1218836954_gshared
GMh:_ParameterModifier_t1461694466_marshal_pinvoke
Pnc:__ZNSt3__26vectorIN9ShaderLab20SerializedSubProgram15StructParameterENS_9allocatorIS3_EEE21__push_back_slow_pathIS3_EEvOT_
Ozk:_Int16_System_IConvertible_ToUInt32_m3410279543
Cnc:__ZN9ShaderLab20SerializedSubProgram14SetConstBufferEPKci
Fad:__ZN11ShapeModule9ResetSeedERK27ParticleSystemReadOnlyState
nfo:__ZN6il2cpp2os4File5CloseEPNS0_10FileHandleEPi
R7n:__ZNSt3__27__sort5IRN6il2cpp5utils11collections13ArrayValueMapIPK10Il2CppType17Il2CppInteropData26InteropDataToTypeConverterNS1_8metadata14Il2CppTypeLessENSA_26Il2CppTypeEqualityComparerEE12SortComparerEPS8_EEjT0_SH_SH_SH_SH_T_
Gxj:_Touch_get_fingerId_m859576425_AdjustorThunk
Rif:__ZN13PhysicsModule17SetRigidBodyStateER9RigidbodyRKN8IPhysics14RigidBodyStateE
QGi:__Z48RuntimeInvoker_Boolean_t97287965_Link_t544317964PFvvEPK10MethodInfoPvPS4_
Fmi:__Z32RuntimeInvoker_Int16_t2552820387PFvvEPK10MethodInfoPvPS4_
bpf:_cf2_getStdVW
MRm:_List_1_System_Collections_ICollection_CopyTo_m2688165607_gshared
XFi:__Z53RuntimeInvoker_UIVertex_t4057497605_Int32_t2950945753PFvvEPK10MethodInfoPvPS4_
Jrm:_UInt16_CompareTo_m2664746316_AdjustorThunk
cEl:_ValueCollection_GetEnumerator_m616748621_gshared
rlb:__ZN9GfxDevice13SetActiveTierE12GraphicsTier
MOe:__ZN5physx2Sq12BucketPruner11shiftOriginERKNS_6PxVec3E
G2c:__Z29Transfer_Blittable_ArrayFieldI8JSONReadjEvRT_R9ArrayInfoRK23StaticTransferFieldInfo
g8d:__ZN5physx6shdfnd5ArrayIPNS_2Sc16ArticulationCoreENS0_19ReflectionAllocatorIS4_EEE15growAndPushBackERKS4_
_zi:__Z54RuntimeInvoker_Vector2_t2156229523_Vector2_t2156229523PFvvEPK10MethodInfoPvPS4_
j2m:_Collection_1_System_Collections_IList_set_Item_m3711172521_gshared
lKo:_GC_check_finalizer_nested
GGh:_Image__cctor_m1927508576
bh:__setLetterbox
PJj:_ScrollRect_OnScroll_m3861066534
h2e:__ZN5physx19normalizePartitionsERNS_6shdfnd5ArrayIjNS0_19ReflectionAllocatorIjEEEEPNS_23PxcSolverConstraintDescEPKNS_13PxcSolverBodyEjjS5_
kOj:_Array_InternalArray__ICollection_Contains_TisResourceCacheItem_t51292791_m2991582559_gshared
JRg:__ZL72FormerlySerializedAsAttribute_t2859083114_CustomAttributesCacheGeneratorP21CustomAttributesCache
Czj:_OnValidateInput_Invoke_m1009124904
UXd:__ZN18ContactCapsuleMesh20processTriangleCacheILj16EEEbRN5physx2Gu13TriangleCacheIXT_EEE
Stn:_PatternCompiler_EmitFastRepeat_m3012952683
J3a:__ZNSt3__26vectorI17BlendShapeChannelNS_9allocatorIS1_EEE6assignINS_11__wrap_iterIPS1_EEEENS_9enable_ifIXaasr21__is_forward_iteratorIT_EE5valuesr16is_constructibleIS1_NS_15iterator_traitsISA_E9referenceEEE5valueEvE4typeESA_SA_
xOb:__Z12SetGfxDeviceP9GfxDevice
rhc:__ZN11TimeManager11GetRealtimeEv
_Ng:__ZL91RectOffset_t1369453676_CustomAttributesCacheGenerator_RectOffset_get_horizontal_m2663785949P21CustomAttributesCache
tXf:_TMP_InputField_get_isFocused_m859964129
fqj:_Object_GetHashCode_m1944636947
O3d:__ZN5physx2Sc16InteractionScene25removeFromActiveActorListERNS0_5ActorE
rQ:__ZN29AudioEffectInternalDefinitionC2EP26UnityAudioEffectDefinitionb
HKm:_ReadOnlyCollection_1_System_Collections_IList_Remove_m2434650390_gshared
asm:_UInt16_ToString_m3056878594_AdjustorThunk
WH:__ZN4PPtrI6AvatarE8TransferI18StreamedBinaryReadILb0EEEEvRT_
jbh:__ZL76KerningTable_t2322366871_CustomAttributesCacheGenerator_U3CU3Ef__amU24cache0P21CustomAttributesCache
C2l:_Dictionary_2_System_Collections_Generic_ICollectionU3CSystem_Collections_Generic_KeyValuePairU3CTKeyU2CTValueU3EU3E_Contains_m2803718146_gshared
k5c:__ZNK11MinMaxCurve20FindMinMaxIntegratedEv
MLd:__ZN5physx3Ext21InertiaTensorComputer6rotateERKNS_7PxMat33E
Zol:_Enumerator_System_Collections_IDictionaryEnumerator_get_Value_m2179213088_gshared
Hhk:_Interval_get_IsSingleton_m3386290029
tlh:__ZL95VertexZoom_t550798657_CustomAttributesCacheGenerator_VertexZoom_AnimateVertexColors_m3033224630P21CustomAttributesCache
Jno:__ZNSt3__2plIcNS_11char_traitsIcEENS_9allocatorIcEEEENS_12basic_stringIT_T0_T1_EERKS9_PKS6_
Bxj:_Time_get_unscaledDeltaTime_m4270080131
DMf:__ZN18UnityConnectClient27OnPlayerSessionStateChangedEjyy
URa:_stbir_resize
qUj:_Array_IndexOf_TisCustomAttributeTypedArgument_t2723150157_m3158556463_gshared
I6l:_EqualityComparer_1_System_Collections_IEqualityComparer_GetHashCode_m360549782_gshared
pgl:_Environment_GetOSVersionString_m407782784
l6j:_DecoderExceptionFallback_Equals_m1082173956
lXh:_U3CGetEnumeratorU3Ec__Iterator0__ctor_m1150758267_gshared
jsg:__ZL69Assembly_t_CustomAttributesCacheGenerator_Assembly_GetName_m981771927P21CustomAttributesCache
Vma:__ZL59__ManagedRegistrationHelperFunction_AsyncGPUReadbackRequestPv
Yio:__ZN15dense_hashtableINSt3__24pairIK10KeyWrapperINS1_IPK12PropertyInfoP11Il2CppClassEEEjEES9_17ReflectionMapHashIS8_EN14dense_hash_mapIS9_jSD_NS9_14EqualsComparerINS0_8equal_toIS8_EEEENS0_9allocatorISB_EEE9SelectKeyESI_SK_E5clearEv
LKg:__ZL93Mesh_t3648964284_CustomAttributesCacheGenerator_Mesh_GetAllocArrayFromChannelImpl_m3084065604P21CustomAttributesCache
C1a:__ZN4PPtrI4MeshE8TransferI14SafeBinaryReadEEvRT_
pwd:__ZN24b2ChainAndCapsuleContact6CreateEP9b2FixtureiS1_iP16b2BlockAllocator
hjb:__Z37ReadDirectoryInfo_UnityWebAndUnityRawR12FileAccessorRKN20ArchiveStorageHeader6HeaderERNS1_13DirectoryInfoE
F6:__ZNSt3__26__treeINS_12__value_typeIPKciEENS_19__map_value_compareIS3_S4_15compare_tstringIS3_ELb1EEENS_9allocatorIS4_EEE7destroyEPNS_11__tree_nodeIS4_PvEE
zhn:_TMP_ObjectPool_1__ctor_m3382945102_gshared
Pem:_Array_InternalArray__Insert_TisIntPtr_t_m189626842_gshared
Wck:_X509Certificate2_get_IssuerName_m1277209535
Agl:_Locale_GetText_m3374010885
Wxm:_Collection_1_System_Collections_IEnumerable_GetEnumerator_m1598238343_gshared
X8m:_RijndaelManaged_CreateEncryptor_m263736311
Ynm:_WaitCallback__ctor_m1893321019
B2b:__ZN20DynamicPropertySheet14SetValueQueuedEN9ShaderLab16FastPropertyNameEN19ShaderPropertySheet12PropertyTypeEjNS2_8SetFlagsE
Lij:_InvokableCallList_ClearPersistent_m1904264973
Ogd:__Z25UpdateOrbitalAndRadialTplIL27ParticleSystemCurveEvalMode3ELS0_1ELS0_2EEvRK11MinMaxCurveS3_S3_S3_S3_S3_S3_R23ParticleSystemParticlesjjRKN4math8float3x3ERKNS6_7affineXERKNS6_7_float4E
xKb:__ZN25PathNamePersistentManagerD2Ev
_9a:__ZN17PersistentManager48IntegrateObjectAndUnlockIntegrationMutexInternalEi
H_f:_TMP_InputField_GenerateCaret_m2588630787
kQg:__ZL85NativeDisableUnsafePtrRestrictionAttribute_t2582701661_CustomAttributesCacheGeneratorP21CustomAttributesCache
yOj:_Array_InternalArray__ICollection_Contains_TisSpriteData_t3048397587_m4000778412_gshared
Wia:__ZZ29InitializeSortingGroupManagerPvEN44PostLateUpdateSortingGroupsUpdateRegistrator7ForwardEv
o2g:__ZL55EventTrigger_t1076084509_CustomAttributesCacheGeneratorP21CustomAttributesCache
j1j:_SecurityElement_SearchForChildByTag_m900466299
fr:__ZN6Object12SetHideFlagsENS_9HideFlagsE
JJl:_Enumerator_VerifyState_m4044446453_gshared
qfg:_JSONNode_get_Keys_m4169455915
xvd:__ZN9b2Fixture11SynchronizeEP12b2BroadPhaseRK11b2TransformS4_
hOd:__ZN9Rigidbody23VirtualRedirectTransferER14SafeBinaryRead
$7k:_Convert_ToSingle_m3227075028
t_o:_emscripten_glGetFramebufferAttachmentParameteriv__wrapper
Jbc:__ZN13RendererScene15InitializeUmbraEv
Yzl:__ZN21InterfaceFuncInvoker2I26KeyValuePair_2_t2401056908P12Il2CppObjectiE6InvokeEjP11Il2CppClassS2_S2_i
vIa:__Z28CalculateGlobalMatrixInverse23TransformAccessReadOnly
Foj:_MonoBehaviour__ctor_m1579109191
QZg:__ZL59GUITargetAttribute_t25796337_CustomAttributesCacheGeneratorP21CustomAttributesCache
Wid:__ZN23ParticleSystemParticles17SetUsesCustomDataEi
eam:_GenericEqualityComparer_1_Equals_m3457564127_gshared
Jik:_BigInteger_ModInverse_m2426215562
Cha:__ZN17CallbackArrayBaseIPFvPK9IndexListPK16RendererCullDataEPFvPKvS2_S5_EE8RegisterES7_SB_S9_
F$h:_InternalEnumerator_1_System_Collections_IEnumerator_Reset_m2386791007_AdjustorThunk
h6j:_DecoderExceptionFallback__ctor_m4044614564
x1h:_InternalEnumerator_1_System_Collections_IEnumerator_Reset_m3011999097_AdjustorThunk
cwe:__ZNK5physx15PxsParticleData15getWorldBoundsVEv
$po:__ZN6il2cpp2vm6Thread17FullMemoryBarrierEv
qTi:_LocalDataStoreSlot__cctor_m644942532
CAl:_Transform_1_BeginInvoke_m3697921475_gshared
lZd:__ZN12_GLOBAL__N_124HfTrianglesEntityReport27onEventEjPj
yOo:__ZN6il2cpp6icalls8mscorlib6System6Object7GetTypeEP12Il2CppObject
ELh:_MonoProperty_CachePropertyInfo_m2968057423
Cye:__ZN5physx22NpParticleBaseTemplateINS_16PxParticleSystemENS_16NpParticleSystemEE17setStaticFrictionEf
yPf:__ZNK25UnityWebRequestJavaScript18GetDownloadedBytesEv
ctj:_Ray_GetPoint_m1852405345_AdjustorThunk
Cqg:__ZL53RegionInfo_t1090270226_CustomAttributesCacheGeneratorP21CustomAttributesCache
L0g:__ZL85Canvas_t3310196443_CustomAttributesCacheGenerator_Canvas_get_sortingOrder_m1860900812P21CustomAttributesCache
Nlg:__ZL74Single_t1397266774_CustomAttributesCacheGenerator_Single_IsNaN_m4024467661P21CustomAttributesCache
ghe:__ZN5physx17PxsContactManager16resetCachedStateEv
KPf:__ZN12HeaderHelper14SetUnvalidatedERKN4core12basic_stringIcNS0_20StringStorageDefaultIcEEEES6_b
zO:__ZN4FMOD6SoundI7releaseEv
$Ae:__ZN5physx20NpRigidActorTemplateINS_14PxRigidDynamicEE15setActorSimFlagEb
I1a:__ZN14SpriteRenderer13AwakeFromLoadE17AwakeFromLoadMode
Eqf:_cff_parse_num
Ljb:__ZN10MemoryFile9SetLengthEy
$2c:__ZN8JSONRead21TransferSTLStyleArrayI13dynamic_arrayI11ColorRGBA32Lj0EEEEvRT_17TransferMetaFlags
ZJ:__ZZN26AnimatorOverrideController15InitializeClassEvEN42FunctorImpl_85kDidModifyAnimatorController4CallEPviR11MessageData
jud:__ZNK15b2RevoluteJoint10GetAnchorBEv
A$d:__ZNK5physx3Cct26CharacterControllerManager16getNbControllersEv
SJb:__Z28scripting_class_is_interface17ScriptingClassPtr
si:_glTexStorage2D
Kag:_U3CSpawnBackgroundSpaceShipU3Ec__Iterator9_System_Collections_Generic_IEnumeratorU3CobjectU3E_get_Current_m758727870
Avk:_CultureInfo_ConstructInternalLocaleFromName_m4012802696
IOa:__ZNK9ShaderLab10SubProgram14EnsureCompiledEv
K2i:_MethodBuilder_GetGenericArguments_m1765425737
Jal:_DateTime_CompareTo_m3687348273
Cbm:_KeyValuePair_2_get_Key_m2288232422_AdjustorThunk
gbl:_DateTime_ToUniversalTime_m1945318289_AdjustorThunk
cif:__ZN5physx7profile10DataBufferINS_6shdfnd6MutexTINS0_26WrapperReflectionAllocatorIhEEEENS0_14ScopedLockImplIS6_EEE17handleBufferFlushEPKhj
Htk:_EventArgs__ctor_m32674013
P6k:_Convert_ToInt16_m1336719169
Q9:__Z18BuildScriptClassId17ScriptingClassPtr
NWn:_TextGenerator_Init_m1168488231
Nml:_RSAManaged_Finalize_m3915335854
cr:__ZNK16LevelGameManager7GetNameEv
thb:__ZL31DeleteLastPathNameComponentImplRKN4core12basic_stringIcNS_20StringStorageDefaultIcEEEEPKc
$bl:_DBNull_System_IConvertible_ToUInt64_m4072736670
GJf:__ZN18UnityConnectClient15GetCloudServiceEv
Evb:__Z29Transfer_Blittable_ArrayFieldI14SafeBinaryRead5RectTIiEEvRT_R9ArrayInfoRK23StaticTransferFieldInfo
U4e:__ZN5physx20PxsConstraintProjectEPKNS_13PxsConstraintEbf
Loe:__ZN5physx7NpShape7setFlagENS_11PxShapeFlag4EnumEb
l2h:_InternalEnumerator_1_get_Current_m2698009637_gshared
sbo:__ZN6il2cpp2os19SocketHandleWrapperD2Ev
$Yl:_List_1_System_Collections_IList_Insert_m2850345481_gshared
Wpj:_U3CAddAndCreateU3Ec__AnonStorey1__ctor_m1186055370
Vvd:__ZN15b2CircleContact6CreateEP9b2FixtureiS1_iP16b2BlockAllocator
MJb:__ZL28SerializationCommandGroupForRK31TransferFunctionScriptingTraits17ScriptingClassPtr17ScriptingFieldPtrRK20CoreScriptingClasses
oxa:__ZN10TagManager32RegisterDefaultTagsAndLayerMasksEv
fQl:_List_1__ctor_m1010681847_gshared
B7h:_InternalEnumerator_1__ctor_m1515092833_gshared
PVm:_List_1_System_Collections_IList_get_IsReadOnly_m1729002068_gshared
jqi:__Z50RuntimeInvoker_Double_t594665363_Int32_t2950945753PFvvEPK10MethodInfoPvPS4_
ARm:_Predicate_1_EndInvoke_m1490920825_gshared
OCg:__ZL78LoaderOptimization_t1484956347_CustomAttributesCacheGenerator_DisallowBindingsP21CustomAttributesCache
A8j:__KeysEnumerator__ctor_m1664513423
R0e:__ZN5physx2Sc35ParticleElementRbElementInteraction12onDeactivateEj
YAi:__Z104RuntimeInvoker_Void_t1185182177_Color_t2555686324_Single_t1397266774_SByte_t1669577662_SByte_t1669577662PFvvEPK10MethodInfoPvPS4_
mVm:_List_1_Remove_m3853969205_gshared
DNl:_Enumerator_System_Collections_IEnumerator_get_Current_m1540440674_gshared
CBn:_GUIUtility_Internal_GetPixelsPerPoint_m290411053
nSl:_List_1_System_Collections_ICollection_get_IsSynchronized_m1235563358_gshared
f2j:_Single_System_IConvertible_ToInt16_m809233024_AdjustorThunk
EHg:__ZL64FreeFunctionAttribute_t2020741617_CustomAttributesCacheGeneratorP21CustomAttributesCache
$If:__Z56Register_UnityEngine_Analytics_CustomEventData_AddUInt32v
cRo:_fmodf
tlg:__ZL39String_t_CustomAttributesCacheGeneratorP21CustomAttributesCache
RJd:__Z75Register_UnityEngine_Physics2D_GetRayIntersectionNonAlloc_Internal_Injectedv
cTb:__ZN4gles8InitCapsEP7ApiGLESP12GraphicsCapsR16GfxDeviceLevelGL
kSa:__ZN6prcore14BlitImageFloatERK14ImageReferenceRS0_NS0_8BlitModeE
gFi:__Z91RuntimeInvoker_Void_t1185182177_RuntimeObject_RuntimeObject_Int32_t2950945753_RuntimeObjectPFvvEPK10MethodInfoPvPS4_
QJa:__Z24CalculateVertexLightDataRK15SharedLightDataR14GfxVertexLight
aj:_glEnable
Kio:__ZN15dense_hashtableINSt3__24pairIK10KeyWrapperINS1_IPK12PropertyInfoP11Il2CppClassEEEjEES9_17ReflectionMapHashIS8_EN14dense_hash_mapIS9_jSD_NS9_14EqualsComparerINS0_8equal_toIS8_EEEENS0_9allocatorISB_EEE9SelectKeyESI_SK_E15insert_noresizeERKSB_
Vra:__ZN9Scripting11UnityEngine33ExcludeFromObjectFactoryAttribute12CleanupProxyEv
EOa:__ZNK9ShaderLab7Program28BeginReadUnsupportedVariantsEv
$ua:__ZN12CachedWriter11Align4WriteEv
D8a:__ZNSt3__26vectorIN30RuntimeInitializeOnLoadManager9ClassInfoE13stl_allocatorIS2_L18MemLabelIdentifier13ELi16EEE7reserveEj
vKe:__ZN5physx2Sq8AABBTreeC2Ev
xtn:_PatternCompiler_EmitCategory_m851169746
e_c:__Z35Transfer_Blittable_FixedBufferFieldI9JSONWriteiEvRK29SerializationCommandArgumentsR31RuntimeSerializationCommandInfo
XVg:__ZL85AudioSource_t3935305588_CustomAttributesCacheGenerator_AudioSource_set_clip_m31653938P21CustomAttributesCache
bkd:__ZN11TrailModuleD2Ev
ujl:_BigInteger_op_Subtraction_m1575155386
QB:__ZN26AnimatorControllerPlayable17ProcessRootMotionEP35AnimationPlayableEvaluationConstantP32AnimationPlayableEvaluationInputP33AnimationPlayableEvaluationOutput
jmk:_RSAManaged_ImportParameters_m1117427048
ewg:__ZL54SoapServices_t133988723_CustomAttributesCacheGeneratorP21CustomAttributesCache
PSi:_UnexceptionalStreamReader_Peek_m1842169584
Umh:_KerningPair_get_firstGlyph_m2782169529
QHn:_AnalyticsTracker_SendEvent_m2955089255
KKf:__ZN11UnityEngine7Connect15DeviceInfoEvent16CollectExtraInfoEv
NGo:__ZN6il2cpp2os11Environment22SetEnvironmentVariableERKNSt3__212basic_stringIcNS2_11char_traitsIcEENS2_9allocatorIcEEEESA_
a_m:_Queue_1_System_Collections_IEnumerable_GetEnumerator_m3464578225_gshared
IMn:_TypeInferenceRuleAttribute__ctor_m2736695831
V7e:__ZN5physx2Gu10ConvexMeshD2Ev
T6g:__ZL66Navigation_t3049316579_CustomAttributesCacheGenerator_m_SelectOnUpP21CustomAttributesCache
nko:__ZN6il2cpp2gc19AppendOnlyGCHashMapIPK10Il2CppTypeP20Il2CppReflectionTypeNS_8metadata14Il2CppTypeHashENS7_26Il2CppTypeEqualityComparerEEC2Ev
cMn:_Vector4_Equals_m1779210055_AdjustorThunk
cLa:__ZN17LightBakingOutput8TransferI19StreamedBinaryWriteILb0EEEEvRT_
nSo:_atoi
gZb:__ZN20ArchiveStorageReader10InitializeER15FileSystemEntryyb
oSo:_atol
eHo:__ZThn8_N6il2cpp2vm13CachedCCWBaseINS0_13ManagedObjectEE6AddRefEv
Nyf:_New_Profile
FBm:_ReadOnlyCollection_1_GetEnumerator_m3690861713_gshared
vjl:_ModulusRing_BarrettReduction_m167376748
C4i:_RemotingServices_GetRealProxy_m2081098851
Ykl:_BlockProcessor_Core_m189015002
T5n:__ZN15dense_hashtableINSt3__24pairIK10KeyWrapperIPKcEP11Il2CppClassEES5_N6il2cpp5utils11StringUtils12StringHasherIS4_EEN14dense_hash_mapIS5_S8_SE_NS5_14EqualsComparerINSB_13VmStringUtils21CaseSensitiveComparerEEENS0_9allocatorIS9_EEE9SelectKeyESJ_SL_EC2EjRKSE_RKSJ_RKSN_
B_o:_emscripten_glScissor__wrapper
NRf:__Z47UnityWebRequest_CUSTOM_InternalSetRequestHeaderP12Il2CppObjectP12Il2CppStringS2_
Sp:FUNCTION_TABLE_viifi
Vp:FUNCTION_TABLE_viiff
bsn:_TMP_TextEventHandler_SendOnLineSelection_m205961813
a2d:__ZNK5physx2Sc8ShapeSim10getBodySimEv
Y$f:_U3CGetBaseMaterialU3Ec__AnonStorey0_U3CU3Em__0_m4018174143
KJk:_X501__cctor_m1166912714
j3g:__ZL102PointerEventData_t3807901092_CustomAttributesCacheGenerator_PointerEventData_set_lastPress_m2928324031P21CustomAttributesCache
Gjl:_PrimalityTests_Test_m2932837908
fog:__ZL37Type_t_CustomAttributesCacheGeneratorP21CustomAttributesCache
Su:__ZN9Scripting11UnityEngine14AnimationState9InitProxyEv
uyd:__ZNSt3__26__sortIRN18Overlap2DQueryBase29ColliderHitsByDepthComparitorEPP10Collider2DEEvT0_S7_T_
ofj:_Bounds_ToString_m4208690781
oqo:__ZN15dense_hashtableINSt3__24pairIK10KeyWrapperINS1_IP11Il2CppClassjEEES4_EES6_N6il2cpp8metadata14ArrayClassHashEN14dense_hash_mapIS6_S4_SB_NS6_14EqualsComparerINSA_17ArrayClassCompareEEENS0_9allocatorIS8_EEE9SelectKeyESF_SH_E5clearEv
xDi:__Z57RuntimeInvoker_Void_t1185182177_VertexGradient_t345148380PFvvEPK10MethodInfoPvPS4_
Tli:__Z88RuntimeInvoker_RuntimeObject_RuntimeObject_RuntimeObject_Int32_t2950945753_RuntimeObjectPFvvEPK10MethodInfoPvPS4_
q5n:__ZNSt3__218uninitialized_copyIPNS_4pairIK10KeyWrapperIPK11Il2CppClassEPKcEESB_EET0_T_SD_SC_
tmo:__ZN6il2cpp2vm14TypeNameParser5ParseEb
LSg:__ZL100GameObject_t1113636619_CustomAttributesCacheGenerator_GameObject_SendMessage_m3720186693____options2P21CustomAttributesCache
_Hk:_StreamWriter_Initialize_m3490883444
P0k:_Array_InternalArray__get_Item_TisVector3_t3722313464_m2720091419_gshared
Sao:__ZN15dense_hashtableINSt3__24pairIK10KeyWrapperIP9FieldInfoEiEES5_N6il2cpp5utils11PointerHashIS3_EEN14dense_hash_mapIS5_iSB_NS5_14EqualsComparerINS0_8equal_toIS4_EEEENS0_9allocatorIS7_EEE9SelectKeyESG_SI_E12resize_deltaEjj
lie:__ZN5physx6shdfnd5ArrayIPvNS0_19ReflectionAllocatorINS_2Cm5BlockIhLj128EEEEEE15growAndPushBackERKS2_
lOf:__ZN23UnityPurchasingSettingsC2Ev
Q4a:__ZNK9Transform13GetWorldScaleEv
MJh:_Module_IsDefined_m2423524910
G$i:_DerivedType_create_unmanaged_type_m747846525
HYg:__ZL60EventType_t3528516131_CustomAttributesCacheGenerator_repaintP21CustomAttributesCache
eCa:__ZN17GPUFenceInternals7ReleaseEv
G7g:__ZL66Selectable_t3250028441_CustomAttributesCacheGenerator_m_NavigationP21CustomAttributesCache
cNh:_ResolveEventHandler__ctor_m1911137231
n7d:__ZN5physx2Sc11Interaction10onActivateEj
rTd:__ZNK5physx2Gu29EPASupportMapPairRelativeImplINS0_4BoxVENS0_11ConvexHullVEE6getDirEv
rpe:__ZN5physx14NpShapeManager15setupSceneQueryERNS_2Sq17SceneQueryManagerERKNS_12PxRigidActorERKNS_7NpShapeE
ucc:__ZL10RenderFaceR9GfxDeviceR18MaterialStateCacheP13RenderTextureiif
pUj:_Array_IndexOf_TisCustomAttributeNamedArgument_t287865710_m2817957199_gshared
Nch:__ZL76TMP_InputField_t1099764886_CustomAttributesCacheGenerator_m_OnFocusSelectAllP21CustomAttributesCache
MDm:_ReadOnlyCollection_1_System_Collections_IList_RemoveAt_m1980090087_gshared
Ccn:_ExtendedKeyUsageExtension_ToString_m2116504780
fdb:__ZNK5Unity9Component38MarkGameObjectAndComponentDependenciesER27GarbageCollectorThreadState
P4e:__ZN22ScAfterIntegrationTask11runInternalEv
mDk:_BinaryReader_Read_m3708759962
Y9d:__ZNK5physx2Sc9ClothCore23getExternalAccelerationEv
sV:__ZNK7Texture21GetShadowSamplingModeEv
paa:__ZNK11TypeManager15ClassNameToRTTIEPKcb
nSd:__ZN5physx2Gu13coarseCullingERKNS_6PxVec3ES3_ffRKNS_10PxTriangleE
zma:__ZL57__ManagedRegistrationHelperFunction_DefaultExecutionOrderPv
V$a:__ZN13ScreenManager21OnWindowRegainedFocusEv
FGb:__Z18Transfer_BlittableI18StreamedBinaryReadILb0EELb1EdEvRK29SerializationCommandArgumentsR31RuntimeSerializationCommandInfo
JSb:__ZN9GfxDevice26CreateDefaultVertexBuffersEv
W$o:_emscripten_glVertexAttrib2fv__wrapper
ESf:__ZN13RuntimeStaticINSt3__26vectorIPN5physx15PxVehicleWheelsENS0_9allocatorIS4_EEEELb0EE13StaticDestroyEPv
$Ri:_SynchronizedReader_ReadToEnd_m2160105378
r1e:__ZN5physx2Sc5Scene29processNarrowPhaseTouchEventsEv
WUa:__ZN4crnd12symbol_codec32decode_receive_static_data_modelERNS_25static_huffman_data_modelE
KDc:__ZN18ScriptingArguments8AddFloatEf
T3f:_TMP_Text_get_isRightToLeftText_m3326972673
Rxj:_TouchScreenKeyboard_Open_m3325559252
XFh:_Image_set_fillOrigin_m469806249
vcg:_LoadScreenDelay_Update_m3356487317
yKf:__ZN11UnityEngine15PlatformWrapper16GetVRRenderScaleEv
$be:__ZN5physx6shdfnd5ArrayIPvNS0_15InlineAllocatorILj256ENS0_19ReflectionAllocatorINS_18NpArticulationLinkEEEEEE15growAndPushBackERKS2_
IHl:_Dictionary_2_GetEnumerator_m2532220708_gshared
e$c:__Z18Transfer_BlittableI9JSONWriteLb0EaEvRK29SerializationCommandArgumentsR31RuntimeSerializationCommandInfo
rcm:_Array_InternalArray__ICollection_Add_TisXML_TagAttribute_t1174424309_m1755316534_gshared
TZ:__ZN11UnityEngine15CloudWebService14DataDispatcher34OnSessionContainerArchivedAndReadyERNS0_16SessionContainerE
npj:_ConnectionChangeEvent__ctor_m764126802
_sd:__ZN7b2World11CreateJointEPK10b2JointDef
Xik:_Kernel_Multiply_m193213393
Bcd:__ZN23ParticleSystemParticles20SetUsesTriggerEventsEb
NUi:_IntComparer__ctor_m2901422390
n0d:__ZNK5physx3Cct15ObstacleContext11getObstacleEj
YBg:__ZL79Convert_t2465617642_CustomAttributesCacheGenerator_Convert_ToUInt32_m1767593911P21CustomAttributesCache
lxg:__ZL50HMACMD5_t2742219965_CustomAttributesCacheGeneratorP21CustomAttributesCache
F5h:_InternalEnumerator_1_Dispose_m1901715479_AdjustorThunk
xdi:_Comparer_1__ctor_m1078828713_gshared
DAb:__Z18Transfer_BlittableI19StreamedBinaryWriteILb0EELb0E8Vector3fEvRK29SerializationCommandArgumentsR31RuntimeSerializationCommandInfo
vMl:_Enumerator_VerifyState_m2621680056_gshared
Zxn:_UriParser_InternalRegister_m3643767086
oWg:__ZL106TextGenerator_t3211863866_CustomAttributesCacheGenerator_TextGenerator_INTERNAL_get_rectExtents_m183810018P21CustomAttributesCache
Uic:__ZN14SafeBinaryRead19TransferSTLStyleMapINSt3__23mapIN4core12basic_stringIcNS3_20StringStorageDefaultIcEEEEiNS1_4lessIS7_EENS1_9allocatorINS1_4pairIKS7_iEEEEEEEEvRT_17TransferMetaFlags
vwk:_DateTimeFormatInfo_get_RawAbbreviatedDayNames_m1257850285
wYj:_RSACryptoServiceProvider_EncryptValue_m944137256
nio:__ZN15dense_hashtableINSt3__24pairIK10KeyWrapperINS1_IPK11Il2CppImageP11Il2CppClassEEEjEES9_17ReflectionMapHashIS8_EN14dense_hash_mapIS9_jSD_NS9_14EqualsComparerINS0_8equal_toIS8_EEEENS0_9allocatorISB_EEE9SelectKeyESI_SK_ED2Ev
tvf:_gray_move_to
ipl:_Enumerator_Dispose_m2768348159_AdjustorThunk
Xbl:_DBNull_System_IConvertible_ToSingle_m13713620
WRk:_Char_ToLowerInvariant_m1926695830
o9g:__ZL127U3CDelayedSetDirtyU3Ec__Iterator0_t3170500204_CustomAttributesCacheGenerator_U3CDelayedSetDirtyU3Ec__Iterator0_Reset_m160466733P21CustomAttributesCache
QWf:_TMP_FontAsset_HasCharacter_Internal_m2112188792
qZf:_TMP_InputField_GetCaretPositionFromStringIndex_m2732968711
q0m:__ZN23InterfaceActionInvoker2Ii25RejectHandler_t1435172309E6InvokeEjP11Il2CppClassP12Il2CppObjectiS0_
Zfj:_CameraCallback__ctor_m899467377
IDm:_ReadOnlyCollection_1_System_Collections_IList_Contains_m1327645028_gshared
iGh:_Image_GetDrawingDimensions_m3060965396
OFn:_UnityWebRequest_Dispose_m3261105905
MWg:__ZL69FontTextureRebuildCallback_t2467502454_CustomAttributesCacheGeneratorP21CustomAttributesCache
crm:_TypeLoadException__ctor_m1154572625
LOc:__Z30RegisterValidateMethodCallbackiPF18ScriptingMethodPtrS_17ScriptingClassPtrP6ObjectEPKc
qQa:__ZNSt3__27__sort4IRPFbRKNS_4pairIN9ShaderLab16FastPropertyNameE10ColorRGBAfEES7_EPS5_EEjT0_SC_SC_SC_T_
wZi:_AssemblyDescriptionAttribute__ctor_m3993445315
gqk:_Context_get_WriteSequenceNumber_m1115956887
snk:_CipherSuite_get_ClientHMAC_m377589750
i_k:_Dictionary_2_Do_ICollectionCopyTo_TisKeyValuePair_2_t2401056908_m1169495264_gshared
Unn:_UnityEvent_2_GetDelegate_m1261532026_gshared
Kdd:__Z25GetTransformationMatricesPN4math8float3x3ES1_bbRK10Matrix4x4fS4_
Yzh:_ContentSizeFitter__ctor_m2349275633
REg:__ZL56TypeConverter_t2249118273_CustomAttributesCacheGeneratorP21CustomAttributesCache
z9c:__ZN4PPtrI14ParticleSystemE8TransferI19StreamedBinaryWriteILb0EEEEvRT_
VNe:__ZN5physx13IslandManager6resizeEj
yvm:_Collection_1_RemoveAt_m3506636491_gshared
oFa:__Z26TransformVerticesInnerLoopILb1ELb0ELb0EEvPhRK10Matrix4x4fRK10Matrix3x3fjPKhiS8_ii25GfxTransformVerticesFlagsj
x3c:__ZN8JSONRead8TransferI9BoundsIntEEvRT_PKc17TransferMetaFlagsb
hCo:__ZN24dense_hashtable_iteratorINSt3__24pairIK10KeyWrapperIPcES3_EES4_N6il2cpp5utils15PassThroughHashIS3_EEN14dense_hash_mapIS4_S3_SA_NS4_14EqualsComparerINS0_8equal_toIS3_EEEENS0_9allocatorIS6_EEE9SelectKeyESF_SH_E30advance_past_empty_and_deletedEv
Hb:invoke_viidi
Dpd:__Z17UpdateSprites2TplIL27ParticleSystemCurveEvalMode0ELS0_2EEvfRK11MinMaxCurveS3_RK23ParticleSystemParticlesPf
y7f:_TMP_Text_ReplaceClosingStyleTag_m619073692
T6d:__ZN5physx6shdfnd8PoolBaseINS_2Cm5BlockIPvLj16EEENS0_19ReflectionAllocatorIS5_EEE17releaseEmptySlabsEv
CBg:__ZL78Convert_t2465617642_CustomAttributesCacheGenerator_Convert_ToUInt16_m867476252P21CustomAttributesCache
n9i:_SByte_System_IConvertible_ToChar_m1489191771_AdjustorThunk
pO:__ZN9AudioClip7CleanupEv
PHc:__Z13RegisterClassI18DelayedCallManagerEvPKc
cQm:_Nullable_1_get_Value_m3112951896_AdjustorThunk
Lbi:_DefaultComparer__ctor_m983978887_gshared
P4j:_String_Concat_m1809518182
Bhk:_Interval_t1802865632_marshal_pinvoke_cleanup
Udh:__ZL147U3CDoSpriteAnimationInternalU3Ec__Iterator0_t827549206_CustomAttributesCacheGenerator_U3CDoSpriteAnimationInternalU3Ec__Iterator0_Reset_m2666372053P21CustomAttributesCache
Aro:__ZNK15dense_hashtableINSt3__24pairIK10KeyWrapperIP11Il2CppClassES4_EES5_N6il2cpp8metadata16SZArrayClassHashEN14dense_hash_mapIS5_S4_SA_NS5_14EqualsComparerINS9_19SZArrayClassCompareEEENS0_9allocatorIS7_EEE9SelectKeyESE_SG_E12test_deletedEj
Z6k:_Convert_ToInt16_m1223489986
eEh:_Graphic_GraphicUpdateComplete_m1502194795
Z0d:__ZL20updateMassAndInertiabRN5physx11PxRigidBodyEPKfjPKNS_6PxVec3Eb
_1c:__Z18Transfer_BlittableI8JSONReadLb0EdEvRK29SerializationCommandArgumentsR31RuntimeSerializationCommandInfo
Yff:__ZN5physx24NpPtrTableStorageManagerC2Ev
L3i:_SoapTypeAttribute_get_IsInteropXmlElement_m3413949955
W4g:__ZL59Dropdown_t2274391225_CustomAttributesCacheGenerator_m_ValueP21CustomAttributesCache
UDf:__Z44Register_UnityEngine_Canvas_set_sortingOrderv
a7l:_EqualityComparer_1_System_Collections_IEqualityComparer_GetHashCode_m3723747923_gshared
FXn:_Canvas_get_referencePixelsPerUnit_m3420541976
ODm:_ReadOnlyCollection_1_System_Collections_ICollection_get_SyncRoot_m2522539235_gshared
NAn:_Event_get_current_m2393892120
yJn:_VertexHelper_Clear_m627349662
Y4l:_DefaultComparer_Equals_m3688244916_gshared
N0k:_Array_InternalArray__get_Item_TisWorkRequest_t1354518612_m2694410850_gshared
Olb:__ZNK9GfxDevice13GetViewMatrixEv
mTi:_UnmanagedMemoryStream_Dispose_m2681886347
MGe:__ZN5physx7NpScene15flushSimulationEb
OZh:_InternalEnumerator_1_System_Collections_IEnumerator_get_Current_m1295084274_gshared
Jne:__ZN5physx6shdfnd8PoolBaseINS_10NpMaterialENS0_19ReflectionAllocatorIS2_EEE12allocateSlabEv
sba:__ZN8TypeTree8BlobReadERPKhS1_ib
pSg:__ZL87Display_t1387065949_CustomAttributesCacheGenerator_Display_GetSystemExtImpl_m2808197389P21CustomAttributesCache
KNk:_Array_Reverse_m3714848183
GEg:__ZL60MonoTODOAttribute_t4131080582_CustomAttributesCacheGeneratorP21CustomAttributesCache
jzh:_CanvasUpdateRegistry_InternalRegisterCanvasElementForGraphicRebuild_m3522560454
aQl:_List_1_set_Capacity_m2639563982_gshared
CIl:_KeyValuePair_2__ctor_m880186442_gshared
vbf:__ZN5physx18ReducedVertexCloudC2EPKNS_6PxVec3Ej
lab:__ZN18LoadSceneOperation23GetAllowSceneActivationEv
xOl:_List_1_System_Collections_IList_get_Item_m121323183_gshared
RXn:_Canvas_set_additionalShaderChannels_m4180310117
jAa:__ZN6CameraD0Ev
P0m:_Collection_1_System_Collections_IList_get_IsReadOnly_m2319019412_gshared
Kha:__ZN31CanvasBatchIntermediateRenderer16StaticInitializeEPv
_xm:_Collection_1_System_Collections_IList_IndexOf_m837396833_gshared
gB:__ZN7mecanim12AndValueMaskILb0EEEvPKNS_14ValueArrayMaskEPS1_
r8a:__ZN14SafeBinaryRead21TransferSTLStyleArrayINSt3__26vectorIi13stl_allocatorIiL18MemLabelIdentifier13ELi16EEEEEEvRT_17TransferMetaFlags
FUj:_Array_InternalArray__IndexOf_TisProgressHandler_t926933139_m2009823052_gshared
k$h:_InternalEnumerator_1__ctor_m962177456_AdjustorThunk
enf:_raccess_guess_apple_double
CUb:__ZL18ProgramUniform1uivPK7ApiGLESjiihPKv
Vxi:__Z65RuntimeInvoker_Boolean_t97287965_RuntimeObject_Single_t1397266774PFvvEPK10MethodInfoPvPS4_
$Wk:_Array_Sort_TisByte_t1134296376_m343015505_gshared
Rkd:__ZN27ShapeModulePropertyBindings13GetFloatValueERK14ParticleSystemi
TFc:__ZN14Texture2DArray13RebuildMipMapEv
R4n:__ZN13Il2CppHashSetIPK17Il2CppGenericInstN6il2cpp8metadata21Il2CppGenericInstHashENS4_24Il2CppGenericInstCompareENSt3__29allocatorI10KeyWrapperIS2_EEEEC2EjRKS5_RKS6_
Ctb:__Z18Transfer_BlittableI14SafeBinaryReadLb1EaEvRK29SerializationCommandArgumentsR31RuntimeSerializationCommandInfo
sCo:__ZN6il2cpp2gc16GarbageCollector14RemoveWeakLinkEPPv
Dnc:__ZN9ShaderLab20SerializedSubProgram14AddVectorParamEPKcii15ShaderParamTypei
fUj:_Array_IndexOf_TisResolveHandler_t4124874245_m3487245119_gshared
mSm:_List_1_GetEnumerator_m563931292_gshared
cZn:_Collision2D_t2842956331_marshal_pinvoke
QFf:__ZN2UI14CanvasRenderer12CleanupClassEv
Xfe:__ZNK5physx19NpRigidBodyTemplateINS_18PxArticulationLinkEE27getMinCCDAdvanceCoefficientEv
p3k:_Enumerator__ctor_m3362421874
sVg:__ZL94AudioSampleProvider_t3950279772_CustomAttributesCacheGenerator_U3CtrackIndexU3Ek__BackingFieldP21CustomAttributesCache
AFm:_ReadOnlyCollection_1_System_Collections_IList_get_IsFixedSize_m1447922362_gshared
Pyo:__ZN6il2cpp2vm6Object3BoxEP11Il2CppClassPv
_po:__ZN6il2cpp2vm6Thread7SetNameEP12Il2CppThreadP12Il2CppString
ir:__ZN6Object23VirtualRedirectTransferER19StreamedBinaryWriteILb1EE
m$:__ZN11UnityEngine15CloudWebService10RestClientINS0_23WebRequestRestHeaderMapEE16SetRequestHeaderERKN4core12basic_stringIcNS4_20StringStorageDefaultIcEEEESA_
w8a:__ZN30RuntimeInitializeOnLoadManager15ClassMethodInfo8TransferI14SafeBinaryReadEEvRT_
FTh:_ConstructionCall_InitDictionary_m2824447813
qae:__ZNK5physx2Sc10ClothShape8isActiveEv
Tbd:__ZN23ParticleSystemParticles14element_assignEjj
TMh:_TargetException__ctor_m3701535709
XHi:__Z86RuntimeInvoker_Int32_t2950945753_Vector3_t3722313464_Vector3_t3722313464_RuntimeObjectPFvvEPK10MethodInfoPvPS4_
nY:__ZL22InitializeModule_Audiov
zOe:__ZN5physx2Sq11PruningPoolD0Ev
Gkb:__ZN16MemoryFileSystem8IsLockedERK13FileEntryData
sWe:__ZN3MBP15removeBoxPrunerEj
dto:__ZN6il2cpp6icalls8mscorlib6System2IO6MonoIO5WriteEiP11Il2CppArrayiiPi
PZl:_List_1_set_Item_m1753836470_gshared
qEi:__Z80RuntimeInvoker_Int32_t2950945753_RuntimeObject_Vector3_t3722313464_RuntimeObjectPFvvEPK10MethodInfoPvPS4_
Vmd:__ZN14ParticleSystem23OnGeometryJobsScheduledEj
hnj:_Mathf_InverseLerp_m4155825980
wni:__Z92RuntimeInvoker_RuntimeObject_RuntimeObject_RuntimeObject_SByte_t1669577662_SByte_t1669577662PFvvEPK10MethodInfoPvPS4_
Rl:_emscripten_glBindRenderbuffer
U9f:_EnemyWaveMover_Update_m1315416116
oqd:__ZZN14ParticleSystem15InitializeClassEvEN29FunctorImpl_228kDidModifyMesh4CallEPviR11MessageData
cXl:_List_1_System_Collections_IList_Insert_m1011775503_gshared
aKo:_GC_dirty_init
V5h:_InternalEnumerator_1_System_Collections_IEnumerator_Reset_m1463497855_AdjustorThunk
wxo:__ZN6il2cpp2vm5Image33GetCachedMemoryMappedResourceFileEP24Il2CppReflectionAssembly
Eim:_Array_Resize_TisSpriteData_t3048397587_m3669483764_gshared
sDf:__ZNK2UI6Canvas16GetTargetDisplayEv
cGi:__Z69RuntimeInvoker_Void_t1185182177_Int32_t2950945753_Vector2_t2156229523PFvvEPK10MethodInfoPvPS4_
YIf:__Z63Register_UnityEngine_Analytics_CustomEventData_Internal_Destroyv
CEm:_ReadOnlyCollection_1__ctor_m2610384050_gshared
Nfd:__Z25UpdateOrbitalAndRadialTplIL27ParticleSystemCurveEvalMode1ELS0_2ELS0_2EEvRK11MinMaxCurveS3_S3_S3_S3_S3_S3_R23ParticleSystemParticlesjjRKN4math8float3x3ERKNS6_7affineXERKNS6_7_float4E
JYd:__ZL15SweepBoxCapsulePKN5physx3Cct9SweepTestEPKNS0_11SweptVolumeEPKNS0_11TouchedGeomERKNS_14PxExtendedVec3ERKNS_6PxVec3ERNS0_12SweptContactE
N$c:__ZN9JSONWrite8TransferI4PPtrI9Texture2DEEEvRT_PKc17TransferMetaFlags
HYf:_TMP_InputField_set_richText_m1744201547
hJb:__ZN13MonoBehaviour17RemoveFromManagerEv
tLn:_Vector3_get_Item_m668685504_AdjustorThunk
Y5e:__ZN5physx2Sc19ParticlePacketShapeD2Ev
mKh:_MonoEventInfo_GetEventInfo_m873645389
WWa:__ZL11DecodeValuePPKcS0_
vBn:_GUIUtility_get_pixelsPerPoint_m2369948084
X0j:_WindowsIdentity_System_Runtime_Serialization_IDeserializationCallback_OnDeserialization_m3428853631
_2:__ZN13MemoryManagerC2Ev
lhg:_JSONNumber_set_AsLong_m3543961811
I4a:__ZN12SkinMeshInfo10DeallocateEPS_
G5n:__ZNK15dense_hashtableINSt3__24pairIK10KeyWrapperIPKcEP11Il2CppClassEES5_N6il2cpp5utils11StringUtils12StringHasherIS4_EEN14dense_hash_mapIS5_S8_SE_NS5_14EqualsComparerINSB_13VmStringUtils21CaseSensitiveComparerEEENS0_9allocatorIS9_EEE9SelectKeyESJ_SL_E8min_sizeEjj
qJj:_ScrollRect_SetDirty_m214267968
QUj:_Array_InternalArray__IndexOf_TisKeyValuePair_2_t727985506_m1773917996_gshared
ZHi:__Z109RuntimeInvoker_Int32_t2950945753_RuntimeObject_ProgressHandler_t926933139_Int32_t2950945753_Int32_t2950945753PFvvEPK10MethodInfoPvPS4_
_jb:__ZN20ArchiveStorageReader28AcquireAndPrefillUnusedBlockEjPNS_11CacheResultE
hPk:_Boolean_System_IConvertible_ToDateTime_m603510836
OFc:__Z12NHxRoughnessIA4_tEvP9Texture2DPT_iiii
RLm:__ZN28GenericInterfaceFuncInvoker2IibbE6InvokeEPK10MethodInfoP12Il2CppObjectbb
zkl:_ASN1_get_Value_m1857007406
HOn:__ZL25UnresolvedVirtualCall_105P12Il2CppObjecthPK10MethodInfo
r3j:_String_System_Collections_IEnumerable_GetEnumerator_m3198926340
VY:__Z6simd4iiiii
Teb:__ZN9Transform5ResetEv
c7k:_Decimal_op_Explicit_m1842265407
oAb:__Z22TransferField_NonArrayI24GenerateTypeTreeTransfer16Converter_StringEvRK23StaticTransferFieldInfoR31RuntimeSerializationCommandInfoRT0_
Pma:__ZL47__ManagedRegistrationHelperFunction_FixedUpdatePv
lqd:__ZN29ParticleSystemPropertyBinding49InitializeParticleSystemAnimationBindingInterfaceEv
hrf:_UNITY_FT_CMap_New
__h:_InternalEnumerator_1_get_Current_m4241643334_AdjustorThunk
$Vf:_TMP_Dropdown_DestroyBlocker_m2367277104
pZh:_InternalEnumerator_1_MoveNext_m154749640_AdjustorThunk
U5m:_Collection_1_set_Item_m2389175716_gshared
ELb:__Z17MainLoopKeepalivePv
K9d:__ZN5physx7NpScene16addActorInternalERNS_7PxActorE
DIj:_Selectable_FindSelectableOnDown_m1591762582
Z7g:__ZL62Slider_t3903728902_CustomAttributesCacheGenerator_m_HandleRectP21CustomAttributesCache
a7n:__ZN15dense_hashtableI10KeyWrapperIPK17Il2CppGenericInstES4_N6il2cpp8metadata21Il2CppGenericInstHashEN14dense_hash_setIS4_S7_NS4_14EqualsComparerINS6_24Il2CppGenericInstCompareEEENSt3__29allocatorIS4_EEE8IdentityESB_SE_E12expand_arrayEjN21dense_hash_map_traits17integral_constantIbLb0EEE
o5h:_InternalEnumerator_1_get_Current_m1588647567_AdjustorThunk
lZi:_Assembly_UnprotectedGetName_m600830855
Jmn:__ZN25GenericVirtActionInvoker3IP12Il2CppObjectS1_iE6InvokeEPK10MethodInfoS1_S1_S1_i
Rtg:__ZL51GCHandle_t3351438187_CustomAttributesCacheGeneratorP21CustomAttributesCache
GVe:__ZN5physx17MBPUpdateWorkTaskD2Ev
NVn:_U3CSendWebRequestU3Ed__0_System_Collections_Generic_IEnumeratorU3CSystem_ObjectU3E_get_Current_m3237948241
Yzj:_InputField_get_caretBlinkRate_m3620074524
Bcb:__ZN11PreloadData39ShouldIgnoreInGarbageDependencyTrackingEv
w2b:__Z19SetupLODFadeKeywordR17ShaderPassContexti
Hnd:__ZL19ParticleGeomFlipUVsffRKN4math5_int4EPS1_
SYj:_RSAPKCS1SignatureFormatter_CreateSignature_m3191980616
xOa:__ZN10builtintex16GetDefaultTexEnvE16TextureDimensionb
KWb:__ZL25CheckCopyTextureArgumentsRK7ApiGLESP11GLESTextureS3_
ykd:__ZN24UVModulePropertyBindings13AddPropertiesER10vector_mapIi22ParticleModulePropertyNSt3__24lessIiEENS2_9allocatorINS2_4pairIiS1_EEEEE
iXg:__ZL104UnityWebRequest_t463507806_CustomAttributesCacheGenerator_UnityWebRequest_get_isNetworkError_m1231611882P21CustomAttributesCache
f3o:_glDeleteShader__wrapper
Wga:__ZNK15PlayableMethods18InvokeOnGraphStartER18ScriptingObjectPtrRK9HPlayable
Mzb:__Z29Transfer_Blittable_ArrayFieldI24GenerateTypeTreeTransferyEvRT_R9ArrayInfoRK23StaticTransferFieldInfo
tum:_ValueType_Equals_m1524437845
uIg:__ZL71RuntimePlatform_t4159857903_CustomAttributesCacheGenerator_OSXWebPlayerP21CustomAttributesCache
xeg:_JSONLazyCreator_Add_m786737145
jP:__ZN4FMOD7SystemI9playSoundE17FMOD_CHANNELINDEXPNS_5SoundEbPPNS_7ChannelE
xCi:__Z123RuntimeInvoker_RuntimeObject_Ray_t3785851493_RuntimeObject_Single_t1397266774_Int32_t2950945753_RuntimeObject_RuntimeObjectPFvvEPK10MethodInfoPvPS4_
bCk:_Int64_GetHashCode_m703091690
Wna:__ZL60__ManagedRegistrationHelperFunction_ReflectionProbeBlendInfoPv
cre:__ZNK5physx7NpCloth16getStretchConfigENS_22PxClothFabricPhaseType4EnumE
ofn:_X509CrlEntry_get_RevocationDate_m606796547
_An:_Event_get_commandName_m4275147343
fB:__ZN27AnimationLayerMixerPlayable17LayerMixerProcessEP35AnimationPlayableEvaluationConstantP32AnimationPlayableEvaluationInputP33AnimationPlayableEvaluationOutputM17AnimationPlayableFvS1_S3_S5_EMS_FvS1_S3_S5_ESA_MS_FvS5_S1_S3_S5_ifE
k6k:_Decimal_op_Implicit_m4256234411
eub:__Z24TransferPPtrToMonoObjecti17ScriptingClassPtrP23DataToCreateNullWrapper24TransferInstructionFlags
MN:__ZN12AudioManager23VirtualRedirectTransferER18StreamedBinaryReadILb0EE
_ji:__Z60RuntimeInvoker_RuntimeObject_RuntimeObject_Int16_t2552820387PFvvEPK10MethodInfoPvPS4_
BWg:__ZL90TextMesh_t1536577757_CustomAttributesCacheGenerator_TextMesh_INTERNAL_set_color_m292262424P21CustomAttributesCache
s3a:__ZN10VertexData13SwapEndianessEv
GHk:_StreamReader__ctor_m3941437302
Lkd:__ZN27ColorModulePropertyBindings13GetFloatValueERK14ParticleSystemi
dyc:__Z57Register_UnityEngine_Transform_INTERNAL_get_localRotationv
nak:_IPv6Address_get_Address_m1389170741
XLm:__ZN28GenericInterfaceFuncInvoker2IihhE6InvokeEPK10MethodInfoP12Il2CppObjecthh
j8a:__ZN30RuntimeInitializeOnLoadManager23VirtualRedirectTransferER17RemapPPtrTransfer
XWo:dynCall_viif
CZi:_AssemblyName_get_Flags_m1616840602
v8h:_InternalEnumerator_1_MoveNext_m1590908934_AdjustorThunk
bAc:__Z13RegisterClassIN5Unity9ComponentEEvPKc
w4b:__ZN29MotionVectorRenderLoopScratchD2Ev
voh:_TextContainer_get_anchorPosition_m1331723421
R4e:__ZN5physx2Sc24ConstraintProjectionTree11projectPoseERNS0_19ConstraintGroupNodeE
sxb:__ZL26Transfer_SimpleNativeClassI17RemapPPtrTransfer8GradientLb0EEvRK29SerializationCommandArgumentsR31RuntimeSerializationCommandInfo
MJg:__ZL49Shader_t4151988712_CustomAttributesCacheGeneratorP21CustomAttributesCache
whj:__ZN23InterfaceActionInvoker3IiP8String_tP24ObjectU5BU5D_t2843939325E6InvokeEjP11Il2CppClassP12Il2CppObjectiS1_S3_
SC:__ZN17AnimationPlayable26DisconnectNoTopologyChangeEPS_i
$je:__ZNK5physx12NpBatchQuery14getOwnerClientEv
FWm:_List_1_System_Collections_IList_Contains_m2131605266_gshared
xwg:__ZL61ISurrogateSelector_t3040401154_CustomAttributesCacheGeneratorP21CustomAttributesCache
Hee:__ZN5physx2Sc21ArticulationJointCore28setSwingLimitContactDistanceEf
zfe:__ZNK5physx20NpRigidActorTemplateINS_18PxArticulationLinkEE14getConstraintsEPPNS_12PxConstraintEjj
EXo:dynCall_viifffi
mYm:_List_1_ToArray_m1990123684_gshared
Zqh:_TextMeshProUGUI_LoadFontAsset_m2596902304
h0:__ZN13UploadHandlerD2Ev
KL:__GLOBAL__sub_I_Modules_AssetBundle_Public_1_cpp
YUo:dynCall_viiiiiffi
ld:_emscripten_glBlendFuncSeparate
z6m:_Collection_1_RemoveAt_m2321540662_gshared
r8m:_Collection_1_Add_m809543251_gshared
y7:__Z20scripting_string_newPKc
ygk:_GroupCollection_get_IsSynchronized_m1170633615
ixn:_Parser_IsSingleline_m326238187
sVk:_CollectionBase_get_Count_m1708965601
acj:_HMAC__ctor_m97939284
MGm:_ReadOnlyCollection_1_System_Collections_IList_get_Item_m1005238747_gshared
pCg:__ZL49DBNull_t3725197148_CustomAttributesCacheGeneratorP21CustomAttributesCache
sum:_ValueType_DefaultEquals_m2927252100
LZc:__ZN9JSONWrite12AppendToNodeEPN5Unity9rapidjson12GenericValueINS1_4UTF8IcEE13JSONAllocatorEEPKcRS6_
Gkl:_ASN1_ToString_m1340204511
tdk:_X509ChainElementEnumerator_get_Current_m1301774989
jvd:__ZN16PhysicsManager2D20GetRigidBodyVelocityERK11Rigidbody2D
JCl:_Enumerator_System_Collections_IEnumerator_Reset_m85524874_gshared
Xdk:_X509Store_get_Certificates_m2149701265
Apb:__ZN20GfxAsyncReadbackDataD2Ev
Zfe:__ZNK5physx19NpRigidBodyTemplateINS_18PxArticulationLinkEE27getMaxDepenetrationVelocityEv
rqm:_Type_GetField_m2961003358
HHm:_ReadOnlyCollection_1_System_Collections_Generic_IListU3CTU3E_set_Item_m711370667_gshared
d4g:__ZL144StandaloneInputModule_t2760469101_CustomAttributesCacheGenerator_StandaloneInputModule_t2760469101____allowActivationOnMobileDevice_PropertyInfoP21CustomAttributesCache
vsa:__ZN9Scripting11UnityEngine13ComputeBuffer12CleanupProxyEv
Q8e:__ZThn8_N5physx2Gu11HeightFieldD1Ev
Pjm:_StringBuilder_set_Chars_m3548656617
ffo:__ZN6il2cpp2os4File17GetFileAttributesERKNSt3__212basic_stringIcNS2_11char_traitsIcEENS2_9allocatorIcEEEEPi
nBe:__ZN5physx19NpRigidBodyTemplateINS_14PxRigidDynamicEED0Ev
Pde:__ZNK5physx19PxArticulationJoint19getConcreteTypeNameEv
UIi:__Z59RuntimeInvoker_Int32_t2950945753_X509ChainStatus_t133602714PFvvEPK10MethodInfoPvPS4_
DG:__ZNSt3__26__sortIRPFbPKN8Animator11AnimatorJobES4_EPS4_EEvT0_S9_T_
hV:__ZN17AudioCustomFilterD2Ev
zYc:__ZN11IMGUIModule26SetDeveloperConsoleVisibleEb
vkk:_ARC4Managed_GenerateKey_m1607343060
UJi:__Z56RuntimeInvoker_Void_t1185182177_MonoResource_t4103430009PFvvEPK10MethodInfoPvPS4_
meb:__ZN9Transform16ResetReplacementEv
VHo:_GC_unpromote_black_lists
FL:__ZN9Scripting11UnityEngine2XR5Tango9GridIndex9InitProxyEv
Mnl:_Enumerator__ctor_m2149651767_AdjustorThunk
GVb:__ZN18GfxFramebufferGLES18ReleaseFramebufferEP17RenderSurfaceBaseP14GfxContextGLES
Q0c:__Z18Transfer_BlittableI8JSONReadLb1EiEvRK29SerializationCommandArgumentsR31RuntimeSerializationCommandInfo
pSi:_TextReader_Dispose_m4253712522
L0:__ZN19CloudServiceHandler34HandleSaveFileWebRequestPlayerLoopEv
WDg:__ZL82BigInteger_t2902905090_CustomAttributesCacheGenerator_BigInteger__ctor_m2474659844P21CustomAttributesCache
EC:__ZN7mecanim21ValueArrayReverseCopyEPKNS_18ValueArrayConstantEPKNS_10ValueArrayES2_PS3_PKi
cTf:__ZL47__ManagedRegistrationHelperFunction_XRNodeStatePv
AU:__Z31GetParentSampleClipFromInstancePN11SoundHandle8InstanceE
Kan:_InternalAsyncResult_get_BytesRead_m3975435112
JAc:__ZNK28RectTransformPropertyBinding13GetFloatValueERKN11UnityEngine9Animation10BoundCurveE
uUd:__ZN5physx11PxHitBufferINS_12PxOverlapHitEE14processTouchesEPKS1_j
Rcc:__ZN6Camera22StandaloneCustomRenderENS_10RenderFlagEP6ShaderRKN4core12basic_stringIcNS3_20StringStorageDefaultIcEEEEPNS_21PerformRenderFunctionE
UUj:_Array_InternalArray__IndexOf_TisKeyValuePair_2_t2401056908_m4118889689_gshared
v9a:__ZNSt3__26vectorI4PPtrI6ObjectE13stl_allocatorIS3_L18MemLabelIdentifier52ELi16EEE6assignINS_11__wrap_iterIPS3_EEEENS_9enable_ifIXaasr21__is_forward_iteratorIT_EE5valuesr16is_constructibleIS3_NS_15iterator_traitsISD_E9referenceEEE5valueEvE4typeESD_SD_
Pym:_Collection_1_System_Collections_ICollection_get_IsSynchronized_m500240145_gshared
tCe:__ZL22addOrRemoveRigidObjectILb0ELb0ELb0ELb1EN5physx3Scb11RigidStaticEEvRNS0_2Sc5SceneERT3_b
TOo:__ZN6il2cpp2os16ThreadLocalValue8GetValueEPPv
_ck:_X509Certificate2_get_PublicKey_m370665820
FOl:_List_1_AddRange_m1014931738_gshared
I9n:__ZN6il2cpp2vm13MetadataCache14GetGenericInstEPKPK10Il2CppTypej
Z5m:_Collection_1_IsSynchronized_m2790814605_gshared
SV:__ZN13AudioListener17ReadExtensionNameEi
Od:_glUniform1uiv
IEg:__ZL59LinkedListNode_1_t3023898186_CustomAttributesCacheGeneratorP21CustomAttributesCache
tMf:__ZN11UnityEngine7Connect20RemoteConfigSettings35CallConfigUpdatedOnMainThreadStaticEPS1_
pTc:__Z52Object_CUSTOM_GetOffsetOfInstanceIDInCPlusPlusObjectv
I4m:_Collection_1_System_Collections_Generic_ICollectionU3CTU3E_get_IsReadOnly_m1419845799_gshared
CHn:_U3CTimedTriggerU3Ec__Iterator0_System_Collections_Generic_IEnumeratorU3CobjectU3E_get_Current_m3822291412
d7d:__ZN5physx6shdfnd4sortIPvNS0_4LessIS2_EENS0_19ReflectionAllocatorINS_2Cm5BlockIS2_Lj8EEEEEEEvPT_jRKT0_RKT1_j
aX:__ZN9AudioClip15InitializeClassEv
qne:__ZNK5physx9NpPhysics11getNbShapesEv
Iq:setThrew
Gtk:_SslClientStream_OnLocalPrivateKeySelection_m1934775249
GFc:__ZL21BuildEmptyCubeTexturePKci11ColorRGBA3217TextureColorSpace
cSg:__ZL106AsyncOperation_t1445031843_CustomAttributesCacheGenerator_AsyncOperation_InvokeCompletionEvent_m1410305036P21CustomAttributesCache
LQk:_Byte_ToString_m721125428
Xic:__ZN14SafeBinaryRead21TransferSTLStyleArrayINSt3__26vectorIN9ShaderLab20SerializedSubProgramENS1_9allocatorIS4_EEEEEEvRT_17TransferMetaFlags
rVj:_Array_InternalArray__IndexOf_TisX509ChainStatus_t133602714_m48896230_gshared
vhb:__ZN19dynamic_block_arrayI13FileEntryInfoLj32EE4growEj
Z0c:__Z15Transfer_StringI8JSONReadLb1EEvRK29SerializationCommandArgumentsR31RuntimeSerializationCommandInfo
Iab:__ZN16LightmapSettings15AppendLightmapsEiRK13dynamic_arrayI12LightmapDataLj0EE
qja:__ZN6prcoreL17RemapGenericFloatI17TexFormatRGBFloat15TexFormatRGHalfEEvPKNS_9InnerInfoE
avg:__ZL63IContributeEnvoySink_t2817847987_CustomAttributesCacheGeneratorP21CustomAttributesCache
xtf:_sfnt_load_face
pmf:_UNITY_FT_Render_Glyph_Internal
dMl:_Enumerator_VerifyState_m1661520664_AdjustorThunk
xrf:_UNITY_ft_service_list_lookup
LOn:__ZL25UnresolvedVirtualCall_109P12Il2CppObjectiaPK10MethodInfo
lxb:__Z18Transfer_BlittableI17RemapPPtrTransferLb1E11ColorRGBA32EvRK29SerializationCommandArgumentsR31RuntimeSerializationCommandInfo
zWc:__ZN5IMGUI21SelectReceivingWindowER8GUIStateb
PNi:__Z41RuntimeInvoker_KeyValuePair_2_t2245450819PFvvEPK10MethodInfoPvPS4_
K7f:_TMP_Text_GetPreferredValues_m3747234872
qcj:_HMAC_Initialize_m3157696427
YTd:__ZN5physx2Gu20intersectTriangleBoxERKNS_6PxVec3ES3_S3_S3_S3_
hSi:_SynchronizedWriter_Write_m2529550287
OUf:_TMP_InputField_CaretBlink_m3970334312
HWf:_TMP_FontAsset_OnDisable_m158826008
lme:__ZN5physx10NpMaterial8setFlagsENS_7PxFlagsINS_14PxMaterialFlag4EnumEtEE
GUm:_List_1_System_Collections_ICollection_CopyTo_m3643417403_gshared
h4:__ZN13BaseAllocator13TryDeallocateEPv
vCb:__Z29Transfer_Blittable_ArrayFieldI19StreamedBinaryWriteILb0EEfEvRT_R9ArrayInfoRK23StaticTransferFieldInfo
Upn:_ListPool_1_Release_m1363449253_gshared
Tbk:_X509SubjectKeyIdentifierExtension__ctor_m2055934916
EYc:__ZN9Scripting19UnityEngineInternal5Input17NativeInputSystem9InitProxyEv
LMl:_Enumerator_Dispose_m2531396701_AdjustorThunk
yym:_Collection_1_set_Item_m480139225_gshared
okb:__ZN16MemoryFileSystem5WriteER13FileEntryDatayPvPy
Czd:__ZNK21b2ClearBodyForcesTask13GetRangeCountEv
dQo:_sprintf
ALm:__ZN23GenericVirtFuncInvoker2Ii26ProgressHandler_t926933139S0_E6InvokeEPK10MethodInfoP12Il2CppObjectS0_S0_
joc:__ZN9Scripting25CreateNullExceptionObjectE18ScriptingObjectPtr
Iml:_PrivateKeyInfo_DecodeRSA_m2889346634
mrl:_Enumerator_Dispose_m1692600608_AdjustorThunk
WU:__ZN13AudioListener17RemoveFromManagerEv
he:_glAttachShader
hAh:_ContentSizeFitter_SetLayoutHorizontal_m2833273874
wBm:_ReadOnlyCollection_1_System_Collections_IList_RemoveAt_m134366701_gshared
Ggf:__ZN5physx6shdfnd8internal8HashBaseINS0_4PairIKtPKcEEtNS0_4HashItEENS1_11HashMapBaseItS6_S9_NS_7profile26WrapperReflectionAllocatorIS6_EEE6GetKeyESD_Lb1EE6createERS4_Rb
Mza:__ZNK6Camera19GetProjectionMatrixEv
d5a:__ZNSt3__26vectorIPK9Transform13stl_allocatorIS3_L18MemLabelIdentifier1ELi16EEE21__push_back_slow_pathIRKS3_EEvOT_
n6e:__ZNK5physx2Cm12DelegateTaskINS_2Sc5SceneEXadL_ZNS3_18clothPreprocessingEPNS_10PxBaseTaskEEEE7getNameEv
FHe:__ZNK5physx7NpScene24getWakeCounterResetValueEv
EAe:__ZN5physx20NpRigidActorTemplateINS_14PxRigidDynamicEE17resolveReferencesERNS_24PxDeserializationContextE
Zod:__Z19UpdateSingleRow2TplIL27ParticleSystemCurveEvalMode2ELS0_4EEvfRK11MinMaxCurveS3_RK23ParticleSystemParticlesPfbiii
yAj:_InputField_SetToCustomIfContentTypeIsNot_m2813459946
w5m:_Collection_1_System_Collections_IList_IndexOf_m1439404860_gshared
Ngi:__Z49RuntimeInvoker_DateTime_t3738529785_RuntimeObjectPFvvEPK10MethodInfoPvPS4_
HCd:__ZN21b2FindNewContactsTask15AddContactPairsERK16b2ContactManagerP14b2FixtureProxyS4_R13dynamic_arrayINS_17b2DeferredContactELj0EE
AIg:__ZL70RuntimePlatform_t4159857903_CustomAttributesCacheGenerator_FlashPlayerP21CustomAttributesCache
Yyk:_Guid_GetHashCode_m3042133858_AdjustorThunk
chn:_FastAction_1_Add_m1141480866_gshared
YYe:__ZN5physx2Gu32PCMConvexVsMeshContactGeneration20generateLastContactsEv
pua:__Z38PreallocateObjectFromPersistentManagerib
FAn:_Event_t2956885303_marshal_pinvoke_cleanup
o0g:__ZL57SphereCollider_t2077223608_CustomAttributesCacheGeneratorP21CustomAttributesCache
vme:__ZThn12_N5physx10NpMaterialD0Ev
Sgk:_Interpreter_Backtrack_m2828876822
TQm:_Predicate_1__ctor_m2153443937_gshared
RTa:__ZNK9Texture2D20GetUnscaledTextureIDEv
sWm:_List_1_get_Capacity_m3666274724_gshared
D9i:_SByte_System_IConvertible_ToType_m4075253447
Jnl:_StrongName_get_PublicKey_m1841537984
Z6l:_EqualityComparer_1_get_Default_m1339714829_gshared
vcf:__ZN5physx6shdfnd4sortIjNS_19SortBoundsPredicateENS0_19ReflectionAllocatorIjEEEEvPT_jRKT0_RKT1_j
nJl:_LinkedList_1_System_Collections_ICollection_get_SyncRoot_m260305035_gshared
Roe:__ZN5physx7NpShape14onRefCountZeroEv
Pyj:_Transform_INTERNAL_get_worldToLocalMatrix_m2730237241
hcd:__ZNK14ParticleSystem7GetLoopEv
u2j:_Single_System_IConvertible_ToUInt64_m3299129161
sSg:__ZL53GameObject_t1113636619_CustomAttributesCacheGeneratorP21CustomAttributesCache
Vbf:__ZL15TestContainmentRKN5physx6PxVec3EPKfjPKNS_2Gu15HullPolygonDataE
sKi:__Z51RuntimeInvoker_Void_t1185182177_HitInfo_t3229609740PFvvEPK10MethodInfoPvPS4_
WTa:__ZNK9Texture2D26CanReuploadDataToGfxDeviceEv
uyg:__ZL63CodeAccessPermission_t2681295399_CustomAttributesCacheGeneratorP21CustomAttributesCache
fbb:__Z29ClearRepeatingLogMessageStatev
B3h:_InternalEnumerator_1_get_Current_m3191242573_gshared
zQk:_Byte_Equals_m1161982810_AdjustorThunk
Nxl:_Transform_1_BeginInvoke_m290848834_gshared
eJi:__Z57RuntimeInvoker_Int32_t2950945753_TMP_WordInfo_t3331066303PFvvEPK10MethodInfoPvPS4_
sJi:__Z53RuntimeInvoker_Int32_t2950945753_UICharInfo_t75501106PFvvEPK10MethodInfoPvPS4_
Y8e:__ZN5physx2Gu11HeightField12loadFromDescERKNS_17PxHeightFieldDescEb
YGc:__ZN15QualitySettings12CleanupClassEv
Pea:__ZN21EnlightenSceneMappingaSERKS_
sxa:__ZN14SafeBinaryRead21TransferSTLStyleArrayI13dynamic_arrayI17SortingLayerEntryLj0EEEEvRT_17TransferMetaFlags
LKd:__ZL48__ManagedRegistrationHelperFunction_MeshColliderPv
PXm:_List_1_GrowIfNeeded_m278824317_gshared
EPm:_U3CSortU3Ec__Iterator21_Dispose_m448183640_gshared
yYb:__ZN7ApiGLESD2Ev
Rya:__ZN9Transform47ClearTransformHierarchyAndApplyToSerializedDataEv
xEn:_CertificateHandler_t2739891000_marshal_pinvoke
LEe:__ZN5physx6shdfnd8PoolBaseINS_2Gu30LargePersistentContactManifoldENS0_19ReflectionAllocatorIS3_EEE12allocateSlabEv
m2c:__ZN8JSONRead21TransferSTLStyleArrayINSt3__26vectorI8MonoPPtr13stl_allocatorIS3_L18MemLabelIdentifier1ELi16EEEEEEvRT_17TransferMetaFlags
y5:__ZNSt3__26__treeI19RepeatingLogMessageNS_4lessIS1_EE13stl_allocatorIS1_L18MemLabelIdentifier74ELi16EEE25__emplace_unique_key_argsIS1_JRKS1_EEENS_4pairINS_15__tree_iteratorIS1_PNS_11__tree_nodeIS1_PvEEiEEbEERKT_DpOT0_
SFl:_Dictionary_2_Remove_m789637624_gshared
aCj:_InputField_IsSelectionVisible_m3622592134
pOk:_AssemblyLoadEventHandler_Invoke_m1462077361
pAa:__ZN6Camera23VirtualRedirectTransferER19StreamedBinaryWriteILb0EE
sXo:dynCall_fidi
igo:__ZN15dense_hashtableINSt3__24pairIK10KeyWrapperINS1_IPK9FieldInfoP11Il2CppClassEEEjEES9_17ReflectionMapHashIS8_EN14dense_hash_mapIS9_jSD_NS9_14EqualsComparerINS0_8equal_toIS8_EEEENS0_9allocatorISB_EEE9SelectKeyESI_SK_E12resize_deltaEjj
$Bd:__ZNK35b2SolveDiscreteIslandVelocitiesTask13GetRangeCountEv
NXl:_List_1_TrimExcess_m3433550210_gshared
RJe:__ZN5physx6shdfnd5ArrayIPNS_2Sc8BodyCoreENS0_19ReflectionAllocatorIS4_EEE6resizeEjRKS4_
D6n:__ZNK15dense_hashtableINSt3__24pairIK10KeyWrapperIPK19Il2CppGenericMethodEPK26Il2CppGenericMethodIndicesEES6_N6il2cpp8metadata23Il2CppGenericMethodHashEN14dense_hash_mapIS6_SA_SE_NS6_14EqualsComparerINSD_26Il2CppGenericMethodCompareEEENS0_9allocatorISB_EEE9SelectKeyESI_SK_E8min_sizeEjj
D$d:__ZN5physx3Cct26CharacterControllerManager16createControllerERNS_9PxPhysicsEPNS_7PxSceneERKNS_16PxControllerDescE
GBn:_GUILayoutEntry__ctor_m2229197035
c1:__ZN11UnityEngine15CloudWebService14RestDownloaderD2Ev
n0i:_EnumBuilder_get_Assembly_m1175292766
Rfc:__Z29StdTemplateConversionFunctionIjhEbPvR14SafeBinaryRead
A3f:_TMP_SubMeshUI_GetPaddingForMaterial_m3359882614
yDa:__ZN15dense_hashtableINSt3__24pairIKN9ShaderLab7Program23ShaderKeywordSetAndHashEPKNS2_10SubProgramEEES4_NS3_24ShaderKeywordHashFunctorEN14dense_hash_mapIS4_S8_SA_NS0_8equal_toIS4_EE13stl_allocatorIS9_L18MemLabelIdentifier67ELi16EEE9SelectKeyESD_SG_E15insert_noresizeERKS9_
tYk:_Array_swap_TisCustomAttributeNamedArgument_t287865710_TisCustomAttributeNamedArgument_t287865710_m881919420_gshared
cMa:__ZN13RenderTexture12SetDimensionE16TextureDimension
stk:_SslClientStream_set_ClientCertSelectionDelegate_m1261530976
Vdh:__ZL78TMP_SpriteAsset_t484820633_CustomAttributesCacheGenerator_fallbackSpriteAssetsP21CustomAttributesCache
Mqa:__ZN9Scripting11UnityEngine16GradientColorKey9InitProxyEv
_e:_SDL_FreeRW
YMe:__ZN5physx6shdfnd8PoolBaseINS_2Cm5BlockIhLj128EEENS0_19ReflectionAllocatorIS4_EEE15disposeElementsEv
I2g:__ZL109ExecuteEvents_t3484638744_CustomAttributesCacheGenerator_ExecuteEvents_U3Cs_HandlerListPoolU3Em__0_m391641698P21CustomAttributesCache
YKi:__Z79RuntimeInvoker_Void_t1185182177_Int32_t2950945753_ParameterModifier_t1461694466PFvvEPK10MethodInfoPvPS4_
VEf:__Z34CanvasRenderer_Get_Custom_PropCullP12Il2CppObject
axe:__ZN5physx3Scb14ParticleSystem14setRestOffsetsEjRKNS_16PxStrideIteratorIKjEERKNS2_IKfEE
AT:__ZN20SoundChannelInstance8getDelayE14FMOD_DELAYTYPEPjS1_
zMo:__ZNSt3__26__treeINS_12__value_typeIPvxEENS_19__map_value_compareIS2_S3_NS_4lessIS2_EELb1EEENS_9allocatorIS3_EEE12__find_equalIS2_EERPNS_16__tree_node_baseIS2_EESF_RKT_
PDa:__ZNSt3__26vectorIN20GpuProgramParameters15StructParameterENS_9allocatorIS2_EEEC2ERKS5_
PXh:_ArrayReadOnlyList_1_Contains_m232667507_gshared
i7k:_Convert_ToInt32_m2128774575
Opi:__Z77RuntimeInvoker_Boolean_t97287965_IntPtr_t_Int32_t2950945753_SByte_t1669577662PFvvEPK10MethodInfoPvPS4_
hrj:_PlayableHandle_GetPlayableType_m432385838_AdjustorThunk
Jig:_ShaderPropAnimator_Start_m2331709270
dlf:__ZNSt3__26vectorIN20TextRenderingPrivate8FontImpl13CharacterInfoE13stl_allocatorIS3_L18MemLabelIdentifier1ELi16EEE8__appendEj
v:tempBigInt
Dfm:_Array_InternalArray__Insert_TisKeyframe_t4206410242_m1558638568_gshared
FAg:__ZL77Convert_t2465617642_CustomAttributesCacheGenerator_Convert_ToByte_m3567528984P21CustomAttributesCache
gf:_emscripten_glVertexAttrib1fv
Djc:__ZNSt3__26vectorIN9ShaderLab20SerializedSubProgram12UAVParameterENS_9allocatorIS3_EEE7reserveEj
FQf:__ZN29UnityWebRequestAsyncOperationD0Ev
kik:_BigInteger__ctor_m2644482640
MGl:_Dictionary_2_get_Keys_m2050540798_gshared
MTo:__ZSt11__terminatePFvvE
FIe:__ZN5physx13NpVolumeCacheC2EPNS_2Sq17SceneQueryManagerEjj
$7d:__ZThn24_N5physx2Sc20ArticulationJointSimD1Ev
$P:__ZN12AudioManager14systemCallbackEP11FMOD_SYSTEM24FMOD_SYSTEM_CALLBACKTYPEPvS3_
GQm:_Nullable_1_Equals_m4046255732_gshared
Kji:__Z53RuntimeInvoker_Single_t1397266774_Decimal_t2948259380PFvvEPK10MethodInfoPvPS4_
LIm:_ReadOnlyCollection_1_System_Collections_Generic_ICollectionU3CTU3E_Clear_m3451551308_gshared
Yxh:_BaseMeshEffect_OnEnable_m3291426649
Wql:_Enumerator__ctor_m87788968_AdjustorThunk
agj:_ClassLibraryInitializer_Init_m988673678
wOk:_AssemblyLoadEventHandler_BeginInvoke_m1281107466
bxe:__ZN5physx2Sc18ParticleSystemCore14setRestOffsetsEjRKNS_16PxStrideIteratorIKjEERKNS2_IKfEE
KJo:_clear_marks_for_block
eYd:__ZN5physx2Gu16testPolyDataAxisERKNS0_8CapsuleVERKNS0_13PolygonalDataEPNS0_12SupportLocalERKNS_6shdfnd3aos6FloatVERSB_RNSA_5Vec3VE
KOj:_Array_InternalArray__ICollection_Contains_TisColor_t2555686324_m266224315_gshared
yJa:__ZN16ReflectionProbes16UpdateSampleDataEv
_dd:__Z9UpdateTplIL27ParticleSystemCurveEvalMode1EEvRK11MinMaxCurveR23ParticleSystemParticlesjjPKN4math8floatNx3E
Sae:__ZN5physx2Sc17ParticleSystemSimD0Ev
j4i:_TrackingServices_NotifyUnmarshaledObject_m2784831802
TTk:_ReadOnlyArrayListWrapper_Sort_m2577012511
Ema:__ZL46__ManagedRegistrationHelperFunction_UnityEventPv
HPn:__ZL25UnresolvedVirtualCall_159P12Il2CppObjectiifPK10MethodInfo
nHl:_Dictionary_2_set_Item_m3394774875_gshared
rKl:_Enumerator_System_Collections_IEnumerator_get_Current_m2237476582_AdjustorThunk
iwk:_CultureInfo_GetCultureInfo_m56098747
Zzo:__ZN15dense_hashtableINSt3__24pairIK10KeyWrapperIP12Il2CppObjectEN6il2cpp2gc9CachedCCWEEES5_NS7_5utils11PointerHashIS3_EEN14dense_hash_mapIS5_S9_SD_NS5_14EqualsComparerINS0_8equal_toIS4_EEEENS0_9allocatorISA_EEE9SelectKeyESI_SK_E3endEv
mRa:__ZN14Texture2DArray5ResetEv
E9b:__Z20AddActiveLocalLightsR11CullResultsR27LocalLightCullingParametersPPK15SharedLightDataPK8Vector4fRK9IndexListPfRSA_R12ActiveLightsSG_P5RectTIfEP13TargetEyeMask
Kpg:__ZL80Hashtable_t1853889766_CustomAttributesCacheGenerator_Hashtable__ctor_m1763145853P21CustomAttributesCache
X5k:_Convert_ToDecimal_m1284148187
uwm:_Collection_1__ctor_m3489157029_gshared
ZJg:__ZL117TouchScreenKeyboard_t731888065_CustomAttributesCacheGenerator_TouchScreenKeyboard_Open_m3609399077____autocorrection2P21CustomAttributesCache
ofi:_Enumerator_get_Current_m1675434384_gshared
Yla:__ZL52__ManagedRegistrationHelperFunction_AndroidJNIHelperPv
Zof:_cf2_getNormalizedVector
fwa:__ZN5RectTIfE8TransferI18StreamedBinaryReadILb0EEEEvRT_
Ef:_JS_Sound_Play
sul:_KeyCollection_GetEnumerator_m1862005650_gshared
IJm:_ReadOnlyCollection_1_System_Collections_IList_set_Item_m1538987737_gshared
Hci:_DefaultComparer_Compare_m1920986590_gshared
ksk:_RecordProtocol_ProcessChangeCipherSpec_m15839975
uic:__ZN9ShaderLab16SerializedShader8TransferI14SafeBinaryReadEEvRT_
aab:__ZN5Mutex7TryLockEv
vph:_TextMeshPro_ForceMeshUpdate_m19192154
fWg:__ZL103AudioSource_t3935305588_CustomAttributesCacheGenerator_AudioSource_ReadExtensionPropertyValue_m72717540P21CustomAttributesCache
YTh:_ConstructionCallDictionary_SetMethodProperty_m3145285304
Tvb:__ZN15SerializeTraitsI13dynamic_arrayIsLj0EEE19ResizeSTLStyleArrayERS1_i
B5a:__ZN11TimeManagerD2Ev
kZh:_InternalEnumerator_1_System_Collections_IEnumerator_get_Current_m1503522504_gshared
WF:__ZN7mecanim8skeleton13SkeletonAlignEPKNS0_8SkeletonERKN4math7_float4ES7_i
IGc:__ZN19ShaderPropertySheet16SetVectorIndexedEN9ShaderLab16FastPropertyNameEifRK8Vector4fNS_8SetFlagsE
Lpm:_Type_get_IsAbstract_m1120089130
BLn:_Vector3_get_normalized_m2454957984_AdjustorThunk
qs:__ZN14SafeBinaryRead21TransferSTLStyleArrayIN4core12basic_stringIcNS1_20StringStorageDefaultIcEEEEEEvRT_17TransferMetaFlags
_En:_DownloadHandlerBuffer_InternalGetData_m3771716959
Myn:_UriFormatException__ctor_m1115096473
B1h:_InternalEnumerator_1_Dispose_m2818366163_AdjustorThunk
XRj:_Array_InternalArray__IEnumerable_GetEnumerator_TisSlot_t384495010_m460993382_gshared
nqo:__ZN15dense_hashtableINSt3__24pairIK10KeyWrapperINS1_IP11Il2CppClassjEEES4_EES6_N6il2cpp8metadata14ArrayClassHashEN14dense_hash_mapIS6_S4_SB_NS6_14EqualsComparerINSA_17ArrayClassCompareEEENS0_9allocatorIS8_EEE9SelectKeyESF_SH_E9copy_fromERKSK_j
tgc:__Z29StdTemplateConversionFunctionIayEbPvR14SafeBinaryRead
_Be:__ZNK5physx20NpRigidActorTemplateINS_13PxRigidStaticEE14getConstraintsEPPNS_12PxConstraintEjj
eRd:__ZN25MeshMTDGenerationCallbackD0Ev
oRi:__Z55RuntimeInvoker_Boolean_t97287965_Nullable_1_t2603721331PFvvEPK10MethodInfoPvPS4_
oDn:_GUIUtility_IsExitGUIException_m3644066650
D1:__ZN11UnityEngine15CloudWebService14DataDispatcher4StopEv
hJl:_LinkedList_1_System_Collections_Generic_ICollectionU3CTU3E_Add_m2568132950_gshared
Qzk:_Int16_System_IConvertible_ToUInt64_m134975563
Fjc:__ZNSt3__26vectorIN9ShaderLab20SerializedSubProgram12UAVParameterENS_9allocatorIS3_EEE8__appendEj
rZh:_InternalEnumerator_1__ctor_m4191108945_gshared
Pjo:__ZNK15dense_hashtableINSt3__24pairIK10KeyWrapperINS1_IPK9EventInfoP11Il2CppClassEEEjEES9_17ReflectionMapHashIS8_EN14dense_hash_mapIS9_jSD_NS9_14EqualsComparerINS0_8equal_toIS8_EEEENS0_9allocatorISB_EEE9SelectKeyESI_SK_E12test_deletedERK24dense_hashtable_iteratorISB_S9_SD_SM_SI_SK_E
AWc:__ZN5IMGUI9GUIWindow5OnGUIER8GUIState
IUn:_AudioConfigurationChangeHandler_EndInvoke_m4175380841
UJo:_GC_maybe_gc
b2j:_Single_System_IConvertible_ToDecimal_m325860800_AdjustorThunk
Bdm:_Array_InternalArray__ICollection_CopyTo_TisSingle_t1397266774_m455540885_gshared
Ela:__ZN17ScriptingGCHandle7AcquireE18ScriptingObjectPtr25ScriptingGCHandleWeakness
pul:_KeyCollection_System_Collections_ICollection_get_IsSynchronized_m829086683_gshared
asi:__Z74RuntimeInvoker_RuntimeObject_RuntimeObject_Int64_t3736567304_RuntimeObjectPFvvEPK10MethodInfoPvPS4_
_ge:__ZN5physx12NpConstraint8comShiftEPNS_12PxRigidActorE
jOl:_List_1__cctor_m4073949629_gshared
uCl:_Enumerator__ctor_m1734342590_gshared
SVo:dynCall_iifiii
iEb:__ZN18StreamedBinaryReadILb1EE8TransferI13dynamic_arrayIjLj0EEEEvRT_PKc17TransferMetaFlags
pbg:_U3CSpawnPowerUpWavesU3Ec__Iterator5_Reset_m1753322616
Mam:_HashSet_1__ctor_m620629637_gshared
KRa:__Z21HasAlphaTextureFormat13TextureFormat
$X:__ZN12AudioManager6UpdateEv
ERa:__ZN14ImageReference9BlitImageERKS_NS_8BlitModeE
TCm:_ReadOnlyCollection_1__ctor_m1345363288_gshared
Mw:__ZN8Animator12AddToManagerEv
ZTi:_MissingFieldException__ctor_m3742452630
pLc:__Z26ApplyBlendShapesToVerticesR12SkinMeshInfoRKN4math5_int4EPNS1_8floatNx3ES6_
q2:__GLOBAL__sub_I_Runtime_Core_Callbacks_0_cpp
LDi:__Z119RuntimeInvoker_Boolean_t97287965_StringU26_t181565287_Int32_t2950945753_Int32U5BU5DU26_t4279986940_Int32U26_t1369213839PFvvEPK10MethodInfoPvPS4_
ZPd:__ZNK5physx2Gu16SupportLocalImplINS0_11ConvexHullVEE9doSupportERKNS_6shdfnd3aos5Vec3VERNS5_6FloatVESA_
bKb:__ZN23CachedSerializationDataD2Ev
Qbc:__ZNK25CameraStackRenderingState31CalculateStereoCameraTargetTypeEv
gVd:__ZNK5physx3Cct13BoxController8getActorEv
YIa:__ZN14RenderSettings23VirtualRedirectTransferER14SafeBinaryRead
H9h:_InternalEnumerator_1_get_Current_m114240259_gshared
Mxd:__ZNK13b2CircleShape5CloneEP16b2BlockAllocator
IDo:__ZN6il2cpp2os10ThreadImpl15CurrentThreadIdEv
x$k:_Array_InternalArray__get_Item_TisLink_t3209266973_m1574224299_gshared
urj:_PlayerConnectionInternal_UnityEngine_IPlayerEditorConnectionNative_SendMessage_m389985885
dUc:__Z36Renderer_Set_Custom_PropSortingOrderP12Il2CppObjecti
Wnl:_Enumerator_System_Collections_IDictionaryEnumerator_get_Key_m1314958700_gshared
YHa:__ZN17GlobalGameManager8TransferI17RemapPPtrTransferEEvRT_
Egh:__ZL73FieldWithTarget_t3058750293_CustomAttributesCacheGenerator_m_StaticStringP21CustomAttributesCache
P9e:__ZN5physx6shdfnd8internal8HashBaseIPNS_2Gu12TriangleMeshES5_NS0_4HashIS5_EENS1_11HashSetBaseIS5_S7_NS0_9AllocatorELb1EE6GetKeyES9_Lb1EE5eraseERKS5_
r_j:_SymmetricAlgorithm_get_Key_m3241860519
TCj:_U3CMouseDragOutsideRectU3Ec__Iterator1_Reset_m2233410497
k2:__GLOBAL__sub_I_Runtime_Camera_5_cpp
VHd:__ZN10Collider2DC2E10MemLabelId18ObjectCreationMode
Dpk:_ClientSessionInfo_get_HostName_m2118440995
UGa:__ZN16LevelGameManager8TransferI18StreamedBinaryReadILb0EEEEvRT_
kxf:_UNITY_tt_face_load_fpgm
Kya:__Z17IsObjectAvailablei
S5a:__ZN12InputManagerD0Ev
UMa:__Z32TransferEnumWithNameForceIntSizeI14SafeBinaryRead17TextureFilterModeEvRT_RT0_PKc17TransferMetaFlags
jxg:__ZL64DSASignatureFormatter_t2007981259_CustomAttributesCacheGeneratorP21CustomAttributesCache
tmm:_ExecutionContext_Capture_m681135907
w2l:_Dictionary_2_System_Collections_IDictionary_Add_m4011968134_gshared
Cbn:_TlsException__ctor_m818940807
whe:__ZN5physx2Sc9RigidCore20removeShapeFromSceneERNS0_9ShapeCoreEb
$Fb:__Z18Transfer_BlittableI18StreamedBinaryReadILb0EELb1EtEvRK29SerializationCommandArgumentsR31RuntimeSerializationCommandInfo
o$h:_InternalEnumerator_1_System_Collections_IEnumerator_get_Current_m2889979481_AdjustorThunk
GSo:_posix_memalign
rcf:__ZN5physx11RTreeCooker18buildFromTrianglesERNS_2Gu5RTreeEPKNS_6PxVec3EjPKtPKjjRNS_6shdfnd5ArrayIjNSB_19ReflectionAllocatorIjEEEEPNS0_13RemapCallbackEfNS_17PxMeshCookingHint4EnumE
Hbe:__ZN5physx6shdfnd5ArrayIPvNS0_15InlineAllocatorILj256ENS0_19ReflectionAllocatorINS_14NpArticulationEEEEEE15growAndPushBackERKS2_
qtj:_Rect_get_position_m2115952571
Fso:__ZN6il2cpp6icalls8mscorlib6System9ThreadingL13cache_cultureEP12Il2CppThreadP12Il2CppObjecti
HJl:_Enumerator__ctor_m81985385_AdjustorThunk
eUg:__ZL90SceneManager_t2787271929_CustomAttributesCacheGenerator_SceneManager_LoadScene_m1758133949P21CustomAttributesCache
UGm:_ReadOnlyCollection_1_get_Item_m4005849861_gshared
qLj:_Slider_get_direction_m3871593184
Dkl:_ASN1_GetBytes_m3305539297
gYm:_List_1_Remove_m2092116835_gshared
WQg:__ZL86Logger_t274032455_CustomAttributesCacheGenerator_Logger_LogFormat_m3030796110____args2P21CustomAttributesCache
iBg:__ZL77Convert_t2465617642_CustomAttributesCacheGenerator_Convert_ToSByte_m717245755P21CustomAttributesCache
lci:_DefaultComparer__ctor_m2039558311_gshared
B9:__ZNK15MonoScriptCache7ReleaseEv
Kim:_Array_Resize_TisTMP_LinkInfo_t1092083476_m3599428600_gshared
D_e:__ZN5physx9PxTaskMgrC2EPNS_15PxCpuDispatcherEPNS_15PxGpuDispatcherEPNS_15PxSpuDispatcherE
lSk:_CLSCompliantAttribute__ctor_m581760440
Sg:_glBindTexture
WQo:_snprintf
YCk:_InvalidCastException__ctor_m2551002860
bdm:_Array_InternalArray__ICollection_CopyTo_TisKeyValuePair_2_t2401056908_m4025041902_gshared
Jbm:_KeyValuePair_2__ctor_m844205450_gshared
_zn:_TMP_WordInfo_GetWord_m3252148633
V$o:_emscripten_glVertexAttrib1fv__wrapper
Hdg:_JSONNode__ctor_m4069100351
hGc:__ZN16LevelGameManagerC2E10MemLabelId18ObjectCreationMode
OPn:__ZL25UnresolvedVirtualCall_166P12Il2CppObjectS0_S0_sPK10MethodInfo
rUm:_List_1_Reverse_m3290386475_gshared
oGm:_ReadOnlyCollection_1_get_Item_m3393001889_gshared
SVf:_TMP_Dropdown_OnSubmit_m278619292
Hoj:_MonoBehaviour_Internal_IsInvokingAll_m2820042090
r_o:_emscripten_glGetProgramInfoLog__wrapper
Dv:__ZN25AnimatedPropertyEvaluator29BindCurveToScriptingObjectPtrERKN13AnimationClip10FloatCurveEj18ScriptingObjectPtrb
T$a:__ZN13ScreenManager20SetScreenOrientationE17ScreenOrientation
Xxo:__ZN6il2cpp2vm5Field14IsThreadStaticEP9FieldInfo
g1m:_Collection_1_SetItem_m1090516645_gshared
e4g:__ZL52InputMode_t3382566315_CustomAttributesCacheGeneratorP21CustomAttributesCache
b0j:_String_Equals_m1744302937
Qhj:_Display__ctor_m501911701
aEm:_ReadOnlyCollection_1_System_Collections_Generic_IListU3CTU3E_Insert_m1020890112_gshared
dWk:_Hashtable__cctor_m4112166779
SBh:_Dropdown_get_onValueChanged_m2462066659
fBh:_DefaultControls_SetDefaultTextValues_m1943359795
dNi:__Z62RuntimeInvoker_TMP_CharacterInfo_t3185626797_Int32_t2950945753PFvvEPK10MethodInfoPvPS4_
k4b:__Z19SetupMotionMatricesR6CameraR18RPDataMotionVector
q$n:__ZL7log2_64y
B3f:_TMP_SubMeshUI_UpdateMeshPadding_m567989066
vH:__ZN26AnimatorControllerPlayable18PrepareForPlaybackERN7mecanim6memory9AllocatorE
JH:__ZN8Animator11AnimatorJob11AddPlayableEP17AnimationPlayablef
bFh:_GridLayoutGroup_get_cellSize_m2967185053
KQe:__ZN5physx19PxsMaterialCombiner24combineIsotropicFrictionERKNS_15PxsMaterialDataES3_
cdn:_PKCS12_Decrypt_m1280162536
nIl:_Dictionary_2_Add_m1679778769_gshared
x$h:_InternalEnumerator_1_get_Current_m3081223448_gshared
TAn:_Event_get_isMouse_m1058251071
Uvn:_AnchorInfo_get_IsPosition_m2100552190
iGa:__ZN10VertexDataC2ERKS_17ShaderChannelMask10MemLabelId
x$c:__ZL22Transfer_ManagedObjectI9JSONWriteLb1EEvRK29SerializationCommandArgumentsR31RuntimeSerializationCommandInfo
eSf:__Z66Register_UnityEngine_Networking_UnityWebRequest_get_isNetworkErrorv
$2m:_Collection_1_IndexOf_m3762683187_gshared
_rf:_otv_JSTF_validate
SDa:__ZN22CreateGpuProgramOutputC2Ev
u0m:_Collection_1_get_Count_m4004951847_gshared
sjk:_BigInteger_op_LessThanOrEqual_m3925173639
oOm:_Func_2_BeginInvoke_m3038845896_gshared
Zij:_PersistentCallGroup_Initialize_m4253175514
gPk:_Boolean_System_IConvertible_ToChar_m4279513009_AdjustorThunk
YVk:_Hashtable__ctor_m1763145853
Cng:__ZL66RuntimeArray_CustomAttributesCacheGenerator_Array_Sort_m3145621264P21CustomAttributesCache
HCj:_InputField_get_layoutPriority_m2945430764
GWi:_NumberFormatter_ScaleOrder_m3813786990
XAi:__Z43RuntimeInvoker_VerticalWrapMode_t2936607737PFvvEPK10MethodInfoPvPS4_
_Il:_Enumerator_System_Collections_IEnumerator_Reset_m2550940120_gshared
_6l:_EqualityComparer_1__ctor_m2241711498_gshared
Lvn:_AnchorInfo_get_Offset_m2045445765
KWh:__ZN25GenericVirtActionInvoker2IP12Il2CppObjectS1_E6InvokeEPK10MethodInfoS1_S1_S1_
Jml:_PrivateKeyInfo_DecodeDSA_m771724585
pem:_Array_InternalArray__Insert_TisProgressHandler_t926933139_m28642970_gshared
Ajg:_U3CRevealCharactersU3Ec__Iterator0_Reset_m322011311
NAg:__ZL81Convert_t2465617642_CustomAttributesCacheGenerator_Convert_ToDateTime_m1031474510P21CustomAttributesCache
Aaf:__ZN5physx7Cooking16cookTriangleMeshERKNS_18PxTriangleMeshDescERNS_14PxOutputStreamE
Mhk:_Interval_get_Size_m4163671410_AdjustorThunk
h2g:__ZL53EventHandle_t600343995_CustomAttributesCacheGeneratorP21CustomAttributesCache
Fdf:__ZN14CompletionTask4InitEPN5physx7PxSceneE
gUk:_SynchronizedArrayListWrapper_get_SyncRoot_m3862302789
T8d:__ZN5physx2Sc7ElementD0Ev
usm:_UInt32_System_IConvertible_ToSByte_m1061556466
Ycf:__ZN5physx6shdfnd10Foundation7releaseEv
U5i:_WellKnownClientTypeEntry__ctor_m2471908952
F3n:__ZN6il2cpp2vm5Class4InitEP11Il2CppClass
fd:invoke_vidi
WXi:_NumberFormatter_FormatRoundtrip_m19342689
y5i:_RemotingServices_CreateClientProxyForContextBound_m783705199
XBi:__Z30RuntimeInvoker_Axis_t809944411PFvvEPK10MethodInfoPvPS4_
lMc:__ZNK15GUIEventManager15GetEventAtIndexEi
X9m:_InternalAsyncResult_get_ProceedAfterHandshake_m2508379800
TGf:__ZN2UI14CanvasRenderer17SyncDirtyElementsER8JobFence
XFb:__Z18Transfer_BlittableI18StreamedBinaryReadILb0EELb0ExEvRK29SerializationCommandArgumentsR31RuntimeSerializationCommandInfo
p8k:_Convert_ToUInt16_m2952781888
lpl:_Enumerator_System_Collections_IEnumerator_get_Current_m3816090481_gshared
DFo:__ZN6il2cpp5utils11StringUtils15StringDuplicateEPKc
u5l:_DefaultComparer_Equals_m2480133610_gshared
iDa:__ZNK9ShaderLab21ShaderRasterStateDesc16ToGfxRasterStateEPK19ShaderPropertySheetS3_R14GfxRasterState
p$m:_Collection_1_System_Collections_IList_IndexOf_m2231213796_gshared
_Xk:_Array_Sort_TisVector3_t3722313464_m1915176437_gshared
bPo:__ZN6il2cpp2os9EventImplC2Ebb
mid:__Z12RangedRandomR5RandNRKiS2_
G5f:_TMP_Text_set_maxVisibleCharacters_m1275491376
SJj:_ScrollRect_OnInitializePotentialDrag_m3139711961
lVl:_List_1_System_Collections_IList_get_IsFixedSize_m3566150119_gshared
LJ:__ZN4PPtrI13MonoBehaviourE8TransferI19StreamedBinaryWriteILb0EEEEvRT_
BTm:_List_1_get_Item_m2113769949_gshared
JFj:_MaskableGraphic_OnTransformParentChanged_m329502413
JCa:__ZN12FlareManager12RemoveCameraER6Camera
cwj:_ScriptableObject_t2528358522_marshal_pinvoke
T5:__Z20IsMatrixBuiltinParamPKcPi
mko:__ZN6il2cpp2gc19AppendOnlyGCHashMapINSt3__24pairIPK10MethodInfoP11Il2CppClassEEP11Il2CppArray17ReflectionMapHashIS9_ENS2_8equal_toIS9_EEEC2Ev
L$j:_String_memcpy4_m979367827
y1j:_SecurityFrame_t1422462475_marshal_pinvoke
Iho:__ZN15dense_hashtableINSt3__24pairIK10KeyWrapperINS1_IPK10MethodInfoP11Il2CppClassEEEjEES9_17ReflectionMapHashIS8_EN14dense_hash_mapIS9_jSD_NS9_14EqualsComparerINS0_8equal_toIS8_EEEENS0_9allocatorISB_EEE9SelectKeyESI_SK_E16reset_thresholdsEv
rkm:_UnicodeEncoding_GetBytesInternal_m1902824297
kGc:__ZN8Renderer19PostInitializeClassEv
aUj:_Array_FindIndex_TisRuntimeObject_m2504082708_gshared
PGf:__ZNSt3__26__treeINS_12__value_typeINS_4pairIKiS3_EEN2UI14DepthSortLayerEEENS_19__map_value_compareIS4_S7_NS_4lessIS4_EELb1EEE13stl_allocatorIS7_L18MemLabelIdentifier1ELi16EEE25__emplace_unique_key_argsIS4_JRKNS_21piecewise_construct_tENS_5tupleIJOS4_EEENSK_IJEEEEEENS2_INS_15__tree_iteratorIS7_PNS_11__tree_nodeIS7_PvEEiEEbEERKT_DpOT0_
TXj:_Array_InternalArray__ICollection_Add_TisSpriteData_t3048397587_m2279685385_gshared
Ven:_X509Chain_FindCertificateRoot_m1937726457
DHk:_StreamAsyncResult_get_AsyncWaitHandle_m3390046559
EKf:__ZN11UnityEngine15PlatformWrapper21GetVRPlayAreaGeometryER13dynamic_arrayI8Vector3fLj0EE
pLo:__ZN6il2cpp6icalls8mscorlib6System8Delegate23CreateDelegate_internalEP20Il2CppReflectionTypeP12Il2CppObjectP22Il2CppReflectionMethodb
mql:_Enumerator_System_Collections_IEnumerator_get_Current_m921113401_AdjustorThunk
QVk:_DictionaryEntry_get_Value_m618120527_AdjustorThunk
uJb:__ZN18DelayedCallManager18CancelCallDelayed2E4PPtrI6ObjectEPF15CallObjectStatePS1_PvES7_
Nwa:__ZN25ThreadsafeLinearAllocator10ReallocateEPvji
Tsb:__Z18Transfer_BlittableI14SafeBinaryReadLb1E11QuaternionfEvRK29SerializationCommandArgumentsR31RuntimeSerializationCommandInfo
bfe:__ZNK5physx18PxArticulationLink8isKindOfEPKc
Sia:__ZN18SpriteAtlasManagerD0Ev
dz:__ZN7mecanim9animation10SampleClipERKNS0_12ConstantClipEjPf
hih:__ZL202U3CSpawnBackgroundSpaceShipU3Ec__Iterator9_t1364907612_CustomAttributesCacheGenerator_U3CSpawnBackgroundSpaceShipU3Ec__Iterator9_System_Collections_Generic_IEnumeratorU3CobjectU3E_get_Current_m758727870P21CustomAttributesCache
fKm:_ReadOnlyCollection_1_System_Collections_ICollection_get_IsSynchronized_m1150914347_gshared
Soh:_TextContainer_OnRectTransformDimensionsChange_m2148637261
MGi:__Z57RuntimeInvoker_Boolean_t97287965_KeyValuePair_2_t71524366PFvvEPK10MethodInfoPvPS4_
a_a:__ZN10Matrix4x4f8TransferI14SafeBinaryReadEEvRT_
An:FUNCTION_TABLE_vifiiiiiiiiiiiiiiiiii
lPn:__ZL25UnresolvedVirtualCall_137P12Il2CppObjectfffPK10MethodInfo
Caj:_CryptographicUnexpectedOperationException__ctor_m2381988196
Rko:__ZN14dense_hash_mapI10KeyWrapperIPK22Il2CppGenericParameterEPK24MonoGenericParameterInfoN6il2cpp5utils11PointerHashIS2_EENS4_14EqualsComparerINSt3__28equal_toIS3_EEEENSD_9allocatorINSD_4pairIKS4_S7_EEEEE15set_deleted_keyERSJ_
sH:__ZN14AvatarPlayback8StopTimeEv
a2h:_InternalEnumerator_1_System_Collections_IEnumerator_get_Current_m4213507601_gshared
fda:__Z6AppendRKN4core12basic_stringIcNS_20StringStorageDefaultIcEEEEPKc
w6k:_Convert_ToDouble_m996590115
Scb:__ZL14OnWorldStoppedv
eSj:_Array_InternalArray__IEnumerable_GetEnumerator_TisCustomAttributeNamedArgument_t287865710_m523021714_gshared
azo:__ZN6il2cpp2vm6Object12NullableInitEPhP12Il2CppObjectP11Il2CppClass
Uym:__ZN21InterfaceFuncInvoker1I19Vector4_t3319028937iE6InvokeEjP11Il2CppClassP12Il2CppObjecti
Roa:__ZN9Scripting11UnityEngine16TrackedReference12CleanupProxyEv
M8j:__KeysEnumerator_MoveNext_m4289758929
ypo:__ZN6il2cpp2vm6Thread10InitializeEv
Rnf:__ZN20TextRenderingPrivate19NativeTextGeneratorC2ERK11UTF16StringPNS_8FontImplE11ColorRGBA32ifRK8Vector2fbifiibffbbP13dynamic_arrayIN2UI8UIVertexELj0EE
OWk:_HashKeys_get_SyncRoot_m3757723936
gDn:_GUIUtility_RemoveCapture_m1294193818
uSb:__ZN7ApiGLES18ClearBufferSubDataEjN2gl12BufferTargetEll
Lvc:__Z37Camera_Get_Custom_PropAllCamerasCountv
NSa:__ZN14Texture2DArray8TransferI18StreamedBinaryReadILb0EEEEvRT_
ZWm:_List_1_CopyTo_m2746988508_gshared
xie:__ZN5physx15NpActorTemplateINS_18PxArticulationLinkEED2Ev
nXc:__Z38Register_UnityEngine_GUIStyle_get_namev
XQb:__ZN13GfxDeviceGLES13AfterDrawCallEv
Oyf:_Split_Cubic
pb:invoke_fiiii
qCj:_InputField_OnSubmit_m3583210804
vEg:__ZL64CipherSuiteCollection_t1129639304_CustomAttributesCacheGeneratorP21CustomAttributesCache
sZg:__ZL72GUISkin_t1244372282_CustomAttributesCacheGenerator_m_horizontalScrollbarP21CustomAttributesCache
eQe:__ZN5physx2Sc32DefaultClothInterCollisionFilterEPvS1_
Txn:_Uri_CheckHostName_m2213216182
S$o:_emscripten_glBindRenderbuffer__wrapper
a$k:_Mesh_SetUvsImpl_TisVector2_t2156229523_m3009194955_gshared
J5m:_Collection_1_CopyTo_m819221634_gshared
Fkk:_HMAC_set_Key_m3535779141
Rje:__ZN5physx2Sc16ArticulationCore26setMaxProjectionIterationsEj
KYf:_TMP_InputField_get_asteriskChar_m1201011147
HZd:__ZN26IntersectAnyVsMeshCallbackILi1ELb0EED2Ev
v9h:_InternalEnumerator_1_System_Collections_IEnumerator_Reset_m729791527_AdjustorThunk
lTk:_ArrayListWrapper_Contains_m2641184447
V0j:_WindowsIdentity__ctor_m3086466707
zyf:_ft_black_render
ePi:__Z92RuntimeInvoker_RuntimeObject_Int32_t2950945753_Int16_t2552820387_RuntimeObject_RuntimeObjectPFvvEPK10MethodInfoPvPS4_
jpi:__Z177RuntimeInvoker_Int32_t2950945753_RuntimeObject_Int32_t2950945753_Int32_t2950945753_RuntimeObject_Int32_t2950945753_EncoderFallbackBufferU26_t2343550713_CharU5BU5DU26_t3299466565PFvvEPK10MethodInfoPvPS4_
AXo:dynCall_viiifi
hVb:__ZN18GfxFramebufferGLES20ActiveContextChangedEPP17RenderSurfaceBaseS2_
XQg:__ZL86Logger_t274032455_CustomAttributesCacheGenerator_Logger_LogFormat_m3300686007____args3P21CustomAttributesCache
Cpb:__Z19PluginsRenderMarkeri
wbi:_InternalEnumerator_1__ctor_m2307827786_AdjustorThunk
vK:__ZN10HumanTrait18InitializeBoneNameEv
Mjc:__ZNSt3__26vectorIN9ShaderLab20SerializedSubProgram15StructParameterENS_9allocatorIS3_EEE6assignINS_11__wrap_iterIPS3_EEEENS_9enable_ifIXaasr21__is_forward_iteratorIT_EE5valuesr16is_constructibleIS3_NS_15iterator_traitsISC_E9referenceEEE5valueEvE4typeESC_SC_
lRa:__ZN14Texture2DArray21AwakeFromLoadThreadedEv
xbm:_KeyValuePair_2_ToString_m823870646_gshared
XGb:__Z29Transfer_Blittable_ArrayFieldI18StreamedBinaryReadILb0EEyEvRT_R9ArrayInfoRK23StaticTransferFieldInfo
Ixj:_Touch_get_position_m3109777936_AdjustorThunk
Bxo:__ZNSt3__214__split_bufferIN6il2cpp2vm5Image20EmbeddedResourceDataERNS_9allocatorIS4_EEEC2EjjS7_
bYg:__ZL66SkeletonBone_t4134054672_CustomAttributesCacheGenerator_parentNameP21CustomAttributesCache
Nre:__ZNK5physx7NpCloth25getNbSelfCollisionIndicesEv
ylh:__ZL138U3CAnimateVertexColorsU3Ec__Iterator0_t3792186008_CustomAttributesCacheGenerator_U3CAnimateVertexColorsU3Ec__Iterator0_Dispose_m2282594160P21CustomAttributesCache
Ayh:_CanvasScaler_set_screenMatchMode_m2975492035
FPm:_U3CSortU3Ec__Iterator21_Reset_m1241298888_gshared
LIf:__Z69Register_UnityEngine_Analytics_UnityAnalyticsHandler_Internal_Destroyv
n9f:_EnemyBossScript_Update_m512555062
Ydk:_X509Certificate2Collection_Add_m3151757943
Vng:__ZL83RuntimeArray_CustomAttributesCacheGenerator_RuntimeArray____LongLength_PropertyInfoP21CustomAttributesCache
n_g:__ZL100GUIUtility_t1868551600_CustomAttributesCacheGenerator_GUIUtility_Internal_GetDefaultSkin_m2977444868P21CustomAttributesCache
wkf:__ZN9Scripting11UnityEngine13CharacterInfo9InitProxyEv
jyd:__ZNSt3__227__insertion_sort_incompleteIR15DepthComparitorP8DepthHitEEbT0_S5_T_
c5k:_DateTime_AddMilliseconds_m3713972790
eVk:_CaseInsensitiveHashCodeProvider_get_DefaultInvariant_m4264275163
b8e:__ZNK5physx2Gu10ConvexMesh17getReferenceCountEv
JCg:__ZL67IndexOutOfRangeException_t1578797820_CustomAttributesCacheGeneratorP21CustomAttributesCache
Bpi:__Z195RuntimeInvoker_Int32_t2950945753_RuntimeObject_Int32_t2950945753_Int32_t2950945753_Int32_t2950945753_RuntimeObject_DecoderFallbackBufferU26_t3866396827_ByteU5BU5DU26_t4057885439_SByte_t1669577662PFvvEPK10MethodInfoPvPS4_
bIe:__ZN5physx2Sc5Scene22setNbContactDataBlocksEj
vPn:__ZL25UnresolvedVirtualCall_147P12Il2CppObject16Rect_t2360479859aPK10MethodInfo
aZ:__ZN5physx14PxLightCpuTask12addReferenceEv
DFa:__ZNK15InstancingProps35FillInstanceBufferDispatchConstantsIN10Instancing14RenderLoopArgsEEEvPPvjjRK19ShaderPropertySheetRKT_
RHi:__Z86RuntimeInvoker_Int32_t2950945753_Color32_t2600501292_Color32_t2600501292_RuntimeObjectPFvvEPK10MethodInfoPvPS4_
oZa:__ZN21EnlightenSceneMapping8TransferI19StreamedBinaryWriteILb0EEEEvRT_
Vzo:__ZN6il2cpp2gc16GarbageCollector19InitializeFinalizerEv
GC:__ZN7mecanim8skeleton18CreateSkeletonMaskEjPKNS0_19SkeletonMaskElementERNS_6memory9AllocatorE
zKm:_ReadOnlyCollection_1_System_Collections_Generic_ICollectionU3CTU3E_get_IsReadOnly_m2508509261_gshared
ZXc:__ZN10GUIManager10DoGUIEventER10InputEventb
Myb:__Z35Transfer_Blittable_FixedBufferFieldI24GenerateTypeTreeTransferxEvRK29SerializationCommandArgumentsR31RuntimeSerializationCommandInfo
Osf:_otv_LangSys_validate
tuj:_RectOffset_get_right_m2294081512
KVi:_MonoType_getFullName_m837685882
l1f:_TMP_Settings_GetSettings_m2819480199
HIh:__ZN25GenericVirtActionInvoker1IP20Delegate_t1188392813E6InvokeEPK10MethodInfoP12Il2CppObjectS1_
hgm:_Array_InternalArray__set_Item_TisLink_t544317964_m1234244240_gshared
qxf:_UNITY_TT_Init_Glyph_Loading
pCm:_ReadOnlyCollection_1_System_Collections_Generic_ICollectionU3CTU3E_Clear_m1624648842_gshared
zKc:__Z20CalculateSqrDistanceRK8Vector3fRK4AABB
ZBh:_OptionData_get_text_m2997376818
hsl:_Enumerator__ctor_m324536319_gshared
Jdf:__ZN14PhysicsManager15ProcessContactsEv
q$k:_Array_InternalArray__get_Item_TisProgressHandler_t926933139_m2560246503_gshared
u8i:_SerializationInfo_GetBoolean_m1756153320
ISd:__ZN21BoxTraceSegmentReport7onEventEjPj
Kee:__ZN5physx2Sc21ArticulationJointCore13setSwingLimitEff
QR:__Z32AudioMixerDuckingProcessCallbackP21UnityAudioEffectStatePfS1_jii
HXd:__ZL20HullProjectionCB_BoxRKN5physx2Gu13PolygonalDataERKNS_6PxVec3ERKNS_2Cm8Matrix34ERKNS7_23FastVertex2ShapeScalingERfSE_
boj:_Mesh_get_uv2_m3615020997
TDm:_ReadOnlyCollection_1_Contains_m2979956790_gshared
_Je:__ZN5physx17PxcNpMemBlockPool19releaseUnusedBlocksEv
O6l:_EqualityComparer_1_System_Collections_IEqualityComparer_Equals_m4172006498_gshared
DWe:__ZN5physx14PxsAABBManager21selfCollideAggregatesEPKNS_19AggregateSortedDataE
RN:__ZN12AudioManager8TransferI24GenerateTypeTreeTransferEEvRT_
Qhm:_Array_qsort_TisOrderBlock_t1585977831_m3322202512_gshared
Wmj:_Mathf_Round_m4098141538
jkd:__ZN16CustomDataModuleD0Ev
qBc:__ZZL31RegisterRectTransformPropertiesR22GenericPropertyBindingEN28Wrapper_RectTransformPivotx013GetFloatValueEPv
p0a:__ZN9Texture3D19UnloadFromGfxDeviceEb
Aso:__ZN6il2cpp6icalls8mscorlib6System9Threading6Thread20Thread_free_internalEP12Il2CppThreadi
oZl:_List_1_AddRange_m2456636986_gshared
fNb:__ZNK11PreloadData18GetInstanceIDArrayER13dynamic_arrayIiLj0EE
Ptn:_PatternCompiler_EmitRepeat_m697083858
Vwb:__Z18Transfer_BlittableI17RemapPPtrTransferLb0EsEvRK29SerializationCommandArgumentsR31RuntimeSerializationCommandInfo
B1g:__ZL64UnityAnalyticsHandler_t3011359618_CustomAttributesCacheGeneratorP21CustomAttributesCache
L8j:__KeysEnumerator_get_Current_m2996478063
s$f:_TMP_LinkInfo_GetLinkText_m1788600626
RVo:dynCall_iifff
aKd:__ZN19ControllerHitReportD2Ev
yaa:__Z32scripting_class_get_assemblyname17ScriptingClassPtr
Ixd:__ZN9b2Simplex9ReadCacheEPK14b2SimplexCachePK15b2DistanceProxyRK11b2TransformS5_S8_
M9g:__ZL109LayoutUtility_t2745813735_CustomAttributesCacheGenerator_LayoutUtility_U3CGetFlexibleWidthU3Em__3_m1091238571P21CustomAttributesCache
Oyl:__ZN21InterfaceFuncInvoker2IxxP12Il2CppObjectE6InvokeEjP11Il2CppClassS1_xS1_
FAi:__Z99RuntimeInvoker_Boolean_t97287965_Int32_t2950945753_PointerEventDataU26_t867828220_SByte_t1669577662PFvvEPK10MethodInfoPvPS4_
VJd:__Z50Register_UnityEngine_Rigidbody2D_AddForce_Injectedv
RSe:__ZN5physx26PxcFrictionPatchStreamPairC2ERNS_17PxcNpMemBlockPoolE
I0h:_InternalEnumerator_1_get_Current_m2128158355_AdjustorThunk
Ymb:__ZN9GfxDevice21RegisterNativeTextureE9TextureIDi16TextureDimension
PDh:_GraphicRegistry__ctor_m1851575309
oKi:__Z52RuntimeInvoker_Void_t1185182177_Keyframe_t4206410242PFvvEPK10MethodInfoPvPS4_
Zzf:__Z13RegisterClassIN20TextRenderingPrivate8TextMeshEEvPKc
rMo:__ZN6il2cpp6icalls8mscorlib6System10Reflection4Emit11TypeBuilder20create_generic_classEP27Il2CppReflectionTypeBuilder
sVb:__ZNK16UniformCacheGLES6SubmitEjRK13dynamic_arrayIN20GpuProgramParameters14ValueParameterELj0EERKS0_IiLj0EE
_Qj:_PlayableHandle_IsPlayableOfType_TisAnimationLayerMixerPlayable_t3631223897_m201603007_gshared
Gzg:__ZL50Monitor_t2197244473_CustomAttributesCacheGeneratorP21CustomAttributesCache
Kdo:__ZNSt3__26vectorIPK10MethodInfoNS_9allocatorIS3_EEE26__swap_out_circular_bufferERNS_14__split_bufferIS3_RS5_EE
_jh:__ZL112U3CWarpTextU3Ec__Iterator0_t116130919_CustomAttributesCacheGenerator_U3CWarpTextU3Ec__Iterator0__ctor_m204851405P21CustomAttributesCache
Gbg:_Scoreboard_get_Score_m459727822
Ljk:_PrimalityTest_EndInvoke_m1035389364
vW:__Z60Register_UnityEngine_AudioListener_GetNumExtensionPropertiesv
Lj:_emscripten_glUniformMatrix4fv
Cqo:__ZN15dense_hashtableINSt3__24pairIK10KeyWrapperINS1_IP11Il2CppClassjEEES4_EES6_N6il2cpp8metadata14ArrayClassHashEN14dense_hash_mapIS6_S4_SB_NS6_14EqualsComparerINSA_17ArrayClassCompareEEENS0_9allocatorIS8_EEE9SelectKeyESF_SH_E13set_empty_keyERKS8_
Edb:__ZN12ScriptMapperD2Ev
rcg:_LaserBeamCollision_OnCollisionEnter2D_m3419821879
ACl:_Enumerator_Dispose_m3040896940_AdjustorThunk
$Nd:__ZN9Rigidbody13AwakeFromLoadE17AwakeFromLoadMode
foj:_Mesh_get_colors32_m1253190811
R5c:__ZN9SubModule8TransferI14SafeBinaryReadEEvRT_
DIo:_GC_stopped_mark
ATf:__ZL59__ManagedRegistrationHelperFunction_SubsystemDescriptorBasePv
Hdj:_AnimationCurve_Finalize_m2397002729
s5c:__ZN14ParticleSystem15AddCustomLightsERK27LocalLightCullingParametersRK11CullResultsR12ActiveLightsRi9LightType
rke:__ZNK5physx14NpSceneQueries10multiQueryINS_12PxOverlapHitEEEbRKNS_15MultiQueryInputERNS_13PxHitCallbackIT_EENS_7PxFlagsINS_9PxHitFlag4EnumEtEEPKNS_12PxQueryCacheERKNS_17PxQueryFilterDataEPNS_21PxQueryFilterCallbackEPNS_20BatchQueryFilterDataE
KRi:__Z50RuntimeInvoker_RuntimeObject_ColorTween_t809614380PFvvEPK10MethodInfoPvPS4_
cbi:_InternalEnumerator_1__ctor_m945079686_AdjustorThunk
$7i:_SerializationCallbacks__cctor_m1674315180
cTn:__ZL25UnresolvedVirtualCall_344P12Il2CppObjectiPK10MethodInfo
Nkc:__Z32TransferEnumWithNameForceIntSizeI14SafeBinaryRead7FogModeEvRT_RT0_PKc17TransferMetaFlags
j9n:__ZNK15dense_hashtableI10KeyWrapperIPK19Il2CppGenericMethodES4_N6il2cpp8metadata23Il2CppGenericMethodHashEN14dense_hash_setIS4_S7_NS4_14EqualsComparerINS6_26Il2CppGenericMethodCompareEEENSt3__29allocatorIS4_EEE8IdentityESB_SE_E23find_position_with_hashERKS4_j
zCa:__ZNSt3__26vectorIN12FlareManager10FlareEntryENS_9allocatorIS2_EEE21__push_back_slow_pathIS2_EEvOT_
Amc:__ZN9ShaderLab20SerializedSubProgram16TextureParameter8TransferI19StreamedBinaryWriteILb0EEEEvRT_
Lb:invoke_fiiiiiiiifiiiif
imd:__ZN14ParticleSystem23RendererBecameInvisibleEv
Pva:__ZNK7Hash12812PackToUInt32Ev
Utl:_KeyCollection__ctor_m1035147995_gshared
hAg:__ZL77AppDomain_t1571427825_CustomAttributesCacheGenerator_type_resolve_in_progressP21CustomAttributesCache
sAf:__ZZN20TextRenderingPrivate8TextMesh15InitializeClassEvEN31FunctorImpl_299kDidAddComponent4CallEPviR11MessageData
qca:__ZNSt3__227__insertion_sort_incompleteIRNS_6__lessI14ObjectLoadDataS2_EEPS2_EEbT0_S6_T_
L1:__ZN11UnityEngine15CloudWebService16SessionContainer8AddEventEPNS0_14CloudEventInfoE
brb:__Z4TrimRKN4core12basic_stringIcNS_20StringStorageDefaultIcEEEES5_
$Hm:_ReadOnlyCollection_1_CopyTo_m209634623_gshared
abk:_SPKey_Equals_m4205549017
a_k:_Dictionary_2_Do_ICollectionCopyTo_TisKeyValuePair_2_t3842366416_m1399105608_gshared
t2g:__ZL77ExecuteEvents_t3484638744_CustomAttributesCacheGenerator_U3CU3Ef__mgU24cache2P21CustomAttributesCache
idk:_X509Certificate2_Import_m4026562329
vsl:_Enumerator_System_Collections_IEnumerator_get_Current_m2763095718_AdjustorThunk
i1o:_glGetStringi__wrapper
c4l:_DefaultComparer_Equals_m4141672650_gshared
YZa:__ZN10VertexData8TransferI14SafeBinaryReadEEvRT_
Rde:__ZN5physx19NpArticulationJointD0Ev
nia:__ZN13RuntimeStaticI12AdsIdHandlerLb0EE16StaticInitializeEPv
rKo:_GC_malloc_atomic
Rff:__ZN5physx9NpPhysics14createInstanceEjRNS_12PxFoundationERKNS_17PxTolerancesScaleEbPNS_20PxProfileZoneManagerE
hef:__Z59Register_UnityEngine_Physics_INTERNAL_CALL_Internal_Raycastv
ebm:_HashSet_1_GetEnumerator_m3346268098_gshared
eNo:__ZN6il2cpp5utils6Memory13AlignedMallocEjj
DGe:__ZNK5physx7NpScene17getFilterCallbackEv
Vrj:_PropertyName_GetHashCode_m3570549176_AdjustorThunk
GNg:__ZL55PropertyName_t3749835189_CustomAttributesCacheGeneratorP21CustomAttributesCache
CYl:_List_1_Insert_m3678598124_gshared
wCj:_Selectable_get_animator_m2899312855
B8:__ZL20SortItemByInstanceIDRKN18AwakeFromLoadQueue4ItemES2_
QKn:_Vector2_op_Multiply_m2347887432
ugf:__ZN5physx6shdfnd5ArrayIPvNS0_15InlineAllocatorILj256ENS0_19ReflectionAllocatorINS_24NpPtrTableStorageManager8PtrBlockILi16EEEEEEEE15growAndPushBackERKS2_
dDh:_FontData_get_maxSize_m195374730
b9j:_TypeConverterAttribute__ctor_m1774069684
RC:__ZNK34AnimationStateMachineMixerPlayable26GetInterruptedPosePlayableEv
nNf:__ZN20UnityConnectSettings8TransferI24GenerateTypeTreeTransferEEvRT_
U6c:__ZN25IParticleSystemProperties8PropertyIfNS_11ClampRadiusEE8TransferI14SafeBinaryReadEEvRT_PKc
xF:__ZN34BlobWriteTransferSTLStyleArrayImplI22OffsetPtrArrayTransferIbEEclERS1_17TransferMetaFlagsR9BlobWrite
RDc:__ZZN12MeshRenderer15InitializeClassEvEN29FunctorImpl_205kDidDeleteMesh4CallEPviR11MessageData
gKk:_Byte_ToString_m4063101981
jVi:_MonoType_GetConstructors_m2574682189
Rqh:_TextMeshProUGUI_UpdateVertexData_m3399849512
Nao:__ZN6il2cpp2vm13MetadataCache31GetParameterDefinitionFromIndexEi
wAd:__ZN25b2SynchronizeFixturesTask7TaskJobEPS_j
Xvj:_SceneManager_LoadSceneAsyncNameIndexInternal_m4031498323
Joe:__ZN5physx7NpShape13setRestOffsetEf
jSf:__Z69Register_UnityEngine_Networking_UnityWebRequest_GetResponseHeaderKeysv
Exe:__ZN5physx3Scb14ParticleSystemC2ERKNS_11PxActorType4EnumEjb
MEo:__ZNK15dense_hashtableINSt3__24pairIK10KeyWrapperIPK19Il2CppGenericMethodEP10MethodInfoEES6_N6il2cpp8metadata23Il2CppGenericMethodHashEN14dense_hash_mapIS6_S9_SD_NS6_14EqualsComparerINSC_26Il2CppGenericMethodCompareEEENS0_9allocatorISA_EEE9SelectKeyESH_SJ_E10test_emptyERK30dense_hashtable_const_iteratorISA_S6_SD_SL_SH_SJ_E
Vug:__ZL59SinkProviderData_t4151372974_CustomAttributesCacheGeneratorP21CustomAttributesCache
T9j:_ServicePointManager_FindServicePoint_m4119451290
Cci:__ZN21InterfaceFuncInvoker1Ii22OrderBlock_t1585977831E6InvokeEjP11Il2CppClassP12Il2CppObjectS0_
BGm:_ReadOnlyCollection_1_System_Collections_IList_Clear_m2007013334_gshared
yfa:__ZL31InitializeRendererUpdateManagerPv
fDl:_ValueCollection_System_Collections_Generic_ICollectionU3CTValueU3E_Contains_m2223915698_gshared
pMh:_ParameterInfo__ctor_m2779026345
Tbh:__ZL152U3CDelayedDestroyDropdownListU3Ec__Iterator0_t3534484392_CustomAttributesCacheGenerator_U3CDelayedDestroyDropdownListU3Ec__Iterator0_Dispose_m3930818132P21CustomAttributesCache
xoa:__ZN9Scripting11UnityEngine18WaitForFixedUpdate12CleanupProxyEv
_Nm:_Func_1_EndInvoke_m3591709415_gshared
uxl:_Transform_1__ctor_m4030819017_gshared
nDh:_FontData_get_verticalOverflow_m4132840071
jpe:__ZN5physxL11getTriangleERKNS_2Gu12TriangleMeshEjPNS_6PxVec3EPKS4_PKvRKNS_2Cm8Matrix34Eb
Qna:__ZL46__ManagedRegistrationHelperFunction_RectOffsetPv
bXi:_NumberFormatter_get_IsZeroInteger_m2263284741
XW:__ZN13AudioListener12CleanupClassEv
yMd:__ZN14SafeBinaryRead21TransferSTLStyleArrayINSt3__26vectorIjNS1_9allocatorIjEEEEEEvRT_17TransferMetaFlags
sNn:__ZL24UnresolvedVirtualCall_36P12Il2CppObjectS0_PK10MethodInfo
Yea:__Z13GetIEnlightenv
oqe:__ZNK5physx7NpCloth16lockParticleDataEv
Gwk:_DateTimeFormatInfo_get_LongTimePattern_m1595254249
sbn:_X509Certificate_PEM_m2020851166
O9i:_SByte_Equals_m865896384_AdjustorThunk
$jl:_BigInteger_op_GreaterThanOrEqual_m700865613
Jem:_Array_InternalArray__Insert_TisDateTime_t3738529785_m2308632330_gshared
Q5a:__ZN11TimeManager8TransferI19StreamedBinaryWriteILb0EEEEvRT_
urk:_TlsServerCertificateRequest_ProcessAsTls1_m3214041063
itf:_compare_uni_maps
vlh:__ZL136U3CAnimateVertexColorsU3Ec__Iterator0_t3792186008_CustomAttributesCacheGenerator_U3CAnimateVertexColorsU3Ec__Iterator0__ctor_m1592559737P21CustomAttributesCache
Rwi:__Z72RuntimeInvoker_Boolean_t97287965_Vector2_t2156229523_Vector2_t2156229523PFvvEPK10MethodInfoPvPS4_
v6m:_Collection_1_Insert_m3559276190_gshared
pLf:__ZN11UnityEngine15PlatformWrapper27GetGraphicsCapsSupportFlagsEv
PCf:__ZNSt3__218__insertion_sort_3IRPFbPN2UI6CanvasES3_EPS3_EEvT0_S8_T_
b_k:_Dictionary_2_Do_ICollectionCopyTo_TisRuntimeObject_m3695543300_gshared
OYl:_List_1_get_Count_m4125879936_gshared
OLe:__ZN5physx13NpRigidStatic9visualizeERNS_2Cm12RenderOutputEPNS_7NpSceneE
sCb:__ZN12NativeBufferI16Converter_StringE15SetupForWritingER9ArrayInfo
fkl:_SequentialSearchPrimeGeneratorBase_GenerateSearchBase_m3595783982
LL:__ZN13RuntimeStaticI18AssetBundleManagerLb1EE16StaticInitializeEPv
L2o:___cxa_end_catch__wrapper
jui:__Z121RuntimeInvoker_Int32_t2950945753_RuntimeObject_Int32U26_t1369213839_Int32_t2950945753_Int32_t2950945753_Int32_t2950945753PFvvEPK10MethodInfoPvPS4_
wmh:_FloatTween_get_duration_m3518359855_AdjustorThunk
dk:_emscripten_glVertexAttrib3fv
rnd:__ZL24GenerateParticleGeometryIL24ParticleSystemRenderMode0ELb1ELb0EL25ParticleSystemRenderSpace4EEvPfRK22ParticleSystemTempDataRK26ParticleSystemRendererDataRK21ParticleSystemModulesRK23ParticleSystemParticlesRK31ParticleSystemParticlesTempData
Lye:__ZNK5physx22NpParticleBaseTemplateINS_16PxParticleSystemENS_16NpParticleSystemEE13getRestOffsetEv
jOe:__ZN5physx6shdfnd8PoolBaseINS_2Sc35ParticleElementRbElementInteractionENS0_19ReflectionAllocatorIS3_EEE15disposeElementsEv
$Yj:_SHA1CryptoServiceProvider_Dispose_m1653611664
bSk:_Char_ToString_m278452217
rnk:_CipherSuite_get_DecryptionCipher_m2839827488
gal:_DateTime_System_IConvertible_ToUInt16_m4182197229_AdjustorThunk
d5b:__ZNK4PPtrI5LightEcvPS0_Ev
DTf:__ZL50__ManagedRegistrationHelperFunction_ReferencePointPv
Vkn:_InvokableCall_3_remove_Delegate_m104823962_gshared
njk:_BigInteger_op_RightShift_m460065452
fKb:__ZN13MonoBehaviour22DoScriptRebuildWarningEv
FOj:_Array_InternalArray__ICollection_Contains_TisTMP_MeshInfo_t2771747634_m644520357_gshared
aJc:__ZNK10GameObject22GetComponentPtrAtIndexEi
LEc:__ZZL23RegisterLightPropertiesR22GenericPropertyBindingEN22Wrapper_LightSpotAngle13GetFloatValueEPv
LGj:_RectMask2D_get_rootCanvasRect_m2913509457
uuh:_ExecuteEvents_get_cancelHandler_m1220395193
FWl:_List_1_Insert_m3987412300_gshared
Bzf:__Z38TextGenerator_Get_Custom_PropLineCountP12Il2CppObject
NSd:__ZN5physx2Gu26EPASupportMapPairLocalImplINS0_9TriangleVENS0_4BoxVEED0Ev
Dan:_InternalAsyncResult_SetComplete_m963842420
c5j:_Encoding_GetEncoding_m2801244948
xYc:__ZN11IMGUIModule25GetGUIStyleScriptingClassEv
Ivf:_tt_get_interface
Han:_SslStreamBase_EndRead_m495357226
C1n:_NativeThrowsAttribute_set_ThrowsException_m4039166389
lso:__ZN6il2cpp5utils9PathUtils7CombineIcEENSt3__212basic_stringIT_NS3_11char_traitsIS5_EENS3_9allocatorIS5_EEEERKSA_SC_
NWe:__ZN5physx14PxsAABBManager16processBPResultsERKNS_20PxsComputeAABBParamsE
Uul:_KeyCollection_GetEnumerator_m982770428_gshared
UUe:__ZN5physx23PxsBroadPhaseContextSapD2Ev
ivm:_Collection_1_System_Collections_IList_get_IsFixedSize_m214626114_gshared
Uri:__Z64RuntimeInvoker_RuntimeObject_SByte_t1669577662_SByte_t1669577662PFvvEPK10MethodInfoPvPS4_
Lno:_il2cpp_set_config_dir
WJc:__ZN13PlayableGraph21InvalidateMultithreadEv
ICn:_GUIScrollGroup_CalcHeight_m3173593443
xcf:__ZN5physx12SubSortQuickC2EPjPKNS_10PxBounds3VEjf
lzg:__ZL86UTF7Encoding_t2644108479_CustomAttributesCacheGenerator_UTF7Encoding_Equals_m227704363P21CustomAttributesCache
gyg:__ZL59ApplicationTrust_t3270368423_CustomAttributesCacheGeneratorP21CustomAttributesCache
z0i:_EnumBuilder_GetConstructorImpl_m3068576149
B7:__Z18ConvertUTF16toUTF8PPKtS0_PPhS2_15ConversionFlags
lEo:__ZN6il2cpp2os20PathErrnoToErrorCodeERKNSt3__212basic_stringIcNS1_11char_traitsIcEENS1_9allocatorIcEEEEi
f6g:__ZL68InputField_t3762917431_CustomAttributesCacheGenerator_m_KeyboardTypeP21CustomAttributesCache
i_j:_SymmetricAlgorithm_System_IDisposable_Dispose_m3402297829
DNc:__Z24GetActualTargetFrameRatev
d$n:__ZL16my_g_bit_nth_msfj
b_j:_SHA512Managed_Sigma1_m922902398
OGg:__ZL129GenerateManagedProxyAttribute_t2394178854_CustomAttributesCacheGenerator_GenerateManagedProxyAttribute_set_NativeType_m3203265247P21CustomAttributesCache
Rqo:__ZN15dense_hashtableINSt3__24pairIK10KeyWrapperIP11Il2CppClassES4_EES5_N6il2cpp8metadata16SZArrayClassHashEN14dense_hash_mapIS5_S4_SA_NS5_14EqualsComparerINS9_19SZArrayClassCompareEEENS0_9allocatorIS7_EEE9SelectKeyESE_SG_E12expand_arrayEjN21dense_hash_map_traits17integral_constantIbLb0EEE
Rfj:__ZN30GenericInterfaceActionInvoker1IP18Camera_t4157153871E6InvokeEPK10MethodInfoP12Il2CppObjectS1_
z4l:_DefaultComparer_GetHashCode_m3369508712_gshared
zZm:_Enumerator_MoveNext_m3662315381_AdjustorThunk
crk:_TlsClientFinished_ProcessAsTls1_m2429863130
zPh:_ActivatedClientTypeEntry_get_ApplicationUrl_m2894992111
LWh:_Action_2_BeginInvoke_m3374412194_gshared
n1b:__Z23SetupStereoFlareElementP11FlareVertexRK8Vector2fS3_S3_RK11ColorRGBA32RK10Matrix4x4fRK8Vector3fb
sOj:_Array_InternalArray__ICollection_Contains_TisUInt16_t2177724958_m3393176156_gshared
hNn:__ZL24UnresolvedVirtualCall_25P12Il2CppObjectS0_S0_PK10MethodInfo
T3n:__ZN6il2cpp2vm5Class15GetInstanceSizeEPK11Il2CppClass
qum:_ValueType__ctor_m2036258423
gWf:_TMP_Dropdown_SetAlpha_m201864524
ab:invoke_iiiifiiii
wpl:_Enumerator_System_Collections_IDictionaryEnumerator_get_Key_m2502357460_AdjustorThunk
aeh:__ZL68TMP_StyleSheet_t917564226_CustomAttributesCacheGenerator_m_StyleListP21CustomAttributesCache
IFg:__ZL63ExpressionCollection_t1810289389_CustomAttributesCacheGeneratorP21CustomAttributesCache
q5f:_TMP_Text_set_enableCulling_m1094505026
Bqd:__ZN11ShapeModule13DidDeleteMeshEv
Ose:__ZNK5physx2Sc9ClothCore16getRestPositionsEPNS_6PxVec4E
wvm:__ZN23InterfaceActionInvoker2Ii20UICharInfo_t75501106E6InvokeEjP11Il2CppClassP12Il2CppObjectiS0_
ARe:__ZN5physx20PxcSweepConvexConvexERKNS_11PxsCCDShapeES2_PKNS_12PxsRigidBodyES5_RKNS_11PxTransformES8_S8_S8_fRNS_6PxVec3ESA_RNS_10PxcNpCacheERNS_18PxcNpThreadContextEf
R4j:_String_Join_m2050845953
Vve:__ZN5physx15PxsParticleDataD0Ev
MVb:__ZL19BlitFramebufferImplRN4gles23BlitFramebufferDrawQuadER9GfxDevice9TextureIDRK8Vector4f
xwb:__Z18Transfer_BlittableI17RemapPPtrTransferLb0EhEvRK29SerializationCommandArgumentsR31RuntimeSerializationCommandInfo
qaf:__ZN5physx6shdfnd5ArrayIPvNS0_19ReflectionAllocatorIN17PxcPoolMallocData9PoolData8EEEE15growAndPushBackERKS2_
Chm:_Array_qsort_TisChar_t3634460470_m1841999294_gshared
PVo:dynCall_viiiiiiiiiiiiii
i3f:_TMP_SubMeshUI_get_fallbackMaterial_m2439886572
Vmf:_UNITY_FT_List_Add
IFc:__ZN14Texture2DArray11InitTextureEiii13TextureFormatb
jdi:_Comparer_1_System_Collections_IComparer_Compare_m562585159_gshared
_yg:__ZL104Encoding_t1523322056_CustomAttributesCacheGenerator_Encoding_t1523322056____DecoderFallback_PropertyInfoP21CustomAttributesCache
ukn:_InvokableCall_1_Invoke_m1524307439_gshared
kNd:__ZN5physx15PxGeometryQuery14getWorldBoundsERKNS_10PxGeometryERKNS_11PxTransformEf
fTa:__ZN12CubemapArray21AwakeFromLoadThreadedEv
bue:__ZN5physx2Sc9ClothCore18setSolverFrequencyEf
GDk:_Directory_CreateDirectoriesInternal_m3735342319
MUl:_List_1_RemoveAll_m517055598_gshared
uRc:__Z41Camera_CUSTOM_WorldToScreenPoint_InjectedP12Il2CppObjectRK8Vector3fRS1_
sPl:_List_1_System_Collections_ICollection_get_IsSynchronized_m3127965196_gshared
qef:__ZN8ColliderC2E10MemLabelId18ObjectCreationMode
Glo:__ZN15dense_hashtableINSt3__24pairIK10KeyWrapperINS1_IPK11Il2CppImageP11Il2CppClassEEEjEES9_17ReflectionMapHashIS8_EN14dense_hash_mapIS9_jSD_NS9_14EqualsComparerINS0_8equal_toIS8_EEEENS0_9allocatorISB_EEE9SelectKeyESI_SK_E14squash_deletedEv
g_j:_SHAConstants__cctor_m1699027474
k6a:__ZN9InputAxis8TransferI18StreamedBinaryReadILb0EEEEvRT_
FAd:__ZN39b2PrepareDiscreteIslandContactIndexTask7TaskJobEPS_j
O8e:__ZN5physx2Gu11HeightField8requiresERNS_23PxProcessPxBaseCallbackE
SUl:_List_1_TrimExcess_m4121641494_gshared
ZAg:__ZL78Convert_t2465617642_CustomAttributesCacheGenerator_Convert_ToInt16_m1733792763P21CustomAttributesCache
tcn:_BasicConstraintsExtension__ctor_m3191645544
DXd:__ZN5physx2Gu16buildPartialHullERKNS0_13PolygonalDataEPNS0_12SupportLocalERNS0_14SeparatingAxesERKNS_6shdfnd3aos5Vec3VESC_
H8a:__Z14resize_trimmedINSt3__26vectorIN4core12basic_stringIcNS2_20StringStorageDefaultIcEEEE13stl_allocatorIS6_L18MemLabelIdentifier13ELi16EEEEEvRT_j
e2:__GLOBAL__sub_I_Runtime_2D_SpriteAtlas_0_cpp
Btb:__Z18Transfer_BlittableI14SafeBinaryReadLb0EaEvRK29SerializationCommandArgumentsR31RuntimeSerializationCommandInfo
fSk:_CharEnumerator_System_Collections_IEnumerator_get_Current_m1328529384
iPn:__ZL25UnresolvedVirtualCall_134P12Il2CppObjectiPK10MethodInfo
Lbl:_DBNull__ctor_m3431698857
GFl:_Dictionary_2_CopyToCheck_m2443857744_gshared
ted:__ZN11NoiseModule17CalculateNoiseJobILi3ELb1ELb1EEEvP12NoiseJobData
zDi:__Z37RuntimeInvoker_FontStyles_t3828945032PFvvEPK10MethodInfoPvPS4_
NXa:__ZN4core8hash_setINS_4pairIKiiLb0EEENS_9hash_pairINS_4hashIiEES2_iEENS_10equal_pairINSt3__28equal_toIiEES2_iEEE6insertERKS3_
